 mp

 Timestamp is 59fd4d3c (Sat Nov  4 13:16:44 2017)

 Preferred load address is 10000000

 Start         Length     Name                   Class
 0001:00000000 00000070H .text$di                CODE
 0001:00000070 00092900H .text$mn                CODE
 0001:00092970 00000140H .text$x                 CODE
 0001:00092ab0 0000003bH .text$yd                CODE
 0002:00000000 00000118H .idata$5                DATA
 0002:00000118 00000004H .00cfg                  DATA
 0002:0000011c 00000004H .CRT$XCA                DATA
 0002:00000120 00000010H .CRT$XCU                DATA
 0002:00000130 00000004H .CRT$XCZ                DATA
 0002:00000134 00000004H .CRT$XIA                DATA
 0002:00000138 0000000cH .CRT$XIC                DATA
 0002:00000144 00000004H .CRT$XIZ                DATA
 0002:00000148 00000004H .CRT$XPA                DATA
 0002:0000014c 00000008H .CRT$XPX                DATA
 0002:00000154 00000004H .CRT$XPXA               DATA
 0002:00000158 00000004H .CRT$XPZ                DATA
 0002:0000015c 00000004H .CRT$XTA                DATA
 0002:00000160 00000010H .CRT$XTZ                DATA
 0002:00000164 00000000H .gfids$x                DATA
 0002:00000164 00000000H .gfids$y                DATA
 0002:00000170 00025d20H .rdata                  DATA
 0002:00025e90 00004520H .rdata$r                DATA
 0002:0002a3b0 0000003cH .rdata$sxdata           DATA
 0002:0002a3ec 00000334H .rdata$zzzdbg           DATA
 0002:0002a720 00000004H .rtc$IAA                DATA
 0002:0002a724 00000004H .rtc$IZZ                DATA
 0002:0002a728 00000004H .rtc$TAA                DATA
 0002:0002a72c 00000004H .rtc$TZZ                DATA
 0002:0002a730 00000700H .xdata$x                DATA
 0002:0002ae30 0000304cH .edata                  DATA
 0002:0002de7c 00000014H .idata$2                DATA
 0002:0002de90 00000014H .idata$3                DATA
 0002:0002dea4 00000118H .idata$4                DATA
 0002:0002dfbc 00000514H .idata$6                DATA
 0003:00000000 00005e40H .data                   DATA
 0003:00005e40 00001700H .data$r                 DATA
 0003:00007540 00044910H .bss                    DATA
 0004:00000000 00000060H .rsrc$01                DATA
 0004:00000060 00000180H .rsrc$02                DATA

  Address         Publics by Value              Rva+Base       Lib:Object

 0000:00000000       ___hybrid_auxiliary_iat    00000000     <absolute>
 0000:00000000       ___guard_iat_table         00000000     <absolute>
 0000:00000000       ___guard_longjmp_table     00000000     <absolute>
 0000:00000000       ___hybrid_code_map         00000000     <absolute>
 0000:00000000       ___guard_fids_table        00000000     <absolute>
 0000:00000000       ___guard_longjmp_count     00000000     <absolute>
 0000:00000000       ___hybrid_code_map_count   00000000     <absolute>
 0000:00000000       ___guard_iat_count         00000000     <absolute>
 0000:00000000       ___enclave_config          00000000     <absolute>
 0000:00000000       ___dynamic_value_reloc_table 00000000     <absolute>
 0000:00000000       __except_list              00000000     <absolute>
 0000:00000000       ___guard_fids_count        00000000     <absolute>
 0000:0000000f       ___safe_se_handler_count   0000000f     <absolute>
 0000:00000100       ___guard_flags             00000100     <absolute>
 0000:00000000       ___ImageBase               10000000     <linker-defined>
 0001:00000070       ??0CVoiceGameMgr@@QAE@XZ   10001070 f   voice_gamemgr.obj
 0001:00000090       ??1CVoiceGameMgr@@UAE@XZ   10001090 f   voice_gamemgr.obj
 0001:000000a0       ??4CBitVecAccessor@@QAEXH@Z 100010a0 f i voice_gamemgr.obj
 0001:000000f0       ??_GCVoiceGameMgr@@UAEPAXI@Z 100010f0 f i voice_gamemgr.obj
 0001:000000f0       ??_ECVoiceGameMgr@@UAEPAXI@Z 100010f0 f i voice_gamemgr.obj
 0001:00000120       ?ClientCommand@CVoiceGameMgr@@QAE_NPAVCBasePlayer@@PBD@Z 10001120 f   voice_gamemgr.obj
 0001:000002c0       ?ClientConnected@CVoiceGameMgr@@QAEXPAUedict_s@@@Z 100012c0 f   voice_gamemgr.obj
 0001:00000350       ?Init@CVoiceGameMgr@@QAE_NPAVIVoiceGameMgrHelper@@H@Z 10001350 f   voice_gamemgr.obj
 0001:000003e0       ?PlayerHasBlockedPlayer@CVoiceGameMgr@@QAE_NPAVCBasePlayer@@0@Z 100013e0 f   voice_gamemgr.obj
 0001:00000470       ?SUB_CallUseToggle@CBaseEntity@@QAEXXZ 10001470 f i voice_gamemgr.obj
 0001:00000490       ?Update@CVoiceGameMgr@@QAEXN@Z 10001490 f   voice_gamemgr.obj
 0001:000004c0       ?UpdateMasks@CVoiceGameMgr@@AAEXXZ 100014c0 f   voice_gamemgr.obj
 0001:00000760       ___local_stdio_printf_options 10001760 f i voice_gamemgr.obj
 0001:00000770       ___local_stdio_scanf_options 10001770 f i voice_gamemgr.obj
 0001:00000780       _sscanf                    10001780 f i voice_gamemgr.obj
 0001:000007b0       _AngleMatrix               100017b0 f   pm_math.obj
 0001:00000940       _AngleVectors              10001940 f   pm_math.obj
 0001:00000ae0       _CrossProduct              10001ae0 f   pm_math.obj
 0001:00000b40       _Length                    10001b40 f   pm_math.obj
 0001:00000b90       _VectorCompare             10001b90 f   pm_math.obj
 0001:00000bd0       _VectorMA                  10001bd0 f   pm_math.obj
 0001:00000c20       _VectorNormalize           10001c20 f   pm_math.obj
 0001:00000cd0       _VectorScale               10001cd0 f   pm_math.obj
 0001:00000d10       _PM_Accelerate             10001d10 f   pm_shared.obj
 0001:00000dd0       _PM_AddCorrectGravity      10001dd0 f   pm_shared.obj
 0001:00000e70       _PM_AddGravity             10001e70 f   pm_shared.obj
 0001:00000ee0       _PM_AddToTouched           10001ee0 f   pm_shared.obj
 0001:00000fb0       _PM_AirAccelerate          10001fb0 f   pm_shared.obj
 0001:00001070       _PM_AirMove                10002070 f   pm_shared.obj
 0001:000011e0       _PM_CalcRoll               100021e0 f   pm_shared.obj
 0001:00001290       _PM_CatagorizePosition     10002290 f   pm_shared.obj
 0001:000013f0       _PM_CatagorizeTextureType  100023f0 f   pm_shared.obj
 0001:000014e0       _PM_CheckFalling           100024e0 f   pm_shared.obj
 0001:00001610       _PM_CheckParamters         10002610 f   pm_shared.obj
 0001:00001850       _PM_CheckStuck             10002850 f   pm_shared.obj
 0001:00001be0       _PM_CheckVelocity          10002be0 f   pm_shared.obj
 0001:00001cf0       _PM_CheckWater             10002cf0 f   pm_shared.obj
 0001:00001f00       _PM_CheckWaterJump         10002f00 f   pm_shared.obj
 0001:000021c0       _PM_ClipVelocity           100031c0 f   pm_shared.obj
 0001:000022b0       _PM_CreateStuckTable       100032b0 f   pm_shared.obj
 0001:00002520       _PM_DropPunchAngle         10003520 f   pm_shared.obj
 0001:000025a0       _PM_Duck                   100035a0 f   pm_shared.obj
 0001:000027d0       _PM_FindTextureType        100037d0 f   pm_shared.obj
 0001:00002830       _PM_FixPlayerCrouchStuck   10003830 f   pm_shared.obj
 0001:000028f0       _PM_FixupGravityVelocity   100038f0 f   pm_shared.obj
 0001:00002960       _PM_FlyMove                10003960 f   pm_shared.obj
 0001:00002f30       _PM_Friction               10003f30 f   pm_shared.obj
 0001:00003110       _PM_GetRandomStuckOffsets  10004110 f   pm_shared.obj
 0001:00003170       _PM_InWater                10004170 f   pm_shared.obj
 0001:00003190       _PM_Init                   10004190 f   pm_shared.obj
 0001:000031c0       _PM_InitTextureTypes       100041c0 f   pm_shared.obj
 0001:00003420       _PM_Jump                   10004420 f   pm_shared.obj
 0001:000036d0       _PM_Ladder                 100046d0 f   pm_shared.obj
 0001:000037b0       _PM_LadderMove             100047b0 f   pm_shared.obj
 0001:00003b70       _PM_MapTextureTypeStepType 10004b70 f   pm_shared.obj
 0001:00003c00       _PM_Move                   10004c00 f   pm_shared.obj
 0001:00003c60       _PM_NoClip                 10004c60 f   pm_shared.obj
 0001:00003d60       _PM_Physics_Toss           10004d60 f   pm_shared.obj
 0001:00004110       _PM_PlayStepSound          10005110 f   pm_shared.obj
 0001:00004ab0       _PM_PlayWaterSounds        10005ab0 f   pm_shared.obj
 0001:00004bc0       _PM_PlayerMove             10005bc0 f   pm_shared.obj
 0001:00005010       _PM_PreventMegaBunnyJumping 10006010 f   pm_shared.obj
 0001:00005090       _PM_PushEntity             10006090 f   pm_shared.obj
 0001:00005190       _PM_ReduceTimers           10006190 f   pm_shared.obj
 0001:00005280       _PM_ResetStuckOffsets      10006280 f   pm_shared.obj
 0001:000052a0       _PM_SortTextures           100062a0 f   pm_shared.obj
 0001:00005310       _PM_SpectatorMove          10006310 f   pm_shared.obj
 0001:00005670       _PM_SplineFraction         10006670 f   pm_shared.obj
 0001:000056b0       _PM_SwapTextures           100066b0 f   pm_shared.obj
 0001:00005740       _PM_UnDuck                 10006740 f   pm_shared.obj
 0001:000058f0       _PM_UpdateStepSound        100068f0 f   pm_shared.obj
 0001:00005b90       _PM_WalkMove               10006b90 f   pm_shared.obj
 0001:000061f0       _PM_WaterJump              100071f0 f   pm_shared.obj
 0001:00006290       _PM_WaterMove              10007290 f   pm_shared.obj
 0001:00006650       ??$GetClassPtr@VCAirtank@@@@YAPAVCAirtank@@PAV0@@Z 10007650 f i airtank.obj
 0001:000067d0       ?Precache@CItemSoda@@UAEXXZ 100077d0 f i effects.obj
 0001:000067d0       @_guard_check_icall_nop@4  100077d0 f i LIBCMT:guard_support.obj
 0001:000067d0       ?ItemPreFrame@CBasePlayerItem@@UAEXXZ 100077d0 f i h_cycler.obj
 0001:000067d0       ?ReportAIState@CBaseMonster@@UAEXXZ 100077d0 f i mpstubb.obj
 0001:000067d0       ?DecalGunshot@@YAXPAUTraceResult@@H_NPAUentvars_s@@1@Z 100077d0 f i weapons.obj
 0001:000067d0       ?Sys_Error@@YAXPBD@Z       100077d0 f i client.obj
 0001:000067d0       ?ResetMaxSpeed@CBaseMonster@@UAEXXZ 100077d0 f i airtank.obj
 0001:000067d0       ?Precache@CSoundEnt@@UAEXXZ 100077d0 f i soundent.obj
 0001:000067d0       ?Activate@CBaseEntity@@UAEXXZ 100077d0 f i airtank.obj
 0001:000067d0       ?Reload@CBasePlayerWeapon@@UAEXXZ 100077d0 f i h_cycler.obj
 0001:000067d0       ?UpdateOwner@CBaseEntity@@UAEXXZ 100077d0 f i airtank.obj
 0001:000067d0       ?SUB_DoNothing@CBaseEntity@@QAEXXZ 100077d0 f i subs.obj
 0001:000067d0       ?StartSneaking@CBaseEntity@@UAEXXZ 100077d0 f i airtank.obj
 0001:000067d0       ?SpectatorDisconnect@CBaseSpectator@@QAEXXZ 100077d0 f i spectator.obj
 0001:000067d0       ?SecondaryAttack@CBasePlayerWeapon@@UAEXXZ 100077d0 f i h_cycler.obj
 0001:000067d0       ?UTIL_DrawBeamPoints@@YAXVVector@@0HEEE@Z 100077d0 f i hostage.obj
 0001:000067d0       ?Spawn@CTriggerRelay@@UAEXXZ 100077d0 f i triggers.obj
 0001:000067d0       ?Spawn@CPathCorner@@UAEXXZ 100077d0 f i pathcorner.obj
 0001:000067d0       ?OverrideReset@CBaseEntity@@UAEXXZ 100077d0 f i airtank.obj
 0001:000067d0       ?Restart@CBaseEntity@@UAEXXZ 100077d0 f i airtank.obj
 0001:000067d0       ?PainSound@CBaseMonster@@UAEXXZ 100077d0 f i airtank.obj
 0001:000067d0       ?SmartRadio@CBasePlayer@@QAEXXZ 100077d0 f i player.obj
 0001:000067d0       ?WeaponIdle@CBasePlayerWeapon@@UAEXXZ 100077d0 f i h_cycler.obj
 0001:000067d0       ?Spawn@CBaseEntity@@UAEXXZ 100077d0 f i airtank.obj
 0001:000067d0       ?ParmsNewLevel@@YAXXZ      100077d0 f i client.obj
 0001:000067d0       ?SendHostageIcons@CBasePlayer@@QAEXXZ 100077d0 f i player.obj
 0001:000067d0       ?ServerDeactivate@CHalfLifeMultiplay@@UAEXXZ 100077d0 f i multiplay_gamerules.obj
 0001:000067d0       ?CheckMapConditions@CHalfLifeTraining@@UAEXXZ 100077d0 f i training_gamerules.obj
 0001:000067d0       ?CreateInstancedBaselines@@YAXXZ 100077d0 f i client.obj
 0001:000067d0       ?Spawn@CTriggerChangeTarget@@UAEXXZ 100077d0 f i triggers.obj
 0001:000067d0       ?UpdateItemInfo@CBasePlayerWeapon@@UAEXXZ 100077d0 f i h_cycler.obj
 0001:000067d0       ?InitGraph@CGraph@@QAEXXZ  100077d0 f i mpstubb.obj
 0001:000067d0       ?StopSneaking@CBaseEntity@@UAEXXZ 100077d0 f i airtank.obj
 0001:000067d0       ?Precache@CBaseEntity@@UAEXXZ 100077d0 f i airtank.obj
 0001:000067e0       ?FLoadGraph@CGraph@@QAEHPAD@Z 100077e0 f i mpstubb.obj
 0001:000067e0       ?CheckNODFile@CGraph@@QAEHPAD@Z 100077e0 f i mpstubb.obj
 0001:000067e0       ?OnControls@CBaseEntity@@UAEHPAUentvars_s@@@Z 100077e0 f i airtank.obj
 0001:000067e0       ?AddPlayerItem@CBaseEntity@@UAEHPAVCBasePlayerItem@@@Z 100077e0 f i airtank.obj
 0001:000067e0       ?GetItemInfo@CWeaponCycler@@UAEHPAUItemInfo@@@Z 100077e0 f i h_cycler.obj
 0001:000067e0       ?RemovePlayerItem@CBaseEntity@@UAEHPAVCBasePlayerItem@@@Z 100077e0 f i airtank.obj
 0001:000067f0       ?PlayerGotWeapon@CHalfLifeMultiplay@@UAEXPAVCBasePlayer@@PAVCBasePlayerItem@@@Z 100077f0 f i multiplay_gamerules.obj
 0001:000067f0       ?AddPoints@CBaseEntity@@UAEXHH@Z 100077f0 f i airtank.obj
 0001:000067f0       ?AddPointsToTeam@CBaseEntity@@UAEXHH@Z 100077f0 f i airtank.obj
 0001:000067f0       ?PlayerGotItem@CHalfLifeMultiplay@@UAEXPAVCBasePlayer@@PAVCItem@@@Z 100077f0 f i multiplay_gamerules.obj
 0001:00006800       ?Blocked@CBaseEntity@@UAEXPAV1@@Z 10007800 f i airtank.obj
 0001:00006820       ?BloodColor@CBaseMonster@@UAEHXZ 10007820 f i airtank.obj
 0001:00006830       ?BloodColor@CHostage@@UAEHXZ 10007830 f i hostage.obj
 0001:00006830       ?BloodColor@CBaseEntity@@UAEHXZ 10007830 f i airtank.obj
 0001:00006830       ?SecondaryAmmoIndex@CBasePlayerWeapon@@UAEHXZ 10007830 f i weapons.obj
 0001:00006830       ?BloodColor@CGrenade@@UAEHXZ 10007830 f i airtank.obj
 0001:00006830       ?BloodColor@CGunTarget@@UAEHXZ 10007830 f i plats.obj
 0001:00006840       ?BodyTarget@CBaseEntity@@UAE?AVVector@@ABV2@@Z 10007840 f i airtank.obj
 0001:00006860       ?Center@CBaseEntity@@UAE?AVVector@@XZ 10007860 f i airtank.obj
 0001:000068c0       ?EarPosition@CBaseEntity@@UAE?AVVector@@XZ 100078c0 f i airtank.obj
 0001:000068c0       ?GetGunPosition@CBasePlayer@@UAE?AVVector@@XZ 100078c0 f i player.obj
 0001:000068c0       ?EyePosition@CBaseEntity@@UAE?AVVector@@XZ 100078c0 f i airtank.obj
 0001:00006910       ?GetDelay@CBaseToggle@@UAEMXZ 10007910 f i airtank.obj
 0001:00006920       ?GetToggleState@CBaseToggle@@UAEHXZ 10007920 f i airtank.obj
 0001:00006930       ?GiveAmmo@CBaseEntity@@UAEHHPADH@Z 10007930 f i airtank.obj
 0001:00006940       ?HasTarget@CBaseEntity@@UAEHH@Z 10007940 f i airtank.obj
 0001:000069a0       ?Illumination@CBaseEntity@@UAEHXZ 100079a0 f i airtank.obj
 0001:000069c0       ?IsAlive@CBaseEntity@@UAEHXZ 100079c0 f i airtank.obj
 0001:000069c0       ?IsAlive@CBasePlayer@@UAEHXZ 100079c0 f i client.obj
 0001:000069f0       ?IsAlive@CBaseMonster@@UAEHXZ 100079f0 f i airtank.obj
 0001:00006a00       ?IsBSPModel@CBaseEntity@@UAEHXZ 10007a00 f i airtank.obj
 0001:00006a20       ?IsMoving@CBaseEntity@@UAEHXZ 10007a20 f i airtank.obj
 0001:00006a70       ?KeyValue@CBaseEntity@@UAEXPAUKeyValueData_s@@@Z 10007a70 f i airtank.obj
 0001:00006a90       ?Killed@CAirtank@@UAEXPAUentvars_s@@H@Z 10007a90 f   airtank.obj
 0001:00006b00       ?ObjectCaps@CGrenade@@UAEHXZ 10007b00 f i airtank.obj
 0001:00006b20       ?Precache@CAirtank@@UAEXXZ 10007b20 f   airtank.obj
 0001:00006b40       ?ReflectGauss@CBaseEntity@@UAEHXZ 10007b40 f i airtank.obj
 0001:00006b80       ?Restore@CAirtank@@UAEHAAVCRestore@@@Z 10007b80 f   airtank.obj
 0001:00006bc0       ?Save@CAirtank@@UAEHAAVCSave@@@Z 10007bc0 f   airtank.obj
 0001:00006c00       ?Spawn@CAirtank@@UAEXXZ    10007c00 f   airtank.obj
 0001:00006ce0       ?TankThink@CAirtank@@QAEXXZ 10007ce0 f   airtank.obj
 0001:00006d00       ?TankTouch@CAirtank@@QAEXPAVCBaseEntity@@@Z 10007d00 f   airtank.obj
 0001:00006dd0       ?TeamID@CBaseEntity@@UAEPBDXZ 10007dd0 f i airtank.obj
 0001:00006de0       ?Think@CBaseEntity@@UAEXXZ 10007de0 f i airtank.obj
 0001:00006df0       ?Touch@CBaseEntity@@UAEXPAV1@@Z 10007df0 f i airtank.obj
 0001:00006e10       ?Use@CBaseEntity@@UAEXPAV1@0W4USE_TYPE@@M@Z 10007e10 f i airtank.obj
 0001:00006e40       _item_airtank              10007e40 f   airtank.obj
 0001:00006e50       ??$GetClassPtr@VC338MagnumAmmo@@@@YAPAVC338MagnumAmmo@@PAV0@@Z 10007e50 f i ammo.obj
 0001:00006eb0       ??$GetClassPtr@VC357SIGAmmo@@@@YAPAVC357SIGAmmo@@PAV0@@Z 10007eb0 f i ammo.obj
 0001:00006f10       ??$GetClassPtr@VC45ACPAmmo@@@@YAPAVC45ACPAmmo@@PAV0@@Z 10007f10 f i ammo.obj
 0001:00006f70       ??$GetClassPtr@VC50AEAmmo@@@@YAPAVC50AEAmmo@@PAV0@@Z 10007f70 f i ammo.obj
 0001:00006fd0       ??$GetClassPtr@VC556NatoAmmo@@@@YAPAVC556NatoAmmo@@PAV0@@Z 10007fd0 f i ammo.obj
 0001:00007030       ??$GetClassPtr@VC556NatoBox@@@@YAPAVC556NatoBox@@PAV0@@Z 10008030 f i ammo.obj
 0001:00007090       ??$GetClassPtr@VC57MMAmmo@@@@YAPAVC57MMAmmo@@PAV0@@Z 10008090 f i ammo.obj
 0001:000070f0       ??$GetClassPtr@VC762NatoAmmo@@@@YAPAVC762NatoAmmo@@PAV0@@Z 100080f0 f i ammo.obj
 0001:00007150       ??$GetClassPtr@VC9MMAmmo@@@@YAPAVC9MMAmmo@@PAV0@@Z 10008150 f i ammo.obj
 0001:000071b0       ??$GetClassPtr@VCBuckShotAmmo@@@@YAPAVCBuckShotAmmo@@PAV0@@Z 100081b0 f i ammo.obj
 0001:00007210       ?AddAmmo@C338MagnumAmmo@@UAEHPAVCBaseEntity@@@Z 10008210 f   ammo.obj
 0001:00007270       ?AddAmmo@C357SIGAmmo@@UAEHPAVCBaseEntity@@@Z 10008270 f   ammo.obj
 0001:000072d0       ?AddAmmo@C45ACPAmmo@@UAEHPAVCBaseEntity@@@Z 100082d0 f   ammo.obj
 0001:00007330       ?AddAmmo@C50AEAmmo@@UAEHPAVCBaseEntity@@@Z 10008330 f   ammo.obj
 0001:00007390       ?AddAmmo@C556NatoAmmo@@UAEHPAVCBaseEntity@@@Z 10008390 f   ammo.obj
 0001:000073f0       ?AddAmmo@C556NatoBox@@UAEHPAVCBaseEntity@@@Z 100083f0 f   ammo.obj
 0001:00007450       ?AddAmmo@C57MMAmmo@@UAEHPAVCBaseEntity@@@Z 10008450 f   ammo.obj
 0001:000074b0       ?AddAmmo@C762NatoAmmo@@UAEHPAVCBaseEntity@@@Z 100084b0 f   ammo.obj
 0001:00007510       ?AddAmmo@C9MMAmmo@@UAEHPAVCBaseEntity@@@Z 10008510 f   ammo.obj
 0001:00007570       ?AddAmmo@CBuckShotAmmo@@UAEHPAVCBaseEntity@@@Z 10008570 f   ammo.obj
 0001:000075d0       ?Precache@C556NatoAmmo@@UAEXXZ 100085d0 f   ammo.obj
 0001:000075d0       ?Precache@C338MagnumAmmo@@UAEXXZ 100085d0 f   ammo.obj
 0001:000075d0       ?Precache@C556NatoBox@@UAEXXZ 100085d0 f   ammo.obj
 0001:000075d0       ?Precache@C357SIGAmmo@@UAEXXZ 100085d0 f   ammo.obj
 0001:000075d0       ?Precache@C57MMAmmo@@UAEXXZ 100085d0 f   ammo.obj
 0001:000075d0       ?Precache@C45ACPAmmo@@UAEXXZ 100085d0 f   ammo.obj
 0001:000075d0       ?Precache@C762NatoAmmo@@UAEXXZ 100085d0 f   ammo.obj
 0001:000075d0       ?Precache@C9MMAmmo@@UAEXXZ 100085d0 f   ammo.obj
 0001:000075d0       ?Precache@C50AEAmmo@@UAEXXZ 100085d0 f   ammo.obj
 0001:000075f0       ?Precache@CBuckShotAmmo@@UAEXXZ 100085f0 f   ammo.obj
 0001:00007610       ?Spawn@C45ACPAmmo@@UAEXXZ  10008610 f   ammo.obj
 0001:00007610       ?Spawn@C357SIGAmmo@@UAEXXZ 10008610 f   ammo.obj
 0001:00007610       ?Spawn@C9MMAmmo@@UAEXXZ    10008610 f   ammo.obj
 0001:00007610       ?Spawn@C556NatoBox@@UAEXXZ 10008610 f   ammo.obj
 0001:00007610       ?Spawn@C57MMAmmo@@UAEXXZ   10008610 f   ammo.obj
 0001:00007610       ?Spawn@C50AEAmmo@@UAEXXZ   10008610 f   ammo.obj
 0001:00007610       ?Spawn@C556NatoAmmo@@UAEXXZ 10008610 f   ammo.obj
 0001:00007610       ?Spawn@C338MagnumAmmo@@UAEXXZ 10008610 f   ammo.obj
 0001:00007610       ?Spawn@C762NatoAmmo@@UAEXXZ 10008610 f   ammo.obj
 0001:00007640       ?Spawn@CBuckShotAmmo@@UAEXXZ 10008640 f   ammo.obj
 0001:00007670       _ammo_338magnum            10008670 f   ammo.obj
 0001:00007680       _ammo_357sig               10008680 f   ammo.obj
 0001:00007690       _ammo_45acp                10008690 f   ammo.obj
 0001:000076a0       _ammo_50ae                 100086a0 f   ammo.obj
 0001:000076b0       _ammo_556nato              100086b0 f   ammo.obj
 0001:000076c0       _ammo_556natobox           100086c0 f   ammo.obj
 0001:000076d0       _ammo_57mm                 100086d0 f   ammo.obj
 0001:000076e0       _ammo_762nato              100086e0 f   ammo.obj
 0001:000076f0       _ammo_9mm                  100086f0 f   ammo.obj
 0001:00007700       _ammo_buckshot             10008700 f   ammo.obj
 0001:00007710       ?DispatchAnimEvents@CBaseAnimating@@QAEXM@Z 10008710 f   animating.obj
 0001:00007850       ?ExtractBbox@CBaseAnimating@@QAEHHPAM0@Z 10008850 f   animating.obj
 0001:00007880       ?GetSequenceFlags@CBaseAnimating@@QAEHXZ 10008880 f   animating.obj
 0001:000078a0       ?InitBoneControllers@CBaseAnimating@@QAEXXZ 100088a0 f   animating.obj
 0001:00007920       ?LookupActivity@CBaseAnimating@@QAEHH@Z 10008920 f   animating.obj
 0001:00007950       ?LookupSequence@CBaseAnimating@@QAEHPBD@Z 10008950 f   animating.obj
 0001:00007980       ?ResetSequenceInfo@CBaseAnimating@@QAEXXZ 10008980 f   animating.obj
 0001:00007a00       ?Restore@CBaseAnimating@@UAEHAAVCRestore@@@Z 10008a00 f   animating.obj
 0001:00007a40       ?Save@CBaseAnimating@@UAEHAAVCSave@@@Z 10008a40 f   animating.obj
 0001:00007a80       ?SetBoneController@CBaseAnimating@@QAEMHM@Z 10008a80 f   animating.obj
 0001:00007ac0       ?SetSequenceBox@CBaseAnimating@@QAEXXZ 10008ac0 f   animating.obj
 0001:00007cc0       ?StudioFrameAdvance@CBaseAnimating@@QAEMM@Z 10008cc0 f   animating.obj
 0001:00007de0       ?SV_StudioSetupBones@@YAXPAUmodel_s@@MHQBM1PBE2HPBUedict_s@@@Z 10008de0 f   animation.obj
 0001:00008dd0       ?ConcatTransforms@@YAXQAY03$$CBM0QAY03M@Z 10009dd0 f   animation.obj
 0001:00008ff0       ?ExtractBbox@@YAHPAXHPAM1@Z 10009ff0 f   animation.obj
 0001:00009050       ?GetAnimationEvent@@YAHPAXPAUentvars_s@@PAUMonsterEvent_t@@MMH@Z 1000a050 f   animation.obj
 0001:00009170       ?GetSequenceFlags@@YAHPAXPAUentvars_s@@@Z 1000a170 f   animation.obj
 0001:000091b0       ?GetSequenceInfo@@YAXPAXPAUentvars_s@@PAM2@Z 1000a1b0 f   animation.obj
 0001:00009290       ?LookupActivity@@YAHPAXPAUentvars_s@@H@Z 1000a290 f   animation.obj
 0001:00009310       ?LookupAnimation@@YAPAUmstudioanim_t@@PAUmodel_s@@PAUmstudioseqdesc_t@@H@Z 1000a310 f   animation.obj
 0001:00009350       ?LookupSequence@@YAHPAXPBD@Z 1000a350 f   animation.obj
 0001:000093b0       ?SetController@@YAMPAXPAUentvars_s@@HM@Z 1000a3b0 f   animation.obj
 0001:00009550       ?StudioCalcBoneAdj@@YAXMPAMPBE1E@Z 1000a550 f   animation.obj
 0001:000097c0       ?StudioCalcBonePosition@@YAXHMPAUmstudiobone_t@@PAUmstudioanim_t@@PAM2@Z 1000a7c0 f   animation.obj
 0001:00009930       ?StudioCalcBoneQuaterion@@YAXHMPAUmstudiobone_t@@PAUmstudioanim_t@@PAM2@Z 1000a930 f   animation.obj
 0001:00009b10       ?StudioEstimateFrame@@YAMMPAUmstudioseqdesc_t@@@Z 1000ab10 f   animation.obj
 0001:00009b50       ?StudioGetAnim@@YAPAUmstudioanim_t@@PAUmodel_s@@PAUmstudioseqdesc_t@@@Z 1000ab50 f   animation.obj
 0001:00009be0       ?StudioSlerpBones@@YAXQAY03MQAY02M01M@Z 1000abe0 f   animation.obj
 0001:00009d20       _AngleQuaternion           1000ad20 f   animation.obj
 0001:00009e60       _QuaternionMatrix          1000ae60 f   animation.obj
 0001:0000a090       _QuaternionSlerp           1000b090 f   animation.obj
 0001:0000a390       _Server_GetBlendingInterface 1000b390 f   animation.obj
 0001:0000a3e0       ??$GetClassPtr@VCFuncConveyor@@@@YAPAVCFuncConveyor@@PAV0@@Z 1000b3e0 f i bmodels.obj
 0001:0000a440       ??$GetClassPtr@VCFuncIllusionary@@@@YAPAVCFuncIllusionary@@PAV0@@Z 1000b440 f i bmodels.obj
 0001:0000a560       ??$GetClassPtr@VCFuncMonsterClip@@@@YAPAVCFuncMonsterClip@@PAV0@@Z 1000b560 f i bmodels.obj
 0001:0000a5c0       ??$GetClassPtr@VCFuncRotating@@@@YAPAVCFuncRotating@@PAV0@@Z 1000b5c0 f i bmodels.obj
 0001:0000a620       ??$GetClassPtr@VCFuncWall@@@@YAPAVCFuncWall@@PAV0@@Z 1000b620 f i bmodels.obj
 0001:0000a680       ??$GetClassPtr@VCFuncWallToggle@@@@YAPAVCFuncWallToggle@@PAV0@@Z 1000b680 f i bmodels.obj
 0001:0000a6e0       ??$GetClassPtr@VCPendulum@@@@YAPAVCPendulum@@PAV0@@Z 1000b6e0 f i bmodels.obj
 0001:0000a780       ?Blocked@CFuncRotating@@UAEXPAVCBaseEntity@@@Z 1000b780 f   bmodels.obj
 0001:0000a7b0       ?Blocked@CPendulum@@UAEXPAVCBaseEntity@@@Z 1000b7b0 f   bmodels.obj
 0001:0000a7c0       ?FStrEq@@YAHPBD0@Z         1000b7c0 f i bmodels.obj
 0001:0000a810       ?HurtTouch@CFuncRotating@@QAEXPAVCBaseEntity@@@Z 1000b810 f   bmodels.obj
 0001:0000a990       ?IsOn@CFuncWallToggle@@QAEHXZ 1000b990 f   bmodels.obj
 0001:0000a9a0       ?KeyValue@CFuncIllusionary@@UAEXPAUKeyValueData_s@@@Z 1000b9a0 f   bmodels.obj
 0001:0000aa10       ?KeyValue@CFuncRotating@@UAEXPAUKeyValueData_s@@@Z 1000ba10 f   bmodels.obj
 0001:0000abf0       ?KeyValue@CPendulum@@UAEXPAUKeyValueData_s@@@Z 1000bbf0 f   bmodels.obj
 0001:0000acb0       ?PendulumUse@CPendulum@@QAEXPAVCBaseEntity@@0W4USE_TYPE@@M@Z 1000bcb0 f   bmodels.obj
 0001:0000ade0       ?Precache@CFuncRotating@@UAEXXZ 1000bde0 f   bmodels.obj
 0001:0000af80       ?RampPitchVol@CFuncRotating@@QAEXH@Z 1000bf80 f   bmodels.obj
 0001:0000b070       ?Restore@CFuncRotating@@UAEHAAVCRestore@@@Z 1000c070 f   bmodels.obj
 0001:0000b0b0       ?Restore@CPendulum@@UAEHAAVCRestore@@@Z 1000c0b0 f   bmodels.obj
 0001:0000b0f0       ?RopeTouch@CPendulum@@QAEXPAVCBaseEntity@@@Z 1000c0f0 f   bmodels.obj
 0001:0000b170       ?Rotate@CFuncRotating@@QAEXXZ 1000c170 f   bmodels.obj
 0001:0000b190       ?RotatingUse@CFuncRotating@@QAEXPAVCBaseEntity@@0W4USE_TYPE@@M@Z 1000c190 f   bmodels.obj
 0001:0000b360       ?Save@CFuncRotating@@UAEHAAVCSave@@@Z 1000c360 f   bmodels.obj
 0001:0000b3a0       ?Save@CPendulum@@UAEHAAVCSave@@@Z 1000c3a0 f   bmodels.obj
 0001:0000b3e0       ?Spawn@CFuncConveyor@@UAEXXZ 1000c3e0 f   bmodels.obj
 0001:0000b470       ?Spawn@CFuncIllusionary@@UAEXXZ 1000c470 f   bmodels.obj
 0001:0000b4d0       ?Spawn@CFuncMonsterClip@@UAEXXZ 1000c4d0 f   bmodels.obj
 0001:0000b520       ?Spawn@CFuncRotating@@UAEXXZ 1000c520 f   bmodels.obj
 0001:0000b720       ?Spawn@CFuncWall@@UAEXXZ   1000c720 f   bmodels.obj
 0001:0000b790       ?Spawn@CFuncWallToggle@@UAEXXZ 1000c790 f   bmodels.obj
 0001:0000b7b0       ?Spawn@CPendulum@@UAEXXZ   1000c7b0 f   bmodels.obj
 0001:0000b970       ?SpinDown@CFuncRotating@@QAEXXZ 1000c970 f   bmodels.obj
 0001:0000bad0       ?SpinUp@CFuncRotating@@QAEXXZ 1000cad0 f   bmodels.obj
 0001:0000bca0       ?Stop@CPendulum@@QAEXXZ    1000cca0 f   bmodels.obj
 0001:0000bcf0       ?Swing@CPendulum@@QAEXXZ   1000ccf0 f   bmodels.obj
 0001:0000bec0       ?Touch@CPendulum@@UAEXPAVCBaseEntity@@@Z 1000cec0 f   bmodels.obj
 0001:0000c030       ?TurnOff@CFuncWallToggle@@QAEXXZ 1000d030 f   bmodels.obj
 0001:0000c060       ?TurnOn@CFuncWallToggle@@QAEXXZ 1000d060 f   bmodels.obj
 0001:0000c090       ?UpdateSpeed@CFuncConveyor@@QAEXM@Z 1000d090 f   bmodels.obj
 0001:0000c100       ?Use@CFuncConveyor@@UAEXPAVCBaseEntity@@0W4USE_TYPE@@M@Z 1000d100 f   bmodels.obj
 0001:0000c140       ?Use@CFuncWall@@UAEXPAVCBaseEntity@@0W4USE_TYPE@@M@Z 1000d140 f   bmodels.obj
 0001:0000c180       ?Use@CFuncWallToggle@@UAEXPAVCBaseEntity@@0W4USE_TYPE@@M@Z 1000d180 f   bmodels.obj
 0001:0000c1c0       ?VecBModelOrigin@@YA?AVVector@@PAUentvars_s@@@Z 1000d1c0 f   bmodels.obj
 0001:0000c230       _func_conveyor             1000d230 f   bmodels.obj
 0001:0000c240       _func_illusionary          1000d240 f   bmodels.obj
 0001:0000c250       _func_monsterclip          1000d250 f   bmodels.obj
 0001:0000c260       _func_pendulum             1000d260 f   bmodels.obj
 0001:0000c270       _func_rotating             1000d270 f   bmodels.obj
 0001:0000c280       _func_wall                 1000d280 f   bmodels.obj
 0001:0000c290       _func_wall_toggle          1000d290 f   bmodels.obj
 0001:0000c2a0       ??$GetClassPtr@VCBaseButton@@@@YAPAVCBaseButton@@PAV0@@Z 1000d2a0 f i buttons.obj
 0001:0000c310       ??$GetClassPtr@VCButtonTarget@@@@YAPAVCButtonTarget@@PAV0@@Z 1000d310 f i buttons.obj
 0001:0000c370       ??$GetClassPtr@VCEnvGlobal@@@@YAPAVCEnvGlobal@@PAV0@@Z 1000d370 f i buttons.obj
 0001:0000c3d0       ??$GetClassPtr@VCEnvSpark@@@@YAPAVCEnvSpark@@PAV0@@Z 1000d3d0 f i buttons.obj
 0001:0000c430       ??$GetClassPtr@VCMomentaryRotButton@@@@YAPAVCMomentaryRotButton@@PAV0@@Z 1000d430 f i buttons.obj
 0001:0000c4e0       ??$GetClassPtr@VCMultiSource@@@@YAPAVCMultiSource@@PAV0@@Z 1000d4e0 f i buttons.obj
 0001:0000c540       ??$GetClassPtr@VCRotButton@@@@YAPAVCRotButton@@PAV0@@Z 1000d540 f i buttons.obj
 0001:0000c5b0       ??0CBaseToggle@@QAE@XZ     1000d5b0 f i buttons.obj
 0001:0000c670       ?ButtonActivate@CBaseButton@@QAEXXZ 1000d670 f   buttons.obj
 0001:0000c790       ?ButtonBackHome@CBaseButton@@QAEXXZ 1000d790 f   buttons.obj
 0001:0000c8e0       ?ButtonResponseToTouch@CBaseButton@@QAE?AW4BUTTON_CODE@1@XZ 1000d8e0 f   buttons.obj
 0001:0000c930       ?ButtonReturn@CBaseButton@@QAEXXZ 1000d930 f   buttons.obj
 0001:0000c9e0       ?ButtonSound@@YAPADH@Z     1000d9e0 f   buttons.obj
 0001:0000caf0       ?ButtonSpark@CBaseButton@@QAEXXZ 1000daf0 f   buttons.obj
 0001:0000cb60       ?ButtonTouch@CBaseButton@@QAEXPAVCBaseEntity@@@Z 1000db60 f   buttons.obj
 0001:0000cc80       ?ButtonUse@CBaseButton@@QAEXPAVCBaseEntity@@0W4USE_TYPE@@M@Z 1000dc80 f   buttons.obj
 0001:0000cd20       ?DoSpark@@YAXPAUentvars_s@@ABVVector@@@Z 1000dd20 f   buttons.obj
 0001:0000ced0       ?IsTriggered@CMultiSource@@UAEHPAVCBaseEntity@@@Z 1000ded0 f   buttons.obj
 0001:0000cf30       ?KeyValue@CBaseButton@@UAEXPAUKeyValueData_s@@@Z 1000df30 f   buttons.obj
 0001:0000d0d0       ?KeyValue@CEnvGlobal@@UAEXPAUKeyValueData_s@@@Z 1000e0d0 f   buttons.obj
 0001:0000d1e0       ?KeyValue@CEnvSpark@@UAEXPAUKeyValueData_s@@@Z 1000e1e0 f   buttons.obj
 0001:0000d300       ?KeyValue@CMomentaryRotButton@@UAEXPAUKeyValueData_s@@@Z 1000e300 f   buttons.obj
 0001:0000d3c0       ?KeyValue@CMultiSource@@UAEXPAUKeyValueData_s@@@Z 1000e3c0 f   buttons.obj
 0001:0000d4f0       ?ObjectCaps@CBaseButton@@UAEHXZ 1000e4f0 f i buttons.obj
 0001:0000d520       ?ObjectCaps@CButtonTarget@@UAEHXZ 1000e520 f   buttons.obj
 0001:0000d540       ?ObjectCaps@CMomentaryRotButton@@UAEHXZ 1000e540 f   buttons.obj
 0001:0000d560       ?ObjectCaps@CMultiSource@@UAEHXZ 1000e560 f i buttons.obj
 0001:0000d570       ?Off@CMomentaryRotButton@@QAEXXZ 1000e570 f   buttons.obj
 0001:0000d5f0       ?PlaySound@CMomentaryRotButton@@QAEXXZ 1000e5f0 f   buttons.obj
 0001:0000d630       ?Precache@CBaseButton@@UAEXXZ 1000e630 f   buttons.obj
 0001:0000d880       ?Precache@CEnvSpark@@UAEXXZ 1000e880 f   buttons.obj
 0001:0000d8d0       ?Register@CMultiSource@@QAEXXZ 1000e8d0 f   buttons.obj
 0001:0000da10       ?Restore@CBaseButton@@UAEHAAVCRestore@@@Z 1000ea10 f   buttons.obj
 0001:0000da50       ?Restore@CEnvGlobal@@UAEHAAVCRestore@@@Z 1000ea50 f   buttons.obj
 0001:0000da90       ?Restore@CEnvSpark@@UAEHAAVCRestore@@@Z 1000ea90 f   buttons.obj
 0001:0000dad0       ?Restore@CMomentaryRotButton@@UAEHAAVCRestore@@@Z 1000ead0 f   buttons.obj
 0001:0000db10       ?Restore@CMultiSource@@UAEHAAVCRestore@@@Z 1000eb10 f   buttons.obj
 0001:0000db50       ?Return@CMomentaryRotButton@@QAEXXZ 1000eb50 f   buttons.obj
 0001:0000dbc0       ?Save@CBaseButton@@UAEHAAVCSave@@@Z 1000ebc0 f   buttons.obj
 0001:0000dc00       ?Save@CEnvGlobal@@UAEHAAVCSave@@@Z 1000ec00 f   buttons.obj
 0001:0000dc40       ?Save@CEnvSpark@@UAEHAAVCSave@@@Z 1000ec40 f   buttons.obj
 0001:0000dc80       ?Save@CMomentaryRotButton@@UAEHAAVCSave@@@Z 1000ec80 f   buttons.obj
 0001:0000dcc0       ?Save@CMultiSource@@UAEHAAVCSave@@@Z 1000ecc0 f   buttons.obj
 0001:0000dd00       ?SparkStart@CEnvSpark@@QAEXPAVCBaseEntity@@0W4USE_TYPE@@M@Z 1000ed00 f   buttons.obj
 0001:0000dd70       ?SparkStop@CEnvSpark@@QAEXPAVCBaseEntity@@0W4USE_TYPE@@M@Z 1000ed70 f   buttons.obj
 0001:0000dd90       ?SparkThink@CEnvSpark@@QAEXXZ 1000ed90 f   buttons.obj
 0001:0000de00       ?Spawn@CBaseButton@@UAEXXZ 1000ee00 f   buttons.obj
 0001:0000e0f0       ?Spawn@CButtonTarget@@UAEXXZ 1000f0f0 f   buttons.obj
 0001:0000e160       ?Spawn@CEnvGlobal@@UAEXXZ  1000f160 f   buttons.obj
 0001:0000e1c0       ?Spawn@CEnvSpark@@UAEXXZ   1000f1c0 f   buttons.obj
 0001:0000e270       ?Spawn@CMomentaryRotButton@@UAEXXZ 1000f270 f   buttons.obj
 0001:0000e420       ?Spawn@CMultiSource@@UAEXXZ 1000f420 f   buttons.obj
 0001:0000e470       ?Spawn@CRotButton@@UAEXXZ  1000f470 f   buttons.obj
 0001:0000e660       ?TakeDamage@CBaseButton@@UAEHPAUentvars_s@@0MH@Z 1000f660 f   buttons.obj
 0001:0000e750       ?TakeDamage@CButtonTarget@@UAEHPAUentvars_s@@0MH@Z 1000f750 f   buttons.obj
 0001:0000e7a0       ?TriggerAndWait@CBaseButton@@QAEXXZ 1000f7a0 f   buttons.obj
 0001:0000e850       ?UpdateAllButtons@CMomentaryRotButton@@QAEXMH@Z 1000f850 f   buttons.obj
 0001:0000e910       ?UpdateSelf@CMomentaryRotButton@@QAEXM@Z 1000f910 f   buttons.obj
 0001:0000ea90       ?UpdateSelfReturn@CMomentaryRotButton@@QAEXM@Z 1000fa90 f   buttons.obj
 0001:0000eb60       ?UpdateTarget@CMomentaryRotButton@@QAEXM@Z 1000fb60 f   buttons.obj
 0001:0000ebe0       ?Use@CButtonTarget@@UAEXPAVCBaseEntity@@0W4USE_TYPE@@M@Z 1000fbe0 f   buttons.obj
 0001:0000ec60       ?Use@CEnvGlobal@@UAEXPAVCBaseEntity@@0W4USE_TYPE@@M@Z 1000fc60 f   buttons.obj
 0001:0000ecf0       ?Use@CMomentaryRotButton@@UAEXPAVCBaseEntity@@0W4USE_TYPE@@M@Z 1000fcf0 f   buttons.obj
 0001:0000ed70       ?Use@CMultiSource@@UAEXPAVCBaseEntity@@0W4USE_TYPE@@M@Z 1000fd70 f   buttons.obj
 0001:0000ee50       _button_target             1000fe50 f   buttons.obj
 0001:0000ee60       _env_global                1000fe60 f   buttons.obj
 0001:0000ee70       _env_spark                 1000fe70 f   buttons.obj
 0001:0000ee70       _env_debris                1000fe70 f   buttons.obj
 0001:0000ee80       _func_button               1000fe80 f   buttons.obj
 0001:0000ee90       _func_rot_button           1000fe90 f   buttons.obj
 0001:0000eea0       _momentary_rot_button      1000fea0 f   buttons.obj
 0001:0000eeb0       _multisource               1000feb0 f   buttons.obj
 0001:0000eed0       ?DispatchSpawn@@YAHPAUedict_s@@@Z 1000fed0 f   cbase.obj
 0001:0000f030       ?DispatchKeyValue@@YAXPAUedict_s@@PAUKeyValueData_s@@@Z 10010030 f   cbase.obj
 0001:0000f070       ?DispatchTouch@@YAXPAUedict_s@@0@Z 10010070 f   cbase.obj
 0001:0000f0d0       ?DispatchUse@@YAXPAUedict_s@@0@Z 100100d0 f   cbase.obj
 0001:0000f120       ?DispatchThink@@YAXPAUedict_s@@@Z 10010120 f   cbase.obj
 0001:0000f170       ?DispatchBlocked@@YAXPAUedict_s@@0@Z 10010170 f   cbase.obj
 0001:0000f1a0       ?DispatchSave@@YAXPAUedict_s@@PAUsaverestore_s@@@Z 100101a0 f   cbase.obj
 0001:0000f2b0       ?DispatchRestore@@YAHPAUedict_s@@PAUsaverestore_s@@H@Z 100102b0 f   cbase.obj
 0001:0000f640       ?DispatchObjectCollsionBox@@YAXPAUedict_s@@@Z 10010640 f   cbase.obj
 0001:0000f670       ?SaveWriteFields@@YAXPAUsaverestore_s@@PBDPAXPAUTYPEDESCRIPTION@@H@Z 10010670 f   cbase.obj
 0001:0000f6d0       ?SaveReadFields@@YAXPAUsaverestore_s@@PBDPAXPAUTYPEDESCRIPTION@@H@Z 100106d0 f   cbase.obj
 0001:0000f740       ??0?$CUtlMemory@Uhash_item_s@@@@QAE@HH@Z 10010740 f i cbase.obj
 0001:0000f780       ??0entvars_s@@QAE@XZ       10010780 f i cbase.obj
 0001:0000f9e0       ??1?$CUtlMemory@PAD@@QAE@XZ 100109e0 f i hintmessage.obj
 0001:0000f9e0       ??1?$CUtlMemory@Uhash_item_s@@@@QAE@XZ 100109e0 f i cbase.obj
 0001:0000f9f0       ??1CSave@@UAE@XZ           100109f0 f i cbase.obj
 0001:0000f9f0       ??1CRestore@@UAE@XZ        100109f0 f i cbase.obj
 0001:0000fa00       ??4EHANDLE@@QAEPAVCBaseEntity@@PAV1@@Z 10010a00 f   cbase.obj
 0001:0000fa40       ??BEHANDLE@@QAEHXZ         10010a40 f   cbase.obj
 0001:0000fa50       ??BEHANDLE@@QAEPAVCBaseEntity@@XZ 10010a50 f   cbase.obj
 0001:0000fa50       ??CEHANDLE@@QAEPAVCBaseEntity@@XZ 10010a50 f   cbase.obj
 0001:0000fa60       ??_GCRestore@@UAEPAXI@Z    10010a60 f i cbase.obj
 0001:0000fa60       ??_ECRestore@@UAEPAXI@Z    10010a60 f i cbase.obj
 0001:0000fa90       ??_GCSaveRestoreBuffer@@UAEPAXI@Z 10010a90 f i util.obj
 0001:0000fa90       ??_GCSave@@UAEPAXI@Z       10010a90 f i cbase.obj
 0001:0000fa90       ??_ECSave@@UAEPAXI@Z       10010a90 f i cbase.obj
 0001:0000fa90       ??_ECSaveRestoreBuffer@@UAEPAXI@Z 10010a90 f i util.obj
 0001:0000fac0       ?AddEntityHashValue@@YAXPAUentvars_s@@PBDW4hash_types_e@@@Z 10010ac0 f   cbase.obj
 0001:0000fc20       ?CONSOLE_ECHO@@YAXPADZZ    10010c20 f   cbase.obj
 0001:0000fc60       ?CREATE_NAMED_ENTITY@@YAPAUedict_s@@H@Z 10010c60 f   cbase.obj
 0001:0000fca0       ?CaseInsensitiveHash@@YAHPBDH@Z 10010ca0 f   cbase.obj
 0001:0000fce0       ?Create@CBaseEntity@@SAPAV1@PADABVVector@@1PAUedict_s@@@Z 10010ce0 f   cbase.obj
 0001:0000fd80       ?DamageDecal@CBaseEntity@@UAEHH@Z 10010d80 f   cbase.obj
 0001:0000fdb0       ?EmptyEntityHashTable@@YAXXZ 10010db0 f   cbase.obj
 0001:0000fe20       ?FindGlobalEntity@@YAPAVCBaseEntity@@HH@Z 10010e20 f   cbase.obj
 0001:0000fee0       ?Get@EHANDLE@@QAEPAUedict_s@@XZ 10010ee0 f   cbase.obj
 0001:0000ff00       ?GetNextTarget@CBaseEntity@@UAEPAV1@XZ 10010f00 f   cbase.obj
 0001:0000ff50       ?Grow@?$CUtlMemory@Uhash_item_s@@@@QAEXH@Z 10010f50 f i cbase.obj
 0001:0000ffc0       ?GrowVector@?$CUtlVector@Uhash_item_s@@@@IAEXH@Z 10010fc0 f i cbase.obj
 0001:00010000       ?Hooked_DispatchSpawn@@YAHPAUedict_s@@@Z 10011000 f   cbase.obj
 0001:000100b0       ?Intersects@CBaseEntity@@QAEHPAV1@@Z 100110b0 f   cbase.obj
 0001:00010140       ?IsDormant@CBaseEntity@@QAEHXZ 10011140 f   cbase.obj
 0001:00010150       ?IsInWorld@CBaseEntity@@UAEHXZ 10011150 f   cbase.obj
 0001:000101e0       ?Killed@CBaseEntity@@UAEXPAUentvars_s@@H@Z 100111e0 f   cbase.obj
 0001:00010210       ?MakeDormant@CBaseEntity@@QAEXXZ 10011210 f   cbase.obj
 0001:00010270       ?Normalize@Vector@@QBE?AV1@XZ 10011270 f i cbase.obj
 0001:00010310       ?OnFreeEntPrivateData@@YAXPAUedict_s@@@Z 10011310 f   cbase.obj
 0001:00010360       ?Purge@?$CUtlMemory@Uhash_item_s@@@@QAEXXZ 10011360 f i cbase.obj
 0001:00010360       ?Purge@?$CUtlMemory@PAD@@QAEXXZ 10011360 f i hintmessage.obj
 0001:00010390       ?Purge@?$CUtlVector@PAD@@QAEXXZ 10011390 f i hintmessage.obj
 0001:00010390       ?Purge@?$CUtlVector@Uhash_item_s@@@@QAEXXZ 10011390 f i cbase.obj
 0001:000103b0       ?REMOVE_ENTITY@@YAXPAUedict_s@@@Z 100113b0 f   cbase.obj
 0001:000103d0       ?RemoveEntityHashValue@@YAXPAUentvars_s@@PBDW4hash_types_e@@@Z 100113d0 f   cbase.obj
 0001:00010540       ?Restore@CBaseEntity@@UAEHAAVCRestore@@@Z 10011540 f   cbase.obj
 0001:00010660       ?Save@CBaseEntity@@UAEHAAVCSave@@@Z 10011660 f   cbase.obj
 0001:000106a0       ?SetCount@?$CUtlVector@Uhash_item_s@@@@QAEXH@Z 100116a0 f i cbase.obj
 0001:000106d0       ?SetObjectCollisionBox@@YAXPAUentvars_s@@@Z 100116d0 f   cbase.obj
 0001:00010910       ?SetObjectCollisionBox@CBaseEntity@@UAEXXZ 10011910 f   cbase.obj
 0001:00010920       ?ShiftElementsRight@?$CUtlVector@Uhash_item_s@@@@IAEXHH@Z 10011920 f i cbase.obj
 0001:00010960       ?ShouldToggle@CBaseEntity@@QAEHW4USE_TYPE@@H@Z 10011960 f   cbase.obj
 0001:00010990       ?TakeDamage@CBaseEntity@@UAEHPAUentvars_s@@0MH@Z 10011990 f   cbase.obj
 0001:00010c60       ?TakeHealth@CBaseEntity@@UAEHMH@Z 10011c60 f   cbase.obj
 0001:00010cd0       ?loopPerformance@@YAXXZ    10011cd0 f   cbase.obj
 0001:00010e80       ?printEntities@@YAXXZ      10011e80 f   cbase.obj
 0001:00010f30       _GetEntityAPI              10011f30 f   cbase.obj
 0001:00010fb0       _GetNewDLLFunctions        10011fb0 f   cbase.obj
 0001:00010ff0       ??$GetClassPtr@VCBasePlayer@@@@YAPAVCBasePlayer@@PAV0@@Z 10011ff0 f i client.obj
 0001:00011230       ??0Vector@@QAE@ABV0@@Z     10012230 f i client.obj
 0001:00011260       ??0Vector@@QAE@XZ          10012260 f i client.obj
 0001:00011280       ?AddToFullPack@@YAHPAUentity_state_s@@HPAUedict_s@@1HHPAE@Z 10012280 f   client.obj
 0001:00011720       ?iItemSlot@CG3SG1@@UAEHXZ  10012720 f   wpn_g3sg1.obj
 0001:00011720       ?iItemSlot@CTMP@@UAEHXZ    10012720 f   wpn_tmp.obj
 0001:00011720       ?UseDecrement@CUMP45@@UAEHXZ 10012720 f   wpn_ump45.obj
 0001:00011720       ?UseDecrement@CTMP@@UAEHXZ 10012720 f   wpn_tmp.obj
 0001:00011720       ?UseDecrement@CUSP@@UAEHXZ 10012720 f   wpn_usp.obj
 0001:00011720       ?iItemSlot@CM249@@UAEHXZ   10012720 f   wpn_m249.obj
 0001:00011720       ?UseDecrement@CHEGrenade@@UAEHXZ 10012720 f   wpn_hegrenade.obj
 0001:00011720       ?UseDecrement@CFamas@@UAEHXZ 10012720 f   wpn_famas.obj
 0001:00011720       ?iItemSlot@CSG552@@UAEHXZ  10012720 f   wpn_sg552.obj
 0001:00011720       ?Classify@CGunTarget@@UAEHXZ 10012720 f   plats.obj
 0001:00011720       ?UseDecrement@CG3SG1@@UAEHXZ 10012720 f   wpn_g3sg1.obj
 0001:00011720       ?UseDecrement@CM4A1@@UAEHXZ 10012720 f   wpn_m4a1.obj
 0001:00011720       ?UseDecrement@CELITE@@UAEHXZ 10012720 f   wpn_elite.obj
 0001:00011720       ?IsPlayer@CBasePlayer@@UAEHXZ 10012720 f   client.obj
 0001:00011720       ?iItemSlot@CP90@@UAEHXZ    10012720 f   wpn_p90.obj
 0001:00011720       ?UseDecrement@CXM1014@@UAEHXZ 10012720 f   wpn_xm1014.obj
 0001:00011720       ?UseDecrement@CC4@@UAEHXZ  10012720 f   wpn_c4.obj
 0001:00011720       ?IsTogglePlat@CFuncTrackChange@@UAEHXZ 10012720 f   plats.obj
 0001:00011720       ?UseDecrement@CSmokeGrenade@@UAEHXZ 10012720 f   wpn_smokegrenade.obj
 0001:00011720       ?CanDrop@CBasePlayerItem@@UAEHXZ 10012720 f   h_cycler.obj
 0001:00011720       ?IsNetClient@CBasePlayer@@UAEHXZ 10012720 f   client.obj
 0001:00011720       ?iItemSlot@CFamas@@UAEHXZ  10012720 f   wpn_famas.obj
 0001:00011720       ?UseDecrement@CSG552@@UAEHXZ 10012720 f   wpn_sg552.obj
 0001:00011720       ?iItemSlot@CWeaponCycler@@UAEHXZ 10012720 f   h_cycler.obj
 0001:00011720       ?iItemSlot@CGalil@@UAEHXZ  10012720 f   wpn_galil.obj
 0001:00011720       ?UseDecrement@CDEAGLE@@UAEHXZ 10012720 f   wpn_deagle.obj
 0001:00011720       ?iItemSlot@CM4A1@@UAEHXZ   10012720 f   wpn_m4a1.obj
 0001:00011720       ?iItemSlot@CM3@@UAEHXZ     10012720 f   wpn_m3.obj
 0001:00011720       ?iItemSlot@CSG550@@UAEHXZ  10012720 f   wpn_sg550.obj
 0001:00011720       ?UseDecrement@CSCOUT@@UAEHXZ 10012720 f   wpn_scout.obj
 0001:00011720       ?iItemSlot@CSCOUT@@UAEHXZ  10012720 f   wpn_scout.obj
 0001:00011720       ?UseDecrement@CAWP@@UAEHXZ 10012720 f   wpn_awp.obj
 0001:00011720       ?iItemSlot@CUMP45@@UAEHXZ  10012720 f   wpn_ump45.obj
 0001:00011720       ?UseDecrement@CAUG@@UAEHXZ 10012720 f   wpn_aug.obj
 0001:00011720       ?UseDecrement@CM3@@UAEHXZ  10012720 f   wpn_m3.obj
 0001:00011720       ?UseDecrement@CMAC10@@UAEHXZ 10012720 f   wpn_mac10.obj
 0001:00011720       ?UseDecrement@CSG550@@UAEHXZ 10012720 f   wpn_sg550.obj
 0001:00011720       ?UseDecrement@CGalil@@UAEHXZ 10012720 f   wpn_galil.obj
 0001:00011720       ?UseDecrement@CP90@@UAEHXZ 10012720 f   wpn_p90.obj
 0001:00011720       ?IsMultiplayer@CHalfLifeMultiplay@@UAEHXZ 10012720 f   multiplay_gamerules.obj
 0001:00011720       ?AllowLagCompensation@@YAHXZ 10012720 f   client.obj
 0001:00011720       ?iItemSlot@CMAC10@@UAEHXZ  10012720 f   wpn_mac10.obj
 0001:00011720       ?CanHolster@CBasePlayerItem@@UAEHXZ 10012720 f   h_cycler.obj
 0001:00011720       ?UseDecrement@CFlashbang@@UAEHXZ 10012720 f   wpn_flashbang.obj
 0001:00011720       ?UseDecrement@CMP5N@@UAEHXZ 10012720 f   wpn_mp5navy.obj
 0001:00011720       ?iItemSlot@CMP5N@@UAEHXZ   10012720 f   wpn_mp5navy.obj
 0001:00011720       ?IsWeapon@CBasePlayerWeapon@@UAEHXZ 10012720 f   h_cycler.obj
 0001:00011720       ?UseDecrement@CGLOCK18@@UAEHXZ 10012720 f   wpn_glock18.obj
 0001:00011720       ?iItemSlot@CXM1014@@UAEHXZ 10012720 f   wpn_xm1014.obj
 0001:00011720       ?CanDeploy@CBasePlayerWeapon@@UAEHXZ 10012720 f   weapons.obj
 0001:00011720       ?UseDecrement@CKnife@@UAEHXZ 10012720 f   wpn_knife.obj
 0001:00011720       ?UseDecrement@CP228@@UAEHXZ 10012720 f   wpn_p228.obj
 0001:00011720       ?UseDecrement@CAK47@@UAEHXZ 10012720 f   wpn_ak47.obj
 0001:00011720       ?UseDecrement@CFiveSeven@@UAEHXZ 10012720 f   wpn_fiveseven.obj
 0001:00011720       ?iItemSlot@CAUG@@UAEHXZ    10012720 f   wpn_aug.obj
 0001:00011720       ?IsDeathmatch@CHalfLifeMultiplay@@UAEHXZ 10012720 f   multiplay_gamerules.obj
 0001:00011720       ?iItemSlot@CAWP@@UAEHXZ    10012720 f   wpn_awp.obj
 0001:00011720       ?UseDecrement@CM249@@UAEHXZ 10012720 f   wpn_m249.obj
 0001:00011720       ?iItemSlot@CAK47@@UAEHXZ   10012720 f   wpn_ak47.obj
 0001:00011730       ?BlinkAccount@@YAXPAVCBasePlayer@@H@Z 10012730 f   client.obj
 0001:00011770       ?BodyTarget@CBasePlayer@@UAE?AVVector@@ABV2@@Z 10012770 f i client.obj
 0001:00011820       ?Buy@@YAXPAVCBasePlayer@@H@Z 10012820 f   client.obj
 0001:00011ad0       ?BuyAmmo@@YA_NPAVCBasePlayer@@H_N@Z 10012ad0 f   client.obj
 0001:00011b60       ?BuyGunAmmo@@YA_NPAVCBasePlayer@@PAVCBasePlayerItem@@_N@Z 10012b60 f   client.obj
 0001:00011cf0       ?BuyItem@@YAXPAVCBasePlayer@@H@Z 10012cf0 f   client.obj
 0001:00012240       ?BuyMachineGun@@YAXPAVCBasePlayer@@H@Z 10013240 f   client.obj
 0001:000122d0       ?BuyPistol@@YAXPAVCBasePlayer@@H@Z 100132d0 f   client.obj
 0001:00012420       ?BuyRifle@@YAXPAVCBasePlayer@@H@Z 10013420 f   client.obj
 0001:00012600       ?BuyShotgun@@YAXPAVCBasePlayer@@H@Z 10013600 f   client.obj
 0001:000126d0       ?BuySubMachineGun@@YAXPAVCBasePlayer@@H@Z 100136d0 f   client.obj
 0001:000127f0       ?BuyWeaponByWeaponID@@YAXPAVCBasePlayer@@H@Z 100137f0 f   client.obj
 0001:000128b0       ?CMD_ARGC@@YAHXZ           100138b0 f   client.obj
 0001:000128e0       ?CMD_ARGV@@YAPBDH@Z        100138e0 f   client.obj
 0001:00012910       ?CanBuyThis@@YA_NPAVCBasePlayer@@H@Z 10013910 f   client.obj
 0001:000129f0       ?CanBuyWeaponByMaptype@@YA_NHH_N@Z 100139f0 f   client.obj
 0001:00012ba0       ?CheckEntityRecentlyInPVS@@YA_NHHM@Z 10013ba0 f   client.obj
 0001:00012bf0       ?CheckPlayerPVSLeafChanged@@YA_NPAUedict_s@@H@Z 10013bf0 f   client.obj
 0001:00012c50       ?CheckStartMoney@@YAXXZ    10013c50 f   client.obj
 0001:00012ca0       ?ClientCommand@@YAXPAUedict_s@@@Z 10013ca0 f   client.obj
 0001:00012cc0       ?ClientConnect@@YAHPAUedict_s@@PBD1QAD@Z 10013cc0 f   client.obj
 0001:00012ce0       ?ClientDisconnect@@YAXPAUedict_s@@@Z 10013ce0 f   client.obj
 0001:00012db0       ?ClientKill@@YAXPAUedict_s@@@Z 10013db0 f   client.obj
 0001:00012e60       ?ClientPrecache@@YAXXZ     10013e60 f   client.obj
 0001:000142a0       ?ClientPutInServer@@YAXPAUedict_s@@@Z 100152a0 f   client.obj
 0001:00014740       ?ClientUserInfoChanged@@YAXPAUedict_s@@PAD@Z 10015740 f   client.obj
 0001:00014930       ?CmdEnd@@YAXPBUedict_s@@@Z 10015930 f   client.obj
 0001:000149c0       ?CmdStart@@YAXPBUedict_s@@PBUusercmd_s@@I@Z 100159c0 f   client.obj
 0001:00014a10       ?ConnectionlessPacket@@YAHPBUnetadr_s@@PBDPADPAH@Z 10015a10 f   client.obj
 0001:00014a20       ?CreateBaseline@@YAXHHPAUentity_state_s@@PAUedict_s@@HVVector@@2@Z 10015a20 f   client.obj
 0001:00014ba0       ?Custom_Encode@@YAXPAUdelta_s@@PBE1@Z 10015ba0 f   client.obj
 0001:00014c80       ?Custom_Entity_FieldInit@@YAXPAUdelta_s@@@Z 10015c80 f   client.obj
 0001:00014d30       ?DropPistol@@YAXPAVCBasePlayer@@@Z 10015d30 f   client.obj
 0001:00014d80       ?DropPrimary@@YAXPAVCBasePlayer@@@Z 10015d80 f   client.obj
 0001:00014de0       ?EntityFromUserID@@YAPAVCBaseEntity@@H@Z 10015de0 f   client.obj
 0001:00014e60       ?Entity_Encode@@YAXPAUdelta_s@@PBE1@Z 10015e60 f   client.obj
 0001:00014fc0       ?Entity_FieldInit@@YAXPAUdelta_s@@@Z 10015fc0 f   client.obj
 0001:00015040       ?FNullEnt@@YAHPBUedict_s@@@Z 10016040 f i client.obj
 0001:00015070       ?GetHullBounds@@YAHHPAM0@Z 10016070 f   client.obj
 0001:00015090       ?GetWeaponData@@YAHPAUedict_s@@PAUweapon_data_s@@@Z 10016090 f   client.obj
 0001:00015230       ?HandleBuyAliasCommands@@YAHPAVCBasePlayer@@PBD@Z 10016230 f   client.obj
 0001:00015660       ?HandleMenu_ChooseAppearance@@YAXPAVCBasePlayer@@H@Z 10016660 f   client.obj
 0001:00015840       ?HandleMenu_ChooseTeam@@YAHPAVCBasePlayer@@H@Z 10016840 f   client.obj
 0001:00015fe0       ?HandleRadioAliasCommands@@YAHPAVCBasePlayer@@PBD@Z 10016fe0 f   client.obj
 0001:00016550       ?Host_Say@@YAXPAUedict_s@@H@Z 10017550 f   client.obj
 0001:00016a90       ?InconsistentFile@@YAHPBUedict_s@@PBDPAD@Z 10017a90 f   client.obj
 0001:00016ae0       ?IsPrimaryWeapon@@YA_NH@Z  10017ae0 f   client.obj
 0001:00016b70       ?IsSneaking@CBasePlayer@@UAEHXZ 10017b70 f i client.obj
 0001:00016b90       ?ListPlayers@@YAXPAVCBasePlayer@@@Z 10017b90 f   client.obj
 0001:00016d10       ?MarkEntityInPVS@@YAXHHM_N@Z 10017d10 f   client.obj
 0001:00016d40       ?ParmsChangeLevel@@YAXXZ   10017d40 f   client.obj
 0001:00016d70       ?PlayerCustomization@@YAXPAUedict_s@@PAUcustomization_s@@@Z 10017d70 f   client.obj
 0001:00016df0       ?PlayerPostThink@@YAXPAUedict_s@@@Z 10017df0 f   client.obj
 0001:00016e10       ?PlayerPreThink@@YAXPAUedict_s@@@Z 10017e10 f   client.obj
 0001:00016e30       ?Player_Encode@@YAXPAUdelta_s@@PBE1@Z 10017e30 f   client.obj
 0001:00016f10       ?Player_FieldInit@@YAXPAUdelta_s@@@Z 10017f10 f   client.obj
 0001:00016f50       ?ProcessKickVote@@YAXPAVCBasePlayer@@0@Z 10017f50 f   client.obj
 0001:00017130       ?Q_UTF8ToUChar32@@YAHPBDAAGAA_N@Z 10018130 f   client.obj
 0001:00017290       ?Q_UnicodeValidate@@YA_NPBD@Z 10018290 f   client.obj
 0001:000172f0       ?Radio1@@YAXPAVCBasePlayer@@H@Z 100182f0 f   client.obj
 0001:000173f0       ?Radio2@@YAXPAVCBasePlayer@@H@Z 100183f0 f   client.obj
 0001:000174f0       ?Radio3@@YAXPAVCBasePlayer@@H@Z 100184f0 f   client.obj
 0001:00017680       ?RegisterEncoders@@YAXXZ   10018680 f   client.obj
 0001:000176c0       ?RemoveAll@?$CUtlVector@PAD@@QAEXXZ 100186c0 f i hintmessage.obj
 0001:000176c0       ?RemoveAll@?$CUtlVector@PAVCHintMessage@@@@QAEXXZ 100186c0 f i client.obj
 0001:000176c0       ?RemoveAll@?$CUtlVector@Uhash_item_s@@@@QAEXXZ 100186c0 f i cbase.obj
 0001:000176d0       ?ResetPlayerPVS@@YAXPAUedict_s@@H@Z 100186d0 f   client.obj
 0001:00017750       ?SelectDefaultTeam@@YAHXZ  10018750 f   client.obj
 0001:000177e0       ?ServerActivate@@YAXPAUedict_s@@HH@Z 100187e0 f   client.obj
 0001:000178c0       ?ServerDeactivate@@YAXXZ   100188c0 f   client.obj
 0001:000178e0       ?SetupVisibility@@YAXPAUedict_s@@0PAPAE1@Z 100188e0 f   client.obj
 0001:00017a10       ?ShowMenu@@YAXPAVCBasePlayer@@HHHPAD@Z 10018a10 f   client.obj
 0001:00017a60       ?ShowVGUIMenu@@YAXPAVCBasePlayer@@HHPAD@Z 10018a60 f   client.obj
 0001:00017ae0       ?SpectatorConnect@@YAXPAUedict_s@@@Z 10018ae0 f   client.obj
 0001:00017b00       ?SpectatorDisconnect@@YAXPAUedict_s@@@Z 10018b00 f   client.obj
 0001:00017b20       ?SpectatorThink@@YAXPAUedict_s@@@Z 10018b20 f   client.obj
 0001:00017b40       ?StartFrame@@YAXXZ         10018b40 f   client.obj
 0001:00017bb0       ?StartSneaking@CBasePlayer@@UAEXXZ 10018bb0 f i client.obj
 0001:00017bd0       ?StopSneaking@CBasePlayer@@UAEXXZ 10018bd0 f i client.obj
 0001:00017bf0       ?UpdateClientData@@YAXPBUedict_s@@HPAUclientdata_s@@@Z 10018bf0 f   client.obj
 0001:00017f60       ?_ClientCommand@@YAXPAUedict_s@@@Z 10018f60 f   client.obj
 0001:00019690       ?respawn@@YAXPAUentvars_s@@H@Z 1001a690 f   client.obj
 0001:00019710       _CountTeamPlayers          1001a710 f   client.obj
 0001:00019790       _CountTeams                1001a790 f   client.obj
 0001:00019820       __snprintf                 1001a820 f i client.obj
 0001:00019860       _sprintf                   1001a860 f i client.obj
 0001:000198a0       ??$GetClassPtr@VCGib@@@@YAPAVCGib@@PAV0@@Z 1001a8a0 f i combat.obj
 0001:00019900       ??0TraceResult@@QAE@XZ     1001a900 f i combat.obj
 0001:00019930       ??0Vector@@QAE@MMM@Z       1001a930 f i combat.obj
 0001:00019960       ??D@YA?AVVector@@MABV0@@Z  1001a960 f i combat.obj
 0001:000199a0       ??DVector@@QBE?AV0@M@Z     1001a9a0 f i combat.obj
 0001:000199e0       ??HVector@@QBE?AV0@ABV0@@Z 1001a9e0 f i combat.obj
 0001:00019a20       ?BecomeDead@CBaseMonster@@UAEXXZ 1001aa20 f   combat.obj
 0001:00019a70       ?BloodSplat@CBaseMonster@@QAEXABVVector@@0HH@Z 1001aa70 f   combat.obj
 0001:00019b30       ?BounceGibTouch@CGib@@QAEXPAVCBaseEntity@@@Z 1001ab30 f   combat.obj
 0001:00019ce0       ?CallGibMonster@CBaseMonster@@QAEXXZ 1001ace0 f   combat.obj
 0001:00019de0       ?DeadTakeDamage@CBaseMonster@@QAEHPAUentvars_s@@0MH@Z 1001ade0 f   combat.obj
 0001:0001a050       ?EMIT_SOUND@@YAXPAUedict_s@@HPBDMM@Z 1001b050 f i combat.obj
 0001:0001a090       ?ENT@@YAPAUedict_s@@PBUentvars_s@@@Z 1001b090 f i combat.obj
 0001:0001a0a0       ?FInViewCone@CBaseMonster@@UAEHPAVCBaseEntity@@@Z 1001b0a0 f   combat.obj
 0001:0001a160       ?FInViewCone@CBaseMonster@@UAEHPAVVector@@@Z 1001b160 f   combat.obj
 0001:0001a220       ?FNullEnt@@YAHPAUentvars_s@@@Z 1001b220 f i combat.obj
 0001:0001a250       ?FVisible@CBaseEntity@@UAEHABVVector@@@Z 1001b250 f   combat.obj
 0001:0001a2e0       ?FVisible@CBaseEntity@@UAEHPAV1@@Z 1001b2e0 f   combat.obj
 0001:0001a3d0       ?FadeMonster@CBaseMonster@@UAEXXZ 1001b3d0 f   combat.obj
 0001:0001a440       ?FireBullets3@CBaseEntity@@QAE?AVVector@@V2@0MMHHHMPAUentvars_s@@_NH@Z 1001b440 f   combat.obj
 0001:0001b0e0       ?FireBullets@CBaseEntity@@QAEXKVVector@@00MHHHPAUentvars_s@@@Z 1001c0e0 f   combat.obj
 0001:0001baa0       ?GetDeathActivity@CBaseMonster@@UAE?AW4Activity@@XZ 1001caa0 f   combat.obj
 0001:0001bd20       ?GibMonster@CBaseMonster@@UAEXXZ 1001cd20 f   combat.obj
 0001:0001be30       ?HasAlienGibs@CBaseMonster@@UAEHXZ 1001ce30 f   combat.obj
 0001:0001be60       ?HasHumanGibs@CBaseMonster@@UAEHXZ 1001ce60 f   combat.obj
 0001:0001be90       ?Instance@CBaseEntity@@SAPAV1@PAUedict_s@@@Z 1001ce90 f i combat.obj
 0001:0001bec0       ?Killed@CBaseMonster@@UAEXPAUentvars_s@@H@Z 1001cec0 f   combat.obj
 0001:0001bfc0       ?LimitVelocity@CGib@@QAEXXZ 1001cfc0 f   combat.obj
 0001:0001c080       ?RadiusDamage2@@YAXVVector@@PAUentvars_s@@1MMHH@Z 1001d080 f   combat.obj
 0001:0001c400       ?RadiusDamage@@YAXVVector@@PAUentvars_s@@1MMHH@Z 1001d400 f   combat.obj
 0001:0001c580       ?RadiusDamage@CBaseMonster@@QAEXPAUentvars_s@@0MHH@Z 1001d580 f   combat.obj
 0001:0001c680       ?RadiusFlash@@YAXVVector@@PAUentvars_s@@1M@Z 1001d680 f   combat.obj
 0001:0001cb60       ?SUB_FadeOut@CBaseEntity@@QAEXXZ 1001db60 f   combat.obj
 0001:0001cbe0       ?SUB_StartFadeOut@CBaseEntity@@QAEXXZ 1001dbe0 f   combat.obj
 0001:0001cc60       ?ShouldGibMonster@CBaseMonster@@QAEHH@Z 1001dc60 f   combat.obj
 0001:0001cca0       ?Spawn@CGib@@QAEXPBD@Z     1001dca0 f   combat.obj
 0001:0001cdf0       ?SpawnHeadGib@CGib@@SAXPAUentvars_s@@@Z 1001ddf0 f   combat.obj
 0001:0001d120       ?SpawnRandomGibs@CGib@@SAXPAUentvars_s@@HH@Z 1001e120 f   combat.obj
 0001:0001d480       ?StickyGibTouch@CGib@@QAEXPAVCBaseEntity@@@Z 1001e480 f   combat.obj
 0001:0001d650       ?TakeDamage@CBaseMonster@@UAEHPAUentvars_s@@0MH@Z 1001e650 f   combat.obj
 0001:0001d9b0       ?TakeHealth@CBaseMonster@@UAEHMH@Z 1001e9b0 f   combat.obj
 0001:0001da00       ?TraceAttack@CBaseEntity@@UAEXPAUentvars_s@@MVVector@@PAUTraceResult@@H@Z 1001ea00 f   combat.obj
 0001:0001db30       ?TraceAttack@CBaseMonster@@UAEXPAUentvars_s@@MVVector@@PAUTraceResult@@H@Z 1001eb30 f   combat.obj
 0001:0001dc30       ?TraceBleed@CBaseEntity@@UAEXMVVector@@PAUTraceResult@@H@Z 1001ec30 f   combat.obj
 0001:0001de50       ?VARS@@YAPAUentvars_s@@PAUedict_s@@@Z 1001ee50 f i combat.obj
 0001:0001de70       ?WaitTillLand@CGib@@QAEXXZ 1001ee70 f   combat.obj
 0001:0001df30       ?edict@CBaseEntity@@QAEPAUedict_s@@XZ 1001ef30 f i combat.obj
 0001:0001df40       ??$GetClassPtr@VCBaseDoor@@@@YAPAVCBaseDoor@@PAV0@@Z 1001ef40 f i doors.obj
 0001:0001dfb0       ??$GetClassPtr@VCMomentaryDoor@@@@YAPAVCMomentaryDoor@@PAV0@@Z 1001efb0 f i doors.obj
 0001:0001e020       ??$GetClassPtr@VCRotDoor@@@@YAPAVCRotDoor@@PAV0@@Z 1001f020 f i doors.obj
 0001:0001e090       ?Blocked@CBaseDoor@@UAEXPAVCBaseEntity@@@Z 1001f090 f   doors.obj
 0001:0001e340       ?DoorActivate@CBaseDoor@@QAEHXZ 1001f340 f   doors.obj
 0001:0001e400       ?DoorGoDown@CBaseDoor@@QAEXXZ 1001f400 f   doors.obj
 0001:0001e520       ?DoorGoUp@CBaseDoor@@QAEXXZ 1001f520 f   doors.obj
 0001:0001e820       ?DoorHitBottom@CBaseDoor@@QAEXXZ 1001f820 f   doors.obj
 0001:0001e930       ?DoorHitTop@CBaseDoor@@QAEXXZ 1001f930 f   doors.obj
 0001:0001ea90       ?DoorTouch@CBaseDoor@@QAEXPAVCBaseEntity@@@Z 1001fa90 f   doors.obj
 0001:0001eb20       ?FClassnameIs@@YAHPAUedict_s@@PBD@Z 1001fb20 f i doors.obj
 0001:0001eb80       ?KeyValue@CBaseDoor@@UAEXPAUKeyValueData_s@@@Z 1001fb80 f   doors.obj
 0001:0001edd0       ?KeyValue@CMomentaryDoor@@UAEXPAUKeyValueData_s@@@Z 1001fdd0 f   doors.obj
 0001:0001eea0       ?ObjectCaps@CBaseDoor@@UAEHXZ 1001fea0 f i doors.obj
 0001:0001eeb0       ?PlayLockSounds@@YAXPAUentvars_s@@PAUlocksounds@@HH@Z 1001feb0 f   doors.obj
 0001:0001f0f0       ?Precache@CBaseDoor@@UAEXXZ 100200f0 f   doors.obj
 0001:0001f600       ?Precache@CMomentaryDoor@@UAEXXZ 10020600 f   doors.obj
 0001:0001f780       ?Restart@CBaseDoor@@UAEXXZ 10020780 f   doors.obj
 0001:0001f7c0       ?Restart@CRotDoor@@UAEXXZ  100207c0 f   doors.obj
 0001:0001f900       ?Restore@CBaseDoor@@UAEHAAVCRestore@@@Z 10020900 f   doors.obj
 0001:0001f940       ?Restore@CMomentaryDoor@@UAEHAAVCRestore@@@Z 10020940 f   doors.obj
 0001:0001f980       ?Save@CBaseDoor@@UAEHAAVCSave@@@Z 10020980 f   doors.obj
 0001:0001f9c0       ?Save@CMomentaryDoor@@UAEHAAVCSave@@@Z 100209c0 f   doors.obj
 0001:0001fa00       ?SetToggleState@CBaseDoor@@UAEXH@Z 10020a00 f   doors.obj
 0001:0001fa30       ?SetToggleState@CRotDoor@@UAEXH@Z 10020a30 f   doors.obj
 0001:0001fa90       ?Spawn@CBaseDoor@@UAEXXZ   10020a90 f   doors.obj
 0001:0001fca0       ?Spawn@CMomentaryDoor@@UAEXXZ 10020ca0 f   doors.obj
 0001:0001fe80       ?Spawn@CRotDoor@@UAEXXZ    10020e80 f   doors.obj
 0001:000200a0       ?Use@CBaseDoor@@UAEXPAVCBaseEntity@@0W4USE_TYPE@@M@Z 100210a0 f   doors.obj
 0001:000200e0       ?Use@CMomentaryDoor@@UAEXPAVCBaseEntity@@0W4USE_TYPE@@M@Z 100210e0 f   doors.obj
 0001:00020260       _func_water                10021260 f   doors.obj
 0001:00020260       _func_door                 10021260 f   doors.obj
 0001:00020270       _func_door_rotating        10021270 f   doors.obj
 0001:00020280       _momentary_door            10021280 f   doors.obj
 0001:00020290       ??$GetClassPtr@VCBeam@@@@YAPAVCBeam@@PAV0@@Z 10021290 f i effects.obj
 0001:000202f0       ??$GetClassPtr@VCBlood@@@@YAPAVCBlood@@PAV0@@Z 100212f0 f i effects.obj
 0001:00020350       ??$GetClassPtr@VCBombGlow@@@@YAPAVCBombGlow@@PAV0@@Z 10021350 f i effects.obj
 0001:000203b0       ??$GetClassPtr@VCBubbling@@@@YAPAVCBubbling@@PAV0@@Z 100213b0 f i effects.obj
 0001:00020410       ??$GetClassPtr@VCEnvBeverage@@@@YAPAVCEnvBeverage@@PAV0@@Z 10021410 f i effects.obj
 0001:00020470       ??$GetClassPtr@VCEnvFunnel@@@@YAPAVCEnvFunnel@@PAV0@@Z 10021470 f i effects.obj
 0001:000204d0       ??$GetClassPtr@VCEnvShooter@@@@YAPAVCEnvShooter@@PAV0@@Z 100214d0 f i effects.obj
 0001:00020530       ??$GetClassPtr@VCFade@@@@YAPAVCFade@@PAV0@@Z 10021530 f i effects.obj
 0001:00020590       ??$GetClassPtr@VCGibShooter@@@@YAPAVCGibShooter@@PAV0@@Z 10021590 f i effects.obj
 0001:000205f0       ??$GetClassPtr@VCGlow@@@@YAPAVCGlow@@PAV0@@Z 100215f0 f i effects.obj
 0001:00020650       ??$GetClassPtr@VCItemSoda@@@@YAPAVCItemSoda@@PAV0@@Z 10021650 f i effects.obj
 0001:000206b0       ??$GetClassPtr@VCLaser@@@@YAPAVCLaser@@PAV0@@Z 100216b0 f i effects.obj
 0001:00020730       ??$GetClassPtr@VCLightning@@@@YAPAVCLightning@@PAV0@@Z 10021730 f i effects.obj
 0001:00020790       ??$GetClassPtr@VCMessage@@@@YAPAVCMessage@@PAV0@@Z 10021790 f i effects.obj
 0001:000207f0       ??$GetClassPtr@VCPointEntity@@@@YAPAVCPointEntity@@PAV0@@Z 100217f0 f i effects.obj
 0001:00020850       ??$GetClassPtr@VCShake@@@@YAPAVCShake@@PAV0@@Z 10021850 f i effects.obj
 0001:000208b0       ??$GetClassPtr@VCSprite@@@@YAPAVCSprite@@PAV0@@Z 100218b0 f i effects.obj
 0001:00020910       ??$GetClassPtr@VCTestEffect@@@@YAPAVCTestEffect@@PAV0@@Z 10021910 f i effects.obj
 0001:00020970       ?Activate@CLightning@@UAEXXZ 10021970 f   effects.obj
 0001:000209a0       ?Animate@CGlow@@QAEXM@Z    100219a0 f   effects.obj
 0001:000209f0       ?Animate@CSprite@@QAEXM@Z  100219f0 f   effects.obj
 0001:00020a70       ?AnimateThink@CSprite@@QAEXXZ 10021a70 f   effects.obj
 0001:00020ad0       ?AnimateUntilDead@CSprite@@QAEXXZ 10021ad0 f   effects.obj
 0001:00020b10       ?BeamCreate@CBeam@@SAPAV1@PBDH@Z 10021b10 f   effects.obj
 0001:00020b90       ?BeamDamage@CBeam@@QAEXPAUTraceResult@@@Z 10021b90 f   effects.obj
 0001:00020d20       ?BeamInit@CBeam@@QAEXPBDH@Z 10021d20 f   effects.obj
 0001:00020e00       ?BeamUpdateVars@CLightning@@QAEXXZ 10021e00 f   effects.obj
 0001:00021040       ?BloodPosition@CBlood@@QAE?AVVector@@PAVCBaseEntity@@@Z 10022040 f   effects.obj
 0001:00021160       ?CanThink@CItemSoda@@QAEXXZ 10022160 f   effects.obj
 0001:00021200       ?CanTouch@CItemSoda@@QAEXPAVCBaseEntity@@@Z 10022200 f   effects.obj
 0001:000212b0       ?Center@CBeam@@UAE?AVVector@@XZ 100222b0 f i effects.obj
 0001:00021310       ?CreateGib@CEnvShooter@@UAEPAVCGib@@XZ 10022310 f   effects.obj
 0001:00021400       ?CreateGib@CGibShooter@@UAEPAVCGib@@XZ 10022400 f   effects.obj
 0001:000214a0       ?DamageThink@CLightning@@QAEXXZ 100224a0 f   effects.obj
 0001:00021530       ?Direction@CBlood@@QAE?AVVector@@XZ 10022530 f   effects.obj
 0001:00021580       ?DoSparks@CBeam@@QAEXABVVector@@0@Z 10022580 f   effects.obj
 0001:000215c0       ?ExpandThink@CSprite@@QAEXXZ 100225c0 f   effects.obj
 0001:00021670       ?FClassnameIs@@YAHPAUentvars_s@@PBD@Z 10022670 f i effects.obj
 0001:000216c0       ?FireAtPoint@CLaser@@QAEXAAUTraceResult@@@Z 100226c0 f   effects.obj
 0001:00021720       ?FizzThink@CBubbling@@QAEXXZ 10022720 f   effects.obj
 0001:000217f0       ?GetEndPos@CBeam@@QAEABVVector@@XZ 100227f0 f   effects.obj
 0001:00021840       ?GetStartPos@CBeam@@QAEABVVector@@XZ 10022840 f   effects.obj
 0001:00021870       ?IsOn@CLaser@@QAEHXZ       10022870 f   effects.obj
 0001:00021890       ?IsPointEntity@@YAHPAVCBaseEntity@@@Z 10022890 f   effects.obj
 0001:00021940       ?KeyValue@CBlood@@UAEXPAUKeyValueData_s@@@Z 10022940 f   effects.obj
 0001:00021a30       ?KeyValue@CBubbling@@UAEXPAUKeyValueData_s@@@Z 10022a30 f   effects.obj
 0001:00021b50       ?KeyValue@CEnvShooter@@UAEXPAUKeyValueData_s@@@Z 10022b50 f   effects.obj
 0001:00021c90       ?KeyValue@CFade@@UAEXPAUKeyValueData_s@@@Z 10022c90 f   effects.obj
 0001:00021d70       ?KeyValue@CGibShooter@@UAEXPAUKeyValueData_s@@@Z 10022d70 f   effects.obj
 0001:00021ec0       ?KeyValue@CLaser@@UAEXPAUKeyValueData_s@@@Z 10022ec0 f   effects.obj
 0001:00022100       ?KeyValue@CLightning@@UAEXPAUKeyValueData_s@@@Z 10023100 f   effects.obj
 0001:000223b0       ?KeyValue@CMessage@@UAEXPAUKeyValueData_s@@@Z 100233b0 f   effects.obj
 0001:000224e0       ?KeyValue@CShake@@UAEXPAUKeyValueData_s@@@Z 100234e0 f   effects.obj
 0001:00022660       ?ObjectCaps@CBeam@@UAEHXZ  10023660 f i effects.obj
 0001:00022660       ?ObjectCaps@CSprite@@UAEHXZ 10023660 f i effects.obj
 0001:00022680       ?PointsInit@CBeam@@QAEXABVVector@@0@Z 10023680 f   effects.obj
 0001:000226f0       ?Precache@CBeam@@UAEXXZ    100236f0 f   effects.obj
 0001:00022740       ?Precache@CBubbling@@UAEXXZ 10023740 f   effects.obj
 0001:00022760       ?Precache@CEnvBeverage@@UAEXXZ 10023760 f   effects.obj
 0001:00022780       ?Precache@CEnvFunnel@@UAEXXZ 10023780 f   effects.obj
 0001:000227a0       ?Precache@CEnvShooter@@UAEXXZ 100237a0 f   effects.obj
 0001:000227e0       ?Precache@CGibShooter@@UAEXXZ 100237e0 f   effects.obj
 0001:00022820       ?Precache@CLaser@@UAEXXZ   10023820 f   effects.obj
 0001:00022870       ?Precache@CLightning@@UAEXXZ 10023870 f   effects.obj
 0001:000228a0       ?Precache@CMessage@@UAEXXZ 100238a0 f   effects.obj
 0001:000228d0       ?Precache@CSprite@@UAEXXZ  100238d0 f   effects.obj
 0001:00022960       ?Precache@CTestEffect@@UAEXXZ 10023960 f   effects.obj
 0001:00022970       ?RandomArea@CLightning@@QAEXXZ 10023970 f   effects.obj
 0001:00022e10       ?RandomPoint@CLightning@@QAEXAAVVector@@@Z 10023e10 f   effects.obj
 0001:00023040       ?RandomTargetname@CBeam@@QAEPAVCBaseEntity@@PBD@Z 10024040 f   effects.obj
 0001:00023090       ?RelinkBeam@CBeam@@QAEXXZ  10024090 f   effects.obj
 0001:000231e0       ?Restart@CSprite@@UAEXXZ   100241e0 f   effects.obj
 0001:00023240       ?Restore@CBubbling@@UAEHAAVCRestore@@@Z 10024240 f   effects.obj
 0001:00023280       ?Restore@CGibShooter@@UAEHAAVCRestore@@@Z 10024280 f   effects.obj
 0001:000232c0       ?Restore@CGlow@@UAEHAAVCRestore@@@Z 100242c0 f   effects.obj
 0001:00023300       ?Restore@CLaser@@UAEHAAVCRestore@@@Z 10024300 f   effects.obj
 0001:00023340       ?Restore@CLightning@@UAEHAAVCRestore@@@Z 10024340 f   effects.obj
 0001:00023380       ?Restore@CSprite@@UAEHAAVCRestore@@@Z 10024380 f   effects.obj
 0001:000233c0       ?Save@CBubbling@@UAEHAAVCSave@@@Z 100243c0 f   effects.obj
 0001:00023400       ?Save@CGibShooter@@UAEHAAVCSave@@@Z 10024400 f   effects.obj
 0001:00023440       ?Save@CGlow@@UAEHAAVCSave@@@Z 10024440 f   effects.obj
 0001:00023480       ?Save@CLaser@@UAEHAAVCSave@@@Z 10024480 f   effects.obj
 0001:000234c0       ?Save@CLightning@@UAEHAAVCSave@@@Z 100244c0 f   effects.obj
 0001:00023500       ?Save@CSprite@@UAEHAAVCSave@@@Z 10024500 f   effects.obj
 0001:00023540       ?SetEndEntity@CBeam@@QAEXH@Z 10024540 f   effects.obj
 0001:00023590       ?SetStartEntity@CBeam@@QAEXH@Z 10024590 f   effects.obj
 0001:000235e0       ?ShootThink@CGibShooter@@QAEXXZ 100245e0 f   effects.obj
 0001:00023990       ?Spawn@CBeam@@UAEXXZ       10024990 f   effects.obj
 0001:000239b0       ?Spawn@CBlood@@UAEXXZ      100249b0 f   effects.obj
 0001:000239f0       ?Spawn@CBombGlow@@UAEXXZ   100249f0 f   effects.obj
 0001:00023ac0       ?Spawn@CBubbling@@UAEXXZ   10024ac0 f   effects.obj
 0001:00023bc0       ?Spawn@CEnvBeverage@@UAEXXZ 10024bc0 f   effects.obj
 0001:00023c20       ?Spawn@CEnvFunnel@@UAEXXZ  10024c20 f   effects.obj
 0001:00023c50       ?Spawn@CFade@@UAEXXZ       10024c50 f   effects.obj
 0001:00023c90       ?Spawn@CGibShooter@@UAEXXZ 10024c90 f   effects.obj
 0001:00023d10       ?Spawn@CGlow@@UAEXXZ       10024d10 f   effects.obj
 0001:00023e00       ?Spawn@CItemSoda@@UAEXXZ   10024e00 f   effects.obj
 0001:00023eb0       ?Spawn@CLaser@@UAEXXZ      10024eb0 f   effects.obj
 0001:00024020       ?Spawn@CLightning@@UAEXXZ  10025020 f   effects.obj
 0001:00024170       ?Spawn@CMessage@@UAEXXZ    10025170 f   effects.obj
 0001:00024200       ?Spawn@CShake@@UAEXXZ      10025200 f   effects.obj
 0001:00024250       ?Spawn@CSprite@@UAEXXZ     10025250 f   effects.obj
 0001:00024330       ?SpriteCreate@CSprite@@SAPAV1@PBDABVVector@@H@Z 10025330 f   effects.obj
 0001:000243d0       ?SpriteInit@CSprite@@QAEXPBDABVVector@@@Z 100253d0 f   effects.obj
 0001:00024410       ?StrikeThink@CLaser@@QAEXXZ 10025410 f   effects.obj
 0001:000244d0       ?StrikeThink@CLightning@@QAEXXZ 100254d0 f   effects.obj
 0001:000248b0       ?StrikeUse@CLightning@@QAEXPAVCBaseEntity@@0W4USE_TYPE@@M@Z 100258b0 f   effects.obj
 0001:00024930       ?TestThink@CTestEffect@@QAEXXZ 10025930 f   effects.obj
 0001:00024c70       ?Think@CBombGlow@@UAEXXZ   10025c70 f   effects.obj
 0001:00024d80       ?Think@CGlow@@UAEXXZ       10025d80 f   effects.obj
 0001:00024de0       ?ToggleUse@CLightning@@QAEXPAVCBaseEntity@@0W4USE_TYPE@@M@Z 10025de0 f   effects.obj
 0001:00024e90       ?TriggerTouch@CBeam@@QAEXPAVCBaseEntity@@@Z 10025e90 f   effects.obj
 0001:00024ee0       ?TurnOff@CLaser@@QAEXXZ    10025ee0 f   effects.obj
 0001:00024f10       ?TurnOff@CSprite@@QAEXXZ   10025f10 f   effects.obj
 0001:00024f30       ?TurnOn@CLaser@@QAEXXZ     10025f30 f   effects.obj
 0001:00024f80       ?TurnOn@CSprite@@QAEXXZ    10025f80 f   effects.obj
 0001:00024ff0       ?Use@CBlood@@UAEXPAVCBaseEntity@@0W4USE_TYPE@@M@Z 10025ff0 f   effects.obj
 0001:00025170       ?Use@CBubbling@@UAEXPAVCBaseEntity@@0W4USE_TYPE@@M@Z 10026170 f   effects.obj
 0001:000251f0       ?Use@CEnvBeverage@@UAEXPAVCBaseEntity@@0W4USE_TYPE@@M@Z 100261f0 f   effects.obj
 0001:00025290       ?Use@CEnvFunnel@@UAEXPAVCBaseEntity@@0W4USE_TYPE@@M@Z 10026290 f   effects.obj
 0001:00025330       ?Use@CFade@@UAEXPAVCBaseEntity@@0W4USE_TYPE@@M@Z 10026330 f   effects.obj
 0001:00025400       ?Use@CGibShooter@@UAEXPAVCBaseEntity@@0W4USE_TYPE@@M@Z 10026400 f   effects.obj
 0001:00025420       ?Use@CLaser@@UAEXPAVCBaseEntity@@0W4USE_TYPE@@M@Z 10026420 f   effects.obj
 0001:00025460       ?Use@CMessage@@UAEXPAVCBaseEntity@@0W4USE_TYPE@@M@Z 10026460 f   effects.obj
 0001:00025570       ?Use@CShake@@UAEXPAVCBaseEntity@@0W4USE_TYPE@@M@Z 10026570 f   effects.obj
 0001:000255c0       ?Use@CSprite@@UAEXPAVCBaseEntity@@0W4USE_TYPE@@M@Z 100265c0 f   effects.obj
 0001:00025610       ?Use@CTestEffect@@UAEXPAVCBaseEntity@@0W4USE_TYPE@@M@Z 10026610 f   effects.obj
 0001:00025650       ?Zap@CLightning@@QAEXABVVector@@0@Z 10026650 f   effects.obj
 0001:000257a0       ?entindex@CBaseEntity@@QAEHXZ 100267a0 f i effects.obj
 0001:000257c0       _beam                      100267c0 f   effects.obj
 0001:000257d0       _env_beam                  100267d0 f   effects.obj
 0001:000257d0       _env_lightning             100267d0 f   effects.obj
 0001:000257e0       _env_beverage              100267e0 f   effects.obj
 0001:000257f0       _env_blood                 100267f0 f   effects.obj
 0001:00025800       _env_bombglow              10026800 f   effects.obj
 0001:00025810       _env_bubbles               10026810 f   effects.obj
 0001:00025820       _env_fade                  10026820 f   effects.obj
 0001:00025830       _env_funnel                10026830 f   effects.obj
 0001:00025840       _env_glow                  10026840 f   effects.obj
 0001:00025850       _env_laser                 10026850 f   effects.obj
 0001:00025860       _env_message               10026860 f   effects.obj
 0001:00025870       _env_shake                 10026870 f   effects.obj
 0001:00025880       _env_shooter               10026880 f   effects.obj
 0001:00025890       _env_sprite                10026890 f   effects.obj
 0001:000258a0       _gibshooter                100268a0 f   effects.obj
 0001:000258b0       _item_sodacan              100268b0 f   effects.obj
 0001:000258c0       _test_effect               100268c0 f   effects.obj
 0001:000258d0       ??$GetClassPtr@VCEnvExplosion@@@@YAPAVCEnvExplosion@@PAV0@@Z 100268d0 f i explode.obj
 0001:00025a30       ??$GetClassPtr@VCShower@@@@YAPAVCShower@@PAV0@@Z 10026a30 f i explode.obj
 0001:00025a90       ?ExplosionCreate@@YAXABVVector@@0PAUedict_s@@HH@Z 10026a90 f   explode.obj
 0001:00025b20       ?KeyValue@CEnvExplosion@@UAEXPAUKeyValueData_s@@@Z 10026b20 f   explode.obj
 0001:00025b90       ?Restore@CEnvExplosion@@UAEHAAVCRestore@@@Z 10026b90 f   explode.obj
 0001:00025bd0       ?Save@CEnvExplosion@@UAEHAAVCSave@@@Z 10026bd0 f   explode.obj
 0001:00025c10       ?Smoke@CEnvExplosion@@QAEXXZ 10026c10 f   explode.obj
 0001:00025cc0       ?Spawn@CEnvExplosion@@UAEXXZ 10026cc0 f   explode.obj
 0001:00025d20       ?Spawn@CShower@@UAEXXZ     10026d20 f   explode.obj
 0001:00025eb0       ?Think@CShower@@UAEXXZ     10026eb0 f   explode.obj
 0001:00025f40       ?Touch@CShower@@UAEXPAVCBaseEntity@@@Z 10026f40 f   explode.obj
 0001:00025fd0       ?Use@CEnvExplosion@@UAEXPAVCBaseEntity@@0W4USE_TYPE@@M@Z 10026fd0 f   explode.obj
 0001:000262f0       _env_explosion             100272f0 f   explode.obj
 0001:00026300       _spark_shower              10027300 f   explode.obj
 0001:00026310       ??$GetClassPtr@VCBreakable@@@@YAPAVCBreakable@@PAV0@@Z 10027310 f i func_break.obj
 0001:00026370       ??$GetClassPtr@VCPushable@@@@YAPAVCPushable@@PAV0@@Z 10027370 f i func_break.obj
 0001:000263d0       ?BreakTouch@CBreakable@@QAEXPAVCBaseEntity@@@Z 100273d0 f   func_break.obj
 0001:000265f0       ?DamageDecal@CBreakable@@UAEHH@Z 100275f0 f   func_break.obj
 0001:00026630       ?DamageSound@CBreakable@@QAEXXZ 10027630 f   func_break.obj
 0001:000267c0       ?Die@CBreakable@@QAEXXZ    100277c0 f   func_break.obj
 0001:00026e50       ?IsBreakable@CBreakable@@QAEHXZ 10027e50 f   func_break.obj
 0001:00026e70       ?KeyValue@CBreakable@@UAEXPAUKeyValueData_s@@@Z 10027e70 f   func_break.obj
 0001:00027090       ?KeyValue@CPushable@@UAEXPAUKeyValueData_s@@@Z 10028090 f   func_break.obj
 0001:00027250       ?MaterialSoundList@CBreakable@@SAPAPBDW4Materials@@AAH@Z 10028250 f   func_break.obj
 0001:000272f0       ?MaterialSoundPrecache@CBreakable@@SAXW4Materials@@@Z 100282f0 f   func_break.obj
 0001:00027340       ?MaterialSoundRandom@CBreakable@@SAXPAUedict_s@@W4Materials@@M@Z 10028340 f   func_break.obj
 0001:000273a0       ?Move@CPushable@@QAEXPAVCBaseEntity@@H@Z 100283a0 f   func_break.obj
 0001:000275e0       ?ObjectCaps@CRecharge@@UAEHXZ 100285e0 f i h_battery.obj
 0001:000275e0       ?ObjectCaps@CWallHealth@@UAEHXZ 100285e0 f i healthkit.obj
 0001:000275e0       ?ObjectCaps@CPushable@@UAEHXZ 100285e0 f i func_break.obj
 0001:000275f0       ?Precache@CBreakable@@UAEXXZ 100285f0 f   func_break.obj
 0001:00027780       ?Precache@CPushable@@UAEXXZ 10028780 f   func_break.obj
 0001:000277c0       ?Restart@CBreakable@@UAEXXZ 100287c0 f   func_break.obj
 0001:000278b0       ?Restore@CBreakable@@UAEHAAVCRestore@@@Z 100288b0 f   func_break.obj
 0001:000278f0       ?Restore@CPushable@@UAEHAAVCRestore@@@Z 100288f0 f   func_break.obj
 0001:00027930       ?Save@CBreakable@@UAEHAAVCSave@@@Z 10028930 f   func_break.obj
 0001:00027970       ?Save@CPushable@@UAEHAAVCSave@@@Z 10028970 f   func_break.obj
 0001:000279b0       ?Spawn@CBreakable@@UAEXXZ  100289b0 f   func_break.obj
 0001:00027a90       ?Spawn@CPushable@@UAEXXZ   10028a90 f   func_break.obj
 0001:00027bc0       ?TakeDamage@CBreakable@@UAEHPAUentvars_s@@0MH@Z 10028bc0 f   func_break.obj
 0001:00027e20       ?TakeDamage@CPushable@@UAEHPAUentvars_s@@0MH@Z 10028e20 f   func_break.obj
 0001:00027e60       ?Touch@CPushable@@UAEXPAVCBaseEntity@@@Z 10028e60 f   func_break.obj
 0001:00027ec0       ?TraceAttack@CBreakable@@UAEXPAUentvars_s@@MVVector@@PAUTraceResult@@H@Z 10028ec0 f   func_break.obj
 0001:00028000       ?Use@CBreakable@@UAEXPAVCBaseEntity@@0W4USE_TYPE@@M@Z 10029000 f   func_break.obj
 0001:00028080       ?Use@CPushable@@UAEXPAVCBaseEntity@@0W4USE_TYPE@@M@Z 10029080 f   func_break.obj
 0001:00028110       _func_breakable            10029110 f   func_break.obj
 0001:00028120       _func_pushable             10029120 f   func_break.obj
 0001:00028130       ??$GetClassPtr@VCFuncTankControls@@@@YAPAVCFuncTankControls@@PAV0@@Z 10029130 f i func_tank.obj
 0001:00028190       ??$GetClassPtr@VCFuncTankGun@@@@YAPAVCFuncTankGun@@PAV0@@Z 10029190 f i func_tank.obj
 0001:00028200       ??$GetClassPtr@VCFuncTankLaser@@@@YAPAVCFuncTankLaser@@PAV0@@Z 10029200 f i func_tank.obj
 0001:00028270       ??$GetClassPtr@VCFuncTankMortar@@@@YAPAVCFuncTankMortar@@PAV0@@Z 10029270 f i func_tank.obj
 0001:000282e0       ??$GetClassPtr@VCFuncTankRocket@@@@YAPAVCFuncTankRocket@@PAV0@@Z 100292e0 f i func_tank.obj
 0001:00028350       ??0CFuncTank@@QAE@XZ       10029350 f i func_tank.obj
 0001:000283c0       ?Activate@CFuncTankLaser@@UAEXXZ 100293c0 f   func_tank.obj
 0001:000283f0       ?AdjustAnglesForBarrel@CFuncTank@@QAEXAAVVector@@M@Z 100293f0 f   func_tank.obj
 0001:00028520       ?BarrelPosition@CFuncTank@@QAE?AVVector@@XZ 10029520 f i func_tank.obj
 0001:00028650       ?ControllerPostFrame@CFuncTank@@QAEXXZ 10029650 f   func_tank.obj
 0001:00028760       ?FindTarget@CFuncTank@@QAEPAUedict_s@@PAU2@@Z 10029760 f   func_tank.obj
 0001:00028770       ?Fire@CFuncTank@@UAEXABVVector@@0PAUentvars_s@@@Z 10029770 f   func_tank.obj
 0001:000289e0       ?Fire@CFuncTankGun@@UAEXABVVector@@0PAUentvars_s@@@Z 100299e0 f   func_tank.obj
 0001:00028b60       ?Fire@CFuncTankLaser@@UAEXABVVector@@0PAUentvars_s@@@Z 10029b60 f   func_tank.obj
 0001:00028cd0       ?Fire@CFuncTankMortar@@UAEXABVVector@@0PAUentvars_s@@@Z 10029cd0 f   func_tank.obj
 0001:00028db0       ?Fire@CFuncTankRocket@@UAEXABVVector@@0PAUentvars_s@@@Z 10029db0 f   func_tank.obj
 0001:00028e40       ?GetLaser@CFuncTankLaser@@QAEPAVCLaser@@XZ 10029e40 f   func_tank.obj
 0001:00028f20       ?InRange@CFuncTank@@QAEHM@Z 10029f20 f   func_tank.obj
 0001:00028f60       ?KeyValue@CFuncTank@@UAEXPAUKeyValueData_s@@@Z 10029f60 f   func_tank.obj
 0001:000293f0       ?KeyValue@CFuncTankLaser@@UAEXPAUKeyValueData_s@@@Z 1002a3f0 f   func_tank.obj
 0001:00029460       ?KeyValue@CFuncTankMortar@@UAEXPAUKeyValueData_s@@@Z 1002a460 f   func_tank.obj
 0001:000294d0       ?ObjectCaps@CFuncTankControls@@UAEHXZ 1002a4d0 f   func_tank.obj
 0001:000294e0       ?OnControls@CFuncTank@@UAEHPAUentvars_s@@@Z 1002a4e0 f   func_tank.obj
 0001:00029560       ?Precache@CFuncTank@@UAEXXZ 1002a560 f   func_tank.obj
 0001:000295d0       ?Precache@CFuncTankRocket@@UAEXXZ 1002a5d0 f   func_tank.obj
 0001:000295f0       ?Restore@CFuncTank@@UAEHAAVCRestore@@@Z 1002a5f0 f   func_tank.obj
 0001:00029630       ?Restore@CFuncTankControls@@UAEHAAVCRestore@@@Z 1002a630 f   func_tank.obj
 0001:00029670       ?Restore@CFuncTankLaser@@UAEHAAVCRestore@@@Z 1002a670 f   func_tank.obj
 0001:000296b0       ?Save@CFuncTank@@UAEHAAVCSave@@@Z 1002a6b0 f   func_tank.obj
 0001:000296f0       ?Save@CFuncTankControls@@UAEHAAVCSave@@@Z 1002a6f0 f   func_tank.obj
 0001:00029730       ?Save@CFuncTankLaser@@UAEHAAVCSave@@@Z 1002a730 f   func_tank.obj
 0001:00029770       ?Spawn@CFuncTank@@UAEXXZ   1002a770 f   func_tank.obj
 0001:00029860       ?Spawn@CFuncTankControls@@UAEXXZ 1002a860 f   func_tank.obj
 0001:00029900       ?StartControl@CFuncTank@@QAEHPAVCBasePlayer@@@Z 1002a900 f   func_tank.obj
 0001:000299d0       ?StartRotSound@CFuncTank@@QAEXXZ 1002a9d0 f   func_tank.obj
 0001:00029a40       ?StopControl@CFuncTank@@QAEXXZ 1002aa40 f   func_tank.obj
 0001:00029ac0       ?StopRotSound@CFuncTank@@QAEXXZ 1002aac0 f   func_tank.obj
 0001:00029b20       ?TankTrace@CFuncTank@@QAEXABVVector@@00AAUTraceResult@@@Z 1002ab20 f   func_tank.obj
 0001:00029ca0       ?Think@CFuncTank@@UAEXXZ   1002aca0 f   func_tank.obj
 0001:00029d10       ?Think@CFuncTankControls@@UAEXXZ 1002ad10 f   func_tank.obj
 0001:00029dd0       ?Think@CFuncTankLaser@@UAEXXZ 1002add0 f   func_tank.obj
 0001:00029e00       ?TrackTarget@CFuncTank@@QAEXXZ 1002ae00 f   func_tank.obj
 0001:0002a4d0       ?UpdateTargetPosition@CFuncTank@@UAE?AVVector@@PAVCBaseEntity@@@Z 1002b4d0 f i func_tank.obj
 0001:0002a500       ?Use@CFuncTank@@UAEXPAVCBaseEntity@@0W4USE_TYPE@@M@Z 1002b500 f   func_tank.obj
 0001:0002a600       ?Use@CFuncTankControls@@UAEXPAVCBaseEntity@@0W4USE_TYPE@@M@Z 1002b600 f   func_tank.obj
 0001:0002a630       _func_tank                 1002b630 f   func_tank.obj
 0001:0002a640       _func_tankcontrols         1002b640 f   func_tank.obj
 0001:0002a650       _func_tanklaser            1002b650 f   func_tank.obj
 0001:0002a660       _func_tankmortar           1002b660 f   func_tank.obj
 0001:0002a670       _func_tankrocket           1002b670 f   func_tank.obj
 0001:0002a680       ?GameDLLInit@@YAXXZ        1002b680 f   game.obj
 0001:0002aa60       ?CanHaveAmmo@CGameRules@@UAEHPAVCBasePlayer@@PBDH@Z 1002ba60 f   gamerules.obj
 0001:0002aaa0       ?CanHavePlayerItem@CGameRules@@UAEHPAVCBasePlayer@@PAVCBasePlayerItem@@@Z 1002baa0 f   gamerules.obj
 0001:0002ab10       ?GetPlayerSpawnSpot@CGameRules@@UAEPAUedict_s@@PAVCBasePlayer@@@Z 1002bb10 f   gamerules.obj
 0001:0002abf0       ?InstallGameRules@@YAPAVCGameRules@@XZ 1002bbf0 f   gamerules.obj
 0001:0002acb0       ?RefreshSkillData@CGameRules@@UAEXXZ 1002bcb0 f   gamerules.obj
 0001:0002ad30       ??$GetClassPtr@VCGrenade@@@@YAPAVCGrenade@@PAV0@@Z 1002bd30 f i ggrenade.obj
 0001:0002adc0       ??0CBaseMonster@@QAE@XZ    1002bdc0 f i ggrenade.obj
 0001:0002aec0       ?BounceSound@CGrenade@@UAEXXZ 1002bec0 f   ggrenade.obj
 0001:0002af90       ?BounceTouch@CGrenade@@QAEXPAVCBaseEntity@@@Z 1002bf90 f   ggrenade.obj
 0001:0002b210       ?C4Think@CGrenade@@QAEXXZ  1002c210 f   ggrenade.obj
 0001:0002b860       ?DangerSoundThink@CGrenade@@QAEXXZ 1002c860 f   ggrenade.obj
 0001:0002b990       ?Detonate2@CGrenade@@QAEXXZ 1002c990 f   ggrenade.obj
 0001:0002ba50       ?Detonate3@CGrenade@@QAEXXZ 1002ca50 f   ggrenade.obj
 0001:0002bb10       ?Detonate@CGrenade@@QAEXXZ 1002cb10 f   ggrenade.obj
 0001:0002bbd0       ?DetonateUse@CGrenade@@QAEXPAVCBaseEntity@@0W4USE_TYPE@@M@Z 1002cbd0 f   ggrenade.obj
 0001:0002bbf0       ?Explode2@CGrenade@@QAEXPAUTraceResult@@H@Z 1002cbf0 f   ggrenade.obj
 0001:0002c280       ?Explode3@CGrenade@@QAEXPAUTraceResult@@H@Z 1002d280 f   ggrenade.obj
 0001:0002c650       ?Explode@CGrenade@@QAEXPAUTraceResult@@H@Z 1002d650 f   ggrenade.obj
 0001:0002c8d0       ?Explode@CGrenade@@QAEXVVector@@0@Z 1002d8d0 f   ggrenade.obj
 0001:0002c970       ?ExplodeTouch@CGrenade@@QAEXPAVCBaseEntity@@@Z 1002d970 f   ggrenade.obj
 0001:0002cba0       ?Killed@CGrenade@@UAEXPAUentvars_s@@H@Z 1002dba0 f   ggrenade.obj
 0001:0002cbb0       ?PreDetonate@CGrenade@@QAEXXZ 1002dbb0 f   ggrenade.obj
 0001:0002cc00       ?Restore@CGrenade@@UAEHAAVCRestore@@@Z 1002dc00 f   ggrenade.obj
 0001:0002cc40       ?SG_Detonate@CGrenade@@QAEXXZ 1002dc40 f   ggrenade.obj
 0001:0002cef0       ?SG_Smoke@CGrenade@@QAEXXZ 1002def0 f   ggrenade.obj
 0001:0002d110       ?SG_TumbleThink@CGrenade@@QAEXXZ 1002e110 f   ggrenade.obj
 0001:0002d2b0       ?Save@CGrenade@@UAEHAAVCSave@@@Z 1002e2b0 f   ggrenade.obj
 0001:0002d2f0       ?ShootSatchelCharge@CGrenade@@SAPAV1@PAUentvars_s@@VVector@@1@Z 1002e2f0 f   ggrenade.obj
 0001:0002d570       ?ShootSmokeGrenade@CGrenade@@SAPAV1@PAUentvars_s@@VVector@@1MG@Z 1002e570 f   ggrenade.obj
 0001:0002d6e0       ?ShootTimed2@CGrenade@@SAPAV1@PAUentvars_s@@VVector@@1MHG@Z 1002e6e0 f   ggrenade.obj
 0001:0002d810       ?ShootTimed@CGrenade@@SAPAV1@PAUentvars_s@@VVector@@1M@Z 1002e810 f   ggrenade.obj
 0001:0002d970       ?SlideTouch@CGrenade@@QAEXPAVCBaseEntity@@@Z 1002e970 f   ggrenade.obj
 0001:0002d9f0       ?Smoke2@CGrenade@@QAEXXZ   1002e9f0 f   ggrenade.obj
 0001:0002db20       ?Smoke3_A@CGrenade@@QAEXXZ 1002eb20 f   ggrenade.obj
 0001:0002dcb0       ?Smoke3_B@CGrenade@@QAEXXZ 1002ecb0 f   ggrenade.obj
 0001:0002de50       ?Smoke3_C@CGrenade@@QAEXXZ 1002ee50 f   ggrenade.obj
 0001:0002dfb0       ?Smoke@CGrenade@@QAEXXZ    1002efb0 f   ggrenade.obj
 0001:0002e0d0       ?Spawn@CGrenade@@UAEXXZ    1002f0d0 f   ggrenade.obj
 0001:0002e1d0       ?TumbleThink@CGrenade@@QAEXXZ 1002f1d0 f   ggrenade.obj
 0001:0002e340       ?Use@CGrenade@@UAEXPAVCBaseEntity@@0W4USE_TYPE@@M@Z 1002f340 f   ggrenade.obj
 0001:0002e570       _grenade                   1002f570 f   ggrenade.obj
 0001:0002e580       ??$GetClassPtr@VCHealthKit@@@@YAPAVCHealthKit@@PAV0@@Z 1002f580 f i healthkit.obj
 0001:0002e5e0       ??$GetClassPtr@VCWallHealth@@@@YAPAVCWallHealth@@PAV0@@Z 1002f5e0 f i healthkit.obj
 0001:0002e700       ?KeyValue@CRecharge@@UAEXPAUKeyValueData_s@@@Z 1002f700 f   h_battery.obj
 0001:0002e700       ?KeyValue@CWallHealth@@UAEXPAUKeyValueData_s@@@Z 1002f700 f   healthkit.obj
 0001:0002e810       ?MyTouch@CHealthKit@@UAEHPAVCBasePlayer@@@Z 1002f810 f   healthkit.obj
 0001:0002e8f0       ?Off@CWallHealth@@QAEXXZ   1002f8f0 f   healthkit.obj
 0001:0002e990       ?Precache@CHealthKit@@UAEXXZ 1002f990 f   healthkit.obj
 0001:0002e9b0       ?Precache@CWallHealth@@UAEXXZ 1002f9b0 f   healthkit.obj
 0001:0002e9e0       ?Recharge@CWallHealth@@QAEXXZ 1002f9e0 f   healthkit.obj
 0001:0002ea40       ?Restore@CWallHealth@@UAEHAAVCRestore@@@Z 1002fa40 f   healthkit.obj
 0001:0002ea80       ?Save@CWallHealth@@UAEHAAVCSave@@@Z 1002fa80 f   healthkit.obj
 0001:0002eac0       ?Spawn@CHealthKit@@UAEXXZ  1002fac0 f   healthkit.obj
 0001:0002eaf0       ?Spawn@CWallHealth@@UAEXXZ 1002faf0 f   healthkit.obj
 0001:0002eb80       ?Use@CWallHealth@@UAEXPAVCBaseEntity@@0W4USE_TYPE@@M@Z 1002fb80 f   healthkit.obj
 0001:0002ed70       _func_healthcharger        1002fd70 f   healthkit.obj
 0001:0002ed80       _item_healthkit            1002fd80 f   healthkit.obj
 0001:0002ed90       ??0?$CUtlMemory@PAVCHintMessage@@@@QAE@HH@Z 1002fd90 f i client.obj
 0001:0002ed90       ??0?$CUtlMemory@PAD@@QAE@HH@Z 1002fd90 f i hintmessage.obj
 0001:0002edd0       ??0CHintMessage@@QAE@PBD_NPAV?$CUtlVector@PBD@@M@Z 1002fdd0 f   hintmessage.obj
 0001:0002eee0       ??1?$CUtlVector@PAD@@QAE@XZ 1002fee0 f i hintmessage.obj
 0001:0002eef0       ??1CHintMessage@@QAE@XZ    1002fef0 f   hintmessage.obj
 0001:0002ef30       ?AddMessage@CHintMessageQueue@@QAE_NPBDM_NPAV?$CUtlVector@PBD@@@Z 1002ff30 f   hintmessage.obj
 0001:0002efb0       ?Grow@?$CUtlMemory@PAVCHintMessage@@@@QAEXH@Z 1002ffb0 f i hintmessage.obj
 0001:0002efb0       ?Grow@?$CUtlMemory@PAD@@QAEXH@Z 1002ffb0 f i hintmessage.obj
 0001:0002f020       ?GrowVector@?$CUtlVector@PAVCHintMessage@@@@IAEXH@Z 10030020 f i hintmessage.obj
 0001:0002f020       ?GrowVector@?$CUtlVector@PAD@@IAEXH@Z 10030020 f i hintmessage.obj
 0001:0002f060       ?InsertBefore@?$CUtlVector@PAVCHintMessage@@@@QAEHHABQAVCHintMessage@@@Z 10030060 f i hintmessage.obj
 0001:0002f060       ?InsertBefore@?$CUtlVector@PAD@@QAEHHABQAD@Z 10030060 f i hintmessage.obj
 0001:0002f090       ?IsExternallyAllocated@?$CUtlMemory@Uhash_item_s@@@@QBE_NXZ 10030090 f i cbase.obj
 0001:0002f090       ?IsExternallyAllocated@?$CUtlMemory@PAD@@QBE_NXZ 10030090 f i hintmessage.obj
 0001:0002f090       ?IsExternallyAllocated@?$CUtlMemory@PAVCHintMessage@@@@QBE_NXZ 10030090 f i client.obj
 0001:0002f0a0       ?Remove@?$CUtlVector@PAVCHintMessage@@@@QAEXH@Z 100300a0 f i hintmessage.obj
 0001:0002f0c0       ?Reset@CHintMessageQueue@@QAEXXZ 100300c0 f   hintmessage.obj
 0001:0002f100       ?Send@CHintMessage@@QAEXPAVCBaseEntity@@@Z 10030100 f   hintmessage.obj
 0001:0002f120       ?ShiftElementsLeft@?$CUtlVector@PAVCHintMessage@@@@IAEXHH@Z 10030120 f i hintmessage.obj
 0001:0002f160       ?ShiftElementsRight@?$CUtlVector@PAD@@IAEXHH@Z 10030160 f i hintmessage.obj
 0001:0002f160       ?ShiftElementsRight@?$CUtlVector@PAVCHintMessage@@@@IAEXHH@Z 10030160 f i hintmessage.obj
 0001:0002f1a0       ?Update@CHintMessageQueue@@QAEXPAVCBaseEntity@@@Z 100301a0 f   hintmessage.obj
 0001:0002f200       ??$GetClassPtr@VCBaseEntity@@@@YAPAVCBaseEntity@@PAV0@@Z 10030200 f i hostage.obj
 0001:0002f260       ??$GetClassPtr@VCHostage@@@@YAPAVCHostage@@PAV0@@Z 10030260 f i hostage.obj
 0001:0002f390       ?AnnounceDeath@CHostage@@QAEXPAVCBasePlayer@@@Z 10030390 f   hostage.obj
 0001:0002f4a0       ?ApplyHostagePenalty@CHostage@@QAEXPAVCBasePlayer@@@Z 100304a0 f   hostage.obj
 0001:0002f520       ?Classify@CHostage@@UAEHXZ 10030520 f i hostage.obj
 0001:0002f520       ?iItemSlot@CKnife@@UAEHXZ  10030520 f i wpn_knife.obj
 0001:0002f530       ?DoFollow@CHostage@@QAEXXZ 10030530 f   hostage.obj
 0001:0002f8c0       ?GetModifiedDamage@CHostage@@QAEMM@Z 100308c0 f   hostage.obj
 0001:0002f9a0       ?GiveCTTouchBonus@CHostage@@QAEXPAVCBasePlayer@@@Z 100309a0 f   hostage.obj
 0001:0002fa20       ?IdleThink@CHostage@@QAEXXZ 10030a20 f   hostage.obj
 0001:0002ff80       ?MoveToward@CHostage@@QAEXAAVVector@@@Z 10030f80 f   hostage.obj
 0001:000303a0       ?NavReady@CHostage@@QAEXXZ 100313a0 f   hostage.obj
 0001:000305c0       ?ObjectCaps@CHostage@@UAEHXZ 100315c0 f   hostage.obj
 0001:000305d0       ?PlayFollowRescueSound@CHostage@@QAEXXZ 100315d0 f   hostage.obj
 0001:000306b0       ?PlayPainSound@CHostage@@QAEXXZ 100316b0 f   hostage.obj
 0001:00030740       ?PointAt@CHostage@@QAEXAAVVector@@@Z 10031740 f   hostage.obj
 0001:000307b0       ?PreThink@CHostage@@QAEXXZ 100317b0 f   hostage.obj
 0001:00030b40       ?Precache@CHostage@@UAEXXZ 10031b40 f   hostage.obj
 0001:00030bd0       ?RePosition@CHostage@@QAEXXZ 10031bd0 f   hostage.obj
 0001:00030dc0       ?Remove@CHostage@@QAEXXZ   10031dc0 f   hostage.obj
 0001:00030e50       ?SendHostageEventMsg@CHostage@@QAEXXZ 10031e50 f   hostage.obj
 0001:00030f30       ?SendHostagePositionMsg@CHostage@@QAEXXZ 10031f30 f   hostage.obj
 0001:00031040       ?SetActivity@CHostage@@QAEXW4Activity@@@Z 10032040 f   hostage.obj
 0001:000310b0       ?SetDeathActivity@CHostage@@QAEXXZ 100320b0 f   hostage.obj
 0001:00031110       ?SetFlinchActivity@CHostage@@QAEXXZ 10032110 f   hostage.obj
 0001:00031170       ?Spawn@CHostage@@UAEXXZ    10032170 f   hostage.obj
 0001:00031580       ?TakeDamage@CHostage@@UAEHPAUentvars_s@@0MH@Z 10032580 f   hostage.obj
 0001:000317b0       ?Touch@CHostage@@UAEXPAVCBaseEntity@@@Z 100327b0 f   hostage.obj
 0001:00031a40       ?Use@CHostage@@UAEXPAVCBaseEntity@@0W4USE_TYPE@@M@Z 10032a40 f   hostage.obj
 0001:00031b90       ?Wiggle@CHostage@@QAEXXZ   10032b90 f   hostage.obj
 0001:00031ee0       _monster_scientist         10032ee0 f   hostage.obj
 0001:00031ee0       _hostage_entity            10032ee0 f   hostage.obj
 0001:00031ef0       ??0CLocalNav@@QAE@PAVCHostage@@@Z 10032ef0 f   hostage_localnav.obj
 0001:00031f80       ?AddNode@CLocalNav@@QAEHHAAVVector@@HHH@Z 10032f80 f   hostage_localnav.obj
 0001:00031fe0       ?AddPathNode@CLocalNav@@QAEXHHHH@Z 10032fe0 f   hostage_localnav.obj
 0001:000321c0       ?AddPathNodes@CLocalNav@@QAEXHH@Z 100331c0 f   hostage_localnav.obj
 0001:00032240       ?FindDirectPath@CLocalNav@@QAEHAAVVector@@0MH@Z 10033240 f   hostage_localnav.obj
 0001:000324d0       ?FindPath@CLocalNav@@QAEHAAVVector@@0MH@Z 100334d0 f   hostage_localnav.obj
 0001:00032820       ?GetBestNode@CLocalNav@@QAEHAAVVector@@0@Z 10033820 f   hostage_localnav.obj
 0001:00032950       ?GetFurthestTraversableNode@CLocalNav@@QAEHAAVVector@@PAV2@HH@Z 10033950 f   hostage_localnav.obj
 0001:000329a0       ?GetNode@CLocalNav@@QAEPAUlocalnode_s@@H@Z 100339a0 f   hostage_localnav.obj
 0001:000329b0       ?HostagePrethink@CLocalNav@@SAXXZ 100339b0 f   hostage_localnav.obj
 0001:00032a00       ?NodeExists@CLocalNav@@QAEHHH@Z 10033a00 f   hostage_localnav.obj
 0001:00032a40       ?PathClear@CLocalNav@@QAEHAAVVector@@0HAAUTraceResult@@@Z 10033a40 f   hostage_localnav.obj
 0001:00032ab0       ?PathTraversable@CLocalNav@@QAEHAAVVector@@0H@Z 10033ab0 f   hostage_localnav.obj
 0001:00032e60       ?RequestNav@CLocalNav@@SAXPAVCHostage@@@Z 10033e60 f   hostage_localnav.obj
 0001:00032f00       ?Reset@CLocalNav@@SAXXZ    10033f00 f   hostage_localnav.obj
 0001:00032f40       ?SetTargetEnt@CLocalNav@@QAEXPAVCBaseEntity@@@Z 10033f40 f   hostage_localnav.obj
 0001:00032f70       ?SetupPathNodes@CLocalNav@@QAEHHPAVVector@@H@Z 10033f70 f   hostage_localnav.obj
 0001:00032fc0       ?SlopeTraversable@CLocalNav@@QAEHAAVVector@@0HAAUTraceResult@@@Z 10033fc0 f   hostage_localnav.obj
 0001:000331b0       ?StepJumpable@CLocalNav@@QAEHAAVVector@@0HAAUTraceResult@@@Z 100341b0 f   hostage_localnav.obj
 0001:00033360       ?StepTraversable@CLocalNav@@QAEHAAVVector@@0HAAUTraceResult@@@Z 10034360 f   hostage_localnav.obj
 0001:000334c0       ?Think@CLocalNav@@SAXXZ    100344c0 f   hostage_localnav.obj
 0001:000336b0       ??$GetClassPtr@VCRecharge@@@@YAPAVCRecharge@@PAV0@@Z 100346b0 f i h_battery.obj
 0001:000337d0       ?Off@CRecharge@@QAEXXZ     100347d0 f   h_battery.obj
 0001:00033870       ?Precache@CRecharge@@UAEXXZ 10034870 f   h_battery.obj
 0001:000338a0       ?Recharge@CRecharge@@QAEXXZ 100348a0 f   h_battery.obj
 0001:000338d0       ?Restore@CRecharge@@UAEHAAVCRestore@@@Z 100348d0 f   h_battery.obj
 0001:00033910       ?Save@CRecharge@@UAEHAAVCSave@@@Z 10034910 f   h_battery.obj
 0001:00033950       ?Spawn@CRecharge@@UAEXXZ   10034950 f   h_battery.obj
 0001:000339e0       ?Use@CRecharge@@UAEXPAVCBaseEntity@@0W4USE_TYPE@@M@Z 100349e0 f   h_battery.obj
 0001:00033c80       _func_recharge             10034c80 f   h_battery.obj
 0001:00033c90       ??$GetClassPtr@VCCyclerProbe@@@@YAPAVCCyclerProbe@@PAV0@@Z 10034c90 f i h_cycler.obj
 0001:00033d00       ??$GetClassPtr@VCCyclerSprite@@@@YAPAVCCyclerSprite@@PAV0@@Z 10034d00 f i h_cycler.obj
 0001:00033d80       ??$GetClassPtr@VCGenericCycler@@@@YAPAVCGenericCycler@@PAV0@@Z 10034d80 f i h_cycler.obj
 0001:00033df0       ??$GetClassPtr@VCWeaponCycler@@@@YAPAVCWeaponCycler@@PAV0@@Z 10034df0 f i h_cycler.obj
 0001:00033e70       ??$GetClassPtr@VCWreckage@@@@YAPAVCWreckage@@PAV0@@Z 10034e70 f i h_cycler.obj
 0001:00033ee0       ?AddWeapon@CBasePlayerWeapon@@UAEHXZ 10034ee0 f i h_cycler.obj
 0001:00033ef0       ?Animate@CCyclerSprite@@QAEXM@Z 10034ef0 f   h_cycler.obj
 0001:00033f60       ?Deploy@CWeaponCycler@@UAEHXZ 10034f60 f   h_cycler.obj
 0001:00033fd0       ?GenericCyclerSpawn@CCycler@@QAEXPADVVector@@1@Z 10034fd0 f   h_cycler.obj
 0001:000340d0       ?GetMaxSpeed@CBasePlayerItem@@UAEMXZ 100350d0 f i h_cycler.obj
 0001:000340e0       ?GetWeaponPtr@CBasePlayerWeapon@@UAEPAVCBasePlayerItem@@XZ 100350e0 f i h_cycler.obj
 0001:000340f0       ?ObjectCaps@CCycler@@UAEHXZ 100350f0 f i h_cycler.obj
 0001:00034100       ?ObjectCaps@CCyclerSprite@@UAEHXZ 10035100 f i h_cycler.obj
 0001:00034110       ?Precache@CWreckage@@EAEXXZ 10035110 f   h_cycler.obj
 0001:00034140       ?PrimaryAttack@CWeaponCycler@@UAEXXZ 10035140 f   h_cycler.obj
 0001:00034180       ?Restart@CCyclerSprite@@UAEXXZ 10035180 f   h_cycler.obj
 0001:00034260       ?Restore@CCycler@@UAEHAAVCRestore@@@Z 10035260 f   h_cycler.obj
 0001:000342a0       ?Restore@CCyclerSprite@@UAEHAAVCRestore@@@Z 100352a0 f   h_cycler.obj
 0001:000342e0       ?Restore@CWreckage@@EAEHAAVCRestore@@@Z 100352e0 f   h_cycler.obj
 0001:00034320       ?Save@CCycler@@UAEHAAVCSave@@@Z 10035320 f   h_cycler.obj
 0001:00034360       ?Save@CCyclerSprite@@UAEHAAVCSave@@@Z 10035360 f   h_cycler.obj
 0001:000343a0       ?Save@CWreckage@@EAEHAAVCSave@@@Z 100353a0 f   h_cycler.obj
 0001:000343e0       ?SecondaryAttack@CWeaponCycler@@UAEXXZ 100353e0 f   h_cycler.obj
 0001:000344a0       ?Spawn@CCycler@@UAEXXZ     100354a0 f   h_cycler.obj
 0001:00034590       ?Spawn@CCyclerProbe@@UAEXXZ 10035590 f   h_cycler.obj
 0001:00034610       ?Spawn@CCyclerSprite@@UAEXXZ 10035610 f   h_cycler.obj
 0001:00034750       ?Spawn@CGenericCycler@@UAEXXZ 10035750 f i h_cycler.obj
 0001:000347b0       ?Spawn@CWeaponCycler@@UAEXXZ 100357b0 f   h_cycler.obj
 0001:00034880       ?Spawn@CWreckage@@EAEXXZ   10035880 f   h_cycler.obj
 0001:00034940       ?TakeDamage@CCycler@@UAEHPAUentvars_s@@0MH@Z 10035940 f   h_cycler.obj
 0001:000349f0       ?TakeDamage@CCyclerSprite@@UAEHPAUentvars_s@@0MH@Z 100359f0 f   h_cycler.obj
 0001:00034a20       ?Think@CCycler@@UAEXXZ     10035a20 f   h_cycler.obj
 0001:00034ad0       ?Think@CCyclerSprite@@UAEXXZ 10035ad0 f   h_cycler.obj
 0001:00034b50       ?Think@CWreckage@@EAEXXZ   10035b50 f   h_cycler.obj
 0001:00034d30       ?Use@CCycler@@UAEXPAVCBaseEntity@@0W4USE_TYPE@@M@Z 10035d30 f   h_cycler.obj
 0001:00034d70       ?Use@CCyclerSprite@@UAEXPAVCBaseEntity@@0W4USE_TYPE@@M@Z 10035d70 f   h_cycler.obj
 0001:00034db0       _cycler                    10035db0 f   h_cycler.obj
 0001:00034dc0       _cycler_prdroid            10035dc0 f   h_cycler.obj
 0001:00034dd0       _cycler_sprite             10035dd0 f   h_cycler.obj
 0001:00034de0       _cycler_weapon             10035de0 f   h_cycler.obj
 0001:00034df0       _cycler_wreckage           10035df0 f   h_cycler.obj
 0001:00034e00       ?GiveFnptrsToDll@@YGXPAUenginefuncs_s@@PAUglobalvars_t@@@Z 10035e00 f   h_export.obj
 0001:00034f10       ?Hooked_EmitSound@@YAXPAUedict_s@@HPBDMMHH@Z 10035f10 f   h_export.obj
 0001:000350b0       ?Hooked_GetGameDir@@YAXPAD@Z 100360b0 f   h_export.obj
 0001:000350d0       ?Hooked_LoadFileForMe@@YAPAEPADPAH@Z 100360d0 f   h_export.obj
 0001:00035190       ?Hooked_ModelIndex@@YAHPBD@Z 10036190 f   h_export.obj
 0001:000351c0       ?Hooked_PrecacheModel@@YAHPAD@Z 100361c0 f   h_export.obj
 0001:00035220       ?Hooked_PrecacheSound@@YAHPAD@Z 10036220 f   h_export.obj
 0001:000352d0       ?Hooked_SetClientKeyValue@@YAXHPAD00@Z 100362d0 f   h_export.obj
 0001:000353a0       ?Hooked_SetModel@@YAXPAUedict_s@@PBD@Z 100363a0 f   h_export.obj
 0001:000353d0       ?va@@YAPADPADZZ            100363d0 f   h_export.obj
 0001:00035410       _DllMain@12                10036410 f   h_export.obj
 0001:00035420       ??$GetClassPtr@VCItemAntidote@@@@YAPAVCItemAntidote@@PAV0@@Z 10036420 f i items.obj
 0001:00035480       ??$GetClassPtr@VCItemAssaultSuit@@@@YAPAVCItemAssaultSuit@@PAV0@@Z 10036480 f i items.obj
 0001:000354e0       ??$GetClassPtr@VCItemBattery@@@@YAPAVCItemBattery@@PAV0@@Z 100364e0 f i items.obj
 0001:00035540       ??$GetClassPtr@VCItemKevlar@@@@YAPAVCItemKevlar@@PAV0@@Z 10036540 f i items.obj
 0001:000355a0       ??$GetClassPtr@VCItemLongJump@@@@YAPAVCItemLongJump@@PAV0@@Z 100365a0 f i items.obj
 0001:00035600       ??$GetClassPtr@VCItemSecurity@@@@YAPAVCItemSecurity@@PAV0@@Z 10036600 f i items.obj
 0001:00035660       ??$GetClassPtr@VCItemSuit@@@@YAPAVCItemSuit@@PAV0@@Z 10036660 f i items.obj
 0001:000356c0       ??$GetClassPtr@VCItemThighPack@@@@YAPAVCItemThighPack@@PAV0@@Z 100366c0 f i items.obj
 0001:00035720       ??$GetClassPtr@VCWorldItem@@@@YAPAVCWorldItem@@PAV0@@Z 10036720 f i items.obj
 0001:00035780       ?ItemTouch@CItem@@QAEXPAVCBaseEntity@@@Z 10036780 f   items.obj
 0001:00035830       ?KeyValue@CWorldItem@@UAEXPAUKeyValueData_s@@@Z 10036830 f   items.obj
 0001:000358a0       ?Materialize@CItem@@QAEXXZ 100368a0 f   items.obj
 0001:00035900       ?MyTouch@CItemAntidote@@EAEHPAVCBasePlayer@@@Z 10036900 f i items.obj
 0001:00035930       ?MyTouch@CItemAssaultSuit@@EAEHPAVCBasePlayer@@@Z 10036930 f i items.obj
 0001:000359f0       ?MyTouch@CItemBattery@@EAEHPAVCBasePlayer@@@Z 100369f0 f i items.obj
 0001:00035b30       ?MyTouch@CItemKevlar@@EAEHPAVCBasePlayer@@@Z 10036b30 f i items.obj
 0001:00035c00       ?MyTouch@CItemLongJump@@EAEHPAVCBasePlayer@@@Z 10036c00 f i items.obj
 0001:00035cb0       ?MyTouch@CItemSecurity@@EAEHPAVCBasePlayer@@@Z 10036cb0 f i items.obj
 0001:00035cd0       ?MyTouch@CItemSuit@@EAEHPAVCBasePlayer@@@Z 10036cd0 f i items.obj
 0001:00035d40       ?MyTouch@CItemThighPack@@EAEHPAVCBasePlayer@@@Z 10036d40 f i items.obj
 0001:00035e20       ?Precache@CItemAntidote@@EAEXXZ 10036e20 f i items.obj
 0001:00035e30       ?Precache@CItemAssaultSuit@@EAEXXZ 10036e30 f i items.obj
 0001:00035e40       ?Precache@CItemBattery@@EAEXXZ 10036e40 f i items.obj
 0001:00035e60       ?Precache@CItemKevlar@@EAEXXZ 10036e60 f i items.obj
 0001:00035e70       ?Precache@CItemLongJump@@EAEXXZ 10036e70 f i items.obj
 0001:00035e80       ?Precache@CItemSecurity@@EAEXXZ 10036e80 f i items.obj
 0001:00035e90       ?Precache@CItemSuit@@EAEXXZ 10036e90 f i items.obj
 0001:00035eb0       ?Precache@CItemThighPack@@EAEXXZ 10036eb0 f i items.obj
 0001:00035ec0       ?Respawn@CItem@@UAEPAVCBaseEntity@@XZ 10036ec0 f   items.obj
 0001:00035f30       ?Spawn@CItem@@UAEXXZ       10036f30 f   items.obj
 0001:00035fd0       ?Spawn@CItemAntidote@@EAEXXZ 10036fd0 f i items.obj
 0001:00036000       ?Spawn@CItemAssaultSuit@@EAEXXZ 10037000 f i items.obj
 0001:00036030       ?Spawn@CItemBattery@@EAEXXZ 10037030 f i items.obj
 0001:00036060       ?Spawn@CItemSuit@@EAEXXZ   10037060 f i items.obj
 0001:00036060       ?Spawn@CItemKevlar@@EAEXXZ 10037060 f i items.obj
 0001:00036090       ?Spawn@CItemLongJump@@EAEXXZ 10037090 f i items.obj
 0001:000360c0       ?Spawn@CItemSecurity@@EAEXXZ 100370c0 f i items.obj
 0001:000360f0       ?Spawn@CItemThighPack@@EAEXXZ 100370f0 f i items.obj
 0001:00036120       ?Spawn@CWorldItem@@UAEXXZ  10037120 f   items.obj
 0001:00036200       _item_antidote             10037200 f   items.obj
 0001:00036210       _item_assaultsuit          10037210 f   items.obj
 0001:00036220       _item_battery              10037220 f   items.obj
 0001:00036230       _item_kevlar               10037230 f   items.obj
 0001:00036240       _item_longjump             10037240 f   items.obj
 0001:00036250       _item_security             10037250 f   items.obj
 0001:00036260       _item_suit                 10037260 f   items.obj
 0001:00036270       _item_thighpack            10037270 f   items.obj
 0001:00036280       _world_items               10037280 f   items.obj
 0001:00036290       ??$GetClassPtr@VCEnvLight@@@@YAPAVCEnvLight@@PAV0@@Z 10037290 f i lights.obj
 0001:000362f0       ??$GetClassPtr@VCLight@@@@YAPAVCLight@@PAV0@@Z 100372f0 f i lights.obj
 0001:00036350       ?KeyValue@CEnvLight@@UAEXPAUKeyValueData_s@@@Z 10037350 f   lights.obj
 0001:00036550       ?KeyValue@CLight@@UAEXPAUKeyValueData_s@@@Z 10037550 f   lights.obj
 0001:00036670       ?Restart@CLight@@UAEXXZ    10037670 f   lights.obj
 0001:000366f0       ?Restore@CLight@@UAEHAAVCRestore@@@Z 100376f0 f   lights.obj
 0001:00036730       ?Save@CLight@@UAEHAAVCSave@@@Z 10037730 f   lights.obj
 0001:00036770       ?Spawn@CEnvLight@@UAEXXZ   10037770 f   lights.obj
 0001:00036830       ?Spawn@CLight@@UAEXXZ      10037830 f   lights.obj
 0001:000368c0       ?Use@CLight@@UAEXPAVCBaseEntity@@0W4USE_TYPE@@M@Z 100378c0 f   lights.obj
 0001:00036960       _light_environment         10037960 f   lights.obj
 0001:00036970       _light                     10037970 f   lights.obj
 0001:00036970       _light_spot                10037970 f   lights.obj
 0001:00036980       ??$GetClassPtr@VCMapInfo@@@@YAPAVCMapInfo@@PAV0@@Z 10037980 f i mapinfo.obj
 0001:000369e0       ?KeyValue@CMapInfo@@UAEXPAUKeyValueData_s@@@Z 100379e0 f   mapinfo.obj
 0001:00036aa0       ?Spawn@CMapInfo@@UAEXXZ    10037aa0 f   mapinfo.obj
 0001:00036ad0       _info_map_parameters       10037ad0 f   mapinfo.obj
 0001:00036ae0       ??$GetClassPtr@VCGameCounter@@@@YAPAVCGameCounter@@PAV0@@Z 10037ae0 f i maprules.obj
 0001:00036b40       ??$GetClassPtr@VCGameCounterSet@@@@YAPAVCGameCounterSet@@PAV0@@Z 10037b40 f i maprules.obj
 0001:00036ba0       ??$GetClassPtr@VCGameEnd@@@@YAPAVCGameEnd@@PAV0@@Z 10037ba0 f i maprules.obj
 0001:00036c00       ??$GetClassPtr@VCGamePlayerEquip@@@@YAPAVCGamePlayerEquip@@PAV0@@Z 10037c00 f i maprules.obj
 0001:00036c60       ??$GetClassPtr@VCGamePlayerHurt@@@@YAPAVCGamePlayerHurt@@PAV0@@Z 10037c60 f i maprules.obj
 0001:00036cc0       ??$GetClassPtr@VCGamePlayerTeam@@@@YAPAVCGamePlayerTeam@@PAV0@@Z 10037cc0 f i maprules.obj
 0001:00036d20       ??$GetClassPtr@VCGamePlayerZone@@@@YAPAVCGamePlayerZone@@PAV0@@Z 10037d20 f i maprules.obj
 0001:00036d80       ??$GetClassPtr@VCGameScore@@@@YAPAVCGameScore@@PAV0@@Z 10037d80 f i maprules.obj
 0001:00036de0       ??$GetClassPtr@VCGameTeamMaster@@@@YAPAVCGameTeamMaster@@PAV0@@Z 10037de0 f i maprules.obj
 0001:00036e40       ??$GetClassPtr@VCGameTeamSet@@@@YAPAVCGameTeamSet@@PAV0@@Z 10037e40 f i maprules.obj
 0001:00036ea0       ??$GetClassPtr@VCGameText@@@@YAPAVCGameText@@PAV0@@Z 10037ea0 f i maprules.obj
 0001:00036f00       ?CanFireForActivator@CRuleEntity@@IAEHPAVCBaseEntity@@@Z 10037f00 f   maprules.obj
 0001:00036f30       ?EquipPlayer@CGamePlayerEquip@@AAEXPAVCBaseEntity@@@Z 10037f30 f   maprules.obj
 0001:00036fa0       ?IsTriggered@CGameTeamMaster@@UAEHPAVCBaseEntity@@@Z 10037fa0 f   maprules.obj
 0001:00036fc0       ?KeyValue@CGamePlayerEquip@@UAEXPAUKeyValueData_s@@@Z 10037fc0 f   maprules.obj
 0001:00037050       ?KeyValue@CGamePlayerZone@@UAEXPAUKeyValueData_s@@@Z 10038050 f   maprules.obj
 0001:00037190       ?KeyValue@CGameScore@@UAEXPAUKeyValueData_s@@@Z 10038190 f   maprules.obj
 0001:00037210       ?KeyValue@CGameTeamMaster@@UAEXPAUKeyValueData_s@@@Z 10038210 f   maprules.obj
 0001:00037310       ?KeyValue@CGameText@@UAEXPAUKeyValueData_s@@@Z 10038310 f   maprules.obj
 0001:000375f0       ?KeyValue@CRuleEntity@@UAEXPAUKeyValueData_s@@@Z 100385f0 f   maprules.obj
 0001:00037660       ?ObjectCaps@CGameTeamMaster@@UAEHXZ 10038660 f i maprules.obj
 0001:00037660       ?ObjectCaps@CFireAndDie@@UAEHXZ 10038660 f i triggers.obj
 0001:00037670       ?Restore@CGamePlayerZone@@UAEHAAVCRestore@@@Z 10038670 f   maprules.obj
 0001:000376b0       ?Restore@CGameText@@UAEHAAVCRestore@@@Z 100386b0 f   maprules.obj
 0001:000376f0       ?Restore@CRuleEntity@@UAEHAAVCRestore@@@Z 100386f0 f   maprules.obj
 0001:00037730       ?Save@CGamePlayerZone@@UAEHAAVCSave@@@Z 10038730 f   maprules.obj
 0001:00037770       ?Save@CGameText@@UAEHAAVCSave@@@Z 10038770 f   maprules.obj
 0001:000377b0       ?Save@CRuleEntity@@UAEHAAVCSave@@@Z 100387b0 f   maprules.obj
 0001:000377f0       ?Spawn@CGameCounter@@UAEXXZ 100387f0 f   maprules.obj
 0001:00037810       ?Spawn@CGameScore@@UAEXXZ  10038810 f   maprules.obj
 0001:00037820       ?Spawn@CRuleBrushEntity@@UAEXXZ 10038820 f   maprules.obj
 0001:00037860       ?Spawn@CRuleEntity@@UAEXXZ 10038860 f   maprules.obj
 0001:00037890       ?Spawn@CRulePointEntity@@UAEXXZ 10038890 f   maprules.obj
 0001:000378c0       ?TargetTeamName@CGamePlayerTeam@@AAEPBDPBD@Z 100388c0 f   maprules.obj
 0001:00037950       ?TeamID@CGameTeamMaster@@UAEPBDXZ 10038950 f   maprules.obj
 0001:00037970       ?TeamMatch@CGameTeamMaster@@AAEHPAVCBaseEntity@@@Z 10038970 f   maprules.obj
 0001:000379d0       ?Touch@CGamePlayerEquip@@UAEXPAVCBaseEntity@@@Z 100389d0 f   maprules.obj
 0001:00037a00       ?Use@CGameCounter@@UAEXPAVCBaseEntity@@0W4USE_TYPE@@M@Z 10038a00 f   maprules.obj
 0001:00037ae0       ?Use@CGameCounterSet@@UAEXPAVCBaseEntity@@0W4USE_TYPE@@M@Z 10038ae0 f   maprules.obj
 0001:00037b30       ?Use@CGameEnd@@UAEXPAVCBaseEntity@@0W4USE_TYPE@@M@Z 10038b30 f   maprules.obj
 0001:00037b60       ?Use@CGamePlayerEquip@@UAEXPAVCBaseEntity@@0W4USE_TYPE@@M@Z 10038b60 f   maprules.obj
 0001:00037b70       ?Use@CGamePlayerHurt@@UAEXPAVCBaseEntity@@0W4USE_TYPE@@M@Z 10038b70 f   maprules.obj
 0001:00037c00       ?Use@CGamePlayerTeam@@UAEXPAVCBaseEntity@@0W4USE_TYPE@@M@Z 10038c00 f   maprules.obj
 0001:00037c90       ?Use@CGamePlayerZone@@UAEXPAVCBaseEntity@@0W4USE_TYPE@@M@Z 10038c90 f   maprules.obj
 0001:00037e10       ?Use@CGameScore@@UAEXPAVCBaseEntity@@0W4USE_TYPE@@M@Z 10038e10 f   maprules.obj
 0001:00037e80       ?Use@CGameTeamMaster@@UAEXPAVCBaseEntity@@0W4USE_TYPE@@M@Z 10038e80 f   maprules.obj
 0001:00037f30       ?Use@CGameTeamSet@@UAEXPAVCBaseEntity@@0W4USE_TYPE@@M@Z 10038f30 f   maprules.obj
 0001:00037f90       ?Use@CGameText@@UAEXPAVCBaseEntity@@0W4USE_TYPE@@M@Z 10038f90 f   maprules.obj
 0001:00038010       _game_counter              10039010 f   maprules.obj
 0001:00038020       _game_counter_set          10039020 f   maprules.obj
 0001:00038030       _game_end                  10039030 f   maprules.obj
 0001:00038040       _game_player_equip         10039040 f   maprules.obj
 0001:00038050       _game_player_hurt          10039050 f   maprules.obj
 0001:00038060       _game_player_team          10039060 f   maprules.obj
 0001:00038070       _game_score                10039070 f   maprules.obj
 0001:00038080       _game_team_master          10039080 f   maprules.obj
 0001:00038090       _game_team_set             10039090 f   maprules.obj
 0001:000380a0       _game_text                 100390a0 f   maprules.obj
 0001:000380b0       _game_zone_player          100390b0 f   maprules.obj
 0001:000380c0       ??0CMemoryPool@@QAE@HH@Z   100390c0 f   MemPool.obj
 0001:00038100       ??1CMemoryPool@@QAE@XZ     10039100 f   MemPool.obj
 0001:00038130       ?AddNewBlob@CMemoryPool@@QAEXXZ 10039130 f   MemPool.obj
 0001:000381c0       ?Alloc@CMemoryPool@@QAEPAXI@Z 100391c0 f   MemPool.obj
 0001:00038210       ?Free@CMemoryPool@@QAEXPAX@Z 10039210 f   MemPool.obj
 0001:00038230       ??$GetClassPtr@VCFuncMortarField@@@@YAPAVCFuncMortarField@@PAV0@@Z 10039230 f i mortar.obj
 0001:000382a0       ??$GetClassPtr@VCMortar@@@@YAPAVCMortar@@PAV0@@Z 100392a0 f i mortar.obj
 0001:00038370       ?FieldUse@CFuncMortarField@@QAEXPAVCBaseEntity@@0W4USE_TYPE@@M@Z 10039370 f   mortar.obj
 0001:000386d0       ?KeyValue@CFuncMortarField@@UAEXPAUKeyValueData_s@@@Z 100396d0 f   mortar.obj
 0001:00038830       ?MortarExplode@CMortar@@QAEXXZ 10039830 f   mortar.obj
 0001:00038a30       ?Precache@CFuncMortarField@@UAEXXZ 10039a30 f   mortar.obj
 0001:00038a60       ?Precache@CMortar@@UAEXXZ  10039a60 f   mortar.obj
 0001:00038a80       ?Restore@CFuncMortarField@@UAEHAAVCRestore@@@Z 10039a80 f   mortar.obj
 0001:00038ac0       ?Save@CFuncMortarField@@UAEHAAVCSave@@@Z 10039ac0 f   mortar.obj
 0001:00038b00       ?Spawn@CFuncMortarField@@UAEXXZ 10039b00 f   mortar.obj
 0001:00038b60       ?Spawn@CMortar@@UAEXXZ     10039b60 f   mortar.obj
 0001:00038ba0       _func_mortar_field         10039ba0 f   mortar.obj
 0001:00038bb0       _monster_mortar            10039bb0 f   mortar.obj
 0001:00038bc0       ?BestVisibleEnemy@CBaseMonster@@UAEPAVCBaseEntity@@XZ 10039bc0 f   mpstubb.obj
 0001:00038d00       ?ChangeYaw@CBaseMonster@@UAEMH@Z 10039d00 f   mpstubb.obj
 0001:00038d10       ?CorpseFallThink@CBaseMonster@@QAEXXZ 10039d10 f   mpstubb.obj
 0001:00038d70       ?IRelationship@CBaseMonster@@UAEHPAVCBaseEntity@@@Z 10039d70 f   mpstubb.obj
 0001:00038da0       ?KeyValue@CBaseMonster@@UAEXPAUKeyValueData_s@@@Z 10039da0 f   mpstubb.obj
 0001:00038db0       ?Look@CBaseMonster@@UAEXH@Z 10039db0 f   mpstubb.obj
 0001:00038f60       ?MonsterInitDead@CBaseMonster@@UAEXXZ 10039f60 f   mpstubb.obj
 0001:00039020       ?CanPlayerHearPlayer@CCStrikeGameMgrHelper@@UAE_NPAVCBasePlayer@@0@Z 1003a020 f i multiplay_gamerules.obj
 0001:00039090       ??_EIVoiceGameMgrHelper@@UAEPAXI@Z 1003a090 f i multiplay_gamerules.obj
 0001:00039090       ??_GIVoiceGameMgrHelper@@UAEPAXI@Z 1003a090 f i multiplay_gamerules.obj
 0001:00039090       ??_ECCStrikeGameMgrHelper@@UAEPAXI@Z 1003a090 f i multiplay_gamerules.obj
 0001:00039090       ??_GCCStrikeGameMgrHelper@@UAEPAXI@Z 1003a090 f i multiplay_gamerules.obj
 0001:000390c0       ??0CHalfLifeMultiplay@@QAE@XZ 1003a0c0 f   multiplay_gamerules.obj
 0001:00039480       ?AddToVIPQueue@CHalfLifeMultiplay@@QAEHPAVCBasePlayer@@@Z 1003a480 f   multiplay_gamerules.obj
 0001:00039560       ?AmmoShouldRespawn@CHalfLifeMultiplay@@UAEHPAVCBasePlayerAmmo@@@Z 1003a560 f   multiplay_gamerules.obj
 0001:00039590       ?BalanceTeams@CHalfLifeMultiplay@@QAEXXZ 1003a590 f   multiplay_gamerules.obj
 0001:00039720       ?BombRoundEndCheck@CHalfLifeMultiplay@@QAEHH@Z 1003a720 f   multiplay_gamerules.obj
 0001:000397f0       ?Broadcast@@YAXPBD@Z       1003a7f0 f   multiplay_gamerules.obj
 0001:000398a0       ?CanHavePlayerItem@CHalfLifeMultiplay@@UAEHPAVCBasePlayer@@PAVCBasePlayerItem@@@Z 1003a8a0 f   multiplay_gamerules.obj
 0001:000398b0       ?CareerRestart@CHalfLifeMultiplay@@QAEXXZ 1003a8b0 f   multiplay_gamerules.obj
 0001:00039970       ?ChangeLevel@CHalfLifeMultiplay@@UAEXXZ 1003a970 f   multiplay_gamerules.obj
 0001:00039be0       ?Use@CFuncMonsterClip@@UAEXPAVCBaseEntity@@0W4USE_TYPE@@M@Z 1003abe0 f i bmodels.obj
 0001:00039be0       ?ChangePlayerTeam@CGameRules@@UAEXPAVCBasePlayer@@PBDHH@Z 1003abe0 f i multiplay_gamerules.obj
 0001:00039bf0       ?CheckAllowSpecator@CHalfLifeMultiplay@@QAEXXZ 1003abf0 f   multiplay_gamerules.obj
 0001:00039c50       ?CheckFreezePeriodExpired@CHalfLifeMultiplay@@QAEXXZ 1003ac50 f   multiplay_gamerules.obj
 0001:00039e40       ?CheckGameCvar@CHalfLifeMultiplay@@QAEXXZ 1003ae40 f   multiplay_gamerules.obj
 0001:00039f30       ?CheckGameOver@CHalfLifeMultiplay@@QAEHXZ 1003af30 f   multiplay_gamerules.obj
 0001:0003a010       ?CheckLevelInitialized@CHalfLifeMultiplay@@QAEXXZ 1003b010 f   multiplay_gamerules.obj
 0001:0003a090       ?CheckMapConditions@CHalfLifeMultiplay@@UAEXXZ 1003b090 f   multiplay_gamerules.obj
 0001:0003a140       ?CheckMaxRounds@CHalfLifeMultiplay@@QAEHXZ 1003b140 f   multiplay_gamerules.obj
 0001:0003a180       ?CheckRestartRound@CHalfLifeMultiplay@@QAEXXZ 1003b180 f   multiplay_gamerules.obj
 0001:0003a2a0       ?CheckRoundTimeExpired@CHalfLifeMultiplay@@QAEXXZ 1003b2a0 f   multiplay_gamerules.obj
 0001:0003a3f0       ?CheckTimeLimit@CHalfLifeMultiplay@@QAEHXZ 1003b3f0 f   multiplay_gamerules.obj
 0001:0003a470       ?CheckVIPQueue@CHalfLifeMultiplay@@QAEXXZ 1003b470 f   multiplay_gamerules.obj
 0001:0003a510       ?CheckWinConditions@CHalfLifeMultiplay@@UAEXXZ 1003b510 f   multiplay_gamerules.obj
 0001:0003a5c0       ?CheckWinLimit@CHalfLifeMultiplay@@QAEHXZ 1003b5c0 f   multiplay_gamerules.obj
 0001:0003a610       ?CleanUpMap@CHalfLifeMultiplay@@UAEXXZ 1003b610 f   multiplay_gamerules.obj
 0001:0003a910       ?FindNearestNode@CGraph@@QAEHABVVector@@H@Z 1003b910 f   mpstubb.obj
 0001:0003a910       ?ClientCommand@CHalfLifeMultiplay@@UAEHPAVCBasePlayer@@PBD@Z 1003b910 f   multiplay_gamerules.obj
 0001:0003a920       ?ClientCommand_DeadOrAlive@CHalfLifeMultiplay@@UAEHPAVCBasePlayer@@PBD@Z 1003b920 f   multiplay_gamerules.obj
 0001:0003a940       ?ClientConnected@CHalfLifeMultiplay@@UAEHPAUedict_s@@PBD1QAD@Z 1003b940 f   multiplay_gamerules.obj
 0001:0003a960       ?ClientDisconnected@CHalfLifeMultiplay@@UAEXPAUedict_s@@@Z 1003b960 f   multiplay_gamerules.obj
 0001:0003aba0       ?ClientUserInfoChanged@CHalfLifeMultiplay@@UAEXPAVCBasePlayer@@PAD@Z 1003bba0 f   multiplay_gamerules.obj
 0001:0003abd0       ?CountPlayers@@YAHXZ       1003bbd0 f   multiplay_gamerules.obj
 0001:0003ac10       ?DeadPlayerAmmo@CHalfLifeMultiplay@@UAEHPAVCBasePlayer@@@Z 1003bc10 f   multiplay_gamerules.obj
 0001:0003ac20       ?DeadPlayerWeapons@CHalfLifeMultiplay@@UAEHPAVCBasePlayer@@@Z 1003bc20 f   multiplay_gamerules.obj
 0001:0003ac30       ?DeathNotice@CHalfLifeMultiplay@@UAEXPAVCBasePlayer@@PAUentvars_s@@1@Z 1003bc30 f   multiplay_gamerules.obj
 0001:0003aff0       ?DestroyMapCycle@@YAXPAUmapcycle_s@@@Z 1003bff0 f   multiplay_gamerules.obj
 0001:0003b040       ?DisplayMaps@CHalfLifeMultiplay@@QAEXPAVCBasePlayer@@H@Z 1003c040 f   multiplay_gamerules.obj
 0001:0003b1d0       ?EndMultiplayerGame@CHalfLifeMultiplay@@UAEXXZ 1003c1d0 f i multiplay_gamerules.obj
 0001:0003b1e0       ?EndRoundMessage@@YAXPBDH@Z 1003c1e0 f   multiplay_gamerules.obj
 0001:0003b2b0       ?ExtractCommandString@@YAXPAD0@Z 1003c2b0 f   multiplay_gamerules.obj
 0001:0003b3e0       ?FAllowFlashlight@CHalfLifeMultiplay@@UAEHXZ 1003c3e0 f   multiplay_gamerules.obj
 0001:0003b420       ?FAllowMonsters@CHalfLifeMultiplay@@UAEHXZ 1003c420 f   multiplay_gamerules.obj
 0001:0003b460       ?FPlayerCanRespawn@CHalfLifeMultiplay@@UAEHPAVCBasePlayer@@@Z 1003c460 f   multiplay_gamerules.obj
 0001:0003b530       ?FPlayerCanTakeDamage@CHalfLifeMultiplay@@UAEHPAVCBasePlayer@@PAVCBaseEntity@@@Z 1003c530 f   multiplay_gamerules.obj
 0001:0003b590       ?FShouldSwitchWeapon@CHalfLifeMultiplay@@UAEHPAVCBasePlayer@@PAVCBasePlayerItem@@@Z 1003c590 f   multiplay_gamerules.obj
 0001:0003b610       ?FlWeaponRespawnTime@CHalfLifeMultiplay@@UAEMPAVCBasePlayerItem@@@Z 1003c610 f   multiplay_gamerules.obj
 0001:0003b610       ?FlAmmoRespawnTime@CHalfLifeMultiplay@@UAEMPAVCBasePlayerAmmo@@@Z 1003c610 f   multiplay_gamerules.obj
 0001:0003b620       ?FlHEVChargerRechargeTime@CHalfLifeMultiplay@@UAEMXZ 1003c620 f   multiplay_gamerules.obj
 0001:0003b630       ?FlHealthChargerRechargeTime@CHalfLifeMultiplay@@UAEMXZ 1003c630 f   multiplay_gamerules.obj
 0001:0003b640       ?FlItemRespawnTime@CHalfLifeMultiplay@@UAEMPAVCItem@@@Z 1003c640 f   multiplay_gamerules.obj
 0001:0003b650       ?FlPlayerFallDamage@CHalfLifeMultiplay@@UAEMPAVCBasePlayer@@@Z 1003c650 f   multiplay_gamerules.obj
 0001:0003b6a0       ?FlPlayerSpawnTime@CHalfLifeMultiplay@@UAEMPAVCBasePlayer@@@Z 1003c6a0 f   multiplay_gamerules.obj
 0001:0003b6b0       ?FlWeaponTryRespawn@CHalfLifeMultiplay@@UAEMPAVCBasePlayerItem@@@Z 1003c6b0 f   multiplay_gamerules.obj
 0001:0003b710       ?GetGameDescription@CGameRules@@UAEPBDXZ 1003c710 f i multiplay_gamerules.obj
 0001:0003b710       ?GetGameDescription@@YAPBDXZ 1003c710 f i client.obj
 0001:0003b720       ?GetMapCount@@YAHXZ        1003c720 f   multiplay_gamerules.obj
 0001:0003b760       ?GetNextBestWeapon@CHalfLifeMultiplay@@UAEHPAVCBasePlayer@@PAVCBasePlayerItem@@@Z 1003c760 f   multiplay_gamerules.obj
 0001:0003b830       ?GetPlayerSpawnSpot@CHalfLifeMultiplay@@UAEPAUedict_s@@PAVCBasePlayer@@@Z 1003c830 f   multiplay_gamerules.obj
 0001:0003b890       ?GetTeam@@YAPADH@Z         1003c890 f   multiplay_gamerules.obj
 0001:0003b8d0       ?SetDefaultPlayerTeam@CGameRules@@UAEPBDPAVCBasePlayer@@@Z 1003c8d0 f i multiplay_gamerules.obj
 0001:0003b8d0       ?GetIndexedTeamName@CGameRules@@UAEPBDH@Z 1003c8d0 f i multiplay_gamerules.obj
 0001:0003b8d0       ?GetTeamID@CHalfLifeMultiplay@@UAEPBDPAVCBaseEntity@@@Z 1003c8d0 f i multiplay_gamerules.obj
 0001:0003b8e0       ?GetTeamIndex@CGameRules@@UAEHPBD@Z 1003c8e0 f i multiplay_gamerules.obj
 0001:0003b8f0       ?GiveC4@CHalfLifeMultiplay@@UAEXXZ 1003c8f0 f   multiplay_gamerules.obj
 0001:0003bc00       ?GoToIntermission@CHalfLifeMultiplay@@UAEXXZ 1003cc00 f   multiplay_gamerules.obj
 0001:0003bd10       ?HasRoundTimeExpired@CHalfLifeMultiplay@@QAEHXZ 1003cd10 f   multiplay_gamerules.obj
 0001:0003bd50       ?HostageRescueRoundEndCheck@CHalfLifeMultiplay@@QAEHH@Z 1003cd50 f   multiplay_gamerules.obj
 0001:0003be30       ?InitHUD@CHalfLifeMultiplay@@UAEXPAVCBasePlayer@@@Z 1003ce30 f   multiplay_gamerules.obj
 0001:0003c2e0       ?InitializePlayerCounts@CHalfLifeMultiplay@@QAEXAAH000@Z 1003d2e0 f   multiplay_gamerules.obj
 0001:0003c420       ?IsBombPlanted@CHalfLifeMultiplay@@QAEHXZ 1003d420 f   multiplay_gamerules.obj
 0001:0003c450       ?IsCoOp@CHalfLifeMultiplay@@UAEHXZ 1003d450 f   multiplay_gamerules.obj
 0001:0003c460       ?IsFreezePeriod@CGameRules@@UAEHXZ 1003d460 f i multiplay_gamerules.obj
 0001:0003c470       ?IsThereABomb@CHalfLifeMultiplay@@QAEHXZ 1003d470 f   multiplay_gamerules.obj
 0001:0003c4c0       ?IsThereABomber@CHalfLifeMultiplay@@QAEHXZ 1003d4c0 f   multiplay_gamerules.obj
 0001:0003c510       ?IsVIPQueueEmpty@CHalfLifeMultiplay@@QAEHXZ 1003d510 f   multiplay_gamerules.obj
 0001:0003c550       ?IsValidTeam@CGameRules@@UAEHPBD@Z 1003d550 f i multiplay_gamerules.obj
 0001:0003c550       ?FPlayerCanRespawn@CHalfLifeTraining@@UAEHPAVCBasePlayer@@@Z 1003d550 f i training_gamerules.obj
 0001:0003c550       ?IsAllowedToSpawn@CHalfLifeMultiplay@@UAEHPAVCBaseEntity@@@Z 1003d550 f i multiplay_gamerules.obj
 0001:0003c550       ?IsTriggered@CBaseEntity@@UAEHPAV1@@Z 1003d550 f i airtank.obj
 0001:0003c560       ?ItemShouldRespawn@CHalfLifeMultiplay@@UAEHPAVCItem@@@Z 1003d560 f   multiplay_gamerules.obj
 0001:0003c590       ?MP_COM_GetToken@@YAPADXZ  1003d590 f   multiplay_gamerules.obj
 0001:0003c5a0       ?MP_COM_Parse@@YAPADPAD@Z  1003d5a0 f   multiplay_gamerules.obj
 0001:0003c690       ?MP_COM_TokenWaiting@@YAHPAD@Z 1003d690 f   multiplay_gamerules.obj
 0001:0003c6e0       ?MarkLivingPlayersOnTeamAsNotReceivingMoneyNextRound@CHalfLifeMultiplay@@QAEXH@Z 1003d6e0 f   multiplay_gamerules.obj
 0001:0003c770       ?NeededPlayersCheck@CHalfLifeMultiplay@@QAEHAAH@Z 1003d770 f   multiplay_gamerules.obj
 0001:0003c810       ?PickNextVIP@CHalfLifeMultiplay@@QAEXXZ 1003d810 f   multiplay_gamerules.obj
 0001:0003c9d0       ?PlayerKilled@CHalfLifeMultiplay@@UAEXPAVCBasePlayer@@PAUentvars_s@@1@Z 1003d9d0 f   multiplay_gamerules.obj
 0001:0003ce50       ?PlayerRelationship@CHalfLifeMultiplay@@UAEHPAVCBaseEntity@@0@Z 1003de50 f   multiplay_gamerules.obj
 0001:0003ceb0       ?PlayerSpawn@CHalfLifeMultiplay@@UAEXPAVCBasePlayer@@@Z 1003deb0 f   multiplay_gamerules.obj
 0001:0003cf40       ?PlayerThink@CHalfLifeMultiplay@@UAEXPAVCBasePlayer@@@Z 1003df40 f   multiplay_gamerules.obj
 0001:0003d0a0       ?PrisonRoundEndCheck@CHalfLifeMultiplay@@QAEHHHHHH@Z 1003e0a0 f   multiplay_gamerules.obj
 0001:0003d240       ?ProcessMapVote@CHalfLifeMultiplay@@QAEXPAVCBasePlayer@@H@Z 1003e240 f   multiplay_gamerules.obj
 0001:0003d3b0       ?ReadMultiplayCvars@@YAXPAVCHalfLifeMultiplay@@@Z 1003e3b0 f   multiplay_gamerules.obj
 0001:0003d530       ?RefreshSkillData@CHalfLifeMultiplay@@UAEXXZ 1003e530 f   multiplay_gamerules.obj
 0001:0003d570       ?ReloadMapCycleFile@@YAHPADPAUmapcycle_s@@@Z 1003e570 f   multiplay_gamerules.obj
 0001:0003d820       ?RemoveGuns@CHalfLifeMultiplay@@UAEXXZ 1003e820 f   multiplay_gamerules.obj
 0001:0003d8c0       ?ResetAllMapVotes@CHalfLifeMultiplay@@QAEXXZ 1003e8c0 f   multiplay_gamerules.obj
 0001:0003d940       ?ResetCurrentVIP@CHalfLifeMultiplay@@QAEXXZ 1003e940 f   multiplay_gamerules.obj
 0001:0003da20       ?RestartRound@CHalfLifeMultiplay@@UAEXXZ 1003ea20 f   multiplay_gamerules.obj
 0001:0003e160       ?SendMOTDToClient@CHalfLifeMultiplay@@QAEXPAUedict_s@@@Z 1003f160 f   multiplay_gamerules.obj
 0001:0003e290       ?ShouldAutoAim@CGameRules@@UAEHPAVCBasePlayer@@PAUedict_s@@@Z 1003f290 f i multiplay_gamerules.obj
 0001:0003e290       ?CanHaveItem@CHalfLifeMultiplay@@UAEHPAVCBasePlayer@@PAVCItem@@@Z 1003f290 f i multiplay_gamerules.obj
 0001:0003e290       ?IPointsForKill@CHalfLifeMultiplay@@UAEHPAVCBasePlayer@@0@Z 1003f290 f i multiplay_gamerules.obj
 0001:0003e2a0       ?StackVIPQueue@CHalfLifeMultiplay@@QAEXXZ 1003f2a0 f   multiplay_gamerules.obj
 0001:0003e2e0       ?SwapAllPlayers@CHalfLifeMultiplay@@QAEXXZ 1003f2e0 f   multiplay_gamerules.obj
 0001:0003e370       ?TeamExterminationCheck@CHalfLifeMultiplay@@QAEHHHHHH@Z 1003f370 f   multiplay_gamerules.obj
 0001:0003e520       ?TeamFull@CHalfLifeMultiplay@@QAEHH@Z 1003f520 f   multiplay_gamerules.obj
 0001:0003e560       ?TeamStacked@CHalfLifeMultiplay@@QAEHHH@Z 1003f560 f   multiplay_gamerules.obj
 0001:0003e600       ?TerminateRound@CHalfLifeMultiplay@@QAEXMH@Z 1003f600 f   multiplay_gamerules.obj
 0001:0003e640       ?Think@CHalfLifeMultiplay@@UAEXXZ 1003f640 f   multiplay_gamerules.obj
 0001:0003e880       ?UpdateGameMode@CHalfLifeMultiplay@@UAEXPAVCBasePlayer@@@Z 1003f880 f   multiplay_gamerules.obj
 0001:0003e8c0       ?UpdateTeamScores@CHalfLifeMultiplay@@QAEXXZ 1003f8c0 f   multiplay_gamerules.obj
 0001:0003e930       ?VIPRoundEndCheck@CHalfLifeMultiplay@@QAEHH@Z 1003f930 f   multiplay_gamerules.obj
 0001:0003ea70       ?VecItemRespawnSpot@CHalfLifeMultiplay@@UAE?AVVector@@PAVCItem@@@Z 1003fa70 f   multiplay_gamerules.obj
 0001:0003ea70       ?VecAmmoRespawnSpot@CHalfLifeMultiplay@@UAE?AVVector@@PAVCBasePlayerAmmo@@@Z 1003fa70 f   multiplay_gamerules.obj
 0001:0003ea70       ?VecWeaponRespawnSpot@CHalfLifeMultiplay@@UAE?AVVector@@PAVCBasePlayerItem@@@Z 1003fa70 f   multiplay_gamerules.obj
 0001:0003eaa0       ?WeaponShouldRespawn@CHalfLifeMultiplay@@UAEHPAVCBasePlayerItem@@@Z 1003faa0 f   multiplay_gamerules.obj
 0001:0003eac0       ?GetForceCamera@@YAHXZ     1003fac0 f   observer.obj
 0001:0003eb20       ?Observer_CheckProperties@CBasePlayer@@QAEXXZ 1003fb20 f   observer.obj
 0001:0003ee40       ?Observer_CheckTarget@CBasePlayer@@QAEXXZ 1003fe40 f   observer.obj
 0001:0003ef90       ?Observer_FindNextPlayer@CBasePlayer@@QAEX_NPAD@Z 1003ff90 f   observer.obj
 0001:0003f1d0       ?Observer_HandleButtons@CBasePlayer@@QAEXXZ 100401d0 f   observer.obj
 0001:0003f2d0       ?Observer_IsValidTarget@CBasePlayer@@QAEPAVCBaseEntity@@H_N@Z 100402d0 f   observer.obj
 0001:0003f340       ?Observer_SetMode@CBasePlayer@@QAEXH@Z 10040340 f   observer.obj
 0001:0003f540       ?UpdateClientEffects@@YAXPAVCBasePlayer@@H@Z 10040540 f   observer.obj
 0001:0003f7e0       ??$GetClassPtr@VCPathCorner@@@@YAPAVCPathCorner@@PAV0@@Z 100407e0 f i pathcorner.obj
 0001:0003f840       ??$GetClassPtr@VCPathTrack@@@@YAPAVCPathTrack@@PAV0@@Z 10040840 f i pathcorner.obj
 0001:0003f8a0       ?Activate@CPathTrack@@UAEXXZ 100408a0 f   pathcorner.obj
 0001:0003f8c0       ?GetDelay@CPathCorner@@UAEMXZ 100408c0 f i pathcorner.obj
 0001:0003f8d0       ?GetNext@CPathTrack@@QAEPAV1@XZ 100408d0 f   pathcorner.obj
 0001:0003f900       ?GetPrevious@CPathTrack@@QAEPAV1@XZ 10040900 f   pathcorner.obj
 0001:0003f930       ?Instance@CPathTrack@@SAPAV1@PAUedict_s@@@Z 10040930 f   pathcorner.obj
 0001:0003f990       ?KeyValue@CPathCorner@@UAEXPAUKeyValueData_s@@@Z 10040990 f   pathcorner.obj
 0001:0003fa00       ?KeyValue@CPathTrack@@UAEXPAUKeyValueData_s@@@Z 10040a00 f   pathcorner.obj
 0001:0003fa70       ?Link@CPathTrack@@QAEXXZ   10040a70 f   pathcorner.obj
 0001:0003fb50       ?LookAhead@CPathTrack@@QAEPAV1@PAVVector@@MH@Z 10040b50 f   pathcorner.obj
 0001:0003ff80       ?Nearest@CPathTrack@@QAEPAV1@VVector@@@Z 10040f80 f   pathcorner.obj
 0001:00040090       ?Project@CPathTrack@@QAEXPAV1@0PAVVector@@M@Z 10041090 f   pathcorner.obj
 0001:000401b0       ?Restore@CPathCorner@@UAEHAAVCRestore@@@Z 100411b0 f   pathcorner.obj
 0001:000401f0       ?Restore@CPathTrack@@UAEHAAVCRestore@@@Z 100411f0 f   pathcorner.obj
 0001:00040230       ?Save@CPathCorner@@UAEHAAVCSave@@@Z 10041230 f   pathcorner.obj
 0001:00040270       ?Save@CPathTrack@@UAEHAAVCSave@@@Z 10041270 f   pathcorner.obj
 0001:000402b0       ?SetPrevious@CPathTrack@@QAEXPAV1@@Z 100412b0 f   pathcorner.obj
 0001:00040320       ?Spawn@CPathTrack@@UAEXXZ  10041320 f   pathcorner.obj
 0001:00040390       ?Use@CPathTrack@@UAEXPAVCBaseEntity@@0W4USE_TYPE@@M@Z 10041390 f   pathcorner.obj
 0001:00040420       ?ValidPath@CPathTrack@@QAEPAV1@PAV1@H@Z 10041420 f   pathcorner.obj
 0001:00040450       _path_corner               10041450 f   pathcorner.obj
 0001:00040460       _path_track                10041460 f   pathcorner.obj
 0001:00040470       ?GetCurTime@CPerformanceCounter@@QAEMXZ 10041470 f   perf_counter.obj
 0001:00040560       ?InitializePerformanceCounter@CPerformanceCounter@@QAEXXZ 10041560 f   perf_counter.obj
 0001:000405e0       ??$GetClassPtr@VCFuncPlat@@@@YAPAVCFuncPlat@@PAV0@@Z 100415e0 f i plats.obj
 0001:00040650       ??$GetClassPtr@VCFuncPlatRot@@@@YAPAVCFuncPlatRot@@PAV0@@Z 10041650 f i plats.obj
 0001:000406b0       ??$GetClassPtr@VCFuncTrackAuto@@@@YAPAVCFuncTrackAuto@@PAV0@@Z 100416b0 f i plats.obj
 0001:00040760       ??$GetClassPtr@VCFuncTrackChange@@@@YAPAVCFuncTrackChange@@PAV0@@Z 10041760 f i plats.obj
 0001:000407c0       ??$GetClassPtr@VCFuncTrackTrain@@@@YAPAVCFuncTrackTrain@@PAV0@@Z 100417c0 f i plats.obj
 0001:00040860       ??$GetClassPtr@VCFuncTrain@@@@YAPAVCFuncTrain@@PAV0@@Z 10041860 f i plats.obj
 0001:000408f0       ??$GetClassPtr@VCFuncTrainControls@@@@YAPAVCFuncTrainControls@@PAV0@@Z 100418f0 f i plats.obj
 0001:00040950       ??$GetClassPtr@VCGunTarget@@@@YAPAVCGunTarget@@PAV0@@Z 10041950 f i plats.obj
 0001:00040a00       ??$GetClassPtr@VCPlatTrigger@@@@YAPAVCPlatTrigger@@PAV0@@Z 10041a00 f i plats.obj
 0001:00040a60       ??0CFuncPlatRot@@QAE@XZ    10041a60 f i plats.obj
 0001:00040ab0       ??0CFuncTrackChange@@QAE@XZ 10041ab0 f i plats.obj
 0001:00040b00       ?Activate@CFuncTrain@@UAEXXZ 10041b00 f   plats.obj
 0001:00040c30       ?Activate@CGunTarget@@UAEXXZ 10041c30 f   plats.obj
 0001:00040ce0       ?Blocked@CFuncPlat@@UAEXPAVCBaseEntity@@@Z 10041ce0 f   plats.obj
 0001:00040da0       ?Blocked@CFuncTrackTrain@@UAEXPAVCBaseEntity@@@Z 10041da0 f   plats.obj
 0001:00040f80       ?Blocked@CFuncTrain@@UAEXPAVCBaseEntity@@@Z 10041f80 f   plats.obj
 0001:00040fe0       ?BodyTarget@CGunTarget@@UAE?AVVector@@ABV2@@Z 10041fe0 f i plats.obj
 0001:00041000       ?CallGoDown@CFuncPlat@@QAEXXZ 10042000 f i plats.obj
 0001:00041010       ?CallHitBottom@CFuncPlat@@QAEXXZ 10042010 f i plats.obj
 0001:00041020       ?CallHitTop@CFuncPlat@@QAEXXZ 10042020 f i plats.obj
 0001:00041030       ?DeadEnd@CFuncTrackTrain@@QAEXXZ 10042030 f   plats.obj
 0001:00041150       ?EvaluateTrain@CFuncTrackChange@@QAE?AW4TRAIN_CODE@@PAVCPathTrack@@@Z 10042150 f   plats.obj
 0001:00041240       ?Find@CFuncTrackChange@@QAEXXZ 10042240 f   plats.obj
 0001:000414e0       ?Find@CFuncTrackTrain@@QAEXXZ 100424e0 f   plats.obj
 0001:000416e0       ?Find@CFuncTrainControls@@QAEXXZ 100426e0 f   plats.obj
 0001:00041820       ?GoDown@CFuncPlat@@UAEXXZ  10042820 f   plats.obj
 0001:000418d0       ?GoDown@CFuncPlatRot@@UAEXXZ 100428d0 f   plats.obj
 0001:00041910       ?GoDown@CFuncTrackChange@@UAEXXZ 10042910 f   plats.obj
 0001:000419f0       ?GoUp@CFuncPlat@@UAEXXZ    100429f0 f   plats.obj
 0001:00041aa0       ?GoUp@CFuncPlatRot@@UAEXXZ 10042aa0 f   plats.obj
 0001:00041ae0       ?GoUp@CFuncTrackChange@@UAEXXZ 10042ae0 f   plats.obj
 0001:00041bc0       ?HitBottom@CFuncPlat@@UAEXXZ 10042bc0 f   plats.obj
 0001:00041c60       ?HitBottom@CFuncPlatRot@@UAEXXZ 10042c60 f   plats.obj
 0001:00041ca0       ?HitBottom@CFuncTrackChange@@UAEXXZ 10042ca0 f   plats.obj
 0001:00041d30       ?HitTop@CFuncPlat@@UAEXXZ  10042d30 f   plats.obj
 0001:00041e00       ?HitTop@CFuncPlatRot@@UAEXXZ 10042e00 f   plats.obj
 0001:00041e40       ?HitTop@CFuncTrackChange@@UAEXXZ 10042e40 f   plats.obj
 0001:00041ed0       ?Instance@CFuncTrackTrain@@SAPAV1@PAUedict_s@@@Z 10042ed0 f   plats.obj
 0001:00041f30       ?KeyValue@CBasePlatTrain@@UAEXPAUKeyValueData_s@@@Z 10042f30 f   plats.obj
 0001:00042100       ?KeyValue@CFuncTrackChange@@UAEXPAUKeyValueData_s@@@Z 10043100 f   plats.obj
 0001:00042210       ?KeyValue@CFuncTrackTrain@@UAEXPAUKeyValueData_s@@@Z 10043210 f   plats.obj
 0001:000423d0       ?KeyValue@CFuncTrain@@UAEXPAUKeyValueData_s@@@Z 100433d0 f   plats.obj
 0001:00042440       ?NearestPath@CFuncTrackTrain@@QAEXXZ 10043440 f   plats.obj
 0001:000426d0       ?Next@CFuncTrackTrain@@QAEXXZ 100436d0 f   plats.obj
 0001:00042d00       ?Next@CFuncTrain@@QAEXXZ   10043d00 f   plats.obj
 0001:00043030       ?Next@CGunTarget@@QAEXXZ   10044030 f   plats.obj
 0001:00043110       ?NextThink@CFuncTrackTrain@@QAEXMH@Z 10044110 f   plats.obj
 0001:00043110       ?NextThink@CFuncVehicle@@QAEXMH@Z 10044110 f   vehicle.obj
 0001:00043160       ?OnControls@CFuncTrackTrain@@UAEHPAUentvars_s@@@Z 10044160 f   plats.obj
 0001:00043290       ?OverrideReset@CFuncTrackChange@@UAEXXZ 10044290 f   plats.obj
 0001:000432c0       ?OverrideReset@CFuncTrackTrain@@UAEXXZ 100442c0 f   plats.obj
 0001:00043300       ?OverrideReset@CFuncTrain@@UAEXXZ 10044300 f   plats.obj
 0001:000433f0       ?PlatUse@CFuncPlat@@QAEXPAVCBaseEntity@@0W4USE_TYPE@@M@Z 100443f0 f   plats.obj
 0001:00043470       ?Precache@CBasePlatTrain@@UAEXXZ 10044470 f   plats.obj
 0001:000437b0       ?Precache@CFuncPlat@@UAEXXZ 100447b0 f   plats.obj
 0001:000437d0       ?Precache@CFuncTrackChange@@UAEXXZ 100447d0 f   plats.obj
 0001:000437f0       ?Precache@CFuncTrackTrain@@UAEXXZ 100447f0 f   plats.obj
 0001:00043980       ?Precache@CFuncTrain@@UAEXXZ 10044980 f   plats.obj
 0001:00043990       ?Restart@CFuncTrackTrain@@UAEXXZ 10044990 f   plats.obj
 0001:00043a70       ?Restart@CFuncTrain@@UAEXXZ 10044a70 f   plats.obj
 0001:00043b10       ?Restore@CBasePlatTrain@@UAEHAAVCRestore@@@Z 10044b10 f   plats.obj
 0001:00043b50       ?Restore@CFuncPlatRot@@UAEHAAVCRestore@@@Z 10044b50 f   plats.obj
 0001:00043b90       ?Restore@CFuncTrackChange@@UAEHAAVCRestore@@@Z 10044b90 f   plats.obj
 0001:00043bd0       ?Restore@CFuncTrackTrain@@UAEHAAVCRestore@@@Z 10044bd0 f   plats.obj
 0001:00043c10       ?Restore@CFuncTrain@@UAEHAAVCRestore@@@Z 10044c10 f   plats.obj
 0001:00043c50       ?Restore@CGunTarget@@UAEHAAVCRestore@@@Z 10044c50 f   plats.obj
 0001:00043c90       ?RotMove@CFuncPlatRot@@QAEXAAVVector@@M@Z 10044c90 f   plats.obj
 0001:00043d30       ?STOP_SOUND@@YAXPAUedict_s@@HPBD@Z 10044d30 f i plats.obj
 0001:00043d60       ?Save@CBasePlatTrain@@UAEHAAVCSave@@@Z 10044d60 f   plats.obj
 0001:00043da0       ?Save@CFuncPlatRot@@UAEHAAVCSave@@@Z 10044da0 f   plats.obj
 0001:00043de0       ?Save@CFuncTrackChange@@UAEHAAVCSave@@@Z 10044de0 f   plats.obj
 0001:00043e20       ?Save@CFuncTrackTrain@@UAEHAAVCSave@@@Z 10044e20 f   plats.obj
 0001:00043e60       ?Save@CFuncTrain@@UAEHAAVCSave@@@Z 10044e60 f   plats.obj
 0001:00043ea0       ?Save@CGunTarget@@UAEHAAVCSave@@@Z 10044ea0 f   plats.obj
 0001:00043ee0       ?SetControls@CFuncTrackTrain@@QAEXPAUentvars_s@@@Z 10044ee0 f   plats.obj
 0001:00043f90       ?Setup@CFuncPlat@@QAEXXZ   10044f90 f   plats.obj
 0001:000440f0       ?SetupRotation@CFuncPlatRot@@QAEXXZ 100450f0 f   plats.obj
 0001:000441f0       ?Spawn@CFuncPlat@@UAEXXZ   100451f0 f   plats.obj
 0001:00044250       ?Spawn@CFuncPlatRot@@UAEXXZ 10045250 f   plats.obj
 0001:00044260       ?Spawn@CFuncTrackChange@@UAEXXZ 10045260 f   plats.obj
 0001:00044340       ?Spawn@CFuncTrackTrain@@UAEXXZ 10045340 f   plats.obj
 0001:00044510       ?Spawn@CFuncTrain@@UAEXXZ  10045510 f   plats.obj
 0001:00044630       ?Spawn@CFuncTrainControls@@UAEXXZ 10045630 f   plats.obj
 0001:000446b0       ?Spawn@CGunTarget@@UAEXXZ  100456b0 f   plats.obj
 0001:00044790       ?SpawnInsideTrigger@CPlatTrigger@@QAEXPAVCFuncPlat@@@Z 10045790 f   plats.obj
 0001:00044910       ?Start@CGunTarget@@QAEXXZ  10045910 f   plats.obj
 0001:00044930       ?Stop@CGunTarget@@QAEXXZ   10045930 f   plats.obj
 0001:00044970       ?StopSound@CFuncTrackTrain@@QAEXXZ 10045970 f   plats.obj
 0001:000449f0       ?TakeDamage@CGunTarget@@UAEHPAUentvars_s@@0MH@Z 100459f0 f   plats.obj
 0001:00044a70       ?InitHUD@CHalfLifeTraining@@UAEXPAVCBasePlayer@@@Z 10045a70 f   training_gamerules.obj
 0001:00044a70       ?C4Touch@CGrenade@@QAEXPAVCBaseEntity@@@Z 10045a70 f   voice_gamemgr.obj
 0001:00044a70       ?UpdateLocation@CBasePlayer@@QAEX_N@Z 10045a70 f   player.obj
 0001:00044a70       ?Touch@CFuncTrackChange@@UAEXPAVCBaseEntity@@@Z 10045a70 f   plats.obj
 0001:00044a70       ?OnTouchingWeapon@CBasePlayer@@UAEXPAVCBasePlayerWeapon@@@Z 10045a70 f   client.obj
 0001:00044a70       ?SetToggleState@CBaseEntity@@UAEXH@Z 10045a70 f   airtank.obj
 0001:00044a70       ?DeathNotice@CBaseEntity@@UAEXPAUentvars_s@@@Z 10045a70 f   airtank.obj
 0001:00044a70       ?HandleAnimEvent@CBaseAnimating@@UAEXPAUMonsterEvent_t@@@Z 10045a70 f   airtank.obj
 0001:00044a70       ?ShowNodeConnections@CGraph@@QAEXH@Z 10045a70 f   mpstubb.obj
 0001:00044a80       ?Touch@CPlatTrigger@@UAEXPAVCBaseEntity@@@Z 10045a80 f   plats.obj
 0001:00044b20       ?UpdateAutoTargets@CFuncTrackAuto@@UAEXH@Z 10045b20 f   plats.obj
 0001:00044bd0       ?UpdateAutoTargets@CFuncTrackChange@@UAEXH@Z 10045bd0 f   plats.obj
 0001:00044c30       ?UpdateSound@CFuncTrackTrain@@QAEXXZ 10045c30 f   plats.obj
 0001:00044da0       ?UpdateTrain@CFuncTrackChange@@QAEXAAVVector@@@Z 10045da0 f   plats.obj
 0001:00044f90       ?Use@CFuncTrackAuto@@UAEXPAVCBaseEntity@@0W4USE_TYPE@@M@Z 10045f90 f   plats.obj
 0001:000450c0       ?Use@CFuncTrackChange@@UAEXPAVCBaseEntity@@0W4USE_TYPE@@M@Z 100460c0 f   plats.obj
 0001:00045150       ?Use@CFuncTrackTrain@@UAEXPAVCBaseEntity@@0W4USE_TYPE@@M@Z 10046150 f   plats.obj
 0001:000452f0       ?Use@CFuncTrain@@UAEXPAVCBaseEntity@@0W4USE_TYPE@@M@Z 100462f0 f   plats.obj
 0001:000453b0       ?Use@CGunTarget@@UAEXPAVCBaseEntity@@0W4USE_TYPE@@M@Z 100463b0 f   plats.obj
 0001:00045430       ?Wait@CFuncTrain@@QAEXXZ   10046430 f   plats.obj
 0001:00045600       ?Wait@CGunTarget@@QAEXXZ   10046600 f   plats.obj
 0001:000456d0       _func_guntarget            100466d0 f   plats.obj
 0001:000456e0       _func_plat                 100466e0 f   plats.obj
 0001:000456f0       _func_platrot              100466f0 f   plats.obj
 0001:00045700       _func_trackautochange      10046700 f   plats.obj
 0001:00045710       _func_trackchange          10046710 f   plats.obj
 0001:00045720       _func_tracktrain           10046720 f   plats.obj
 0001:00045730       _func_train                10046730 f   plats.obj
 0001:00045740       _func_traincontrols        10046740 f   plats.obj
 0001:00045750       ??$GetClassPtr@VCBloodSplat@@@@YAPAVCBloodSplat@@PAV0@@Z 10046750 f i player.obj
 0001:000457b0       ??$GetClassPtr@VCDeadHEV@@@@YAPAVCDeadHEV@@PAV0@@Z 100467b0 f i player.obj
 0001:00045820       ??$GetClassPtr@VCInfoIntermission@@@@YAPAVCInfoIntermission@@PAV0@@Z 10046820 f i player.obj
 0001:00045880       ??$GetClassPtr@VCRevertSaved@@@@YAPAVCRevertSaved@@PAV0@@Z 10046880 f i player.obj
 0001:000458e0       ??$GetClassPtr@VCSprayCan@@@@YAPAVCSprayCan@@PAV0@@Z 100468e0 f i player.obj
 0001:00045940       ??$GetClassPtr@VCStripWeapons@@@@YAPAVCStripWeapons@@PAV0@@Z 10046940 f i player.obj
 0001:000459a0       ??$GetClassPtr@VCWShield@@@@YAPAVCWShield@@PAV0@@Z 100469a0 f i player.obj
 0001:00045a00       ??9Vector@@QBEHABV0@@Z     10046a00 f i player.obj
 0001:00045a40       ?AddAccount@CBasePlayer@@QAEXH_N@Z 10046a40 f   player.obj
 0001:00045ac0       ?AddAutoBuyData@CBasePlayer@@QAEXPBD@Z 10046ac0 f   player.obj
 0001:00045b10       ?AddPlayerItem@CBasePlayer@@UAEHPAVCBasePlayerItem@@@Z 10046b10 f   player.obj
 0001:00045cb0       ?AddPoints@CBasePlayer@@UAEXHH@Z 10046cb0 f   player.obj
 0001:00045d80       ?AddPointsToTeam@CBasePlayer@@UAEXHH@Z 10046d80 f   player.obj
 0001:00045e10       ?AmmoInventory@CBasePlayer@@QAEHH@Z 10046e10 f   player.obj
 0001:00045e30       ?AutoBuy@CBasePlayer@@QAEXXZ 10046e30 f   player.obj
 0001:00045e60       ?AutoaimDeflection@CBasePlayer@@QAE?AVVector@@AAV2@MM@Z 10046e60 f   player.obj
 0001:00045ea0       ?Blind@CBasePlayer@@UAEXMMMH@Z 10046ea0 f   player.obj
 0001:00045f00       ?BufPrintf@@YAPADPADAAHPBDZZ 10046f00 f   player.obj
 0001:00045f70       ?BuildRebuyStruct@CBasePlayer@@QAEXXZ 10046f70 f   player.obj
 0001:000460c0       ?BuyAliasToWeaponID@@YAPBDPBDAAH@Z 100470c0 f   player.obj
 0001:00046130       ?CalculatePitchBlend@CBasePlayer@@QAEXXZ 10047130 f   player.obj
 0001:000461b0       ?CalculateYawBlend@CBasePlayer@@QAEXXZ 100471b0 f   player.obj
 0001:000462a0       ?CanPlayerBuy@CBasePlayer@@QAE_N_N@Z 100472a0 f   player.obj
 0001:00046440       ?CanSwitchObserverModes@CBasePlayer@@QAEHXZ 10047440 f   player.obj
 0001:00046450       ?CheatImpulseCommands@CBasePlayer@@QAEXH@Z 10047450 f   player.obj
 0001:00046af0       ?CheckPowerups@CBasePlayer@@QAEXPAUentvars_s@@@Z 10047af0 f   player.obj
 0001:00046b20       ?CheckSuitUpdate@CBasePlayer@@QAEXXZ 10047b20 f   player.obj
 0001:00046c50       ?CheckTimeBasedDamage@CBasePlayer@@QAEXXZ 10047c50 f   player.obj
 0001:00046dd0       ?ClearAutoBuyData@CBasePlayer@@QAEXXZ 10047dd0 f   player.obj
 0001:00046de0       ?ClientCommand@CBasePlayer@@QAEXPBD000@Z 10047de0 f   player.obj
 0001:00046e30       ?DeathSound@CBasePlayer@@QAEXXZ 10047e30 f   player.obj
 0001:00046ef0       ?Disappear@CBasePlayer@@QAEXXZ 10047ef0 f   player.obj
 0001:000471b0       ?DrawnShiled@CBasePlayer@@QAEXXZ 100481b0 f   player.obj
 0001:000471e0       ?DropPlayerItem@CBasePlayer@@QAEXPBD@Z 100481e0 f   player.obj
 0001:00047700       ?DropShield@CBasePlayer@@QAEX_N@Z 10048700 f   player.obj
 0001:000478d0       ?Duck@CBasePlayer@@UAEXXZ  100488d0 f   player.obj
 0001:000478f0       ?EnableControl@CBasePlayer@@QAEXH@Z 100488f0 f   player.obj
 0001:00047920       ?EntSelectSpawnPoint@@YAPAUedict_s@@PAVCBaseEntity@@@Z 10048920 f   player.obj
 0001:00047b50       ?EnterEscapeZone@CBasePlayer@@QAEXXZ 10048b50 f   player.obj
 0001:00047be0       ?EnterVIPSafetyZone@CBasePlayer@@QAEXXZ 10048be0 f   player.obj
 0001:00047ca0       ?FBecomeProne@CBasePlayer@@UAEHXZ 10048ca0 f   player.obj
 0001:00047cb0       ?FNullEnt@@YAHPAVCBaseEntity@@@Z 10048cb0 f i player.obj
 0001:00047ce0       ?FindEntityForward@@YAPAVCBaseEntity@@PAV1@@Z 10048ce0 f   player.obj
 0001:00047e10       ?FlashlightIsOn@CBasePlayer@@QAEHXZ 10048e10 f   player.obj
 0001:00047e20       ?FlashlightTurnOff@CBasePlayer@@QAEXXZ 10048e20 f   player.obj
 0001:00047eb0       ?FlashlightTurnOn@CBasePlayer@@QAEXXZ 10048eb0 f   player.obj
 0001:00047f60       ?ForceClientDllUpdate@CBasePlayer@@QAEXXZ 10048f60 f   player.obj
 0001:00047fb0       ?GetAmmoIndex@CBasePlayer@@SAHPBD@Z 10048fb0 f   player.obj
 0001:00048000       ?GetAutoBuyCommandInfo@CBasePlayer@@QAEPAUAutoBuyInfoStruct@@PBD@Z 10049000 f   player.obj
 0001:00048040       ?GetAutoaimVector@CBasePlayer@@UAE?AVVector@@M@Z 10049040 f   player.obj
 0001:00048340       ?GetCSModelName@@YAPBDH@Z  10049340 f   player.obj
 0001:00048590       ?GetCustomDecalFrames@CBasePlayer@@QAEHXZ 10049590 f   player.obj
 0001:000485a0       ?GetPlayerGaitsequence@@YAHPBUedict_s@@@Z 100495a0 f   player.obj
 0001:000485e0       ?GetPlayerPitch@@YAMPBUedict_s@@@Z 100495e0 f   player.obj
 0001:00048620       ?GetPlayerYaw@@YAMPBUedict_s@@@Z 10049620 f   player.obj
 0001:00048660       ?GetWeaponInfo@@YAPAUWeaponInfoStruct@@H@Z 10049660 f   player.obj
 0001:00048690       ?GetWeaponName@@YAPBDPAUentvars_s@@0@Z 10049690 f   player.obj
 0001:00048770       ?GiveAmmo@CBasePlayer@@UAEHHPADH@Z 10049770 f   player.obj
 0001:00048840       ?GiveDefaultItems@CBasePlayer@@QAEXXZ 10049840 f   player.obj
 0001:000488d0       ?GiveNamedItem@CBasePlayer@@QAEXPBD@Z 100498d0 f   player.obj
 0001:00048960       ?GiveShield@CBasePlayer@@QAEX_N@Z 10049960 f   player.obj
 0001:000489d0       ?HandleSignals@CBasePlayer@@QAEXXZ 100499d0 f   player.obj
 0001:00048e60       ?HasNamedPlayerItem@CBasePlayer@@QAEHPBD@Z 10049e60 f   player.obj
 0001:00048ef0       ?HasPlayerItem@CBasePlayer@@QAEHPAVCBasePlayerItem@@@Z 10049ef0 f   player.obj
 0001:00048f80       ?HasShield@CBasePlayer@@QAE_NXZ 10049f80 f   player.obj
 0001:00048f90       ?HasWeapons@CBasePlayer@@QAEHXZ 10049f90 f   player.obj
 0001:00048fb0       ?HintMessage@CBasePlayer@@QAE_NPBDHH@Z 10049fb0 f   player.obj
 0001:00049010       ?HostageUsed@CBasePlayer@@QAEXXZ 1004a010 f   player.obj
 0001:00049060       ?Illumination@CBasePlayer@@UAEHXZ 1004a060 f   player.obj
 0001:00049090       ?ImpulseCommands@CBasePlayer@@UAEXXZ 1004a090 f   player.obj
 0001:000492f0       ?InitRebuyData@CBasePlayer@@QAEXPBD@Z 1004a2f0 f   player.obj
 0001:00049380       ?InitStatusBar@CBasePlayer@@QAEXXZ 1004a380 f   player.obj
 0001:000493a0       ?IsArmored@CBasePlayer@@QAEHH@Z 1004a3a0 f   player.obj
 0001:000493f0       ?IsBombGuy@CBasePlayer@@QAEHXZ 1004a3f0 f   player.obj
 0001:00049410       ?IsHittingShield@CBasePlayer@@QAE_NABVVector@@PAUTraceResult@@@Z 1004a410 f   player.obj
 0001:00049450       ?IsObservingPlayer@CBasePlayer@@QAE_NPAV1@@Z 1004a450 f   player.obj
 0001:000494d0       ?IsProtectedByShield@CBasePlayer@@QAE_NXZ 1004a4d0 f   player.obj
 0001:000494f0       ?IsReloading@CBasePlayer@@QAE_NXZ 1004a4f0 f   player.obj
 0001:00049510       ?IsSpawnPointValid@@YAHPAVCBaseEntity@@0@Z 1004a510 f   player.obj
 0001:000495a0       ?IsThrowingGrenade@CBasePlayer@@QAE_NXZ 1004a5a0 f   player.obj
 0001:000495d0       ?ItemPostFrame@CBasePlayer@@QAEXXZ 1004a5d0 f   player.obj
 0001:00049650       ?ItemPreFrame@CBasePlayer@@QAEXXZ 1004a650 f   player.obj
 0001:00049680       ?JoiningThink@CBasePlayer@@QAEXXZ 1004a680 f   player.obj
 0001:00049a50       ?Jump@CBasePlayer@@UAEXXZ  1004aa50 f   player.obj
 0001:00049c10       ?KeyValue@CDeadHEV@@UAEXPAUKeyValueData_s@@@Z 1004ac10 f   player.obj
 0001:00049c80       ?KeyValue@CRevertSaved@@UAEXPAUKeyValueData_s@@@Z 1004ac80 f   player.obj
 0001:00049e00       ?Killed@CBasePlayer@@UAEXPAUentvars_s@@H@Z 1004ae00 f   player.obj
 0001:0004a870       ?LeaveEscapeZone@CBasePlayer@@QAEXXZ 1004b870 f   player.obj
 0001:0004a900       ?LeaveVIPSafetyZone@CBasePlayer@@QAEXXZ 1004b900 f   player.obj
 0001:0004a990       ?LinkUserMessages@@YAXXZ   1004b990 f   player.obj
 0001:0004af60       ?LoadThink@CRevertSaved@@QAEXXZ 1004bf60 f   player.obj
 0001:0004af90       ?LogAttack@@YAXPAVCBasePlayer@@0HHHHHPBD@Z 1004bf90 f   player.obj
 0001:0004b080       ?MakeVIP@CBasePlayer@@QAEXXZ 1004c080 f   player.obj
 0001:0004b150       ?MenuPrint@CBasePlayer@@QAEXPBD@Z 1004c150 f   player.obj
 0001:0004b230       ?MessageThink@CRevertSaved@@QAEXXZ 1004c230 f   player.obj
 0001:0004b290       ?MoveToNextIntroCamera@CBasePlayer@@QAEXXZ 1004c290 f   player.obj
 0001:0004b4b0       ?NumAsString@@YAPADH@Z     1004c4b0 f   player.obj
 0001:0004b500       ?PackDeadPlayerItems@CBasePlayer@@QAEXXZ 1004c500 f   player.obj
 0001:0004b610       ?Pain@CBasePlayer@@QAEXH_N@Z 1004c610 f   player.obj
 0001:0004b7a0       ?ParseAutoBuyString@CBasePlayer@@QAEXPBDAA_N1@Z 1004c7a0 f   player.obj
 0001:0004b880       ?PlayerDeathThink@CBasePlayer@@QAEXXZ 1004c880 f   player.obj
 0001:0004bb80       ?PlayerUse@CBasePlayer@@QAEXXZ 1004cb80 f   player.obj
 0001:0004bfb0       ?PostAutoBuyCommandProcessing@CBasePlayer@@QAEXPBUAutoBuyInfoStruct@@AA_N1@Z 1004cfb0 f   player.obj
 0001:0004c040       ?PostThink@CBasePlayer@@UAEXXZ 1004d040 f   player.obj
 0001:0004c420       ?PreThink@CBasePlayer@@UAEXXZ 1004d420 f   player.obj
 0001:0004cad0       ?Precache@CBasePlayer@@UAEXXZ 1004dad0 f   player.obj
 0001:0004cb70       ?Radio@CBasePlayer@@QAEXPBD0H_N@Z 1004db70 f   player.obj
 0001:0004cda0       ?Rebuy@CBasePlayer@@QAEXXZ 1004dda0 f   player.obj
 0001:0004cf10       ?RebuyArmor@CBasePlayer@@QAEXXZ 1004df10 f   player.obj
 0001:0004cf50       ?RebuyDefuser@CBasePlayer@@QAEXXZ 1004df50 f   player.obj
 0001:0004cf80       ?RebuyFlashbang@CBasePlayer@@QAEXXZ 1004df80 f   player.obj
 0001:0004cfd0       ?RebuyHEGrenade@CBasePlayer@@QAEXXZ 1004dfd0 f   player.obj
 0001:0004d020       ?RebuyNightVision@CBasePlayer@@QAEXXZ 1004e020 f   player.obj
 0001:0004d050       ?RebuyPrimaryAmmo@CBasePlayer@@QAEXXZ 1004e050 f   player.obj
 0001:0004d080       ?RebuyPrimaryWeapon@CBasePlayer@@QAEXXZ 1004e080 f   player.obj
 0001:0004d0c0       ?RebuySecondaryAmmo@CBasePlayer@@QAEXXZ 1004e0c0 f   player.obj
 0001:0004d0f0       ?RebuySecondaryWeapon@CBasePlayer@@QAEXXZ 1004e0f0 f   player.obj
 0001:0004d130       ?RebuySmokeGrenade@CBasePlayer@@QAEXXZ 1004e130 f   player.obj
 0001:0004d180       ?RemoveAllItems@CBasePlayer@@QAEXH@Z 1004e180 f   player.obj
 0001:0004d3a0       ?RemoveLevelText@CBasePlayer@@QAEXXZ 1004e3a0 f   player.obj
 0001:0004d3b0       ?RemovePlayerItem@CBasePlayer@@UAEHPAVCBasePlayerItem@@@Z 1004e3b0 f   player.obj
 0001:0004d480       ?RemoveShield@CBasePlayer@@QAEXXZ 1004e480 f   player.obj
 0001:0004d4c0       ?ResetAutoaim@CBasePlayer@@QAEXXZ 1004e4c0 f   player.obj
 0001:0004d540       ?ResetMaxSpeed@CBasePlayer@@UAEXXZ 1004e540 f   player.obj
 0001:0004d5e0       ?ResetMenu@CBasePlayer@@QAEXXZ 1004e5e0 f   player.obj
 0001:0004d630       ?ResetStamina@CBasePlayer@@QAEXXZ 1004e630 f   player.obj
 0001:0004d660       ?Restart@CBasePlayer@@UAEXXZ 1004e660 f   player.obj
 0001:0004d740       ?Restore@CBasePlayer@@UAEHAAVCRestore@@@Z 1004e740 f   player.obj
 0001:0004d8f0       ?Restore@CRevertSaved@@UAEHAAVCRestore@@@Z 1004e8f0 f   player.obj
 0001:0004d930       ?RoundRespawn@CBasePlayer@@UAEXXZ 1004e930 f   player.obj
 0001:0004d9f0       ?Save@CBasePlayer@@UAEHAAVCSave@@@Z 1004e9f0 f   player.obj
 0001:0004da30       ?Save@CRevertSaved@@UAEHAAVCSave@@@Z 1004ea30 f   player.obj
 0001:0004da70       ?SelectItem@CBasePlayer@@QAEXPBD@Z 1004ea70 f   player.obj
 0001:0004db90       ?SelectLastItem@CBasePlayer@@QAEXXZ 1004eb90 f   player.obj
 0001:0004dc80       ?SelectSpawnSpot@@YA_NPAVCBaseEntity@@PBDAAPAV1@@Z 1004ec80 f   player.obj
 0001:0004de40       ?SendAmmoUpdate@CBasePlayer@@QAEXXZ 1004ee40 f   player.obj
 0001:0004dec0       ?SendFOV@CBasePlayer@@QAEXH@Z 1004eec0 f   player.obj
 0001:0004df20       ?SendHostagePos@CBasePlayer@@QAEXXZ 1004ef20 f   player.obj
 0001:0004dfd0       ?SendItemStatus@@YAXPAVCBasePlayer@@@Z 1004efd0 f   player.obj
 0001:0004e030       ?SendWeatherInfo@CBasePlayer@@QAEXXZ 1004f030 f   player.obj
 0001:0004e0e0       ?SetAnimation@CBasePlayer@@QAEXW4PLAYER_ANIM@@@Z 1004f0e0 f   player.obj
 0001:0004efc0       ?SetBombIcon@CBasePlayer@@QAEXH@Z 1004ffc0 f   player.obj
 0001:0004f070       ?SetCantBePickedUpByUser@CWShield@@QAEXPAVCBaseEntity@@M@Z 10050070 f   player.obj
 0001:0004f0a0       ?SetCustomDecalFrames@CBasePlayer@@QAEXH@Z 100500a0 f   player.obj
 0001:0004f0c0       ?SetNewPlayerModel@CBasePlayer@@QAEXPBD@Z 100500c0 f   player.obj
 0001:0004f0f0       ?SetObserverAutoDirector@CBasePlayer@@QAEX_N@Z 100500f0 f   player.obj
 0001:0004f100       ?SetPlayerModel@CBasePlayer@@QAEXH@Z 10050100 f   player.obj
 0001:0004f210       ?SetPrefsFromUserinfo@CBasePlayer@@QAEXPAD@Z 10050210 f   player.obj
 0001:0004f350       ?SetProgressBarTime2@CBasePlayer@@QAEXHM@Z 10050350 f   player.obj
 0001:0004f4c0       ?SetProgressBarTime@CBasePlayer@@QAEXH@Z 100504c0 f   player.obj
 0001:0004f5e0       ?SetScoreAttrib@CBasePlayer@@QAEXPAV1@@Z 100505e0 f   player.obj
 0001:0004f680       ?SetScoreboardAttributes@CBasePlayer@@QAEXPAV1@@Z 10050680 f   player.obj
 0001:0004f700       ?SetSuitUpdate@CBasePlayer@@QAEXPADHH@Z 10050700 f   player.obj
 0001:0004f700       ?PlayerGotAmmo@CHalfLifeMultiplay@@UAEXPAVCBasePlayer@@PADH@Z 10050700 f   multiplay_gamerules.obj
 0001:0004f700       ?MakeIdealYaw@CBaseMonster@@QAEXVVector@@@Z 10050700 f   mpstubb.obj
 0001:0004f710       ?ShouldDoLargeFlinch@CBasePlayer@@QAEHHH@Z 10050710 f   player.obj
 0001:0004f780       ?ShouldExecuteAutoBuyCommand@CBasePlayer@@QAE_NPBUAutoBuyInfoStruct@@_N1@Z 10050780 f   player.obj
 0001:0004f7d0       ?Spawn@CBasePlayer@@UAEXXZ 100507d0 f   player.obj
 0001:00050340       ?Spawn@CBloodSplat@@QAEXPAUentvars_s@@@Z 10051340 f   player.obj
 0001:000503e0       ?Spawn@CDeadHEV@@UAEXXZ    100513e0 f   player.obj
 0001:000504b0       ?Spawn@CInfoIntermission@@UAEXXZ 100514b0 f   player.obj
 0001:00050520       ?Spawn@CSprayCan@@QAEXPAUentvars_s@@@Z 10051520 f   player.obj
 0001:000505f0       ?Spawn@CWShield@@UAEXXZ    100515f0 f   player.obj
 0001:00050640       ?SpawnClientSideCorpse@CBasePlayer@@QAEXXZ 10051640 f   player.obj
 0001:00050760       ?Spray@CBloodSplat@@QAEXXZ 10051760 f   player.obj
 0001:00050860       ?StartObserver@CBasePlayer@@QAEXVVector@@0@Z 10051860 f   player.obj
 0001:00050a90       ?StopReload@CBasePlayer@@QAEXXZ 10051a90 f   player.obj
 0001:00050ab0       ?StudioEstimateGait@CBasePlayer@@QAEXXZ 10051ab0 f   player.obj
 0001:00050d70       ?StudioProcessGait@CBasePlayer@@QAEXXZ 10051d70 f   player.obj
 0001:00050e80       ?SwitchTeam@CBasePlayer@@QAEXXZ 10051e80 f   player.obj
 0001:00051190       ?SwitchWeapon@CBasePlayer@@QAEHPAVCBasePlayerItem@@@Z 10052190 f   player.obj
 0001:00051220       ?SyncRoundTimer@CBasePlayer@@QAEXXZ 10052220 f   player.obj
 0001:000512a0       ?TabulateAmmo@CBasePlayer@@QAEXXZ 100522a0 f   player.obj
 0001:000513a0       ?TakeDamage@CBasePlayer@@UAEHPAUentvars_s@@0MH@Z 100523a0 f   player.obj
 0001:00052060       ?TakeHealth@CBasePlayer@@UAEHMH@Z 10053060 f   player.obj
 0001:00052080       ?TeamID@CBasePlayer@@UAEPBDXZ 10053080 f   player.obj
 0001:000520a0       ?Think@CInfoIntermission@@UAEXXZ 100530a0 f   player.obj
 0001:00052200       ?Think@CSprayCan@@UAEXXZ   10053200 f   player.obj
 0001:00052380       ?Touch@CWShield@@UAEXPAVCBaseEntity@@@Z 10053380 f   player.obj
 0001:00052490       ?TraceAttack@CBasePlayer@@UAEXPAUentvars_s@@MVVector@@PAUTraceResult@@H@Z 10053490 f   player.obj
 0001:00052980       ?TrainSpeed@@YAHHH@Z       10053980 f   player.obj
 0001:000529d0       ?UpdateClientData@CBasePlayer@@UAEXXZ 100539d0 f   player.obj
 0001:00053420       ?UpdateGeigerCounter@CBasePlayer@@QAEXXZ 10054420 f   player.obj
 0001:000534d0       ?UpdatePlayerSound@CBasePlayer@@QAEXXZ 100544d0 f   player.obj
 0001:000536a0       ?UpdateShieldCrosshair@CBasePlayer@@QAEX_N@Z 100546a0 f   player.obj
 0001:000536c0       ?UpdateStatusBar@CBasePlayer@@QAEXXZ 100546c0 f   player.obj
 0001:00053c40       ?Use@CRevertSaved@@UAEXPAVCBaseEntity@@0W4USE_TYPE@@M@Z 10054c40 f   player.obj
 0001:00053cb0       ?Use@CStripWeapons@@UAEXPAVCBaseEntity@@0W4USE_TYPE@@M@Z 10054cb0 f   player.obj
 0001:00053d10       ?VARS@@YAPAUentvars_s@@H@Z 10054d10 f i player.obj
 0001:00053d30       ?WaterMove@CBasePlayer@@QAEXXZ 10054d30 f   player.obj
 0001:000540e0       ?WeaponIDToAlias@@YAPBDH@Z 100550e0 f   player.obj
 0001:00054110       ?WriteSigonMessages@@YAXXZ 10055110 f   player.obj
 0001:000541c0       ?packPlayerItem@@YAXPAVCBasePlayer@@PAVCBasePlayerItem@@_N@Z 100551c0 f   player.obj
 0001:000542f0       _info_intermission         100552f0 f   player.obj
 0001:00054300       _monster_hevsuit_dead      10055300 f   player.obj
 0001:00054310       _player                    10055310 f   player.obj
 0001:00054320       _player_loadsaved          10055320 f   player.obj
 0001:00054330       _player_weaponstrip        10055330 f   player.obj
 0001:00054340       _weapon_shield             10055340 f   player.obj
 0001:00054350       ??$GetClassPtr@VCAmbientGeneric@@@@YAPAVCAmbientGeneric@@PAV0@@Z 10055350 f i sound.obj
 0001:000543b0       ??$GetClassPtr@VCEnvSound@@@@YAPAVCEnvSound@@PAV0@@Z 100553b0 f i sound.obj
 0001:00054410       ??$GetClassPtr@VCSpeaker@@@@YAPAVCSpeaker@@PAV0@@Z 10055410 f i sound.obj
 0001:00054470       ?EMIT_GROUPID_SUIT@@YAXPAUedict_s@@H@Z 10055470 f   sound.obj
 0001:000544f0       ?EMIT_SOUND_DYN@@YAXPAUedict_s@@HPBDMMHH@Z 100554f0 f   sound.obj
 0001:000545a0       ?EMIT_SOUND_SUIT@@YAXPAUedict_s@@PBD@Z 100555a0 f   sound.obj
 0001:00054620       ?FEnvSoundInRange@@YAHPAUentvars_s@@0PAM@Z 10055620 f   sound.obj
 0001:00054790       ?InitModulationParms@CAmbientGeneric@@QAEXXZ 10055790 f   sound.obj
 0001:000549d0       ?KeyValue@CAmbientGeneric@@UAEXPAUKeyValueData_s@@@Z 100559d0 f   sound.obj
 0001:00054f20       ?KeyValue@CEnvSound@@UAEXPAUKeyValueData_s@@@Z 10055f20 f   sound.obj
 0001:00054fd0       ?KeyValue@CSpeaker@@UAEXPAUKeyValueData_s@@@Z 10055fd0 f   sound.obj
 0001:00055040       ?Precache@CAmbientGeneric@@UAEXXZ 10056040 f   sound.obj
 0001:00055130       ?Precache@CSpeaker@@UAEXXZ 10056130 f   sound.obj
 0001:00055180       ?RampThink@CAmbientGeneric@@QAEXXZ 10056180 f   sound.obj
 0001:00055570       ?Restart@CAmbientGeneric@@UAEXXZ 10056570 f   sound.obj
 0001:00055780       ?Restore@CAmbientGeneric@@UAEHAAVCRestore@@@Z 10056780 f   sound.obj
 0001:000557c0       ?Restore@CEnvSound@@UAEHAAVCRestore@@@Z 100567c0 f   sound.obj
 0001:00055800       ?Restore@CSpeaker@@UAEHAAVCRestore@@@Z 10056800 f   sound.obj
 0001:00055840       ?SENTENCEG_GetIndex@@YAHPBD@Z 10056840 f   sound.obj
 0001:000558c0       ?SENTENCEG_Init@@YAXXZ     100568c0 f   sound.obj
 0001:00055bd0       ?SENTENCEG_Lookup@@YAHPBDPAD@Z 10056bd0 f   sound.obj
 0001:00055c70       ?SENTENCEG_PlayRndI@@YAHPAUedict_s@@HMMHH@Z 10056c70 f   sound.obj
 0001:00055ce0       ?SENTENCEG_PlayRndSz@@YAHPAUedict_s@@PBDMMHH@Z 10056ce0 f   sound.obj
 0001:00055d80       ?SENTENCEG_PlaySequentialSz@@YAHPAUedict_s@@PBDMMHHHH@Z 10056d80 f   sound.obj
 0001:00055e00       ?Save@CAmbientGeneric@@UAEHAAVCSave@@@Z 10056e00 f   sound.obj
 0001:00055e40       ?Save@CEnvSound@@UAEHAAVCSave@@@Z 10056e40 f   sound.obj
 0001:00055e80       ?Save@CSpeaker@@UAEHAAVCSave@@@Z 10056e80 f   sound.obj
 0001:00055ec0       ?Spawn@CAmbientGeneric@@UAEXXZ 10056ec0 f   sound.obj
 0001:00056000       ?Spawn@CEnvSound@@UAEXXZ   10057000 f   sound.obj
 0001:00056050       ?Spawn@CSpeaker@@UAEXXZ    10057050 f   sound.obj
 0001:00056140       ?SpeakerThink@CSpeaker@@QAEXXZ 10057140 f   sound.obj
 0001:00056350       ?TEXTURETYPE_Find@@YADPAD@Z 10057350 f   sound.obj
 0001:000563a0       ?TEXTURETYPE_Init@@YAXXZ   100573a0 f   sound.obj
 0001:000565c0       ?TEXTURETYPE_PlaySound@@YAMPAUTraceResult@@VVector@@1H@Z 100575c0 f   sound.obj
 0001:00056a80       ?Think@CEnvSound@@UAEXXZ   10057a80 f   sound.obj
 0001:00056c30       ?ToggleUse@CAmbientGeneric@@QAEXPAVCBaseEntity@@0W4USE_TYPE@@M@Z 10057c30 f   sound.obj
 0001:00056ed0       ?ToggleUse@CSpeaker@@QAEXPAVCBaseEntity@@0W4USE_TYPE@@M@Z 10057ed0 f   sound.obj
 0001:00056f40       ?USENTENCEG_InitLRU@@YAXPAEH@Z 10057f40 f   sound.obj
 0001:00056fc0       ?USENTENCEG_Pick@@YAHHPAD@Z 10057fc0 f   sound.obj
 0001:000570c0       ?USENTENCEG_PickSequential@@YAHHPADHH@Z 100580c0 f   sound.obj
 0001:00057230       _ambient_generic           10058230 f   sound.obj
 0001:00057240       _env_sound                 10058240 f   sound.obj
 0001:00057250       _speaker                   10058250 f   sound.obj
 0001:00057260       ??$GetClassPtr@VCSoundEnt@@@@YAPAVCSoundEnt@@PAV0@@Z 10058260 f i soundent.obj
 0001:000572f0       ?Clear@CSound@@QAEXXZ      100582f0 f   soundent.obj
 0001:00057330       ?ClientSoundIndex@CSoundEnt@@SAHPAUedict_s@@@Z 10058330 f   soundent.obj
 0001:00057350       ?FreeSound@CSoundEnt@@SAXHH@Z 10058350 f   soundent.obj
 0001:000573b0       ?IAllocSound@CSoundEnt@@QAEHXZ 100583b0 f   soundent.obj
 0001:00057400       ?ISoundsInList@CSoundEnt@@QAEHH@Z 10058400 f   soundent.obj
 0001:00057460       ?Initialize@CSoundEnt@@QAEXXZ 10058460 f   soundent.obj
 0001:00057550       ?InsertSound@CSoundEnt@@SAXHABVVector@@HM@Z 10058550 f   soundent.obj
 0001:000575e0       ?ObjectCaps@CPlatTrigger@@UAEHXZ 100585e0 f i plats.obj
 0001:000575e0       ?ObjectCaps@CCorpse@@UAEHXZ 100585e0 f i world.obj
 0001:000575e0       ?ObjectCaps@CSoundEnt@@UAEHXZ 100585e0 f i soundent.obj
 0001:000575e0       ?ObjectCaps@CGib@@UAEHXZ   100585e0 f i combat.obj
 0001:000575e0       ?ObjectCaps@CSprayCan@@UAEHXZ 100585e0 f i player.obj
 0001:000575e0       ?ObjectCaps@CShower@@UAEHXZ 100585e0 f i explode.obj
 0001:000575f0       ?Reset@CSound@@QAEXXZ      100585f0 f   soundent.obj
 0001:00057620       ?SoundPointerForIndex@CSoundEnt@@SAPAVCSound@@H@Z 10058620 f   soundent.obj
 0001:00057670       ?Spawn@CSoundEnt@@UAEXXZ   10058670 f   soundent.obj
 0001:000576b0       ?Think@CSoundEnt@@UAEXXZ   100586b0 f   soundent.obj
 0001:00057790       _soundent                  10058790 f   soundent.obj
 0001:000577a0       ?SpectatorConnect@CBaseSpectator@@QAEXXZ 100587a0 f   spectator.obj
 0001:000577d0       ?SpectatorImpulseCommand@CBaseSpectator@@AAEXXZ 100587d0 f   spectator.obj
 0001:000578d0       ?SpectatorThink@CBaseSpectator@@QAEXXZ 100588d0 f   spectator.obj
 0001:00057920       ??$GetClassPtr@VCBaseDMStart@@@@YAPAVCBaseDMStart@@PAV0@@Z 10058920 f i subs.obj
 0001:00057980       ??$GetClassPtr@VCBaseDelay@@@@YAPAVCBaseDelay@@PAV0@@Z 10058980 f i subs.obj
 0001:000579e0       ??$GetClassPtr@VCNullEntity@@@@YAPAVCNullEntity@@PAV0@@Z 100589e0 f i subs.obj
 0001:00057a40       ?AngularMove@CBaseToggle@@QAEXVVector@@M@Z 10058a40 f   subs.obj
 0001:00057b50       ?AngularMoveDone@CBaseToggle@@QAEXXZ 10058b50 f   subs.obj
 0001:00057bb0       ?AxisDelta@CBaseToggle@@SAMHABVVector@@0@Z 10058bb0 f   subs.obj
 0001:00057bf0       ?AxisDir@CBaseToggle@@SAXPAUentvars_s@@@Z 10058bf0 f   subs.obj
 0001:00057c70       ?DelayThink@CBaseDelay@@QAEXXZ 10058c70 f   subs.obj
 0001:00057cb0       ?FireTargets@@YAXPBDPAVCBaseEntity@@1W4USE_TYPE@@M@Z 10058cb0 f   subs.obj
 0001:00057d60       ?IsTriggered@CBaseDMStart@@UAEHPAVCBaseEntity@@@Z 10058d60 f   subs.obj
 0001:00057d80       ?KeyValue@CBaseDMStart@@UAEXPAUKeyValueData_s@@@Z 10058d80 f   subs.obj
 0001:00057df0       ?KeyValue@CBaseDelay@@UAEXPAUKeyValueData_s@@@Z 10058df0 f   subs.obj
 0001:00057eb0       ?KeyValue@CBaseToggle@@UAEXPAUKeyValueData_s@@@Z 10058eb0 f   subs.obj
 0001:00057ff0       ?LinearMove@CBaseToggle@@QAEXVVector@@M@Z 10058ff0 f   subs.obj
 0001:00058100       ?LinearMoveDone@CBaseToggle@@QAEXXZ 10059100 f   subs.obj
 0001:00058150       ?Restore@CBaseDelay@@UAEHAAVCRestore@@@Z 10059150 f   subs.obj
 0001:00058190       ?Restore@CBaseToggle@@UAEHAAVCRestore@@@Z 10059190 f   subs.obj
 0001:000581d0       ?SUB_Remove@CBaseEntity@@QAEXXZ 100591d0 f   subs.obj
 0001:00058220       ?SUB_UseTargets@CBaseDelay@@QAEXPAVCBaseEntity@@W4USE_TYPE@@M@Z 10059220 f   subs.obj
 0001:00058440       ?SUB_UseTargets@CBaseEntity@@QAEXPAV1@W4USE_TYPE@@M@Z 10059440 f   subs.obj
 0001:00058480       ?Save@CBaseDelay@@UAEHAAVCSave@@@Z 10059480 f   subs.obj
 0001:000584c0       ?Save@CBaseToggle@@UAEHAAVCSave@@@Z 100594c0 f   subs.obj
 0001:00058500       ?SetMovedir@@YAXPAUentvars_s@@@Z 10059500 f   subs.obj
 0001:000585d0       ?Spawn@CNullEntity@@UAEXXZ 100595d0 f   subs.obj
 0001:000585e0       ?Spawn@CPointEntity@@UAEXXZ 100595e0 f   subs.obj
 0001:000585e0       ?Spawn@CRenderFxManager@@UAEXXZ 100595e0 f   triggers.obj
 0001:000585f0       ?UpdateOnRemove@CBaseEntity@@QAEXXZ 100595f0 f   subs.obj
 0001:00058650       _DelayedUse                10059650 f   subs.obj
 0001:00058660       _info_null                 10059660 f   subs.obj
 0001:00058670       _info_player_deathmatch    10059670 f   subs.obj
 0001:00058670       _info_vip_start            10059670 f   subs.obj
 0001:00058680       ??0CHalfLifeTraining@@QAE@XZ 10059680 f   training_gamerules.obj
 0001:000586d0       ??1CHalfLifeMultiplay@@QAE@XZ 100596d0 f i training_gamerules.obj
 0001:000586e0       ?CheckWinConditions@CHalfLifeTraining@@UAEXXZ 100596e0 f   training_gamerules.obj
 0001:00058980       ?GetPlayerSpawnSpot@CHalfLifeTraining@@UAEPAUedict_s@@PAVCBasePlayer@@@Z 10059980 f   training_gamerules.obj
 0001:00058a90       ?HostageDied@CHalfLifeTraining@@SAXXZ 10059a90 f   training_gamerules.obj
 0001:00058ac0       ?ObjectCaps@CTriggerCamera@@UAEHXZ 10059ac0 f   triggers.obj
 0001:00058ac0       ?CanDrop@CKnife@@UAEHXZ    10059ac0 f   wpn_knife.obj
 0001:00058ac0       ?ObjectCaps@CBaseTrigger@@UAEHXZ 10059ac0 f   triggers.obj
 0001:00058ac0       ?CanDrop@CHEGrenade@@UAEHXZ 10059ac0 f   wpn_hegrenade.obj
 0001:00058ac0       ?IsDeathmatch@CHalfLifeTraining@@UAEHXZ 10059ac0 f   training_gamerules.obj
 0001:00058ac0       ?ObjectCaps@CFuncRotating@@UAEHXZ 10059ac0 f   bmodels.obj
 0001:00058ac0       ?AllowAutoTargetCrosshair@CHalfLifeMultiplay@@UAEHXZ 10059ac0 f   multiplay_gamerules.obj
 0001:00058ac0       ?ObjectCaps@CFuncTank@@UAEHXZ 10059ac0 f   func_tank.obj
 0001:00058ac0       ?IsMultiplayer@CHalfLifeTraining@@UAEHXZ 10059ac0 f   training_gamerules.obj
 0001:00058ac0       ?ShouldWeaponIdle@CBasePlayerWeapon@@UAEHXZ 10059ac0 f   h_cycler.obj
 0001:00058ac0       ?ObjectCaps@CFuncIllusionary@@UAEHXZ 10059ac0 f   bmodels.obj
 0001:00058ac0       ?Classify@CBaseEntity@@UAEHXZ 10059ac0 f   airtank.obj
 0001:00058ac0       ?IsTeamplay@CGameRules@@UAEHXZ 10059ac0 f   multiplay_gamerules.obj
 0001:00058ac0       ?IsAlive@CCycler@@UAEHXZ   10059ac0 f   h_cycler.obj
 0001:00058ac0       ?IsPlayer@CBaseEntity@@UAEHXZ 10059ac0 f   airtank.obj
 0001:00058ac0       ?AllocNodes@CGraph@@QAEHXZ 10059ac0 f   mpstubb.obj
 0001:00058ac0       ?CanDrop@CFlashbang@@UAEHXZ 10059ac0 f   wpn_flashbang.obj
 0001:00058ac0       ?ObjectCaps@CTriggerRelay@@UAEHXZ 10059ac0 f   triggers.obj
 0001:00058ac0       ?PlayTextureSounds@CHalfLifeMultiplay@@UAEHXZ 10059ac0 f   multiplay_gamerules.obj
 0001:00058ac0       ?ShouldFadeOnDeath@CBaseMonster@@UAEHXZ 10059ac0 f   mpstubb.obj
 0001:00058ac0       ?ShouldFadeOnDeath@CBasePlayer@@UAEHXZ 10059ac0 f   client.obj
 0001:00058ac0       ?MyMonsterPointer@CBaseEntity@@UAEPAVCBaseMonster@@XZ 10059ac0 f   airtank.obj
 0001:00058ac0       ?ObjectCaps@CSpeaker@@UAEHXZ 10059ac0 f   sound.obj
 0001:00058ac0       ?MySquadMonsterPointer@CBaseEntity@@UAEPAVCSquadMonster@@XZ 10059ac0 f   airtank.obj
 0001:00058ac0       ?FSetGraphPointers@CGraph@@QAEHXZ 10059ac0 f   mpstubb.obj
 0001:00058ac0       ?ObjectCaps@CFuncVehicleControls@@UAEHXZ 10059ac0 f   vehicle.obj
 0001:00058ac0       ?FCheckAITrigger@CBaseMonster@@QAEHXZ 10059ac0 f   mpstubb.obj
 0001:00058ac0       ?FBecomeProne@CBaseEntity@@UAEHXZ 10059ac0 f   airtank.obj
 0001:00058ac0       ?ObjectCaps@CAmbientGeneric@@UAEHXZ 10059ac0 f   sound.obj
 0001:00058ac0       ?ObjectCaps@CFuncWall@@UAEHXZ 10059ac0 f   bmodels.obj
 0001:00058ac0       ?ObjectCaps@CFuncMortarField@@UAEHXZ 10059ac0 f   mortar.obj
 0001:00058ac0       ?ObjectCaps@CBaseGrenCatch@@UAEHXZ 10059ac0 f   triggers.obj
 0001:00058ac0       ?IsNetClient@CBaseEntity@@UAEHXZ 10059ac0 f   airtank.obj
 0001:00058ac0       ?ObjectCaps@CBasePlayer@@UAEHXZ 10059ac0 f   client.obj
 0001:00058ac0       ?ObjectCaps@CPendulum@@UAEHXZ 10059ac0 f   bmodels.obj
 0001:00058ac0       ?GetToggleState@CBaseEntity@@UAEHXZ 10059ac0 f   airtank.obj
 0001:00058ac0       ?ObjectCaps@CTriggerChangeTarget@@UAEHXZ 10059ac0 f   triggers.obj
 0001:00058ac0       ?IsBot@CBasePlayer@@UAEHXZ 10059ac0 f   client.obj
 0001:00058ac0       ?ObjectCaps@CAutoTrigger@@UAEHXZ 10059ac0 f   triggers.obj
 0001:00058ac0       ?CanDrop@CSmokeGrenade@@UAEHXZ 10059ac0 f   wpn_smokegrenade.obj
 0001:00058ac0       ?IsSneaking@CBaseEntity@@UAEHXZ 10059ac0 f   airtank.obj
 0001:00058ac0       ?ObjectCaps@CMultiManager@@UAEHXZ 10059ac0 f   triggers.obj
 0001:00058ac0       ?ObjectCaps@CFuncTrainControls@@UAEHXZ 10059ac0 f   plats.obj
 0001:00058ac0       ?ObjectCaps@CBubbling@@UAEHXZ 10059ac0 f   effects.obj
 0001:00058ac0       ?ObjectCaps@CBasePlatTrain@@UAEHXZ 10059ac0 f   plats.obj
 0001:00058ac0       ?ObjectCaps@CFrictionModifier@@UAEHXZ 10059ac0 f   triggers.obj
 0001:00058ac0       ?ObjectCaps@CPointEntity@@UAEHXZ 10059ac0 f   buttons.obj
 0001:00058ac0       ?Respawn@CBaseEntity@@UAEPAV1@XZ 10059ac0 f   airtank.obj
 0001:00058ac0       ?UseDecrement@CBasePlayerWeapon@@UAEHXZ 10059ac0 f   h_cycler.obj
 0001:00058ac0       ?ObjectCaps@CBreakable@@UAEHXZ 10059ac0 f   func_break.obj
 0001:00058ac0       ?ObjectCaps@CGunTarget@@UAEHXZ 10059ac0 f   plats.obj
 0001:00058ac0       ?ObjectCaps@CMomentaryDoor@@UAEHXZ 10059ac0 f   doors.obj
 0001:00058ad0       ?ItemShouldRespawn@CHalfLifeTraining@@UAEHPAVCItem@@@Z 10059ad0 f   training_gamerules.obj
 0001:00058ae0       ?PlayerCanBuy@CHalfLifeTraining@@SA_NPAVCBasePlayer@@@Z 10059ae0 f   training_gamerules.obj
 0001:00058af0       ?PlayerKilled@CHalfLifeTraining@@UAEXPAVCBasePlayer@@PAUentvars_s@@1@Z 10059af0 f   training_gamerules.obj
 0001:00058b30       ?PlayerSpawn@CHalfLifeTraining@@UAEXPAVCBasePlayer@@@Z 10059b30 f   training_gamerules.obj
 0001:00058c10       ?PlayerThink@CHalfLifeTraining@@UAEXPAVCBasePlayer@@@Z 10059c10 f   training_gamerules.obj
 0001:00059000       ??$GetClassPtr@VCAutoTrigger@@@@YAPAVCAutoTrigger@@PAV0@@Z 1005a000 f i triggers.obj
 0001:00059060       ??$GetClassPtr@VCBaseGrenCatch@@@@YAPAVCBaseGrenCatch@@PAV0@@Z 1005a060 f i triggers.obj
 0001:000590c0       ??$GetClassPtr@VCBaseTrigger@@@@YAPAVCBaseTrigger@@PAV0@@Z 1005a0c0 f i triggers.obj
 0001:00059130       ??$GetClassPtr@VCBombTarget@@@@YAPAVCBombTarget@@PAV0@@Z 1005a130 f i triggers.obj
 0001:000591a0       ??$GetClassPtr@VCBuyZone@@@@YAPAVCBuyZone@@PAV0@@Z 1005a1a0 f i triggers.obj
 0001:00059210       ??$GetClassPtr@VCChangeLevel@@@@YAPAVCChangeLevel@@PAV0@@Z 1005a210 f i triggers.obj
 0001:00059280       ??$GetClassPtr@VCClientFog@@@@YAPAVCClientFog@@PAV0@@Z 1005a280 f i triggers.obj
 0001:000592e0       ??$GetClassPtr@VCEscapeZone@@@@YAPAVCEscapeZone@@PAV0@@Z 1005a2e0 f i triggers.obj
 0001:00059350       ??$GetClassPtr@VCFireAndDie@@@@YAPAVCFireAndDie@@PAV0@@Z 1005a350 f i triggers.obj
 0001:000593b0       ??$GetClassPtr@VCFrictionModifier@@@@YAPAVCFrictionModifier@@PAV0@@Z 1005a3b0 f i triggers.obj
 0001:00059410       ??$GetClassPtr@VCFuncWeaponCheck@@@@YAPAVCFuncWeaponCheck@@PAV0@@Z 1005a410 f i triggers.obj
 0001:00059470       ??$GetClassPtr@VCHostageRescue@@@@YAPAVCHostageRescue@@PAV0@@Z 1005a470 f i triggers.obj
 0001:000594e0       ??$GetClassPtr@VCLadder@@@@YAPAVCLadder@@PAV0@@Z 1005a4e0 f i triggers.obj
 0001:00059550       ??$GetClassPtr@VCMultiManager@@@@YAPAVCMultiManager@@PAV0@@Z 1005a550 f i triggers.obj
 0001:000595c0       ??$GetClassPtr@VCRenderFxManager@@@@YAPAVCRenderFxManager@@PAV0@@Z 1005a5c0 f i triggers.obj
 0001:00059620       ??$GetClassPtr@VCTargetCDAudio@@@@YAPAVCTargetCDAudio@@PAV0@@Z 1005a620 f i triggers.obj
 0001:00059680       ??$GetClassPtr@VCTriggerCDAudio@@@@YAPAVCTriggerCDAudio@@PAV0@@Z 1005a680 f i triggers.obj
 0001:000596f0       ??$GetClassPtr@VCTriggerCamera@@@@YAPAVCTriggerCamera@@PAV0@@Z 1005a6f0 f i triggers.obj
 0001:00059750       ??$GetClassPtr@VCTriggerChangeTarget@@@@YAPAVCTriggerChangeTarget@@PAV0@@Z 1005a750 f i triggers.obj
 0001:000597b0       ??$GetClassPtr@VCTriggerCounter@@@@YAPAVCTriggerCounter@@PAV0@@Z 1005a7b0 f i triggers.obj
 0001:00059820       ??$GetClassPtr@VCTriggerEndSection@@@@YAPAVCTriggerEndSection@@PAV0@@Z 1005a820 f i triggers.obj
 0001:00059890       ??$GetClassPtr@VCTriggerGravity@@@@YAPAVCTriggerGravity@@PAV0@@Z 1005a890 f i triggers.obj
 0001:00059900       ??$GetClassPtr@VCTriggerHurt@@@@YAPAVCTriggerHurt@@PAV0@@Z 1005a900 f i triggers.obj
 0001:00059970       ??$GetClassPtr@VCTriggerMonsterJump@@@@YAPAVCTriggerMonsterJump@@PAV0@@Z 1005a970 f i triggers.obj
 0001:000599e0       ??$GetClassPtr@VCTriggerMultiple@@@@YAPAVCTriggerMultiple@@PAV0@@Z 1005a9e0 f i triggers.obj
 0001:00059a50       ??$GetClassPtr@VCTriggerOnce@@@@YAPAVCTriggerOnce@@PAV0@@Z 1005aa50 f i triggers.obj
 0001:00059ac0       ??$GetClassPtr@VCTriggerPush@@@@YAPAVCTriggerPush@@PAV0@@Z 1005aac0 f i triggers.obj
 0001:00059b30       ??$GetClassPtr@VCTriggerRelay@@@@YAPAVCTriggerRelay@@PAV0@@Z 1005ab30 f i triggers.obj
 0001:00059b90       ??$GetClassPtr@VCTriggerSave@@@@YAPAVCTriggerSave@@PAV0@@Z 1005ab90 f i triggers.obj
 0001:00059c00       ??$GetClassPtr@VCTriggerTeleport@@@@YAPAVCTriggerTeleport@@PAV0@@Z 1005ac00 f i triggers.obj
 0001:00059c70       ??$GetClassPtr@VCTriggerVolume@@@@YAPAVCTriggerVolume@@PAV0@@Z 1005ac70 f i triggers.obj
 0001:00059cd0       ??$GetClassPtr@VCVIP_SafetyZone@@@@YAPAVCVIP_SafetyZone@@PAV0@@Z 1005acd0 f i triggers.obj
 0001:00059d40       ??$GetClassPtr@VCWeather@@@@YAPAVCWeather@@PAV0@@Z 1005ad40 f i triggers.obj
 0001:00059db0       ?ActivateMultiTrigger@CBaseTrigger@@QAEXPAVCBaseEntity@@@Z 1005adb0 f   triggers.obj
 0001:00059f70       ?AddTransitionToList@CChangeLevel@@SAHPAULEVELLIST@@HPBD1PAUedict_s@@@Z 1005af70 f   triggers.obj
 0001:0005a060       ?BombTargetTouch@CBombTarget@@QAEXPAVCBaseEntity@@@Z 1005b060 f   triggers.obj
 0001:0005a0a0       ?BombTargetUse@CBombTarget@@QAEXPAVCBaseEntity@@0W4USE_TYPE@@M@Z 1005b0a0 f   triggers.obj
 0001:0005a0c0       ?BuildChangeList@@YAHPAULEVELLIST@@H@Z 1005b0c0 f   triggers.obj
 0001:0005a0d0       ?BuyTouch@CBuyZone@@QAEXPAVCBaseEntity@@@Z 1005b0d0 f   triggers.obj
 0001:0005a110       ?ChangeFriction@CFrictionModifier@@QAEXPAVCBaseEntity@@@Z 1005b110 f   triggers.obj
 0001:0005a140       ?ChangeLevelNow@CChangeLevel@@QAEXPAVCBaseEntity@@@Z 1005b140 f   triggers.obj
 0001:0005a310       ?ChangeList@CChangeLevel@@SAHPAULEVELLIST@@H@Z 1005b310 f   triggers.obj
 0001:0005a5a0       ?Clone@CMultiManager@@AAEPAV1@XZ 1005b5a0 f   triggers.obj
 0001:0005a670       ?CounterUse@CBaseTrigger@@QAEXPAVCBaseEntity@@0W4USE_TYPE@@M@Z 1005b670 f   triggers.obj
 0001:0005a7b0       ?EndSectionTouch@CTriggerEndSection@@QAEXPAVCBaseEntity@@@Z 1005b7b0 f   triggers.obj
 0001:0005a800       ?EndSectionUse@CTriggerEndSection@@QAEXPAVCBaseEntity@@0W4USE_TYPE@@M@Z 1005b800 f   triggers.obj
 0001:0005a860       ?EscapeTouch@CEscapeZone@@QAEXPAVCBaseEntity@@@Z 1005b860 f   triggers.obj
 0001:0005a960       ?ExecuteChangeLevel@CChangeLevel@@QAEXXZ 1005b960 f   triggers.obj
 0001:0005a9a0       ?FindLandmark@CChangeLevel@@SAPAUedict_s@@PBD@Z 1005b9a0 f   triggers.obj
 0001:0005aa40       ?FollowTarget@CTriggerCamera@@QAEXXZ 1005ba40 f   triggers.obj
 0001:0005ad30       ?GravityTouch@CTriggerGravity@@QAEXPAVCBaseEntity@@@Z 1005bd30 f   triggers.obj
 0001:0005ad60       ?HasTarget@CMultiManager@@UAEHH@Z 1005bd60 f   triggers.obj
 0001:0005adf0       ?HostageRescueTouch@CHostageRescue@@QAEXPAVCBaseEntity@@@Z 1005bdf0 f   triggers.obj
 0001:0005ae60       ?HurtTouch@CBaseTrigger@@QAEXPAVCBaseEntity@@@Z 1005be60 f   triggers.obj
 0001:0005b070       ?InTransitionVolume@CChangeLevel@@SAHPAVCBaseEntity@@PAD@Z 1005c070 f   triggers.obj
 0001:0005b170       ?InitTrigger@CBaseTrigger@@QAEXXZ 1005c170 f   triggers.obj
 0001:0005b230       ?KeyValue@CAutoTrigger@@UAEXPAUKeyValueData_s@@@Z 1005c230 f   triggers.obj
 0001:0005b330       ?KeyValue@CBaseGrenCatch@@UAEXPAUKeyValueData_s@@@Z 1005c330 f   triggers.obj
 0001:0005b4e0       ?KeyValue@CBaseTrigger@@UAEXPAUKeyValueData_s@@@Z 1005c4e0 f   triggers.obj
 0001:0005b600       ?KeyValue@CChangeLevel@@UAEXPAUKeyValueData_s@@@Z 1005c600 f   triggers.obj
 0001:0005b7a0       ?KeyValue@CClientFog@@UAEXPAUKeyValueData_s@@@Z 1005c7a0 f   triggers.obj
 0001:0005b830       ?KeyValue@CFrictionModifier@@UAEXPAUKeyValueData_s@@@Z 1005c830 f   triggers.obj
 0001:0005b8a0       ?KeyValue@CFuncWeaponCheck@@UAEXPAUKeyValueData_s@@@Z 1005c8a0 f   triggers.obj
 0001:0005ba70       ?KeyValue@CLadder@@UAEXPAUKeyValueData_s@@@Z 1005ca70 f   triggers.obj
 0001:0005ba70       ?KeyValue@CTriggerPush@@UAEXPAUKeyValueData_s@@@Z 1005ca70 f   triggers.obj
 0001:0005ba80       ?KeyValue@CMultiManager@@UAEXPAUKeyValueData_s@@@Z 1005ca80 f   triggers.obj
 0001:0005bb50       ?KeyValue@CTargetCDAudio@@UAEXPAUKeyValueData_s@@@Z 1005cb50 f   triggers.obj
 0001:0005bbd0       ?KeyValue@CTriggerCamera@@UAEXPAUKeyValueData_s@@@Z 1005cbd0 f   triggers.obj
 0001:0005bd10       ?KeyValue@CTriggerChangeTarget@@UAEXPAUKeyValueData_s@@@Z 1005cd10 f   triggers.obj
 0001:0005bd80       ?KeyValue@CTriggerEndSection@@UAEXPAUKeyValueData_s@@@Z 1005cd80 f   triggers.obj
 0001:0005bdf0       ?KeyValue@CTriggerRelay@@UAEXPAUKeyValueData_s@@@Z 1005cdf0 f   triggers.obj
 0001:0005bea0       ?ManagerThink@CMultiManager@@QAEXXZ 1005cea0 f   triggers.obj
 0001:0005bf90       ?ManagerUse@CMultiManager@@QAEXPAVCBaseEntity@@0W4USE_TYPE@@M@Z 1005cf90 f   triggers.obj
 0001:0005c010       ?Move@CTriggerCamera@@QAEXXZ 1005d010 f   triggers.obj
 0001:0005c310       ?MultiTouch@CBaseTrigger@@QAEXPAVCBaseEntity@@@Z 1005d310 f   triggers.obj
 0001:0005c3a0       ?MultiWaitOver@CBaseTrigger@@QAEXXZ 1005d3a0 f   triggers.obj
 0001:0005c3b0       ?Play@CTargetCDAudio@@QAEXXZ 1005d3b0 f   triggers.obj
 0001:0005c3d0       ?PlayCDTrack@@YAXH@Z       1005d3d0 f   triggers.obj
 0001:0005c450       ?PlayTrack@CTriggerCDAudio@@QAEXXZ 1005d450 f   triggers.obj
 0001:0005c480       ?Precache@CAutoTrigger@@UAEXXZ 1005d480 f   triggers.obj
 0001:0005c4b0       ?Precache@CFireAndDie@@UAEXXZ 1005d4b0 f   triggers.obj
 0001:0005c4d0       ?Precache@CLadder@@UAEXXZ  1005d4d0 f   triggers.obj
 0001:0005c540       ?RadiationThink@CTriggerHurt@@QAEXXZ 1005d540 f   triggers.obj
 0001:0005c7b0       ?Restart@CMultiManager@@UAEXXZ 1005d7b0 f   triggers.obj
 0001:0005c880       ?Restore@CAutoTrigger@@UAEHAAVCRestore@@@Z 1005d880 f   triggers.obj
 0001:0005c8c0       ?Restore@CBaseGrenCatch@@UAEHAAVCRestore@@@Z 1005d8c0 f   triggers.obj
 0001:0005c900       ?Restore@CChangeLevel@@UAEHAAVCRestore@@@Z 1005d900 f   triggers.obj
 0001:0005c940       ?Restore@CFrictionModifier@@UAEHAAVCRestore@@@Z 1005d940 f   triggers.obj
 0001:0005c980       ?Restore@CFuncWeaponCheck@@UAEHAAVCRestore@@@Z 1005d980 f   triggers.obj
 0001:0005c9c0       ?Restore@CMultiManager@@UAEHAAVCRestore@@@Z 1005d9c0 f   triggers.obj
 0001:0005ca00       ?Restore@CTriggerCamera@@UAEHAAVCRestore@@@Z 1005da00 f   triggers.obj
 0001:0005ca40       ?Restore@CTriggerChangeTarget@@UAEHAAVCRestore@@@Z 1005da40 f   triggers.obj
 0001:0005ca80       ?Restore@CTriggerRelay@@UAEHAAVCRestore@@@Z 1005da80 f   triggers.obj
 0001:0005cac0       ?Save@CAutoTrigger@@UAEHAAVCSave@@@Z 1005dac0 f   triggers.obj
 0001:0005cb00       ?Save@CBaseGrenCatch@@UAEHAAVCSave@@@Z 1005db00 f   triggers.obj
 0001:0005cb40       ?Save@CChangeLevel@@UAEHAAVCSave@@@Z 1005db40 f   triggers.obj
 0001:0005cb80       ?Save@CFrictionModifier@@UAEHAAVCSave@@@Z 1005db80 f   triggers.obj
 0001:0005cbc0       ?Save@CFuncWeaponCheck@@UAEHAAVCSave@@@Z 1005dbc0 f   triggers.obj
 0001:0005cc00       ?Save@CMultiManager@@UAEHAAVCSave@@@Z 1005dc00 f   triggers.obj
 0001:0005cc40       ?Save@CTriggerCamera@@UAEHAAVCSave@@@Z 1005dc40 f   triggers.obj
 0001:0005cc80       ?Save@CTriggerChangeTarget@@UAEHAAVCSave@@@Z 1005dc80 f   triggers.obj
 0001:0005ccc0       ?Save@CTriggerRelay@@UAEHAAVCSave@@@Z 1005dcc0 f   triggers.obj
 0001:0005cd00       ?SaveTouch@CTriggerSave@@QAEXPAVCBaseEntity@@@Z 1005dd00 f   triggers.obj
 0001:0005cd50       ?Spawn@CTestEffect@@UAEXXZ 1005dd50 f   effects.obj
 0001:0005cd50       ?Spawn@CAutoTrigger@@UAEXXZ 1005dd50 f   triggers.obj
 0001:0005cd60       ?Spawn@CBaseGrenCatch@@UAEXXZ 1005dd60 f   triggers.obj
 0001:0005cde0       ?Spawn@CBombTarget@@UAEXXZ 1005dde0 f   triggers.obj
 0001:0005ce00       ?Spawn@CBuyZone@@UAEXXZ    1005de00 f   triggers.obj
 0001:0005ce50       ?Spawn@CChangeLevel@@UAEXXZ 1005de50 f   triggers.obj
 0001:0005cf20       ?Spawn@CClientFog@@UAEXXZ  1005df20 f   triggers.obj
 0001:0005cf60       ?Spawn@CEscapeZone@@UAEXXZ 1005df60 f   triggers.obj
 0001:0005cf80       ?Spawn@CFireAndDie@@UAEXXZ 1005df80 f   triggers.obj
 0001:0005cfe0       ?Spawn@CFrictionModifier@@UAEXXZ 1005dfe0 f   triggers.obj
 0001:0005d030       ?Spawn@CFuncWeaponCheck@@UAEXXZ 1005e030 f   triggers.obj
 0001:0005d090       ?Spawn@CHostageRescue@@UAEXXZ 1005e090 f   triggers.obj
 0001:0005d0b0       ?Spawn@CLadder@@UAEXXZ     1005e0b0 f   triggers.obj
 0001:0005d0f0       ?Spawn@CMultiManager@@UAEXXZ 1005e0f0 f   triggers.obj
 0001:0005d170       ?Spawn@CTargetCDAudio@@UAEXXZ 1005e170 f   triggers.obj
 0001:0005d1c0       ?Spawn@CWeather@@UAEXXZ    1005e1c0 f   triggers.obj
 0001:0005d1c0       ?Spawn@CTriggerCDAudio@@UAEXXZ 1005e1c0 f   triggers.obj
 0001:0005d1d0       ?Spawn@CTriggerCamera@@UAEXXZ 1005e1d0 f   triggers.obj
 0001:0005d250       ?Spawn@CTriggerCounter@@UAEXXZ 1005e250 f   triggers.obj
 0001:0005d280       ?Spawn@CTriggerEndSection@@UAEXXZ 1005e280 f   triggers.obj
 0001:0005d2d0       ?Spawn@CTriggerGravity@@UAEXXZ 1005e2d0 f   triggers.obj
 0001:0005d2f0       ?Spawn@CTriggerHurt@@UAEXXZ 1005e2f0 f   triggers.obj
 0001:0005d390       ?Spawn@CTriggerMonsterJump@@UAEXXZ 1005e390 f   triggers.obj
 0001:0005d400       ?Spawn@CTriggerMultiple@@UAEXXZ 1005e400 f   triggers.obj
 0001:0005d430       ?Spawn@CTriggerOnce@@UAEXXZ 1005e430 f   triggers.obj
 0001:0005d440       ?Spawn@CTriggerPush@@UAEXXZ 1005e440 f   triggers.obj
 0001:0005d4e0       ?Spawn@CTriggerSave@@UAEXXZ 1005e4e0 f   triggers.obj
 0001:0005d520       ?Spawn@CTriggerTeleport@@UAEXXZ 1005e520 f   triggers.obj
 0001:0005d540       ?Spawn@CTriggerVolume@@UAEXXZ 1005e540 f   triggers.obj
 0001:0005d5a0       ?Spawn@CVIP_SafetyZone@@UAEXXZ 1005e5a0 f   triggers.obj
 0001:0005d5c0       ?TeleportTouch@CBaseTrigger@@QAEXPAVCBaseEntity@@@Z 1005e5c0 f   triggers.obj
 0001:0005d760       ?Think@CAutoTrigger@@UAEXXZ 1005e760 f   triggers.obj
 0001:0005d7b0       ?Think@CBaseGrenCatch@@UAEXXZ 1005e7b0 f   triggers.obj
 0001:0005dab0       ?Think@CFireAndDie@@UAEXXZ 1005eab0 f   triggers.obj
 0001:0005dad0       ?Think@CTargetCDAudio@@UAEXXZ 1005ead0 f   triggers.obj
 0001:0005db80       ?Think@CTriggerMonsterJump@@UAEXXZ 1005eb80 f   triggers.obj
 0001:0005dbb0       ?ToggleUse@CBaseTrigger@@QAEXPAVCBaseEntity@@0W4USE_TYPE@@M@Z 1005ebb0 f   triggers.obj
 0001:0005dc10       ?Touch@CBaseGrenCatch@@UAEXPAVCBaseEntity@@@Z 1005ec10 f   triggers.obj
 0001:0005dc50       ?Touch@CFuncWeaponCheck@@UAEXPAVCBaseEntity@@@Z 1005ec50 f   triggers.obj
 0001:0005ddb0       ?Touch@CTriggerCDAudio@@UAEXPAVCBaseEntity@@@Z 1005edb0 f   triggers.obj
 0001:0005dde0       ?Touch@CTriggerMonsterJump@@UAEXPAVCBaseEntity@@@Z 1005ede0 f   triggers.obj
 0001:0005de80       ?Touch@CTriggerPush@@UAEXPAVCBaseEntity@@@Z 1005ee80 f   triggers.obj
 0001:0005dfe0       ?TouchChangeLevel@CChangeLevel@@QAEXPAVCBaseEntity@@@Z 1005efe0 f   triggers.obj
 0001:0005e040       ?Use@CRenderFxManager@@UAEXPAVCBaseEntity@@0W4USE_TYPE@@M@Z 1005f040 f   triggers.obj
 0001:0005e120       ?Use@CTargetCDAudio@@UAEXPAVCBaseEntity@@0W4USE_TYPE@@M@Z 1005f120 f   triggers.obj
 0001:0005e130       ?Use@CTriggerCDAudio@@UAEXPAVCBaseEntity@@0W4USE_TYPE@@M@Z 1005f130 f   triggers.obj
 0001:0005e140       ?Use@CTriggerCamera@@UAEXPAVCBaseEntity@@0W4USE_TYPE@@M@Z 1005f140 f   triggers.obj
 0001:0005e470       ?Use@CTriggerChangeTarget@@UAEXPAVCBaseEntity@@0W4USE_TYPE@@M@Z 1005f470 f   triggers.obj
 0001:0005e4c0       ?Use@CTriggerRelay@@UAEXPAVCBaseEntity@@0W4USE_TYPE@@M@Z 1005f4c0 f   triggers.obj
 0001:0005e4f0       ?UseChangeLevel@CChangeLevel@@QAEXPAVCBaseEntity@@0W4USE_TYPE@@M@Z 1005f4f0 f   triggers.obj
 0001:0005e500       ?VIP_SafetyTouch@CVIP_SafetyZone@@QAEXPAVCBaseEntity@@@Z 1005f500 f   triggers.obj
 0001:0005e590       _env_fog                   1005f590 f   triggers.obj
 0001:0005e5a0       _env_render                1005f5a0 f   triggers.obj
 0001:0005e5b0       _env_rain                  1005f5b0 f   triggers.obj
 0001:0005e5b0       _func_rain                 1005f5b0 f   triggers.obj
 0001:0005e5b0       _env_snow                  1005f5b0 f   triggers.obj
 0001:0005e5b0       _func_snow                 1005f5b0 f   triggers.obj
 0001:0005e5c0       _fireanddie                1005f5c0 f   triggers.obj
 0001:0005e5d0       _func_bomb_target          1005f5d0 f   triggers.obj
 0001:0005e5e0       _func_buyzone              1005f5e0 f   triggers.obj
 0001:0005e5f0       _func_escapezone           1005f5f0 f   triggers.obj
 0001:0005e600       _func_friction             1005f600 f   triggers.obj
 0001:0005e610       _func_grencatch            1005f610 f   triggers.obj
 0001:0005e620       _func_hostage_rescue       1005f620 f   triggers.obj
 0001:0005e630       _func_ladder               1005f630 f   triggers.obj
 0001:0005e640       _func_vip_safetyzone       1005f640 f   triggers.obj
 0001:0005e650       _func_weaponcheck          1005f650 f   triggers.obj
 0001:0005e660       _info_target               1005f660 f   effects.obj
 0001:0005e660       _info_bomb_target          1005f660 f   subs.obj
 0001:0005e660       _info_player_start         1005f660 f   subs.obj
 0001:0005e660       _info_landmark             1005f660 f   subs.obj
 0001:0005e660       _info_hostage_rescue       1005f660 f   subs.obj
 0001:0005e660       _info_teleport_destination 1005f660 f   triggers.obj
 0001:0005e670       _multi_manager             1005f670 f   triggers.obj
 0001:0005e680       _target_cdaudio            1005f680 f   triggers.obj
 0001:0005e690       _trigger                   1005f690 f   triggers.obj
 0001:0005e6a0       _trigger_auto              1005f6a0 f   triggers.obj
 0001:0005e6b0       _trigger_autosave          1005f6b0 f   triggers.obj
 0001:0005e6c0       _trigger_camera            1005f6c0 f   triggers.obj
 0001:0005e6d0       _trigger_cdaudio           1005f6d0 f   triggers.obj
 0001:0005e6e0       _trigger_changelevel       1005f6e0 f   triggers.obj
 0001:0005e6f0       _trigger_changetarget      1005f6f0 f   triggers.obj
 0001:0005e700       _trigger_counter           1005f700 f   triggers.obj
 0001:0005e710       _trigger_endsection        1005f710 f   triggers.obj
 0001:0005e720       _trigger_gravity           1005f720 f   triggers.obj
 0001:0005e730       _trigger_hurt              1005f730 f   triggers.obj
 0001:0005e740       _trigger_monsterjump       1005f740 f   triggers.obj
 0001:0005e750       _trigger_multiple          1005f750 f   triggers.obj
 0001:0005e760       _trigger_once              1005f760 f   triggers.obj
 0001:0005e770       _trigger_push              1005f770 f   triggers.obj
 0001:0005e780       _trigger_relay             1005f780 f   triggers.obj
 0001:0005e790       _trigger_teleport          1005f790 f   triggers.obj
 0001:0005e7a0       _trigger_transition        1005f7a0 f   triggers.obj
 0001:0005e7b0       ??0CSaveRestoreBuffer@@QAE@PAUsaverestore_s@@@Z 1005f7b0 f   util.obj
 0001:0005e7d0       ??1CSaveRestoreBuffer@@UAE@XZ 1005f7d0 f   util.obj
 0001:0005e7e0       ?BufferData@CSave@@AAEXPBDH@Z 1005f7e0 f   util.obj
 0001:0005e840       ?BufferField@CSave@@AAEXPBDH0@Z 1005f840 f   util.obj
 0001:0005e870       ?BufferHeader@CSave@@AAEXPBDH@Z 1005f870 f   util.obj
 0001:0005e8c0       ?BufferPointer@CRestore@@AAEPADXZ 1005f8c0 f   util.obj
 0001:0005e8d0       ?BufferReadBytes@CRestore@@AAEXPADH@Z 1005f8d0 f   util.obj
 0001:0005e940       ?BufferReadHeader@CRestore@@AAEXPAUHEADER@@@Z 1005f940 f   util.obj
 0001:0005e980       ?BufferRewind@CSaveRestoreBuffer@@IAEXH@Z 1005f980 f   util.obj
 0001:0005e9b0       ?BufferSkipBytes@CRestore@@AAEXH@Z 1005f9b0 f   util.obj
 0001:0005e9d0       ?ClientPrint@@YAXPAUentvars_s@@HPBD1111@Z 1005f9d0 f   util.obj
 0001:0005ea50       ?DataEmpty@CSave@@AAEHPBDH@Z 1005fa50 f   util.obj
 0001:0005ea80       ?EntityFlagsSet@CSaveRestoreBuffer@@QAEHHH@Z 1005fa80 f   util.obj
 0001:0005eac0       ?EntityFromIndex@CSaveRestoreBuffer@@QAEPAUedict_s@@H@Z 1005fac0 f   util.obj
 0001:0005eb10       ?EntityIndex@CSaveRestoreBuffer@@QAEHH@Z 1005fb10 f   util.obj
 0001:0005eb30       ?EntityIndex@CSaveRestoreBuffer@@QAEHPAUedict_s@@@Z 1005fb30 f   util.obj
 0001:0005eb80       ?EntityIndex@CSaveRestoreBuffer@@QAEHPAUentvars_s@@@Z 1005fb80 f   util.obj
 0001:0005eba0       ?EntityIndex@CSaveRestoreBuffer@@QAEHPAVCBaseEntity@@@Z 1005fba0 f   util.obj
 0001:0005ebc0       ?EntvarsKeyvalue@@YAXPAUentvars_s@@PAUKeyValueData_s@@@Z 1005fbc0 f   util.obj
 0001:0005ed40       ?HashString@CSaveRestoreBuffer@@IAEIPBD@Z 1005fd40 f   util.obj
 0001:0005ed70       ?ReadEntVars@CRestore@@QAEHPBDPAUentvars_s@@@Z 1005fd70 f   util.obj
 0001:0005ed90       ?ReadField@CRestore@@QAEHPAXPAUTYPEDESCRIPTION@@HHHPAD0@Z 1005fd90 f   util.obj
 0001:0005f0f0       ?ReadFields@CRestore@@QAEHPBDPAXPAUTYPEDESCRIPTION@@H@Z 100600f0 f   util.obj
 0001:0005f1e0       ?ReadInt@CRestore@@QAEHXZ  100601e0 f   util.obj
 0001:0005f200       ?ReadShort@CRestore@@QAEFXZ 10060200 f   util.obj
 0001:0005f220       ?TokenHash@CSaveRestoreBuffer@@QAEGPBD@Z 10060220 f   util.obj
 0001:0005f2e0       ?UTIL_AngleDistance@@YAMMM@Z 100602e0 f   util.obj
 0001:0005f330       ?UTIL_AngleMod@@YAMM@Z     10060330 f   util.obj
 0001:0005f3b0       ?UTIL_Approach@@YAMMMM@Z   100603b0 f   util.obj
 0001:0005f410       ?UTIL_ApproachAngle@@YAMMMM@Z 10060410 f   util.obj
 0001:0005f4d0       ?UTIL_BloodDecalTrace@@YAXPAUTraceResult@@H@Z 100604d0 f   util.obj
 0001:0005f520       ?UTIL_BloodDrips@@YAXABVVector@@0HH@Z 10060520 f   util.obj
 0001:0005f630       ?UTIL_BloodStream@@YAXABVVector@@0HH@Z 10060630 f   util.obj
 0001:0005f710       ?UTIL_BubbleTrail@@YAXVVector@@0H@Z 10060710 f   util.obj
 0001:0005f880       ?UTIL_Bubbles@@YAXVVector@@0H@Z 10060880 f   util.obj
 0001:0005f9c0       ?UTIL_ClampVectorToBox@@YA?AVVector@@ABV1@0@Z 100609c0 f   util.obj
 0001:0005fb10       ?UTIL_ClientPrintAll@@YAXHPBD0000@Z 10060b10 f   util.obj
 0001:0005fb90       ?UTIL_DecalTrace@@YAXPAUTraceResult@@H@Z 10060b90 f   util.obj
 0001:0005fcc0       ?UTIL_EmitAmbientSound@@YAXPAUedict_s@@ABVVector@@PBDMMHH@Z 10060cc0 f   util.obj
 0001:0005fd40       ?UTIL_EntitiesInBox@@YAHPAPAVCBaseEntity@@HABVVector@@1H@Z 10060d40 f   util.obj
 0001:0005fe20       ?UTIL_FindEntityByClassname@@YAPAVCBaseEntity@@PAV1@PBD@Z 10060e20 f   util.obj
 0001:0005fe40       ?UTIL_FindEntityByString@@YAPAVCBaseEntity@@PAV1@PBD1@Z 10060e40 f   util.obj
 0001:0005ffa0       ?UTIL_FindEntityByString_Old@@YAPAVCBaseEntity@@PAV1@PBD1@Z 10060fa0 f   util.obj
 0001:0005fff0       ?UTIL_FindEntityByTargetname@@YAPAVCBaseEntity@@PAV1@PBD@Z 10060ff0 f   util.obj
 0001:00060010       ?UTIL_FindEntityInSphere@@YAPAVCBaseEntity@@PAV1@ABVVector@@M@Z 10061010 f   util.obj
 0001:00060060       ?UTIL_GetPlayerGaitYaw@@YAMH@Z 10061060 f   util.obj
 0001:000600b0       ?UTIL_HudMessage@@YAXPAVCBaseEntity@@ABUhudtextparms_s@@PBD@Z 100610b0 f   util.obj
 0001:000602b0       ?UTIL_HudMessageAll@@YAXABUhudtextparms_s@@PBD@Z 100612b0 f   util.obj
 0001:00060300       ?UTIL_HumansInGame@@YAH_N@Z 10061300 f   util.obj
 0001:000603e0       ?UTIL_IsMasterTriggered@@YAHHPAVCBaseEntity@@@Z 100613e0 f   util.obj
 0001:00060460       ?UTIL_LogPrintf@@YAXPADZZ  10061460 f   util.obj
 0001:000604a0       ?UTIL_MakeAimVectors@@YAXABVVector@@@Z 100614a0 f   util.obj
 0001:000604e0       ?UTIL_MakeInvVectors@@YAXABVVector@@PAUglobalvars_t@@@Z 100614e0 f   util.obj
 0001:00060560       ?UTIL_MakeVectors@@YAXABVVector@@@Z 10061560 f   util.obj
 0001:00060570       ?UTIL_PlayerByIndex@@YAPAVCBaseEntity@@H@Z 10061570 f   util.obj
 0001:000605b0       ?UTIL_PlayerDecalTrace@@YAXPAUTraceResult@@HHH@Z 100615b0 f   util.obj
 0001:00060670       ?UTIL_PointContents@@YAHABVVector@@@Z 10061670 f   util.obj
 0001:00060680       ?UTIL_PrecacheOther@@YAXPBD@Z 10061680 f   util.obj
 0001:00060700       ?UTIL_RandomBloodVector@@YA?AVVector@@XZ 10061700 f   util.obj
 0001:00060770       ?UTIL_Remove@@YAXPAVCBaseEntity@@@Z 10061770 f   util.obj
 0001:000607a0       ?UTIL_Ricochet@@YAXABVVector@@M@Z 100617a0 f   util.obj
 0001:00060820       ?UTIL_ScreenFade@@YAXPAVCBaseEntity@@ABVVector@@MMHH@Z 10061820 f   util.obj
 0001:00060870       ?UTIL_ScreenFadeAll@@YAXABVVector@@MMHH@Z 10061870 f   util.obj
 0001:000608e0       ?UTIL_ScreenFadeBuild@@YAXAAUScreenFade@@ABVVector@@MMHH@Z 100618e0 f   util.obj
 0001:00060950       ?UTIL_ScreenFadeWrite@@YAXABUScreenFade@@PAVCBaseEntity@@@Z 10061950 f   util.obj
 0001:000609f0       ?UTIL_ScreenShake@@YAXABVVector@@MMMM@Z 100619f0 f   util.obj
 0001:00060b60       ?UTIL_SetGroupTrace@@YAXHH@Z 10061b60 f   util.obj
 0001:00060b90       ?UTIL_SetOrigin@@YAXPAUentvars_s@@ABVVector@@@Z 10061b90 f   util.obj
 0001:00060bb0       ?UTIL_SetSize@@YAXPAUentvars_s@@ABVVector@@1@Z 10061bb0 f   util.obj
 0001:00060bd0       ?UTIL_SharedRandomFloat@@YAMIMM@Z 10061bd0 f   util.obj
 0001:00060c50       ?UTIL_SharedRandomLong@@YAHIHH@Z 10061c50 f   util.obj
 0001:00060c90       ?UTIL_ShouldShowBlood@@YAHH@Z 10061c90 f   util.obj
 0001:00060cf0       ?UTIL_ShowMessage@@YAXPBDPAVCBaseEntity@@@Z 10061cf0 f   util.obj
 0001:00060d40       ?UTIL_ShowMessageAll@@YAXPBD@Z 10061d40 f   util.obj
 0001:00060d90       ?UTIL_ShowMessageArgs@@YAXPBDPAVCBaseEntity@@PAV?$CUtlVector@PAD@@_N@Z 10061d90 f   util.obj
 0001:00060e50       ?UTIL_Sparks@@YAXABVVector@@@Z 10061e50 f   util.obj
 0001:00060eb0       ?UTIL_StringToIntArray@@YAXPAHHPBD@Z 10061eb0 f   util.obj
 0001:00060f30       ?UTIL_StringToVector@@YAXPAMPBD@Z 10061f30 f   util.obj
 0001:00060fc0       ?UTIL_StripToken@@YAXPBDPAD@Z 10061fc0 f   util.obj
 0001:00061000       ?UTIL_TeamsMatch@@YAHPBD0@Z 10062000 f   util.obj
 0001:00061040       ?UTIL_TextureHit@@YADPAUTraceResult@@VVector@@1@Z 10062040 f   util.obj
 0001:00061140       ?UTIL_TraceHull@@YAXABVVector@@0W4IGNORE_MONSTERS@@HPAUedict_s@@PAUTraceResult@@@Z 10062140 f   util.obj
 0001:00061160       ?UTIL_TraceLine@@YAXABVVector@@0W4IGNORE_MONSTERS@@PAUedict_s@@PAUTraceResult@@@Z 10062160 f   util.obj
 0001:00061180       ?UTIL_TraceLine@@YAXABVVector@@0W4IGNORE_MONSTERS@@W4IGNORE_GLASS@@PAUedict_s@@PAUTraceResult@@@Z 10062180 f   util.obj
 0001:000611c0       ?UTIL_TraceModel@@YAXABVVector@@0HPAUedict_s@@PAUTraceResult@@@Z 100621c0 f   util.obj
 0001:000611d0       ?UTIL_UnsetGroupTrace@@YAXXZ 100621d0 f   util.obj
 0001:00061200       ?UTIL_VarArgs@@YAPADPADZZ  10062200 f   util.obj
 0001:00061230       ?UTIL_VecToAngles@@YA?AVVector@@ABV1@@Z 10062230 f   util.obj
 0001:00061270       ?UTIL_VecToYaw@@YAMABVVector@@@Z 10062270 f   util.obj
 0001:00061280       ?UTIL_WaterLevel@@YAMABVVector@@MM@Z 10062280 f   util.obj
 0001:00061360       ?UTIL_WeaponTimeBase@@YAMXZ 10062360 f   util.obj
 0001:00061360       ?GetDelay@CBaseEntity@@UAEMXZ 10062360 f   airtank.obj
 0001:00061370       ?UTIL_dtos1@@YAPADH@Z      10062370 f   util.obj
 0001:00061390       ?UTIL_dtos2@@YAPADH@Z      10062390 f   util.obj
 0001:000613b0       ?U_Random@@YAIXZ           100623b0 f   util.obj
 0001:000613e0       ?U_Srand@@YAXI@Z           100623e0 f   util.obj
 0001:00061400       ?WriteData@CSave@@QAEXPBDH0@Z 10062400 f   util.obj
 0001:00061410       ?WriteEntVars@CSave@@QAEHPBDPAUentvars_s@@@Z 10062410 f   util.obj
 0001:00061430       ?WriteFields@CSave@@QAEHPBDPAXPAUTYPEDESCRIPTION@@H@Z 10062430 f   util.obj
 0001:000616f0       ?WriteInt@CSave@@QAEXPBDPBHH@Z 100626f0 f   util.obj
 0001:000616f0       ?WriteFloat@CSave@@QAEXPBDPBMH@Z 100626f0 f   util.obj
 0001:00061710       ?WriteFunction@CSave@@QAEXPBDPBHH@Z 10062710 f   util.obj
 0001:00061770       ?WritePositionVector@CSave@@QAEXPBDPBMH@Z 10062770 f   util.obj
 0001:00061820       ?WriteString@CSave@@QAEXPBDPBHH@Z 10062820 f   util.obj
 0001:000618c0       ?WriteTime@CSave@@QAEXPBDPBMH@Z 100628c0 f   util.obj
 0001:00061920       ?WriteVector@CSave@@QAEXPBDPBMH@Z 10062920 f   util.obj
 0001:00061950       ??$GetClassPtr@VCFuncVehicle@@@@YAPAVCFuncVehicle@@PAV0@@Z 10062950 f i vehicle.obj
 0001:00061ae0       ??$GetClassPtr@VCFuncVehicleControls@@@@YAPAVCFuncVehicleControls@@PAV0@@Z 10062ae0 f i vehicle.obj
 0001:00061b40       ?Blocked@CFuncVehicle@@UAEXPAVCBaseEntity@@@Z 10062b40 f   vehicle.obj
 0001:00061e40       ?CheckTurning@CFuncVehicle@@QAEXXZ 10062e40 f   vehicle.obj
 0001:00062280       ?Classify@CFuncVehicle@@UAEHXZ 10063280 f   vehicle.obj
 0001:00062290       ?CollisionDetection@CFuncVehicle@@QAEXXZ 10063290 f   vehicle.obj
 0001:00062990       ?DeadEnd@CFuncVehicle@@QAEXXZ 10063990 f   vehicle.obj
 0001:00062ab0       ?Find@CFuncVehicle@@QAEXXZ 10063ab0 f   vehicle.obj
 0001:00062cb0       ?Find@CFuncVehicleControls@@QAEXXZ 10063cb0 f   vehicle.obj
 0001:00062de0       ?Instance@CFuncVehicle@@SAPAV1@PAUedict_s@@@Z 10063de0 f   vehicle.obj
 0001:00062e40       ?KeyValue@CFuncVehicle@@UAEXPAUKeyValueData_s@@@Z 10063e40 f   vehicle.obj
 0001:00063090       ?NearestPath@CFuncVehicle@@QAEXXZ 10064090 f   vehicle.obj
 0001:00063320       ?Next@CFuncVehicle@@QAEXXZ 10064320 f   vehicle.obj
 0001:00063c70       ?ObjectCaps@CFuncVehicle@@UAEHXZ 10064c70 f i vehicle.obj
 0001:00063c70       ?ObjectCaps@CFuncTrackTrain@@UAEHXZ 10064c70 f i plats.obj
 0001:00063c80       ?OnControls@CFuncVehicle@@UAEHPAUentvars_s@@@Z 10064c80 f   vehicle.obj
 0001:00063db0       ?OverrideReset@CFuncVehicle@@UAEXXZ 10064db0 f   vehicle.obj
 0001:00063df0       ?Precache@CFuncVehicle@@UAEXXZ 10064df0 f   vehicle.obj
 0001:00063f00       ?Restart@CFuncVehicle@@UAEXXZ 10064f00 f   vehicle.obj
 0001:00064000       ?Restore@CFuncVehicle@@UAEHAAVCRestore@@@Z 10065000 f   vehicle.obj
 0001:00064040       ?Save@CFuncVehicle@@UAEHAAVCSave@@@Z 10065040 f   vehicle.obj
 0001:00064080       ?SetControls@CFuncVehicle@@QAEXPAUentvars_s@@@Z 10065080 f   vehicle.obj
 0001:00064130       ?Spawn@CFuncVehicle@@UAEXXZ 10065130 f   vehicle.obj
 0001:00064330       ?Spawn@CFuncVehicleControls@@UAEXXZ 10065330 f   vehicle.obj
 0001:000643b0       ?StopSound@CFuncVehicle@@QAEXXZ 100653b0 f   vehicle.obj
 0001:00064430       ?TerrainFollowing@CFuncVehicle@@QAEXXZ 10065430 f   vehicle.obj
 0001:00064530       ?UpdateSound@CFuncVehicle@@QAEXXZ 10065530 f   vehicle.obj
 0001:000646c0       ?Use@CFuncVehicle@@UAEXPAVCBaseEntity@@0W4USE_TYPE@@M@Z 100656c0 f   vehicle.obj
 0001:00064cf0       _func_vehicle              10065cf0 f   vehicle.obj
 0001:00064d00       _func_vehiclecontrols      10065d00 f   vehicle.obj
 0001:00064d10       ??$GetClassPtr@VCArmoury@@@@YAPAVCArmoury@@PAV0@@Z 10065d10 f i weapons.obj
 0001:00064d70       ??$GetClassPtr@VCWeaponBox@@@@YAPAVCWeaponBox@@PAV0@@Z 10065d70 f i weapons.obj
 0001:00064dd0       ?AddAmmoNameToAmmoRegistry@@YAXPBD@Z 10065dd0 f   weapons.obj
 0001:00064e30       ?AddDuplicate@CBasePlayerWeapon@@UAEHPAVCBasePlayerItem@@@Z 10065e30 f   weapons.obj
 0001:00064e50       ?AddMultiDamage@@YAXPAUentvars_s@@PAVCBaseEntity@@MH@Z 10065e50 f   weapons.obj
 0001:00064eb0       ?AddPrimaryAmmo@CBasePlayerWeapon@@QAEHHPADHH@Z 10065eb0 f   weapons.obj
 0001:00064f70       ?AddSecondaryAmmo@CBasePlayerWeapon@@QAEHHPADH@Z 10065f70 f   weapons.obj
 0001:00064fe0       ?AddToPlayer@CBasePlayerItem@@UAEHPAVCBasePlayer@@@Z 10065fe0 f   weapons.obj
 0001:00065000       ?AddToPlayer@CBasePlayerWeapon@@UAEHPAVCBasePlayer@@@Z 10066000 f   weapons.obj
 0001:000650c0       ?ApplyMultiDamage@@YAXPAUentvars_s@@0@Z 100660c0 f   weapons.obj
 0001:000650f0       ?ArmouryTouch@CArmoury@@QAEXPAVCBaseEntity@@@Z 100660f0 f   weapons.obj
 0001:00065460       ?AttachToPlayer@CBasePlayerItem@@UAEXPAVCBasePlayer@@@Z 10066460 f   weapons.obj
 0001:00065500       ?AttemptToMaterialize@CBasePlayerItem@@QAEXXZ 10066500 f   weapons.obj
 0001:00065560       ?CheckRespawn@CBasePlayerItem@@QAEXXZ 10066560 f   weapons.obj
 0001:00065570       ?ClearMultiDamage@@YAXXZ   10066570 f   weapons.obj
 0001:00065590       ?DefaultDeploy@CBasePlayerWeapon@@QAEHPAD0H0H@Z 10066590 f   weapons.obj
 0001:000656c0       ?DefaultReload@CBasePlayerWeapon@@QAEHHHMH@Z 100666c0 f   weapons.obj
 0001:00065780       ?DefaultTouch@CBasePlayerAmmo@@QAEXPAVCBaseEntity@@@Z 10066780 f   weapons.obj
 0001:00065810       ?DefaultTouch@CBasePlayerItem@@QAEXPAVCBaseEntity@@@Z 10066810 f   weapons.obj
 0001:000658e0       ?DestroyItem@CBasePlayerItem@@QAEXXZ 100668e0 f   weapons.obj
 0001:00065900       ?EjectBrass@@YAXABVVector@@00MHHH@Z 10066900 f   weapons.obj
 0001:000659f0       ?EjectBrassLate@CBasePlayerWeapon@@QAEXXZ 100669f0 f   weapons.obj
 0001:00065c60       ?ExtractAmmo@CBasePlayerWeapon@@UAEHPAV1@@Z 10066c60 f   weapons.obj
 0001:00065cd0       ?ExtractClipAmmo@CBasePlayerWeapon@@UAEHPAV1@@Z 10066cd0 f   weapons.obj
 0001:00065d10       ?FallInit@CBasePlayerItem@@QAEXXZ 10066d10 f   weapons.obj
 0001:00065dc0       ?FallThink@CBasePlayerItem@@QAEXXZ 10066dc0 f   weapons.obj
 0001:00065e70       ?FireRemaining@CBasePlayerWeapon@@QAEXAAHAAMH@Z 10066e70 f   weapons.obj
 0001:00066170       ?GiveAmmo@CWeaponBox@@QAEHHPADHPAH@Z 10067170 f   weapons.obj
 0001:00066260       ?HasSecondaryAttack@CBasePlayerWeapon@@QAE_NXZ 10067260 f   weapons.obj
 0001:000662d0       ?HasWeapon@CWeaponBox@@QAEHPAVCBasePlayerItem@@@Z 100672d0 f   weapons.obj
 0001:00066360       ?Holster@CBasePlayerWeapon@@UAEXH@Z 10067360 f   weapons.obj
 0001:000663a0       ?IsUseable@CBasePlayerWeapon@@UAEHXZ 100673a0 f   weapons.obj
 0001:000663f0       ?ItemPostFrame@CBasePlayerWeapon@@UAEXXZ 100673f0 f   weapons.obj
 0001:00066980       ?KeyValue@CArmoury@@UAEXPAUKeyValueData_s@@@Z 10067980 f   weapons.obj
 0001:00066a40       ?KeyValue@CWeaponBox@@UAEXPAUKeyValueData_s@@@Z 10067a40 f   weapons.obj
 0001:00066aa0       ?KickBack@CBasePlayerWeapon@@QAEXMMMMMMH@Z 10067aa0 f   weapons.obj
 0001:00066ba0       ?Kill@CBasePlayerItem@@UAEXXZ 10067ba0 f   weapons.obj
 0001:00066ba0       ?Drop@CBasePlayerItem@@UAEXXZ 10067ba0 f   weapons.obj
 0001:00066be0       ?Kill@CWeaponBox@@QAEXXZ   10067be0 f   weapons.obj
 0001:00066c50       ?Materialize@CBasePlayerAmmo@@QAEXXZ 10067c50 f   weapons.obj
 0001:00066cb0       ?Materialize@CBasePlayerItem@@QAEXXZ 10067cb0 f   weapons.obj
 0001:00066d80       ?MaxAmmoCarry@@YAHH@Z      10067d80 f   weapons.obj
 0001:00066e60       ?PackAmmo@CWeaponBox@@QAEHHH@Z 10067e60 f   weapons.obj
 0001:00066ec0       ?PackWeapon@CWeaponBox@@QAEHPAVCBasePlayerItem@@@Z 10067ec0 f   weapons.obj
 0001:00066fd0       ?PlayEmptySound@CBasePlayerWeapon@@UAEHXZ 10067fd0 f   weapons.obj
 0001:00067060       ?Precache@CArmoury@@UAEXXZ 10068060 f   weapons.obj
 0001:000671f0       ?Precache@CWeaponBox@@UAEXXZ 100681f0 f   weapons.obj
 0001:00067200       ?PrimaryAmmoIndex@CBasePlayerWeapon@@UAEHXZ 10068200 f   weapons.obj
 0001:00067210       ?ReloadSound@CBasePlayerWeapon@@QAEXXZ 10068210 f   weapons.obj
 0001:000673f0       ?ResetEmptySound@CBasePlayerWeapon@@UAEXXZ 100683f0 f   weapons.obj
 0001:00067400       ?ResetPlayerShieldAnim@CBasePlayerWeapon@@QAEXXZ 10068400 f   weapons.obj
 0001:00067440       ?Respawn@CBasePlayerAmmo@@UAEPAVCBaseEntity@@XZ 10068440 f   weapons.obj
 0001:000674b0       ?Respawn@CBasePlayerItem@@UAEPAVCBaseEntity@@XZ 100684b0 f   weapons.obj
 0001:00067580       ?Restart@CArmoury@@UAEXXZ  10068580 f   weapons.obj
 0001:00067710       ?Restore@CBasePlayerItem@@UAEHAAVCRestore@@@Z 10068710 f   weapons.obj
 0001:00067750       ?Restore@CBasePlayerWeapon@@UAEHAAVCRestore@@@Z 10068750 f   weapons.obj
 0001:00067790       ?Restore@CWeaponBox@@UAEHAAVCRestore@@@Z 10068790 f   weapons.obj
 0001:000677d0       ?RetireWeapon@CBasePlayerWeapon@@UAEXXZ 100687d0 f   weapons.obj
 0001:00067810       ?Save@CBasePlayerItem@@UAEHAAVCSave@@@Z 10068810 f   weapons.obj
 0001:00067850       ?Save@CBasePlayerWeapon@@UAEHAAVCSave@@@Z 10068850 f   weapons.obj
 0001:00067890       ?Save@CWeaponBox@@UAEHAAVCSave@@@Z 10068890 f   weapons.obj
 0001:000678d0       ?SendWeaponAnim@CBasePlayerWeapon@@UAEXHH@Z 100688d0 f   weapons.obj
 0001:00067950       ?SetObjectCollisionBox@CBasePlayerItem@@UAEXXZ 10068950 f   weapons.obj
 0001:000679e0       ?SetObjectCollisionBox@CWeaponBox@@UAEXXZ 100689e0 f   weapons.obj
 0001:00067a70       ?SetPlayerShieldAnim@CBasePlayerWeapon@@QAEXXZ 10068a70 f   weapons.obj
 0001:00067ae0       ?ShieldSecondaryFire@CBasePlayerWeapon@@QAE_NHH@Z 10068ae0 f   weapons.obj
 0001:00067c30       ?Spawn@CArmoury@@UAEXXZ    10068c30 f   weapons.obj
 0001:00067df0       ?Spawn@CBasePlayerAmmo@@UAEXXZ 10068df0 f   weapons.obj
 0001:00067ea0       ?Spawn@CWeaponBox@@UAEXXZ  10068ea0 f   weapons.obj
 0001:00067ef0       ?SpawnBlood@@YAXVVector@@HM@Z 10068ef0 f   weapons.obj
 0001:00067f10       ?Touch@CWeaponBox@@UAEXPAVCBaseEntity@@@Z 10068f10 f   weapons.obj
 0001:000683e0       ?UTIL_PrecacheOtherWeapon@@YAXPBD@Z 100693e0 f   weapons.obj
 0001:000684f0       ?UpdateClientData@CBasePlayerWeapon@@UAEHPAVCBasePlayer@@@Z 100694f0 f   weapons.obj
 0001:000685f0       ?W_Precache@@YAXXZ         100695f0 f   weapons.obj
 0001:000689c0       _armoury_entity            100699c0 f   weapons.obj
 0001:000689d0       _weaponbox                 100699d0 f   weapons.obj
 0001:000689e0       ??$GetClassPtr@VCCorpse@@@@YAPAVCCorpse@@PAV0@@Z 100699e0 f i world.obj
 0001:00068a40       ??$GetClassPtr@VCDecal@@@@YAPAVCDecal@@PAV0@@Z 10069a40 f i world.obj
 0001:00068aa0       ??$GetClassPtr@VCWorld@@@@YAPAVCWorld@@PAV0@@Z 10069aa0 f i world.obj
 0001:00068b00       ??0CGlobalState@@QAE@XZ    10069b00 f   world.obj
 0001:00068b10       ?ClearBodyQue@@YAXXZ       10069b10 f   world.obj
 0001:00068b60       ?ClearStates@CGlobalState@@QAEXXZ 10069b60 f   world.obj
 0001:00068b90       ?DumpGlobals@CGlobalState@@QAEXXZ 10069b90 f   world.obj
 0001:00068be0       ?EntityAdd@CGlobalState@@QAEXHHW4GLOBALESTATE@@@Z 10069be0 f   world.obj
 0001:00068c50       ?EntityFromTable@CGlobalState@@QAEPBUglobalentity_s@@H@Z 10069c50 f   world.obj
 0001:00068c60       ?EntityGetState@CGlobalState@@QAE?AW4GLOBALESTATE@@H@Z 10069c60 f   world.obj
 0001:00068c80       ?EntitySetState@CGlobalState@@QAEXHW4GLOBALESTATE@@@Z 10069c80 f   world.obj
 0001:00068ca0       ?EntityUpdate@CGlobalState@@QAEXHH@Z 10069ca0 f   world.obj
 0001:00068ce0       ?Find@CGlobalState@@AAEPAUglobalentity_s@@H@Z 10069ce0 f   world.obj
 0001:00068dc0       ?KeyValue@CDecal@@UAEXPAUKeyValueData_s@@@Z 10069dc0 f   world.obj
 0001:00068e50       ?KeyValue@CWorld@@UAEXPAUKeyValueData_s@@@Z 10069e50 f   world.obj
 0001:00069210       ?Precache@CWorld@@UAEXXZ   1006a210 f   world.obj
 0001:00069640       ?Reset@CGlobalState@@QAEXXZ 1006a640 f   world.obj
 0001:00069650       ?ResetGlobalState@@YAXXZ   1006a650 f   world.obj
 0001:00069670       ?Restore@CGlobalState@@QAEHAAVCRestore@@@Z 1006a670 f   world.obj
 0001:00069720       ?RestoreGlobalState@@YAXPAUsaverestore_s@@@Z 1006a720 f   world.obj
 0001:00069790       ?Save@CGlobalState@@QAEHAAVCSave@@@Z 1006a790 f   world.obj
 0001:00069800       ?SaveGlobalState@@YAXPAUsaverestore_s@@@Z 1006a800 f   world.obj
 0001:00069860       ?Spawn@CDecal@@UAEXXZ      1006a860 f   world.obj
 0001:000698d0       ?Spawn@CWorld@@UAEXXZ      1006a8d0 f   world.obj
 0001:000699e0       ?StaticDecal@CDecal@@QAEXXZ 1006a9e0 f   world.obj
 0001:00069ae0       ?TriggerDecal@CDecal@@QAEXPAVCBaseEntity@@0W4USE_TYPE@@M@Z 1006aae0 f   world.obj
 0001:00069c60       _bodyque                   1006ac60 f   world.obj
 0001:00069c70       _infodecal                 1006ac70 f   world.obj
 0001:00069c80       _worldspawn                1006ac80 f   world.obj
 0001:00069c90       ??$GetClassPtr@VCAK47@@@@YAPAVCAK47@@PAV0@@Z 1006ac90 f i wpn_ak47.obj
 0001:00069d10       ?AK47Fire@CAK47@@AAEXMMH@Z 1006ad10 f   wpn_ak47.obj
 0001:0006a130       ?Deploy@CAK47@@UAEHXZ      1006b130 f   wpn_ak47.obj
 0001:0006a180       ?GetItemInfo@CAK47@@UAEHPAUItemInfo@@@Z 1006b180 f   wpn_ak47.obj
 0001:0006a200       ?GetMaxSpeed@CAK47@@UAEMXZ 1006b200 f i wpn_ak47.obj
 0001:0006a210       ?Precache@CAK47@@UAEXXZ    1006b210 f   wpn_ak47.obj
 0001:0006a290       ?PrimaryAttack@CAK47@@UAEXXZ 1006b290 f   wpn_ak47.obj
 0001:0006a350       ?Reload@CAK47@@UAEXXZ      1006b350 f   wpn_ak47.obj
 0001:0006a3a0       ?Spawn@CAK47@@UAEXXZ       1006b3a0 f   wpn_ak47.obj
 0001:0006a410       _weapon_ak47               1006b410 f   wpn_ak47.obj
 0001:0006a420       ??$GetClassPtr@VCAUG@@@@YAPAVCAUG@@PAV0@@Z 1006b420 f i wpn_aug.obj
 0001:0006a4a0       ?AUGFire@CAUG@@QAEXMMH@Z   1006b4a0 f   wpn_aug.obj
 0001:0006a8b0       ?Deploy@CAUG@@UAEHXZ       1006b8b0 f   wpn_aug.obj
 0001:0006a900       ?GetItemInfo@CAUG@@UAEHPAUItemInfo@@@Z 1006b900 f   wpn_aug.obj
 0001:0006a980       ?Precache@CAUG@@UAEXXZ     1006b980 f   wpn_aug.obj
 0001:0006aa10       ?PrimaryAttack@CAUG@@UAEXXZ 1006ba10 f   wpn_aug.obj
 0001:0006ab20       ?Reload@CAUG@@UAEXXZ       1006bb20 f   wpn_aug.obj
 0001:0006ab90       ?Spawn@CAUG@@UAEXXZ        1006bb90 f   wpn_aug.obj
 0001:0006ac00       _weapon_aug                1006bc00 f   wpn_aug.obj
 0001:0006ac10       ??$GetClassPtr@VCAWP@@@@YAPAVCAWP@@PAV0@@Z 1006bc10 f i wpn_awp.obj
 0001:0006ac90       ?AWPFire@CAWP@@AAEXMMH@Z   1006bc90 f   wpn_awp.obj
 0001:0006af60       ?Deploy@CAWP@@UAEHXZ       1006bf60 f   wpn_awp.obj
 0001:0006afe0       ?GetItemInfo@CAWP@@UAEHPAUItemInfo@@@Z 1006bfe0 f   wpn_awp.obj
 0001:0006b060       ?Precache@CAWP@@UAEXXZ     1006c060 f   wpn_awp.obj
 0001:0006b110       ?PrimaryAttack@CAWP@@UAEXXZ 1006c110 f   wpn_awp.obj
 0001:0006b1f0       ?Reload@CAWP@@UAEXXZ       1006c1f0 f   wpn_awp.obj
 0001:0006b270       ?SecondaryAttack@CAWP@@UAEXXZ 1006c270 f   wpn_awp.obj
 0001:0006b340       ?Spawn@CAWP@@UAEXXZ        1006c340 f   wpn_awp.obj
 0001:0006b390       ?WeaponIdle@CSCOUT@@UAEXXZ 1006c390 f   wpn_scout.obj
 0001:0006b390       ?WeaponIdle@CAWP@@UAEXXZ   1006c390 f   wpn_awp.obj
 0001:0006b390       ?WeaponIdle@CG3SG1@@UAEXXZ 1006c390 f   wpn_g3sg1.obj
 0001:0006b390       ?WeaponIdle@CSG550@@UAEXXZ 1006c390 f   wpn_sg550.obj
 0001:0006b410       _weapon_awp                1006c410 f   wpn_awp.obj
 0001:0006b420       ??$GetClassPtr@VCC4@@@@YAPAVCC4@@PAV0@@Z 1006c420 f i wpn_c4.obj
 0001:0006b4a0       ?Deploy@CC4@@UAEHXZ        1006c4a0 f   wpn_c4.obj
 0001:0006b520       ?GetItemInfo@CC4@@UAEHPAUItemInfo@@@Z 1006c520 f   wpn_c4.obj
 0001:0006b5a0       ?Holster@CC4@@UAEXH@Z      1006c5a0 f   wpn_c4.obj
 0001:0006b620       ?KeyValue@CC4@@UAEXPAUKeyValueData_s@@@Z 1006c620 f   wpn_c4.obj
 0001:0006b740       ?Precache@CC4@@UAEXXZ      1006c740 f   wpn_c4.obj
 0001:0006b770       ?PrimaryAttack@CC4@@UAEXXZ 1006c770 f   wpn_c4.obj
 0001:0006bc80       ?Spawn@CC4@@UAEXXZ         1006cc80 f   wpn_c4.obj
 0001:0006bd60       ?Use@CC4@@UAEXPAVCBaseEntity@@0W4USE_TYPE@@M@Z 1006cd60 f   wpn_c4.obj
 0001:0006bee0       ?WeaponIdle@CC4@@UAEXXZ    1006cee0 f   wpn_c4.obj
 0001:0006bfd0       ?iItemSlot@CC4@@UAEHXZ     1006cfd0 f i wpn_c4.obj
 0001:0006bfe0       _weapon_c4                 1006cfe0 f   wpn_c4.obj
 0001:0006bff0       ??$GetClassPtr@VCDEAGLE@@@@YAPAVCDEAGLE@@PAV0@@Z 1006cff0 f i wpn_deagle.obj
 0001:0006c070       ?DEAGLEFire@CDEAGLE@@AAEXMMH@Z 1006d070 f   wpn_deagle.obj
 0001:0006c3c0       ?Deploy@CDEAGLE@@UAEHXZ    1006d3c0 f   wpn_deagle.obj
 0001:0006c450       ?GetItemInfo@CDEAGLE@@UAEHPAUItemInfo@@@Z 1006d450 f   wpn_deagle.obj
 0001:0006c4d0       ?Precache@CDEAGLE@@UAEXXZ  1006d4d0 f   wpn_deagle.obj
 0001:0006c560       ?PrimaryAttack@CDEAGLE@@UAEXXZ 1006d560 f   wpn_deagle.obj
 0001:0006c630       ?Reload@CDEAGLE@@UAEXXZ    1006d630 f   wpn_deagle.obj
 0001:0006c670       ?Spawn@CDEAGLE@@UAEXXZ     1006d670 f   wpn_deagle.obj
 0001:0006c6e0       ?WeaponIdle@CDEAGLE@@UAEXXZ 1006d6e0 f   wpn_deagle.obj
 0001:0006c760       _weapon_deagle             1006d760 f   wpn_deagle.obj
 0001:0006c770       ??$GetClassPtr@VCELITE@@@@YAPAVCELITE@@PAV0@@Z 1006d770 f i wpn_elite.obj
 0001:0006c7f0       ?Deploy@CELITE@@UAEHXZ     1006d7f0 f   wpn_elite.obj
 0001:0006c840       ?ELITEFire@CELITE@@AAEXMMH@Z 1006d840 f   wpn_elite.obj
 0001:0006cce0       ?GetItemInfo@CELITE@@UAEHPAUItemInfo@@@Z 1006dce0 f   wpn_elite.obj
 0001:0006cd60       ?Precache@CELITE@@UAEXXZ   1006dd60 f   wpn_elite.obj
 0001:0006ce10       ?PrimaryAttack@CELITE@@UAEXXZ 1006de10 f   wpn_elite.obj
 0001:0006cee0       ?Reload@CELITE@@UAEXXZ     1006dee0 f   wpn_elite.obj
 0001:0006cf20       ?Spawn@CELITE@@UAEXXZ      1006df20 f   wpn_elite.obj
 0001:0006cf80       ?WeaponIdle@CELITE@@UAEXXZ 1006df80 f   wpn_elite.obj
 0001:0006d030       _weapon_elite              1006e030 f   wpn_elite.obj
 0001:0006d040       ??$GetClassPtr@VCFamas@@@@YAPAVCFamas@@PAV0@@Z 1006e040 f i wpn_famas.obj
 0001:0006d0c0       ?Deploy@CFamas@@UAEHXZ     1006e0c0 f   wpn_famas.obj
 0001:0006d120       ?FamasFire@CFamas@@AAEXMMHH@Z 1006e120 f   wpn_famas.obj
 0001:0006d5a0       ?GetItemInfo@CFamas@@UAEHPAUItemInfo@@@Z 1006e5a0 f   wpn_famas.obj
 0001:0006d620       ?Precache@CFamas@@UAEXXZ   1006e620 f   wpn_famas.obj
 0001:0006d6c0       ?PrimaryAttack@CFamas@@UAEXXZ 1006e6c0 f   wpn_famas.obj
 0001:0006d7b0       ?Reload@CFamas@@UAEXXZ     1006e7b0 f   wpn_famas.obj
 0001:0006d820       ?SecondaryAttack@CFamas@@UAEXXZ 1006e820 f   wpn_famas.obj
 0001:0006d8a0       ?Spawn@CFamas@@UAEXXZ      1006e8a0 f   wpn_famas.obj
 0001:0006d910       _weapon_famas              1006e910 f   wpn_famas.obj
 0001:0006d920       ??$GetClassPtr@VCFiveSeven@@@@YAPAVCFiveSeven@@PAV0@@Z 1006e920 f i wpn_fiveseven.obj
 0001:0006d9a0       ?Deploy@CFiveSeven@@UAEHXZ 1006e9a0 f   wpn_fiveseven.obj
 0001:0006da30       ?FiveSevenFire@CFiveSeven@@AAEXMMH@Z 1006ea30 f   wpn_fiveseven.obj
 0001:0006dd40       ?GetItemInfo@CFiveSeven@@UAEHPAUItemInfo@@@Z 1006ed40 f   wpn_fiveseven.obj
 0001:0006ddc0       ?Precache@CFiveSeven@@UAEXXZ 1006edc0 f   wpn_fiveseven.obj
 0001:0006de50       ?PrimaryAttack@CFiveSeven@@UAEXXZ 1006ee50 f   wpn_fiveseven.obj
 0001:0006df20       ?Reload@CFiveSeven@@UAEXXZ 1006ef20 f   wpn_fiveseven.obj
 0001:0006df60       ?Spawn@CFiveSeven@@UAEXXZ  1006ef60 f   wpn_fiveseven.obj
 0001:0006dfd0       ?WeaponIdle@CP228@@UAEXXZ  1006efd0 f   wpn_p228.obj
 0001:0006dfd0       ?WeaponIdle@CFiveSeven@@UAEXXZ 1006efd0 f   wpn_fiveseven.obj
 0001:0006e0a0       _weapon_fiveseven          1006f0a0 f   wpn_fiveseven.obj
 0001:0006e0b0       ??$GetClassPtr@VCFlashbang@@@@YAPAVCFlashbang@@PAV0@@Z 1006f0b0 f i wpn_flashbang.obj
 0001:0006e130       ?Deploy@CFlashbang@@UAEHXZ 1006f130 f   wpn_flashbang.obj
 0001:0006e1c0       ?GetItemInfo@CFlashbang@@UAEHPAUItemInfo@@@Z 1006f1c0 f   wpn_flashbang.obj
 0001:0006e240       ?Holster@CFlashbang@@UAEXH@Z 1006f240 f   wpn_flashbang.obj
 0001:0006e2b0       ?Precache@CFlashbang@@UAEXXZ 1006f2b0 f   wpn_flashbang.obj
 0001:0006e2f0       ?ResetPlayerShieldAnim@CFlashbang@@QAEXXZ 1006f2f0 f   wpn_flashbang.obj
 0001:0006e2f0       ?ResetPlayerShieldAnim@CHEGrenade@@QAEXXZ 1006f2f0 f   wpn_hegrenade.obj
 0001:0006e2f0       ?ResetPlayerShieldAnim@CSmokeGrenade@@QAEXXZ 1006f2f0 f   wpn_smokegrenade.obj
 0001:0006e340       ?Spawn@CFlashbang@@UAEXXZ  1006f340 f   wpn_flashbang.obj
 0001:0006e3c0       ?WeaponIdle@CFlashbang@@UAEXXZ 1006f3c0 f   wpn_flashbang.obj
 0001:0006e780       _weapon_flashbang          1006f780 f   wpn_flashbang.obj
 0001:0006e790       ??$GetClassPtr@VCG3SG1@@@@YAPAVCG3SG1@@PAV0@@Z 1006f790 f i wpn_g3sg1.obj
 0001:0006e810       ?Deploy@CG3SG1@@UAEHXZ     1006f810 f   wpn_g3sg1.obj
 0001:0006e850       ?G3SG1Fire@CG3SG1@@AAEXMMH@Z 1006f850 f   wpn_g3sg1.obj
 0001:0006ebb0       ?GetItemInfo@CG3SG1@@UAEHPAUItemInfo@@@Z 1006fbb0 f   wpn_g3sg1.obj
 0001:0006ec30       ?Precache@CG3SG1@@UAEXXZ   1006fc30 f   wpn_g3sg1.obj
 0001:0006ecb0       ?PrimaryAttack@CG3SG1@@UAEXXZ 1006fcb0 f   wpn_g3sg1.obj
 0001:0006ed70       ?Reload@CG3SG1@@UAEXXZ     1006fd70 f   wpn_g3sg1.obj
 0001:0006ee00       ?Spawn@CG3SG1@@UAEXXZ      1006fe00 f   wpn_g3sg1.obj
 0001:0006ee50       _weapon_g3sg1              1006fe50 f   wpn_g3sg1.obj
 0001:0006ee60       ??$GetClassPtr@VCGalil@@@@YAPAVCGalil@@PAV0@@Z 1006fe60 f i wpn_galil.obj
 0001:0006eee0       ?Deploy@CGalil@@UAEHXZ     1006fee0 f   wpn_galil.obj
 0001:0006ef30       ?GalilFire@CGalil@@AAEXMMH@Z 1006ff30 f   wpn_galil.obj
 0001:0006f340       ?GetItemInfo@CGalil@@UAEHPAUItemInfo@@@Z 10070340 f   wpn_galil.obj
 0001:0006f3c0       ?Precache@CGalil@@UAEXXZ   100703c0 f   wpn_galil.obj
 0001:0006f440       ?PrimaryAttack@CGalil@@UAEXXZ 10070440 f   wpn_galil.obj
 0001:0006f520       ?Reload@CGalil@@UAEXXZ     10070520 f   wpn_galil.obj
 0001:0006f570       ?Spawn@CGalil@@UAEXXZ      10070570 f   wpn_galil.obj
 0001:0006f5c0       _weapon_galil              100705c0 f   wpn_galil.obj
 0001:0006f5d0       ??$GetClassPtr@VCGLOCK18@@@@YAPAVCGLOCK18@@PAV0@@Z 100705d0 f i wpn_glock18.obj
 0001:0006f650       ?Deploy@CGLOCK18@@UAEHXZ   10070650 f   wpn_glock18.obj
 0001:0006f710       ?GLOCK18Fire@CGLOCK18@@AAEXMMH@Z 10070710 f   wpn_glock18.obj
 0001:0006fa80       ?GetItemInfo@CGLOCK18@@UAEHPAUItemInfo@@@Z 10070a80 f   wpn_glock18.obj
 0001:0006fb00       ?Precache@CGLOCK18@@UAEXXZ 10070b00 f   wpn_glock18.obj
 0001:0006fbc0       ?PrimaryAttack@CGLOCK18@@UAEXXZ 10070bc0 f   wpn_glock18.obj
 0001:0006fd90       ?Reload@CGLOCK18@@UAEXXZ   10070d90 f   wpn_glock18.obj
 0001:0006fe00       ?SecondaryAttack@CGLOCK18@@UAEXXZ 10070e00 f   wpn_glock18.obj
 0001:0006fe80       ?Spawn@CGLOCK18@@UAEXXZ    10070e80 f   wpn_glock18.obj
 0001:0006ff00       ?WeaponIdle@CGLOCK18@@UAEXXZ 10070f00 f   wpn_glock18.obj
 0001:00070080       _weapon_glock18            10071080 f   wpn_glock18.obj
 0001:00070090       ??$GetClassPtr@VCHEGrenade@@@@YAPAVCHEGrenade@@PAV0@@Z 10071090 f i wpn_hegrenade.obj
 0001:00070110       ?CanDeploy@CHEGrenade@@UAEHXZ 10071110 f   wpn_hegrenade.obj
 0001:00070110       ?CanDeploy@CFlashbang@@UAEHXZ 10071110 f   wpn_flashbang.obj
 0001:00070110       ?CanDeploy@CSmokeGrenade@@UAEHXZ 10071110 f   wpn_smokegrenade.obj
 0001:00070130       ?CanHolster@CHEGrenade@@UAEHXZ 10071130 f   wpn_hegrenade.obj
 0001:00070150       ?Deploy@CHEGrenade@@UAEHXZ 10071150 f   wpn_hegrenade.obj
 0001:000701e0       ?GetItemInfo@CHEGrenade@@UAEHPAUItemInfo@@@Z 100711e0 f   wpn_hegrenade.obj
 0001:00070260       ?Holster@CHEGrenade@@UAEXH@Z 10071260 f   wpn_hegrenade.obj
 0001:000702d0       ?Precache@CHEGrenade@@UAEXXZ 100712d0 f   wpn_hegrenade.obj
 0001:00070330       ?PrimaryAttack@CHEGrenade@@UAEXXZ 10071330 f   wpn_hegrenade.obj
 0001:00070330       ?PrimaryAttack@CFlashbang@@UAEXXZ 10071330 f   wpn_flashbang.obj
 0001:00070330       ?PrimaryAttack@CSmokeGrenade@@UAEXXZ 10071330 f   wpn_smokegrenade.obj
 0001:000703b0       ?SetPlayerShieldAnim@CSmokeGrenade@@QAEXXZ 100713b0 f   wpn_smokegrenade.obj
 0001:000703b0       ?SetPlayerShieldAnim@CHEGrenade@@QAEXXZ 100713b0 f   wpn_hegrenade.obj
 0001:000703b0       ?SetPlayerShieldAnim@CFlashbang@@QAEXXZ 100713b0 f   wpn_flashbang.obj
 0001:00070420       ?Spawn@CHEGrenade@@UAEXXZ  10071420 f   wpn_hegrenade.obj
 0001:00070480       ?WeaponIdle@CHEGrenade@@UAEXXZ 10071480 f   wpn_hegrenade.obj
 0001:00070880       _weapon_hegrenade          10071880 f   wpn_hegrenade.obj
 0001:00070890       ??$GetClassPtr@VCKnife@@@@YAPAVCKnife@@PAV0@@Z 10071890 f i wpn_knife.obj
 0001:00070950       ?Deploy@CKnife@@UAEHXZ     10071950 f   wpn_knife.obj
 0001:00070a10       ?FindHullIntersection@@YAXABVVector@@AAUTraceResult@@PAM2PAUedict_s@@@Z 10071a10 f   wpn_knife.obj
 0001:00070c70       ?GetItemInfo@CKnife@@UAEHPAUItemInfo@@@Z 10071c70 f   wpn_knife.obj
 0001:00070ce0       ?Holster@CWeaponCycler@@UAEXH@Z 10071ce0 f   h_cycler.obj
 0001:00070ce0       ?Holster@CKnife@@UAEXH@Z   10071ce0 f   wpn_knife.obj
 0001:00070d10       ?Precache@CKnife@@UAEXXZ   10071d10 f   wpn_knife.obj
 0001:00070db0       ?PrimaryAttack@CKnife@@UAEXXZ 10071db0 f   wpn_knife.obj
 0001:00070dc0       ?SecondaryAttack@CKnife@@UAEXXZ 10071dc0 f   wpn_knife.obj
 0001:00070e00       ?SetPlayerShieldAnim@CKnife@@QAEXXZ 10071e00 f   wpn_knife.obj
 0001:00070e70       ?ShieldSecondaryFire@CKnife@@QAE_NHH@Z 10071e70 f   wpn_knife.obj
 0001:00070fb0       ?Smack@CKnife@@QAEXXZ      10071fb0 f   wpn_knife.obj
 0001:00070fd0       ?Spawn@CKnife@@UAEXXZ      10071fd0 f   wpn_knife.obj
 0001:00071020       ?Stab@CKnife@@QAEHH@Z      10072020 f   wpn_knife.obj
 0001:00071650       ?Swing@CKnife@@QAEHH@Z     10072650 f   wpn_knife.obj
 0001:00071d50       ?SwingAgain@CKnife@@QAEXXZ 10072d50 f   wpn_knife.obj
 0001:00071d60       ?WeaponIdle@CKnife@@UAEXXZ 10072d60 f   wpn_knife.obj
 0001:00071df0       _weapon_knife              10072df0 f   wpn_knife.obj
 0001:00071e00       ??$GetClassPtr@VCM249@@@@YAPAVCM249@@PAV0@@Z 10072e00 f i wpn_m249.obj
 0001:00071e80       ?Deploy@CM249@@UAEHXZ      10072e80 f   wpn_m249.obj
 0001:00071ed0       ?GetItemInfo@CM249@@UAEHPAUItemInfo@@@Z 10072ed0 f   wpn_m249.obj
 0001:00071f50       ?GetMaxSpeed@CM249@@UAEMXZ 10072f50 f i wpn_m249.obj
 0001:00071f60       ?M249Fire@CM249@@AAEXMMH@Z 10072f60 f   wpn_m249.obj
 0001:00072380       ?Precache@CM249@@UAEXXZ    10073380 f   wpn_m249.obj
 0001:00072410       ?PrimaryAttack@CM249@@UAEXXZ 10073410 f   wpn_m249.obj
 0001:000724c0       ?Reload@CM249@@UAEXXZ      100734c0 f   wpn_m249.obj
 0001:00072510       ?Spawn@CM249@@UAEXXZ       10073510 f   wpn_m249.obj
 0001:00072580       _weapon_m249               10073580 f   wpn_m249.obj
 0001:00072590       ??$GetClassPtr@VCM3@@@@YAPAVCM3@@PAV0@@Z 10073590 f i wpn_m3.obj
 0001:00072610       ?Deploy@CM3@@UAEHXZ        10073610 f   wpn_m3.obj
 0001:00072640       ?GetItemInfo@CM3@@UAEHPAUItemInfo@@@Z 10073640 f   wpn_m3.obj
 0001:000726c0       ?GetMaxSpeed@CM3@@UAEMXZ   100736c0 f i wpn_m3.obj
 0001:000726c0       ?GetMaxSpeed@CM4A1@@UAEMXZ 100736c0 f i wpn_m4a1.obj
 0001:000726d0       ?Precache@CM3@@UAEXXZ      100736d0 f   wpn_m3.obj
 0001:00072750       ?PrimaryAttack@CM3@@UAEXXZ 10073750 f   wpn_m3.obj
 0001:00072a50       ?Reload@CM3@@UAEXXZ        10073a50 f   wpn_m3.obj
 0001:00072bd0       ?Spawn@CM3@@UAEXXZ         10073bd0 f   wpn_m3.obj
 0001:00072c20       ?WeaponIdle@CM3@@UAEXXZ    10073c20 f   wpn_m3.obj
 0001:00072d70       _weapon_m3                 10073d70 f   wpn_m3.obj
 0001:00072d80       ??$GetClassPtr@VCM4A1@@@@YAPAVCM4A1@@PAV0@@Z 10073d80 f i wpn_m4a1.obj
 0001:00072e00       ?Deploy@CM4A1@@UAEHXZ      10073e00 f   wpn_m4a1.obj
 0001:00072e90       ?GetItemInfo@CM4A1@@UAEHPAUItemInfo@@@Z 10073e90 f   wpn_m4a1.obj
 0001:00072f10       ?M4A1Fire@CM4A1@@AAEXMMH@Z 10073f10 f   wpn_m4a1.obj
 0001:000733e0       ?Precache@CM4A1@@UAEXXZ    100743e0 f   wpn_m4a1.obj
 0001:00073490       ?PrimaryAttack@CM4A1@@UAEXXZ 10074490 f   wpn_m4a1.obj
 0001:000735f0       ?Reload@CM4A1@@UAEXXZ      100745f0 f   wpn_m4a1.obj
 0001:00073660       ?SecondaryAttack@CM4A1@@UAEXXZ 10074660 f   wpn_m4a1.obj
 0001:00073700       ?Spawn@CM4A1@@UAEXXZ       10074700 f   wpn_m4a1.obj
 0001:00073770       ?WeaponIdle@CM4A1@@UAEXXZ  10074770 f   wpn_m4a1.obj
 0001:00073810       _weapon_m4a1               10074810 f   wpn_m4a1.obj
 0001:00073820       ??$GetClassPtr@VCMAC10@@@@YAPAVCMAC10@@PAV0@@Z 10074820 f i wpn_mac10.obj
 0001:000738a0       ?Deploy@CMAC10@@UAEHXZ     100748a0 f   wpn_mac10.obj
 0001:000738f0       ?GetItemInfo@CMAC10@@UAEHPAUItemInfo@@@Z 100748f0 f   wpn_mac10.obj
 0001:00073970       ?MAC10Fire@CMAC10@@AAEXMMH@Z 10074970 f   wpn_mac10.obj
 0001:00073d90       ?Precache@CMAC10@@UAEXXZ   10074d90 f   wpn_mac10.obj
 0001:00073e00       ?PrimaryAttack@CMAC10@@UAEXXZ 10074e00 f   wpn_mac10.obj
 0001:00073e60       ?Reload@CMAC10@@UAEXXZ     10074e60 f   wpn_mac10.obj
 0001:00073eb0       ?Spawn@CMAC10@@UAEXXZ      10074eb0 f   wpn_mac10.obj
 0001:00073f20       _weapon_mac10              10074f20 f   wpn_mac10.obj
 0001:00073f30       ??$GetClassPtr@VCMP5N@@@@YAPAVCMP5N@@PAV0@@Z 10074f30 f i wpn_mp5navy.obj
 0001:00073fb0       ?Deploy@CMP5N@@UAEHXZ      10074fb0 f   wpn_mp5navy.obj
 0001:00074000       ?GetItemInfo@CMP5N@@UAEHPAUItemInfo@@@Z 10075000 f   wpn_mp5navy.obj
 0001:00074080       ?MP5NFire@CMP5N@@AAEXMMH@Z 10075080 f   wpn_mp5navy.obj
 0001:00074490       ?Precache@CMP5N@@UAEXXZ    10075490 f   wpn_mp5navy.obj
 0001:00074510       ?PrimaryAttack@CMP5N@@UAEXXZ 10075510 f   wpn_mp5navy.obj
 0001:00074570       ?Reload@CMP5N@@UAEXXZ      10075570 f   wpn_mp5navy.obj
 0001:000745c0       ?Spawn@CMP5N@@UAEXXZ       100755c0 f   wpn_mp5navy.obj
 0001:00074630       _weapon_mp5navy            10075630 f   wpn_mp5navy.obj
 0001:00074640       ??$GetClassPtr@VCP228@@@@YAPAVCP228@@PAV0@@Z 10075640 f i wpn_p228.obj
 0001:000746c0       ?Deploy@CP228@@UAEHXZ      100756c0 f   wpn_p228.obj
 0001:00074750       ?GetItemInfo@CP228@@UAEHPAUItemInfo@@@Z 10075750 f   wpn_p228.obj
 0001:000747d0       ?GetMaxSpeed@CP228@@UAEMXZ 100757d0 f i wpn_p228.obj
 0001:000747d0       ?GetMaxSpeed@CDEAGLE@@UAEMXZ 100757d0 f i wpn_deagle.obj
 0001:000747d0       ?GetMaxSpeed@CHEGrenade@@UAEMXZ 100757d0 f i wpn_hegrenade.obj
 0001:000747d0       ?GetMaxSpeed@CFlashbang@@UAEMXZ 100757d0 f i wpn_flashbang.obj
 0001:000747d0       ?GetMaxSpeed@CGLOCK18@@UAEMXZ 100757d0 f i wpn_glock18.obj
 0001:000747d0       ?GetMaxSpeed@CFiveSeven@@UAEMXZ 100757d0 f i wpn_fiveseven.obj
 0001:000747d0       ?GetMaxSpeed@CSmokeGrenade@@UAEMXZ 100757d0 f i wpn_smokegrenade.obj
 0001:000747d0       ?GetMaxSpeed@CKnife@@UAEMXZ 100757d0 f i wpn_knife.obj
 0001:000747f0       ?P228Fire@CP228@@AAEXMMH@Z 100757f0 f   wpn_p228.obj
 0001:00074b40       ?Precache@CP228@@UAEXXZ    10075b40 f   wpn_p228.obj
 0001:00074bd0       ?PrimaryAttack@CP228@@UAEXXZ 10075bd0 f   wpn_p228.obj
 0001:00074ca0       ?Reload@CP228@@UAEXXZ      10075ca0 f   wpn_p228.obj
 0001:00074cf0       ?SecondaryAttack@CFiveSeven@@UAEXXZ 10075cf0 f   wpn_fiveseven.obj
 0001:00074cf0       ?SecondaryAttack@CDEAGLE@@UAEXXZ 10075cf0 f   wpn_deagle.obj
 0001:00074cf0       ?SecondaryAttack@CP228@@UAEXXZ 10075cf0 f   wpn_p228.obj
 0001:00074d00       ?Spawn@CP228@@UAEXXZ       10075d00 f   wpn_p228.obj
 0001:00074d70       _weapon_p228               10075d70 f   wpn_p228.obj
 0001:00074d80       ??$GetClassPtr@VCP90@@@@YAPAVCP90@@PAV0@@Z 10075d80 f i wpn_p90.obj
 0001:00074e00       ?Deploy@CP90@@UAEHXZ       10075e00 f   wpn_p90.obj
 0001:00074e50       ?GetItemInfo@CP90@@UAEHPAUItemInfo@@@Z 10075e50 f   wpn_p90.obj
 0001:00074ed0       ?GetMaxSpeed@CP90@@UAEMXZ  10075ed0 f i wpn_p90.obj
 0001:00074ee0       ?P90Fire@CP90@@AAEXMMH@Z   10075ee0 f   wpn_p90.obj
 0001:00075300       ?Precache@CP90@@UAEXXZ     10076300 f   wpn_p90.obj
 0001:00075380       ?PrimaryAttack@CP90@@UAEXXZ 10076380 f   wpn_p90.obj
 0001:00075420       ?Reload@CP90@@UAEXXZ       10076420 f   wpn_p90.obj
 0001:00075470       ?Spawn@CP90@@UAEXXZ        10076470 f   wpn_p90.obj
 0001:000754e0       _weapon_p90                100764e0 f   wpn_p90.obj
 0001:000754f0       ??$GetClassPtr@VCSCOUT@@@@YAPAVCSCOUT@@PAV0@@Z 100764f0 f i wpn_scout.obj
 0001:00075570       ?Deploy@CSCOUT@@UAEHXZ     10076570 f   wpn_scout.obj
 0001:000755f0       ?GetItemInfo@CSCOUT@@UAEHPAUItemInfo@@@Z 100765f0 f   wpn_scout.obj
 0001:00075670       ?GetMaxSpeed@CSCOUT@@UAEMXZ 10076670 f   wpn_scout.obj
 0001:00075690       ?Precache@CSCOUT@@UAEXXZ   10076690 f   wpn_scout.obj
 0001:00075710       ?PrimaryAttack@CSCOUT@@UAEXXZ 10076710 f   wpn_scout.obj
 0001:000757d0       ?Reload@CSCOUT@@UAEXXZ     100767d0 f   wpn_scout.obj
 0001:00075850       ?SCOUTFire@CSCOUT@@AAEXMMH@Z 10076850 f   wpn_scout.obj
 0001:00075b30       ?SecondaryAttack@CSCOUT@@UAEXXZ 10076b30 f   wpn_scout.obj
 0001:00075c00       ?Spawn@CSCOUT@@UAEXXZ      10076c00 f   wpn_scout.obj
 0001:00075c50       _weapon_scout              10076c50 f   wpn_scout.obj
 0001:00075c60       ??$GetClassPtr@VCSG550@@@@YAPAVCSG550@@PAV0@@Z 10076c60 f i wpn_sg550.obj
 0001:00075ce0       ?Deploy@CSG550@@UAEHXZ     10076ce0 f   wpn_sg550.obj
 0001:00075d20       ?GetItemInfo@CSG550@@UAEHPAUItemInfo@@@Z 10076d20 f   wpn_sg550.obj
 0001:00075da0       ?GetMaxSpeed@CAWP@@UAEMXZ  10076da0 f   wpn_awp.obj
 0001:00075da0       ?GetMaxSpeed@CSG550@@UAEMXZ 10076da0 f   wpn_sg550.obj
 0001:00075da0       ?GetMaxSpeed@CG3SG1@@UAEMXZ 10076da0 f   wpn_g3sg1.obj
 0001:00075dc0       ?Precache@CSG550@@UAEXXZ   10076dc0 f   wpn_sg550.obj
 0001:00075e40       ?PrimaryAttack@CSG550@@UAEXXZ 10076e40 f   wpn_sg550.obj
 0001:00075f20       ?Reload@CSG550@@UAEXXZ     10076f20 f   wpn_sg550.obj
 0001:00075fb0       ?SG550Fire@CSG550@@AAEXMMH@Z 10076fb0 f   wpn_sg550.obj
 0001:00076310       ?SecondaryAttack@CSG550@@UAEXXZ 10077310 f   wpn_sg550.obj
 0001:00076310       ?SecondaryAttack@CG3SG1@@UAEXXZ 10077310 f   wpn_g3sg1.obj
 0001:000763d0       ?Spawn@CSG550@@UAEXXZ      100773d0 f   wpn_sg550.obj
 0001:00076420       _weapon_sg550              10077420 f   wpn_sg550.obj
 0001:00076430       ??$GetClassPtr@VCSG552@@@@YAPAVCSG552@@PAV0@@Z 10077430 f i wpn_sg552.obj
 0001:000764b0       ?Deploy@CSG552@@UAEHXZ     100774b0 f   wpn_sg552.obj
 0001:00076500       ?GetItemInfo@CSG552@@UAEHPAUItemInfo@@@Z 10077500 f   wpn_sg552.obj
 0001:00076580       ?GetMaxSpeed@CSG552@@UAEMXZ 10077580 f   wpn_sg552.obj
 0001:000765a0       ?Precache@CSG552@@UAEXXZ   100775a0 f   wpn_sg552.obj
 0001:00076620       ?PrimaryAttack@CSG552@@UAEXXZ 10077620 f   wpn_sg552.obj
 0001:00076730       ?Reload@CSG552@@UAEXXZ     10077730 f   wpn_sg552.obj
 0001:000767a0       ?SG552Fire@CSG552@@QAEXMMH@Z 100777a0 f   wpn_sg552.obj
 0001:00076bc0       ?SecondaryAttack@CSG552@@UAEXXZ 10077bc0 f   wpn_sg552.obj
 0001:00076bc0       ?SecondaryAttack@CAUG@@UAEXXZ 10077bc0 f   wpn_aug.obj
 0001:00076c40       ?Spawn@CSG552@@UAEXXZ      10077c40 f   wpn_sg552.obj
 0001:00076cb0       _weapon_sg552              10077cb0 f   wpn_sg552.obj
 0001:00076cc0       ??$GetClassPtr@VCSmokeGrenade@@@@YAPAVCSmokeGrenade@@PAV0@@Z 10077cc0 f i wpn_smokegrenade.obj
 0001:00076d40       ?Deploy@CSmokeGrenade@@UAEHXZ 10077d40 f   wpn_smokegrenade.obj
 0001:00076dd0       ?GetItemInfo@CSmokeGrenade@@UAEHPAUItemInfo@@@Z 10077dd0 f   wpn_smokegrenade.obj
 0001:00076e50       ?Holster@CSmokeGrenade@@UAEXH@Z 10077e50 f   wpn_smokegrenade.obj
 0001:00076ec0       ?Precache@CSmokeGrenade@@UAEXXZ 10077ec0 f   wpn_smokegrenade.obj
 0001:00076f10       ?SecondaryAttack@CHEGrenade@@UAEXXZ 10077f10 f   wpn_hegrenade.obj
 0001:00076f10       ?SecondaryAttack@CSmokeGrenade@@UAEXXZ 10077f10 f   wpn_smokegrenade.obj
 0001:00076f10       ?SecondaryAttack@CFlashbang@@UAEXXZ 10077f10 f   wpn_flashbang.obj
 0001:00076f20       ?ShieldSecondaryFire@CSmokeGrenade@@QAE_NHH@Z 10077f20 f   wpn_smokegrenade.obj
 0001:00076f20       ?ShieldSecondaryFire@CFlashbang@@QAE_NHH@Z 10077f20 f   wpn_flashbang.obj
 0001:00076f20       ?ShieldSecondaryFire@CHEGrenade@@QAE_NHH@Z 10077f20 f   wpn_hegrenade.obj
 0001:00077080       ?Spawn@CSmokeGrenade@@UAEXXZ 10078080 f   wpn_smokegrenade.obj
 0001:00077100       ?WeaponIdle@CSmokeGrenade@@UAEXXZ 10078100 f   wpn_smokegrenade.obj
 0001:00077530       ?Classify@CDeadHEV@@UAEHXZ 10078530 f i player.obj
 0001:00077530       ?iItemSlot@CHEGrenade@@UAEHXZ 10078530 f i wpn_hegrenade.obj
 0001:00077530       ?iItemSlot@CSmokeGrenade@@UAEHXZ 10078530 f i wpn_smokegrenade.obj
 0001:00077530       ?iItemSlot@CFlashbang@@UAEHXZ 10078530 f i wpn_flashbang.obj
 0001:00077540       _weapon_smokegrenade       10078540 f   wpn_smokegrenade.obj
 0001:00077550       ??$GetClassPtr@VCTMP@@@@YAPAVCTMP@@PAV0@@Z 10078550 f i wpn_tmp.obj
 0001:000775d0       ?Deploy@CTMP@@UAEHXZ       100785d0 f   wpn_tmp.obj
 0001:00077630       ?GetItemInfo@CTMP@@UAEHPAUItemInfo@@@Z 10078630 f   wpn_tmp.obj
 0001:000776b0       ?GetMaxSpeed@CC4@@UAEMXZ   100786b0 f i wpn_c4.obj
 0001:000776b0       ?GetMaxSpeed@CUSP@@UAEMXZ  100786b0 f i wpn_usp.obj
 0001:000776b0       ?GetMaxSpeed@CELITE@@UAEMXZ 100786b0 f i wpn_elite.obj
 0001:000776b0       ?GetMaxSpeed@CMAC10@@UAEMXZ 100786b0 f i wpn_mac10.obj
 0001:000776b0       ?GetMaxSpeed@CTMP@@UAEMXZ  100786b0 f i wpn_tmp.obj
 0001:000776b0       ?GetMaxSpeed@CUMP45@@UAEMXZ 100786b0 f i wpn_ump45.obj
 0001:000776b0       ?GetMaxSpeed@CMP5N@@UAEMXZ 100786b0 f i wpn_mp5navy.obj
 0001:000776c0       ?Precache@CTMP@@UAEXXZ     100786c0 f   wpn_tmp.obj
 0001:00077720       ?PrimaryAttack@CTMP@@UAEXXZ 10078720 f   wpn_tmp.obj
 0001:00077780       ?Reload@CTMP@@UAEXXZ       10078780 f   wpn_tmp.obj
 0001:000777d0       ?Spawn@CTMP@@UAEXXZ        100787d0 f   wpn_tmp.obj
 0001:00077840       ?TMPFire@CTMP@@AAEXMMH@Z   10078840 f   wpn_tmp.obj
 0001:00077c50       _weapon_tmp                10078c50 f   wpn_tmp.obj
 0001:00077c60       ??$GetClassPtr@VCUMP45@@@@YAPAVCUMP45@@PAV0@@Z 10078c60 f i wpn_ump45.obj
 0001:00077ce0       ?Deploy@CUMP45@@UAEHXZ     10078ce0 f   wpn_ump45.obj
 0001:00077d30       ?GetItemInfo@CUMP45@@UAEHPAUItemInfo@@@Z 10078d30 f   wpn_ump45.obj
 0001:00077db0       ?Precache@CUMP45@@UAEXXZ   10078db0 f   wpn_ump45.obj
 0001:00077e20       ?PrimaryAttack@CUMP45@@UAEXXZ 10078e20 f   wpn_ump45.obj
 0001:00077e80       ?Reload@CUMP45@@UAEXXZ     10078e80 f   wpn_ump45.obj
 0001:00077ed0       ?Spawn@CUMP45@@UAEXXZ      10078ed0 f   wpn_ump45.obj
 0001:00077f40       ?UMP45Fire@CUMP45@@AAEXMMH@Z 10078f40 f   wpn_ump45.obj
 0001:00078350       ?WeaponIdle@CGalil@@UAEXXZ 10079350 f   wpn_galil.obj
 0001:00078350       ?WeaponIdle@CMAC10@@UAEXXZ 10079350 f   wpn_mac10.obj
 0001:00078350       ?WeaponIdle@CAK47@@UAEXXZ  10079350 f   wpn_ak47.obj
 0001:00078350       ?WeaponIdle@CAUG@@UAEXXZ   10079350 f   wpn_aug.obj
 0001:00078350       ?WeaponIdle@CUMP45@@UAEXXZ 10079350 f   wpn_ump45.obj
 0001:00078350       ?WeaponIdle@CP90@@UAEXXZ   10079350 f   wpn_p90.obj
 0001:00078350       ?WeaponIdle@CSG552@@UAEXXZ 10079350 f   wpn_sg552.obj
 0001:00078350       ?WeaponIdle@CFamas@@UAEXXZ 10079350 f   wpn_famas.obj
 0001:00078350       ?WeaponIdle@CTMP@@UAEXXZ   10079350 f   wpn_tmp.obj
 0001:00078350       ?WeaponIdle@CMP5N@@UAEXXZ  10079350 f   wpn_mp5navy.obj
 0001:00078350       ?WeaponIdle@CM249@@UAEXXZ  10079350 f   wpn_m249.obj
 0001:000783d0       _weapon_ump45              100793d0 f   wpn_ump45.obj
 0001:000783e0       ??$GetClassPtr@VCUSP@@@@YAPAVCUSP@@PAV0@@Z 100793e0 f i wpn_usp.obj
 0001:00078460       ?Deploy@CUSP@@UAEHXZ       10079460 f   wpn_usp.obj
 0001:00078500       ?GetItemInfo@CUSP@@UAEHPAUItemInfo@@@Z 10079500 f   wpn_usp.obj
 0001:00078580       ?Precache@CUSP@@UAEXXZ     10079580 f   wpn_usp.obj
 0001:00078640       ?PrimaryAttack@CUSP@@UAEXXZ 10079640 f   wpn_usp.obj
 0001:000787e0       ?Reload@CUSP@@UAEXXZ       100797e0 f   wpn_usp.obj
 0001:00078850       ?SecondaryAttack@CUSP@@UAEXXZ 10079850 f   wpn_usp.obj
 0001:00078910       ?Spawn@CUSP@@UAEXXZ        10079910 f   wpn_usp.obj
 0001:00078980       ?USPFire@CUSP@@AAEXMMH@Z   10079980 f   wpn_usp.obj
 0001:00078ca0       ?WeaponIdle@CUSP@@UAEXXZ   10079ca0 f   wpn_usp.obj
 0001:00078da0       ?iItemSlot@CGLOCK18@@UAEHXZ 10079da0 f i wpn_glock18.obj
 0001:00078da0       ?iItemSlot@CP228@@UAEHXZ   10079da0 f i wpn_p228.obj
 0001:00078da0       ?Classify@CBasePlayer@@UAEHXZ 10079da0 f i player.obj
 0001:00078da0       ?iItemSlot@CFiveSeven@@UAEHXZ 10079da0 f i wpn_fiveseven.obj
 0001:00078da0       ?iItemSlot@CUSP@@UAEHXZ    10079da0 f i wpn_usp.obj
 0001:00078da0       ?iItemSlot@CDEAGLE@@UAEHXZ 10079da0 f i wpn_deagle.obj
 0001:00078da0       ?ObjectCaps@CBaseEntity@@UAEHXZ 10079da0 f i airtank.obj
 0001:00078da0       ?iItemSlot@CELITE@@UAEHXZ  10079da0 f i wpn_elite.obj
 0001:00078db0       _weapon_usp                10079db0 f   wpn_usp.obj
 0001:00078dc0       ??$GetClassPtr@VCXM1014@@@@YAPAVCXM1014@@PAV0@@Z 10079dc0 f i wpn_xm1014.obj
 0001:00078e40       ?Deploy@CXM1014@@UAEHXZ    10079e40 f   wpn_xm1014.obj
 0001:00078e70       ?GetItemInfo@CXM1014@@UAEHPAUItemInfo@@@Z 10079e70 f   wpn_xm1014.obj
 0001:00078ef0       ?GetMaxSpeed@CAUG@@UAEMXZ  10079ef0 f i wpn_aug.obj
 0001:00078ef0       ?GetMaxSpeed@CGalil@@UAEMXZ 10079ef0 f i wpn_galil.obj
 0001:00078ef0       ?GetMaxSpeed@CXM1014@@UAEMXZ 10079ef0 f i wpn_xm1014.obj
 0001:00078ef0       ?GetMaxSpeed@CFamas@@UAEMXZ 10079ef0 f i wpn_famas.obj
 0001:00078f00       ?Precache@CXM1014@@UAEXXZ  10079f00 f   wpn_xm1014.obj
 0001:00078f70       ?PrimaryAttack@CXM1014@@UAEXXZ 10079f70 f   wpn_xm1014.obj
 0001:00079270       ?Reload@CXM1014@@UAEXXZ    1007a270 f   wpn_xm1014.obj
 0001:00079470       ?Spawn@CXM1014@@UAEXXZ     1007a470 f   wpn_xm1014.obj
 0001:000794b0       ?WeaponIdle@CXM1014@@UAEXXZ 1007a4b0 f   wpn_xm1014.obj
 0001:00079600       _weapon_xm1014             1007a600 f   wpn_xm1014.obj
 0001:00079605       ??3@YAXPAXI@Z              1007a605 f   LIBCMT:delete_scalar_size.obj
 0001:00079620       __chkstk                   1007a620 f   LIBCMT:chkstk.obj
 0001:00079620       __alloca_probe             1007a620 f   LIBCMT:chkstk.obj
 0001:0007964d       ??_Gtype_info@@UAEPAXI@Z   1007a64d f i LIBCMT:std_type_info_static.obj
 0001:0007964d       ??_Etype_info@@UAEPAXI@Z   1007a64d f i LIBCMT:std_type_info_static.obj
 0001:000796b4       ___scrt_acquire_startup_lock 1007a6b4 f   LIBCMT:utility.obj
 0001:000796e9       ___scrt_dllmain_after_initialize_c 1007a6e9 f   LIBCMT:utility.obj
 0001:00079714       ___scrt_dllmain_before_initialize_c 1007a714 f   LIBCMT:utility.obj
 0001:00079722       ___scrt_dllmain_crt_thread_attach 1007a722 f   LIBCMT:utility.obj
 0001:00079741       ___scrt_dllmain_crt_thread_detach 1007a741 f   LIBCMT:utility.obj
 0001:0007974e       ___scrt_dllmain_exception_filter 1007a74e f   LIBCMT:utility.obj
 0001:00079781       ___scrt_dllmain_uninitialize_c 1007a781 f   LIBCMT:utility.obj
 0001:000797a4       ___scrt_dllmain_uninitialize_critical 1007a7a4 f   LIBCMT:utility.obj
 0001:000797b1       ___scrt_initialize_crt     1007a7b1 f   LIBCMT:utility.obj
 0001:000797ea       ___scrt_initialize_onexit_tables 1007a7ea f   LIBCMT:utility.obj
 0001:00079894       ___scrt_is_nonwritable_in_current_image 1007a894 f   LIBCMT:utility.obj
 0001:0007991e       ___scrt_release_startup_lock 1007a91e f   LIBCMT:utility.obj
 0001:0007993b       ___scrt_uninitialize_crt   1007a93b f   LIBCMT:utility.obj
 0001:00079963       __onexit                   1007a963 f   LIBCMT:utility.obj
 0001:0007999e       _atexit                    1007a99e f   LIBCMT:utility.obj
 0001:000799b3       ??2@YAPAXI@Z               1007a9b3 f   LIBCMT:new_scalar.obj
 0001:000799f0       __ftol2_sse                1007a9f0 f   LIBCMT:_ftol2_.obj
 0001:000799f9       __ftol2_pentium4           1007a9f9 f   LIBCMT:_ftol2_.obj
 0001:00079a0c       __ftol2_sse_excpt          1007aa0c f   LIBCMT:_ftol2_.obj
 0001:00079a30       __ftol2                    1007aa30 f   LIBCMT:_ftol2_.obj
 0001:00079aa5       ??_U@YAPAXI@Z              1007aaa5 f   LIBCMT:new_array.obj
 0001:00079aae       ??_V@YAXPAX@Z              1007aaae f   LIBCMT:delete_array.obj
 0001:00079dad       __DllMainCRTStartup@12     1007adad f   LIBCMT:dll_dllmain.obj
 0001:00079dd0       ??3@YAXPAX@Z               1007add0 f   LIBCMT:delete_scalar.obj
 0001:00079dd5       ___isa_available_init      1007add5 f   LIBCMT:_cpu_disp_.obj
 0001:00079f74       __get_startup_argv_mode    1007af74 f   LIBCMT:argv_mode.obj
 0001:00079f78       ___scrt_is_ucrt_dll_in_use 1007af78 f   LIBCMT:ucrt_detection.obj
 0001:00079f84       ___scrt_fastfail           1007af84 f   LIBCMT:utility_desktop.obj
 0001:0007a0a0       __crt_debugger_hook        1007b0a0 f   LIBCMT:utility_desktop.obj
 0001:0007a0a8       @_guard_check_icall@4      1007b0a8 f i LIBCMT:checkcfg.obj
 0001:0007a0b0       __SEH_prolog4              1007b0b0 f   LIBCMT:_sehprolg4_.obj
 0001:0007a0f6       __SEH_epilog4              1007b0f6 f   LIBCMT:_sehprolg4_.obj
 0001:0007a10b       ??0bad_alloc@std@@QAE@ABV01@@Z 1007b10b f i LIBCMT:throw_bad_alloc.obj
 0001:0007a126       ??0bad_alloc@std@@QAE@XZ   1007b126 f i LIBCMT:throw_bad_alloc.obj
 0001:0007a13e       ??0bad_array_new_length@std@@QAE@ABV01@@Z 1007b13e f i LIBCMT:throw_bad_alloc.obj
 0001:0007a159       ??0bad_array_new_length@std@@QAE@XZ 1007b159 f i LIBCMT:throw_bad_alloc.obj
 0001:0007a171       ??0exception@std@@QAE@ABV01@@Z 1007b171 f i LIBCMT:throw_bad_alloc.obj
 0001:0007a19d       ??1bad_exception@std@@UAE@XZ 1007b19d f i libvcruntime:frame.obj
 0001:0007a19d       ??1bad_alloc@std@@UAE@XZ   1007b19d f i LIBCMT:throw_bad_alloc.obj
 0001:0007a19d       ??1bad_array_new_length@std@@UAE@XZ 1007b19d f i LIBCMT:throw_bad_alloc.obj
 0001:0007a1ae       ??_Gbad_exception@std@@UAEPAXI@Z 1007b1ae f i libvcruntime:frame.obj
 0001:0007a1ae       ??_Gexception@std@@UAEPAXI@Z 1007b1ae f i LIBCMT:throw_bad_alloc.obj
 0001:0007a1ae       ??_Gbad_array_new_length@std@@UAEPAXI@Z 1007b1ae f i LIBCMT:throw_bad_alloc.obj
 0001:0007a1ae       ??_Eexception@std@@UAEPAXI@Z 1007b1ae f i LIBCMT:throw_bad_alloc.obj
 0001:0007a1ae       ??_Ebad_alloc@std@@UAEPAXI@Z 1007b1ae f i LIBCMT:throw_bad_alloc.obj
 0001:0007a1ae       ??_Ebad_array_new_length@std@@UAEPAXI@Z 1007b1ae f i LIBCMT:throw_bad_alloc.obj
 0001:0007a1ae       ??_Ebad_exception@std@@UAEPAXI@Z 1007b1ae f i libvcruntime:frame.obj
 0001:0007a1ae       ??_Gbad_alloc@std@@UAEPAXI@Z 1007b1ae f i LIBCMT:throw_bad_alloc.obj
 0001:0007a1db       ?__scrt_throw_std_bad_alloc@@YAXXZ 1007b1db f   LIBCMT:throw_bad_alloc.obj
 0001:0007a1f8       ?__scrt_throw_std_bad_array_new_length@@YAXXZ 1007b1f8 f   LIBCMT:throw_bad_alloc.obj
 0001:0007a215       ?what@exception@std@@UBEPBDXZ 1007b215 f i LIBCMT:throw_bad_alloc.obj
 0001:0007a271       ___security_init_cookie    1007b271 f   LIBCMT:gs_support.obj
 0001:0007a2c4       ?__scrt_initialize_type_info@@YAXXZ 1007b2c4 f   LIBCMT:tncleanup.obj
 0001:0007a2d0       ?__scrt_uninitialize_type_info@@YAXXZ 1007b2d0 f   LIBCMT:tncleanup.obj
 0001:0007a2dc       ___scrt_initialize_default_local_stdio_options 1007b2dc f   LIBCMT:default_local_stdio_options.obj
 0001:0007a2f9       ___scrt_get_dyn_tls_init_callback 1007b2f9 f   LIBCMT:dyn_tls_init.obj
 0001:0007a2ff       __RTC_Initialize           1007b2ff f   LIBCMT:_initsect_.obj
 0001:0007a32a       __RTC_Terminate            1007b32a f   LIBCMT:_initsect_.obj
 0001:0007a355       @__security_check_cookie@4 1007b355 f   LIBCMT:_secchk_.obj
 0001:0007a366       ___raise_securityfailure   1007b366 f   LIBCMT:gs_report.obj
 0001:0007a38e       ___report_gsfailure        1007b38e f   LIBCMT:gs_report.obj
 0001:0007a490       _memset                    1007b490 f   libvcruntime:memset.obj
 0001:0007a5f0       _memmove                   1007b5f0 f   libvcruntime:memmove.obj
 0001:0007ab64       ?_CallCatchBlock2@@YAPAXPAUEHRegistrationNode@@PBU_s_FuncInfo@@PAXHK@Z 1007bb64 f   libvcruntime:trnsctrl.obj
 0001:0007abc4       ?_CallSETranslator@@YAHPAUEHExceptionRecord@@PAUEHRegistrationNode@@PAX2PBU_s_FuncInfo@@H1@Z 1007bbc4 f   libvcruntime:trnsctrl.obj
 0001:0007aca1       ?_GetRangeOfTrysToCheck@@YAPBU_s_TryBlockMapEntry@@PBU_s_FuncInfo@@HHPAI1@Z 1007bca1 f   libvcruntime:trnsctrl.obj
 0001:0007ad19       ?_JumpToContinuation@@YGXPAXPAUEHRegistrationNode@@@Z 1007bd19 f   libvcruntime:trnsctrl.obj
 0001:0007ad4b       ?_UnwindNestedFrames@@YGXPAUEHRegistrationNode@@PAUEHExceptionRecord@@@Z 1007bd4b f   libvcruntime:trnsctrl.obj
 0001:0007ada0       __CatchGuardHandler        1007bda0 f   libvcruntime:trnsctrl.obj
 0001:0007add1       __CreateFrameInfo          1007bdd1 f   libvcruntime:trnsctrl.obj
 0001:0007adf5       __FindAndUnlinkFrame       1007bdf5 f   libvcruntime:trnsctrl.obj
 0001:0007ae3f       __TranslatorGuardHandler   1007be3f f   libvcruntime:trnsctrl.obj
 0001:0007aede       ___CxxFrameHandler3        1007bede f   libvcruntime:trnsctrl.obj
 0001:0007af20       _strstr                    1007bf20 f   libvcruntime:strstr.obj
 0001:0007b183       __get_purecall_handler     1007c183 f   libvcruntime:purevirt.obj
 0001:0007b198       __purecall                 1007c198 f   libvcruntime:purevirt.obj
 0001:0007b1c0       _memcpy                    1007c1c0 f   libvcruntime:memcpy.obj
 0001:0007b734       ___vcrt_initialize         1007c734 f   libvcruntime:initialization.obj
 0001:0007b75d       ___vcrt_thread_attach      1007c75d f   libvcruntime:initialization.obj
 0001:0007b768       ___vcrt_thread_detach      1007c768 f   libvcruntime:initialization.obj
 0001:0007b773       ___vcrt_uninitialize       1007c773 f   libvcruntime:initialization.obj
 0001:0007b792       ___vcrt_uninitialize_critical 1007c792 f   libvcruntime:initialization.obj
 0001:0007b7e0       __except_handler4          1007c7e0 f   libvcruntime:_chandler4_.obj
 0001:0007b946       ___std_exception_copy      1007c946 f   libvcruntime:std_exception.obj
 0001:0007b9a9       ___std_exception_destroy   1007c9a9 f   libvcruntime:std_exception.obj
 0001:0007b9c8       __CxxThrowException@8      1007c9c8 f   libvcruntime:throw.obj
 0001:0007ba36       ___std_type_info_compare   1007ca36 f   libvcruntime:std_type_info.obj
 0001:0007ba72       ___std_type_info_destroy_list 1007ca72 f   libvcruntime:std_type_info.obj
 0001:0007ba95       ___vcrt_freefls@4          1007ca95 f   libvcruntime:per_thread_data.obj
 0001:0007bab1       ___vcrt_freeptd            1007cab1 f   libvcruntime:per_thread_data.obj
 0001:0007bae7       ___vcrt_getptd             1007cae7 f   libvcruntime:per_thread_data.obj
 0001:0007baf5       ___vcrt_getptd_noexit      1007caf5 f   libvcruntime:per_thread_data.obj
 0001:0007bb87       ___vcrt_initialize_ptd     1007cb87 f   libvcruntime:per_thread_data.obj
 0001:0007bbba       ___vcrt_uninitialize_ptd   1007cbba f   libvcruntime:per_thread_data.obj
 0001:0007bbe0       __CallSettingFrame@12      1007cbe0 f   libvcruntime:lowhelpr.obj
 0001:0007bc07       __NLG_Return               1007cc07     libvcruntime:lowhelpr.obj
 0001:0007bc2c       ??0bad_exception@std@@QAE@ABV01@@Z 1007cc2c f i libvcruntime:frame.obj
 0001:0007bc47       ??0bad_exception@std@@QAE@XZ 1007cc47 f i libvcruntime:frame.obj
 0001:0007bc5f       ??8type_info@@QBE_NABV0@@Z 1007cc5f f i libvcruntime:frame.obj
 0001:0007c476       ?_CallMemberFunction1@@YGXQAX00@Z 1007d476 f i libvcruntime:frame.obj
 0001:0007c486       ?_CallMemberFunction2@@YGXQAX00H@Z 1007d486 f i libvcruntime:frame.obj
 0001:0007c499       ___BuildCatchObject        1007d499 f   libvcruntime:frame.obj
 0001:0007c528       ___BuildCatchObjectHelper  1007d528 f   libvcruntime:frame.obj
 0001:0007c656       ___FrameUnwindToState      1007d656 f   libvcruntime:frame.obj
 0001:0007c71e       ___InternalCxxFrameHandler 1007d71e f   libvcruntime:frame.obj
 0001:0007c81a       ___TypeMatch               1007d81a f   libvcruntime:frame.obj
 0001:0007c8a8       ___except_validate_context_record 1007d8a8 f   libvcruntime:jbcxrval.obj
 0001:0007c8d8       ___except_validate_jump_buffer 1007d8d8 f   libvcruntime:jbcxrval.obj
 0001:0007c910       _strchr                    1007d910 f   libvcruntime:strchr.obj
 0001:0007c97e       ___from_strstr_to_strchr   1007d97e     libvcruntime:strchr.obj
 0001:0007ca3b       ___vcrt_initialize_pure_virtual_call_handler 1007da3b f   libvcruntime:purevirt_data.obj
 0001:0007ca58       ___vcrt_initialize_locks   1007da58 f   libvcruntime:locks.obj
 0001:0007ca94       ___vcrt_uninitialize_locks 1007da94 f   libvcruntime:locks.obj
 0001:0007cac3       ??$__crt_fast_encode_pointer@PAX@@YAPAXQAX@Z 1007dac3 f i libvcruntime:winapi_downlevel.obj
 0001:0007cac3       ??$__crt_fast_encode_pointer@PAP6AXXZ@@YAPAP6AXXZQAP6AXXZ@Z 1007dac3 f i LIBCMT:utility.obj
 0001:0007cc26       ___vcrt_FlsAlloc           1007dc26 f   libvcruntime:winapi_downlevel.obj
 0001:0007cc60       ___vcrt_FlsFree            1007dc60 f   libvcruntime:winapi_downlevel.obj
 0001:0007cc9a       ___vcrt_FlsGetValue        1007dc9a f   libvcruntime:winapi_downlevel.obj
 0001:0007ccd4       ___vcrt_FlsSetValue        1007dcd4 f   libvcruntime:winapi_downlevel.obj
 0001:0007cd11       ___vcrt_InitializeCriticalSectionEx 1007dd11 f   libvcruntime:winapi_downlevel.obj
 0001:0007cd57       ___vcrt_initialize_winapi_thunks 1007dd57 f   libvcruntime:winapi_downlevel.obj
 0001:0007cd91       ___vcrt_uninitialize_winapi_thunks 1007dd91 f   libvcruntime:winapi_downlevel.obj
 0001:0007cdd0       __local_unwind4            1007ddd0 f   libvcruntime:_exsup4_.obj
 0001:0007cea8       __seh_longjmp_unwind4@4    1007dea8 f   libvcruntime:_exsup4_.obj
 0001:0007ced0       @_EH4_CallFilterFunc@8     1007ded0 f   libvcruntime:_exsup4_.obj
 0001:0007cee8       @_EH4_TransferToHandler@8  1007dee8 f   libvcruntime:_exsup4_.obj
 0001:0007cf04       @_EH4_GlobalUnwind2@8      1007df04 f   libvcruntime:_exsup4_.obj
 0001:0007cf20       @_EH4_LocalUnwind@16       1007df20 f   libvcruntime:_exsup4_.obj
 0001:0007cf40       __global_unwind2           1007df40 f   libvcruntime:_exsup_.obj
 0001:0007cfa6       __local_unwind2            1007dfa6 f   libvcruntime:_exsup_.obj
 0001:0007d02a       __abnormal_termination     1007e02a f   libvcruntime:_exsup_.obj
 0001:0007d050       __NLG_Notify1              1007e050 f   libvcruntime:_exsup_.obj
 0001:0007d05c       __NLG_Notify               1007e05c f   libvcruntime:_exsup_.obj
 0001:0007d073       __NLG_Dispatch2            1007e073     libvcruntime:_exsup_.obj
 0001:0007d073       __NLG_Dispatch             1007e073     libvcruntime:_exsup_.obj
 0001:0007d07b       __NLG_Call                 1007e07b f   libvcruntime:_exsup_.obj
 0001:0007d07d       __NLG_Return2              1007e07d     libvcruntime:_exsup_.obj
 0001:0007d07e       _unexpected                1007e07e f   libvcruntime:unexpected.obj
 0001:0007d09a       ___DestructExceptionObject 1007e09a f   libvcruntime:ehhelpers.obj
 0001:0007d12e       ?_CallMemberFunction0@@YGXQAX0@Z 1007e12e f i libvcruntime:ehhelpers.obj
 0001:0007d13b       __IsExceptionObjectToBeDestroyed 1007e13b f   libvcruntime:ehhelpers.obj
 0001:0007d161       ___AdjustPointer           1007e161 f   libvcruntime:ehhelpers.obj
 0001:0007d186       ___FrameUnwindFilter       1007e186 f   libvcruntime:ehhelpers.obj
 0001:0007d347       ??$count@D@formatting_buffer@__crt_stdio_output@@QBEIXZ 1007e347 f i libucrt:output.obj
 0001:0007d35f       ??$ensure_buffer_is_big_enough@D@formatting_buffer@__crt_stdio_output@@QAE_NI@Z 1007e35f f i libucrt:output.obj
 0001:0007d3e5       ??$is_wide_character_specifier@D@__crt_stdio_output@@YA_N_KDW4length_modifier@0@@Z 1007e3e5 f i libucrt:output.obj
 0001:0007d425       ??$scratch_data@D@formatting_buffer@__crt_stdio_output@@QAEPADXZ 1007e425 f i libucrt:output.obj
 0001:0007d443       ??$type_case_integer_parse_into_buffer@I@?$output_processor@DV?$string_output_adapter@D@__crt_stdio_output@@V?$standard_base@DV?$string_output_adapter@D@__crt_stdio_output@@@2@@__crt_stdio_output@@AAEXII_N@Z 1007e443 f i libucrt:output.obj
 0001:0007d4b8       ??$type_case_integer_parse_into_buffer@_K@?$output_processor@DV?$string_output_adapter@D@__crt_stdio_output@@V?$standard_base@DV?$string_output_adapter@D@__crt_stdio_output@@@2@@__crt_stdio_output@@AAEX_KI_N@Z 1007e4b8 f i libucrt:output.obj
 0001:0007d540       ??$write_multiple_characters@V?$string_output_adapter@D@__crt_stdio_output@@D@__crt_stdio_output@@YAXABV?$string_output_adapter@D@0@DHQAH@Z 1007e540 f i libucrt:output.obj
 0001:0007d56c       ??0?$common_data@D@__crt_stdio_output@@IAE@XZ 1007e56c f i libucrt:output.obj
 0001:0007d5b3       ??0?$output_adapter_data@DV?$string_output_adapter@D@__crt_stdio_output@@@__crt_stdio_output@@IAE@ABV?$string_output_adapter@D@1@_KQBDQAU__crt_locale_pointers@@QAD@Z 1007e5b3 f i libucrt:output.obj
 0001:0007d5ef       ??0?$output_processor@DV?$string_output_adapter@D@__crt_stdio_output@@V?$standard_base@DV?$string_output_adapter@D@__crt_stdio_output@@@2@@__crt_stdio_output@@QAE@ABV?$string_output_adapter@D@1@_KQBDQAU__crt_locale_pointers@@QAD@Z 1007e5ef f i libucrt:output.obj
 0001:0007d624       ??0_LocaleUpdate@@QAE@QAU__crt_locale_pointers@@@Z 1007e624 f i libucrt:output.obj
 0001:0007d6a7       ??1formatting_buffer@__crt_stdio_output@@QAE@XZ 1007e6a7 f i libucrt:output.obj
 0001:0007d6c1       ??4?$__crt_unique_heap_ptr@DU__crt_internal_free_policy@@@@QAEAAV0@$$QAV0@@Z 1007e6c1 f i libucrt:output.obj
 0001:0007d6e5       ?crop_zeroes@__crt_stdio_output@@YAXPADQAU__crt_locale_pointers@@@Z 1007e6e5 f i libucrt:output.obj
 0001:0007d73c       ?find_next_state@?$output_processor@DV?$string_output_adapter@D@__crt_stdio_output@@V?$standard_base@DV?$string_output_adapter@D@__crt_stdio_output@@@2@@__crt_stdio_output@@ABE?AW4state@2@DW432@@Z 1007e73c f i libucrt:output.obj
 0001:0007d76e       ?force_decimal_point@__crt_stdio_output@@YAXPADQAU__crt_locale_pointers@@@Z 1007e76e f i libucrt:output.obj
 0001:0007d7ca       ?parse_int_from_format_string@?$output_processor@DV?$string_output_adapter@D@__crt_stdio_output@@V?$standard_base@DV?$string_output_adapter@D@__crt_stdio_output@@@2@@__crt_stdio_output@@AAE_NQAH@Z 1007e7ca f i libucrt:output.obj
 0001:0007d826       ?process@?$output_processor@DV?$string_output_adapter@D@__crt_stdio_output@@V?$standard_base@DV?$string_output_adapter@D@__crt_stdio_output@@@2@@__crt_stdio_output@@QAEHXZ 1007e826 f i libucrt:output.obj
 0001:0007d942       ?state_case_flag@?$output_processor@DV?$string_output_adapter@D@__crt_stdio_output@@V?$standard_base@DV?$string_output_adapter@D@__crt_stdio_output@@@2@@__crt_stdio_output@@AAE_NXZ 1007e942 f i libucrt:output.obj
 0001:0007d97f       ?state_case_normal@?$output_processor@DV?$string_output_adapter@D@__crt_stdio_output@@V?$standard_base@DV?$string_output_adapter@D@__crt_stdio_output@@@2@@__crt_stdio_output@@AAE_NXZ 1007e97f f i libucrt:output.obj
 0001:0007d99e       ?state_case_normal_common@?$output_processor@DV?$string_output_adapter@D@__crt_stdio_output@@V?$standard_base@DV?$string_output_adapter@D@__crt_stdio_output@@@2@@__crt_stdio_output@@AAE_NXZ 1007e99e f i libucrt:output.obj
 0001:0007d9c8       ?state_case_normal_tchar@?$output_processor@DV?$string_output_adapter@D@__crt_stdio_output@@V?$standard_base@DV?$string_output_adapter@D@__crt_stdio_output@@@2@@__crt_stdio_output@@AAE_ND@Z 1007e9c8 f i libucrt:output.obj
 0001:0007da29       ?state_case_precision@?$output_processor@DV?$string_output_adapter@D@__crt_stdio_output@@V?$standard_base@DV?$string_output_adapter@D@__crt_stdio_output@@@2@@__crt_stdio_output@@AAE_NXZ 1007ea29 f i libucrt:output.obj
 0001:0007da51       ?state_case_size@?$output_processor@DV?$string_output_adapter@D@__crt_stdio_output@@V?$standard_base@DV?$string_output_adapter@D@__crt_stdio_output@@@2@@__crt_stdio_output@@AAE_NXZ 1007ea51 f i libucrt:output.obj
 0001:0007dbba       ?state_case_type@?$output_processor@DV?$string_output_adapter@D@__crt_stdio_output@@V?$standard_base@DV?$string_output_adapter@D@__crt_stdio_output@@@2@@__crt_stdio_output@@AAE_NXZ 1007ebba f i libucrt:output.obj
 0001:0007dde9       ?state_case_width@?$output_processor@DV?$string_output_adapter@D@__crt_stdio_output@@V?$standard_base@DV?$string_output_adapter@D@__crt_stdio_output@@@2@@__crt_stdio_output@@AAE_NXZ 1007ede9 f i libucrt:output.obj
 0001:0007de14       ?to_integer_size@__crt_stdio_output@@YAIW4length_modifier@1@@Z 1007ee14 f i libucrt:output.obj
 0001:0007de70       ?type_case_Z@?$output_processor@DV?$string_output_adapter@D@__crt_stdio_output@@V?$standard_base@DV?$string_output_adapter@D@__crt_stdio_output@@@2@@__crt_stdio_output@@AAE_NXZ 1007ee70 f i libucrt:output.obj
 0001:0007ded3       ?type_case_a@?$output_processor@DV?$string_output_adapter@D@__crt_stdio_output@@V?$standard_base@DV?$string_output_adapter@D@__crt_stdio_output@@@2@@__crt_stdio_output@@AAE_NXZ 1007eed3 f i libucrt:output.obj
 0001:0007e02d       ?type_case_c_tchar@?$output_processor@DV?$string_output_adapter@D@__crt_stdio_output@@V?$standard_base@DV?$string_output_adapter@D@__crt_stdio_output@@@2@@__crt_stdio_output@@AAE_ND@Z 1007f02d f i libucrt:output.obj
 0001:0007e0bd       ?type_case_integer@?$output_processor@DV?$string_output_adapter@D@__crt_stdio_output@@V?$standard_base@DV?$string_output_adapter@D@__crt_stdio_output@@@2@@__crt_stdio_output@@AAE_NI_N@Z 1007f0bd f i libucrt:output.obj
 0001:0007e207       ?type_case_n@?$output_processor@DV?$string_output_adapter@D@__crt_stdio_output@@V?$standard_base@DV?$string_output_adapter@D@__crt_stdio_output@@@2@@__crt_stdio_output@@AAE_NXZ 1007f207 f i libucrt:output.obj
 0001:0007e27b       ?type_case_o@?$output_processor@DV?$string_output_adapter@D@__crt_stdio_output@@V?$standard_base@DV?$string_output_adapter@D@__crt_stdio_output@@@2@@__crt_stdio_output@@AAE_NXZ 1007f27b f i libucrt:output.obj
 0001:0007e29a       ?type_case_p@?$output_processor@DV?$string_output_adapter@D@__crt_stdio_output@@V?$standard_base@DV?$string_output_adapter@D@__crt_stdio_output@@@2@@__crt_stdio_output@@AAE_NXZ 1007f29a f i libucrt:output.obj
 0001:0007e2b2       ?type_case_s@?$output_processor@DV?$string_output_adapter@D@__crt_stdio_output@@V?$standard_base@DV?$string_output_adapter@D@__crt_stdio_output@@@2@@__crt_stdio_output@@AAE_NXZ 1007f2b2 f i libucrt:output.obj
 0001:0007e325       ?write_character@?$string_output_adapter@D@__crt_stdio_output@@QBE_NDQAH@Z 1007f325 f i libucrt:output.obj
 0001:0007e367       ?write_stored_string_tchar@?$output_processor@DV?$string_output_adapter@D@__crt_stdio_output@@V?$standard_base@DV?$string_output_adapter@D@__crt_stdio_output@@@2@@__crt_stdio_output@@AAE_ND@Z 1007f367 f i libucrt:output.obj
 0001:0007e40e       ?write_string@?$string_output_adapter@D@__crt_stdio_output@@QBEXQBDHQAH1@Z 1007f40e f i libucrt:output.obj
 0001:0007e4a1       ___stdio_common_vsprintf   1007f4a1 f   libucrt:output.obj
 0001:0007e4c5       ??$assemble_floating_point_ind@N@__crt_strtox@@YAXAAN@Z 1007f4c5 f i libucrt:input.obj
 0001:0007e4f4       ??$assemble_floating_point_infinity@N@__crt_strtox@@YAX_NAAN@Z 1007f4f4 f i libucrt:input.obj
 0001:0007e533       ??$assemble_floating_point_qnan@N@__crt_strtox@@YAX_NAAN@Z 1007f533 f i libucrt:input.obj
 0001:0007e572       ??$assemble_floating_point_snan@N@__crt_strtox@@YAX_NAAN@Z 1007f572 f i libucrt:input.obj
 0001:0007e5b6       ??$assemble_floating_point_value_t@M@__crt_strtox@@YA?AW4SLD_STATUS@@_NH_KAAM@Z 1007f5b6 f i libucrt:input.obj
 0001:0007e5e6       ??$assemble_floating_point_value_t@N@__crt_strtox@@YA?AW4SLD_STATUS@@_NH_KAAN@Z 1007f5e6 f i libucrt:input.obj
 0001:0007e645       ??$assemble_floating_point_zero@N@__crt_strtox@@YAX_NAAN@Z 1007f645 f i libucrt:input.obj
 0001:0007e743       ??$convert_decimal_string_to_floating_type@M@__crt_strtox@@YA?AW4SLD_STATUS@@ABUfloating_point_string@0@AAM@Z 1007f743 f i libucrt:input.obj
 0001:0007e766       ??$convert_decimal_string_to_floating_type@N@__crt_strtox@@YA?AW4SLD_STATUS@@ABUfloating_point_string@0@AAN@Z 1007f766 f i libucrt:input.obj
 0001:0007e789       ??$convert_hexadecimal_string_to_floating_type@M@__crt_strtox@@YA?AW4SLD_STATUS@@ABUfloating_point_string@0@AAM@Z 1007f789 f i libucrt:input.obj
 0001:0007e7ac       ??$convert_hexadecimal_string_to_floating_type@N@__crt_strtox@@YA?AW4SLD_STATUS@@ABUfloating_point_string@0@AAN@Z 1007f7ac f i libucrt:input.obj
 0001:0007e7cf       ??$is_overflow_condition@_K@__crt_strtox@@YA_NI_K@Z 1007f7cf f i libucrt:input.obj
 0001:0007e812       ??$make_input_adapter_character_source@V?$string_input_adapter@D@__crt_stdio_input@@@__crt_strtox@@YA?AV?$input_adapter_character_source@V?$string_input_adapter@D@__crt_stdio_input@@@0@QAV?$string_input_adapter@D@__crt_stdio_input@@_KQA_N@Z 1007f812 f i libucrt:input.obj
 0001:0007e830       ??$parse_floating_point@V?$input_adapter_character_source@V?$string_input_adapter@D@__crt_stdio_input@@@__crt_strtox@@M@__crt_strtox@@YA?AW4SLD_STATUS@@QAU__crt_locale_pointers@@V?$input_adapter_character_source@V?$string_input_adapter@D@__crt_stdio_input@@@0@QAM@Z 1007f830 f i libucrt:input.obj
 0001:0007e8ab       ??$parse_floating_point@V?$input_adapter_character_source@V?$string_input_adapter@D@__crt_stdio_input@@@__crt_strtox@@N@__crt_strtox@@YA?AW4SLD_STATUS@@QAU__crt_locale_pointers@@V?$input_adapter_character_source@V?$string_input_adapter@D@__crt_stdio_input@@@0@QAN@Z 1007f8ab f i libucrt:input.obj
 0001:0007e926       ??$parse_floating_point_from_source@V?$input_adapter_character_source@V?$string_input_adapter@D@__crt_stdio_input@@@__crt_strtox@@@__crt_strtox@@YA?AW4floating_point_parse_result@0@QAU__crt_locale_pointers@@AAV?$input_adapter_character_source@V?$string_input_adapter@D@__crt_stdio_input@@@0@AAUfloating_point_string@0@@Z 1007f926 f i libucrt:input.obj
 0001:0007ed8d       ??$parse_floating_point_possible_infinity@DV?$input_adapter_character_source@V?$string_input_adapter@D@__crt_stdio_input@@@__crt_strtox@@_K@__crt_strtox@@YA?AW4floating_point_parse_result@0@AADAAV?$input_adapter_character_source@V?$string_input_adapter@D@__crt_stdio_input@@@0@_K@Z 1007fd8d f i libucrt:input.obj
 0001:0007ee4e       ??$parse_floating_point_possible_nan@DV?$input_adapter_character_source@V?$string_input_adapter@D@__crt_stdio_input@@@__crt_strtox@@_K@__crt_strtox@@YA?AW4floating_point_parse_result@0@AADAAV?$input_adapter_character_source@V?$string_input_adapter@D@__crt_stdio_input@@@0@_K@Z 1007fe4e f i libucrt:input.obj
 0001:0007ef60       ??$parse_floating_point_possible_nan_is_ind@DV?$input_adapter_character_source@V?$string_input_adapter@D@__crt_stdio_input@@@__crt_strtox@@@__crt_strtox@@YA_NAADAAV?$input_adapter_character_source@V?$string_input_adapter@D@__crt_stdio_input@@@0@@Z 1007ff60 f i libucrt:input.obj
 0001:0007ef9a       ??$parse_floating_point_possible_nan_is_snan@DV?$input_adapter_character_source@V?$string_input_adapter@D@__crt_stdio_input@@@__crt_strtox@@@__crt_strtox@@YA_NAADAAV?$input_adapter_character_source@V?$string_input_adapter@D@__crt_stdio_input@@@0@@Z 1007ff9a f i libucrt:input.obj
 0001:0007efd4       ??$parse_floating_point_write_result@M@__crt_strtox@@YA?AW4SLD_STATUS@@W4floating_point_parse_result@0@ABUfloating_point_string@0@QAM@Z 1007ffd4 f i libucrt:input.obj
 0001:0007f0e4       ??$parse_floating_point_write_result@N@__crt_strtox@@YA?AW4SLD_STATUS@@W4floating_point_parse_result@0@ABUfloating_point_string@0@QAN@Z 100800e4 f i libucrt:input.obj
 0001:0007f1e8       ??$parse_integer@_KV?$input_adapter_character_source@V?$string_input_adapter@D@__crt_stdio_input@@@__crt_strtox@@@__crt_strtox@@YA_KQAU__crt_locale_pointers@@V?$input_adapter_character_source@V?$string_input_adapter@D@__crt_stdio_input@@@0@H_N@Z 100801e8 f i libucrt:input.obj
 0001:0007f499       ??$process_floating_point_specifier_t@M@?$input_processor@DV?$string_input_adapter@D@__crt_stdio_input@@@__crt_stdio_input@@AAE_NXZ 10080499 f i libucrt:input.obj
 0001:0007f501       ??$process_floating_point_specifier_t@N@?$input_processor@DV?$string_input_adapter@D@__crt_stdio_input@@@__crt_stdio_input@@AAE_NXZ 10080501 f i libucrt:input.obj
 0001:0007f569       ??$process_string_specifier_tchar@D@?$input_processor@DV?$string_input_adapter@D@__crt_stdio_input@@@__crt_stdio_input@@AAE_NW4conversion_mode@1@D@Z 10080569 f i libucrt:input.obj
 0001:0007f6cb       ??$process_string_specifier_tchar@_W@?$input_processor@DV?$string_input_adapter@D@__crt_stdio_input@@@__crt_stdio_input@@AAE_NW4conversion_mode@1@_W@Z 100806cb f i libucrt:input.obj
 0001:0007f837       ??$skip_whitespace@Vstring_input_adapter@__crt_stdio_input@@D@__crt_stdio_input@@YAHAAV?$string_input_adapter@D@0@QAU__crt_locale_pointers@@@Z 10080837 f i libucrt:input.obj
 0001:0007f866       ??$write_floating_point@M@?$input_processor@DV?$string_input_adapter@D@__crt_stdio_input@@@__crt_stdio_input@@AAE_NABM@Z 10080866 f i libucrt:input.obj
 0001:0007f89d       ??$write_floating_point@N@?$input_processor@DV?$string_input_adapter@D@__crt_stdio_input@@@__crt_stdio_input@@AAE_NABN@Z 1008089d f i libucrt:input.obj
 0001:0007f8da       ??0?$format_string_parser@D@__crt_stdio_input@@QAE@_KQBE@Z 100808da f i libucrt:input.obj
 0001:0007f924       ??0?$input_adapter_character_source@V?$string_input_adapter@D@__crt_stdio_input@@@__crt_strtox@@QAE@QAV?$string_input_adapter@D@__crt_stdio_input@@_KQA_N@Z 10080924 f i libucrt:input.obj
 0001:0007f955       ??0?$input_processor@DV?$string_input_adapter@D@__crt_stdio_input@@@__crt_stdio_input@@QAE@ABV?$string_input_adapter@D@1@_KQBDQAU__crt_locale_pointers@@QAD@Z 10080955 f i libucrt:input.obj
 0001:0007f9c7       ?advance@?$format_string_parser@D@__crt_stdio_input@@QAE_NXZ 100809c7 f i libucrt:input.obj
 0001:0007fae7       ?as_double@floating_point_value@__crt_strtox@@QBEAANXZ 10080ae7 f i libucrt:input.obj
 0001:0007fb0c       ?as_float@floating_point_value@__crt_strtox@@QBEAAMXZ 10080b0c f i libucrt:input.obj
 0001:0007fb31       ?assemble_floating_point_infinity@__crt_strtox@@YAX_NABVfloating_point_value@1@@Z 10080b31 f i libucrt:input.obj
 0001:0007fb6b       ?assemble_floating_point_value@__crt_strtox@@YA?AW4SLD_STATUS@@_KH_N1ABVfloating_point_value@1@@Z 10080b6b f i libucrt:input.obj
 0001:0007feb7       ?assemble_floating_point_value_from_big_integer@__crt_strtox@@YA?AW4SLD_STATUS@@ABUbig_integer@1@I_N1ABVfloating_point_value@1@@Z 10080eb7 f i libucrt:input.obj
 0001:00080045       ?assemble_floating_point_zero@__crt_strtox@@YAX_NABVfloating_point_value@1@@Z 10081045 f i libucrt:input.obj
 0001:00080079       ?convert_decimal_string_to_floating_type_common@__crt_strtox@@YA?AW4SLD_STATUS@@ABUfloating_point_string@1@ABVfloating_point_value@1@@Z 10081079 f i libucrt:input.obj
 0001:00081e3c       ?convert_hexadecimal_string_to_floating_type_common@__crt_strtox@@YA?AW4SLD_STATUS@@ABUfloating_point_string@1@ABVfloating_point_value@1@@Z 10082e3c f i libucrt:input.obj
 0001:00081ee8       ?denormal_mantissa_mask@floating_point_value@__crt_strtox@@QBE_KXZ 10082ee8 f i libucrt:input.obj
 0001:00081f00       ?divide@__crt_strtox@@YA_KAAUbig_integer@1@ABU21@@Z 10082f00 f i libucrt:input.obj
 0001:000823ae       ?get@?$input_adapter_character_source@V?$string_input_adapter@D@__crt_stdio_input@@@__crt_strtox@@QAEDXZ 100833ae f i libucrt:input.obj
 0001:000823e8       ?get@?$string_input_adapter@D@__crt_stdio_input@@QAEHXZ 100833e8 f i libucrt:input.obj
 0001:000823fe       ?invert@?$scanset_buffer@E@__crt_stdio_input@@QAEXXZ 100833fe f i libucrt:input.obj
 0001:0008241c       ?is_character_allowed_in_string@?$input_processor@DV?$string_input_adapter@D@__crt_stdio_input@@@__crt_stdio_input@@ABE_NW4conversion_mode@2@H@Z 1008341c f i libucrt:input.obj
 0001:00082462       ?length@?$format_string_parser@D@__crt_stdio_input@@QBEIXZ 10083462 f i libucrt:input.obj
 0001:000824a3       ?normal_mantissa_mask@floating_point_value@__crt_strtox@@QBE_KXZ 100834a3 f i libucrt:input.obj
 0001:000824ba       ?process@?$input_processor@DV?$string_input_adapter@D@__crt_stdio_input@@@__crt_stdio_input@@QAEHXZ 100834ba f i libucrt:input.obj
 0001:0008253f       ?process_character_count_specifier@?$input_processor@DV?$string_input_adapter@D@__crt_stdio_input@@@__crt_stdio_input@@AAE_NXZ 1008353f f i libucrt:input.obj
 0001:00082559       ?process_conversion_specifier@?$input_processor@DV?$string_input_adapter@D@__crt_stdio_input@@@__crt_stdio_input@@AAE_NXZ 10083559 f i libucrt:input.obj
 0001:000825cd       ?process_floating_point_specifier@?$input_processor@DV?$string_input_adapter@D@__crt_stdio_input@@@__crt_stdio_input@@AAE_NXZ 100835cd f i libucrt:input.obj
 0001:000825fd       ?process_integer_specifier@?$input_processor@DV?$string_input_adapter@D@__crt_stdio_input@@@__crt_stdio_input@@AAE_NI_N@Z 100835fd f i libucrt:input.obj
 0001:00082663       ?process_literal_character@?$input_processor@DV?$string_input_adapter@D@__crt_stdio_input@@@__crt_stdio_input@@AAE_NXZ 10083663 f i libucrt:input.obj
 0001:00082699       ?process_literal_character_tchar@?$input_processor@DV?$string_input_adapter@D@__crt_stdio_input@@@__crt_stdio_input@@AAE_ND@Z 10083699 f i libucrt:input.obj
 0001:000826ef       ?process_state@?$input_processor@DV?$string_input_adapter@D@__crt_stdio_input@@@__crt_stdio_input@@AAE_NXZ 100836ef f i libucrt:input.obj
 0001:00082725       ?process_string_specifier@?$input_processor@DV?$string_input_adapter@D@__crt_stdio_input@@@__crt_stdio_input@@AAE_NW4conversion_mode@2@@Z 10083725 f i libucrt:input.obj
 0001:0008276d       ?process_whitespace@?$input_processor@DV?$string_input_adapter@D@__crt_stdio_input@@@__crt_stdio_input@@AAE_NXZ 1008376d f i libucrt:input.obj
 0001:0008278a       ?restore_state@?$input_adapter_character_source@V?$string_input_adapter@D@__crt_stdio_input@@@__crt_strtox@@QAE_N_K@Z 1008378a f i libucrt:input.obj
 0001:000827af       ?scan_conversion_specifier@?$format_string_parser@D@__crt_stdio_input@@AAE_NXZ 100837af f i libucrt:input.obj
 0001:0008291a       ?scan_optional_field_width@?$format_string_parser@D@__crt_stdio_input@@AAE_NXZ 1008391a f i libucrt:input.obj
 0001:000829b9       ?scan_optional_length_modifier@?$format_string_parser@D@__crt_stdio_input@@AAEXXZ 100839b9 f i libucrt:input.obj
 0001:00082ad9       ?scan_optional_literal_character_trail_bytes_tchar@?$format_string_parser@D@__crt_stdio_input@@AAE_ND@Z 10083ad9 f i libucrt:input.obj
 0001:00082b2e       ?scan_optional_wide_modifier@?$format_string_parser@D@__crt_stdio_input@@AAEXXZ 10083b2e f i libucrt:input.obj
 0001:00082b4c       ?scan_scanset_range@?$format_string_parser@D@__crt_stdio_input@@AAE_NXZ 10083b4c f i libucrt:input.obj
 0001:00082c53       ?set@?$scanset_buffer@E@__crt_stdio_input@@QAEXE@Z 10083c53 f i libucrt:input.obj
 0001:00082c7e       ?set_wide_for_c_s_or_scanset@?$format_string_parser@D@__crt_stdio_input@@AAEXXZ 10083c7e f i libucrt:input.obj
 0001:00082c9e       ?test@?$scanset_buffer@E@__crt_stdio_input@@QBE_NE@Z 10083c9e f i libucrt:input.obj
 0001:00082ccf       ?to_floating_point_length@__crt_stdio_input@@YAIW4length_modifier@1@@Z 10083ccf f i libucrt:input.obj
 0001:00082cf2       ?to_integer_length@__crt_stdio_input@@YAIW4length_modifier@1@@Z 10083cf2 f i libucrt:input.obj
 0001:00082d4a       ?unget@?$input_adapter_character_source@V?$string_input_adapter@D@__crt_stdio_input@@@__crt_strtox@@QAEXD@Z 10083d4a f i libucrt:input.obj
 0001:00082d8b       ?unget@?$string_input_adapter@D@__crt_stdio_input@@QAEXH@Z 10083d8b f i libucrt:input.obj
 0001:00082daa       ?validate@?$format_string_parser@D@__crt_stdio_input@@QBE_NXZ 10083daa f i libucrt:input.obj
 0001:00082dc6       ?validate@?$input_adapter_character_source@V?$string_input_adapter@D@__crt_stdio_input@@@__crt_strtox@@QBE_NXZ 10083dc6 f i libucrt:input.obj
 0001:00082de7       ?validate@?$string_input_adapter@D@__crt_stdio_input@@QAE_NXZ 10083de7 f i libucrt:input.obj
 0001:00082e09       ?write_character@?$input_processor@DV?$string_input_adapter@D@__crt_stdio_input@@@__crt_stdio_input@@AAE_NQA_WIAAPA_WAAID@Z 10083e09 f i libucrt:input.obj
 0001:00082e7a       ?write_integer@?$input_processor@DV?$string_input_adapter@D@__crt_stdio_input@@@__crt_stdio_input@@AAE_N_K_N@Z 10083e7a f i libucrt:input.obj
 0001:00082ef1       ___stdio_common_vsscanf    10083ef1 f   libucrt:input.obj
 0001:00082f15       __chvalidchk_l             10083f15 f i libucrt:input.obj
 0001:00082f3f       __ischartype_l             10083f3f f i libucrt:input.obj
 0001:00082f72       ??$is_overflow_condition@K@__crt_strtox@@YA_NIK@Z 10083f72 f i libucrt:atox.obj
 0001:00082fa5       ??$parse_integer@KV?$c_string_character_source@D@__crt_strtox@@@__crt_strtox@@YAKQAU__crt_locale_pointers@@V?$c_string_character_source@D@0@H_N@Z 10083fa5 f i libucrt:atox.obj
 0001:000831cd       ??$parse_integer@_KV?$c_string_character_source@D@__crt_strtox@@@__crt_strtox@@YA_KQAU__crt_locale_pointers@@V?$c_string_character_source@D@0@H_N@Z 100841cd f i libucrt:atox.obj
 0001:00083473       ?unget@?$c_string_character_source@D@__crt_strtox@@QAEXD@Z 10084473 f i libucrt:atox.obj
 0001:0008349b       ?validate@?$c_string_character_source@D@__crt_strtox@@QBE_NXZ 1008449b f i libucrt:atox.obj
 0001:0008349b       ?validate@?$string_output_adapter@D@__crt_stdio_output@@QBE_NXZ 1008449b f i libucrt:output.obj
 0001:000834b6       _atoi                      100844b6 f   libucrt:atox.obj
 0001:000834e0       _atan2                     100844e0 f   libucrt:87ctriga.obj
 0001:000834ea       __CIatan2                  100844ea f   libucrt:87ctriga.obj
 0001:00083500       __libm_sse2_acos_precise   10084500 f   libucrt:acos_sse2_precise.obj
 0001:00083a20       __libm_sse2_cos_precise    10084a20 f   libucrt:cos_sse2_precise.obj
 0001:00083be0       __libm_sse2_sin_precise    10084be0 f   libucrt:sin_sse2_precise.obj
 0001:00083db0       __libm_sse2_sqrt_precise   10084db0 f   libucrt:sqrt_sse2_precise.obj
 0001:00083eb0       __isalnum_l                10084eb0 f i libucrt:_ctype.obj
 0001:00083eeb       __isalpha_l                10084eeb f i libucrt:_ctype.obj
 0001:00083f26       __isdigit_l                10084f26 f i libucrt:_ctype.obj
 0001:00083f5e       __isspace_l                10084f5e f i libucrt:_ctype.obj
 0001:00083f96       _isalnum                   10084f96 f i libucrt:_ctype.obj
 0001:00083fc5       _isalpha                   10084fc5 f i libucrt:_ctype.obj
 0001:00083ff4       _isdigit                   10084ff4 f i libucrt:_ctype.obj
 0001:00084021       _isspace                   10085021 f i libucrt:_ctype.obj
 0001:0008431c       __tolower_l                1008531c f   libucrt:tolower_toupper.obj
 0001:00084336       __toupper_l                10085336 f   libucrt:tolower_toupper.obj
 0001:00084350       _tolower                   10085350 f   libucrt:tolower_toupper.obj
 0001:00084380       _toupper                   10085380 f   libucrt:tolower_toupper.obj
 0001:0008441b       ??$parse_floating_point@V?$c_string_character_source@D@__crt_strtox@@N@__crt_strtox@@YA?AW4SLD_STATUS@@QAU__crt_locale_pointers@@V?$c_string_character_source@D@0@QAN@Z 1008541b f i libucrt:atof.obj
 0001:00084491       ??$parse_floating_point_from_source@V?$c_string_character_source@D@__crt_strtox@@@__crt_strtox@@YA?AW4floating_point_parse_result@0@QAU__crt_locale_pointers@@AAV?$c_string_character_source@D@0@AAUfloating_point_string@0@@Z 10085491 f i libucrt:atof.obj
 0001:00084883       ??$parse_floating_point_possible_infinity@DV?$c_string_character_source@D@__crt_strtox@@PBD@__crt_strtox@@YA?AW4floating_point_parse_result@0@AADAAV?$c_string_character_source@D@0@PBD@Z 10085883 f i libucrt:atof.obj
 0001:00084930       ??$parse_floating_point_possible_nan@DV?$c_string_character_source@D@__crt_strtox@@PBD@__crt_strtox@@YA?AW4floating_point_parse_result@0@AADAAV?$c_string_character_source@D@0@PBD@Z 10085930 f i libucrt:atof.obj
 0001:00084a4b       ??$parse_floating_point_possible_nan_is_ind@DV?$c_string_character_source@D@__crt_strtox@@@__crt_strtox@@YA_NAADAAV?$c_string_character_source@D@0@@Z 10085a4b f i libucrt:atof.obj
 0001:00084a87       ??$parse_floating_point_possible_nan_is_snan@DV?$c_string_character_source@D@__crt_strtox@@@__crt_strtox@@YA_NAADAAV?$c_string_character_source@D@0@@Z 10085a87 f i libucrt:atof.obj
 0001:00084ae9       _atof                      10085ae9 f   libucrt:atof.obj
 0001:00084afc       _free                      10085afc f   libucrt:free.obj
 0001:00084b01       _malloc                    10085b01 f   libucrt:malloc.obj
 0001:00084b0c       _realloc                   10085b0c f   libucrt:realloc.obj
 0001:00084b20       _strncpy                   10085b20 f   libucrt:strncpy.obj
 0001:00084c50       __libm_sse2_pow_precise    10085c50 f   libucrt:pow_sse2_precise.obj
 0001:000857a0       _fmod                      100867a0 f   libucrt:87fmod.obj
 0001:000857aa       __CIfmod                   100867aa f   libucrt:87fmod.obj
 0001:000857d0       _strncmp                   100867d0 f   libucrt:strncmp.obj
 0001:00085850       __libm_sse2_tan_precise    10086850 f   libucrt:tan_sse2_precise.obj
 0001:00085ac0       _rand                      10086ac0 f   libucrt:rand.obj
 0001:00085af0       _strncat                   10086af0 f   libucrt:strncat.obj
 0001:00085c25       _calloc                    10086c25 f   libucrt:calloc.obj
 0001:00085c30       __seh_filter_dll           10086c30 f   libucrt:exception_filter.obj
 0001:00085c50       __seh_filter_exe           10086c50 f   libucrt:exception_filter.obj
 0001:00085fde       ___acrt_initialize_thread_local_exit_callback 10086fde f   libucrt:exit.obj
 0001:00085fed       __cexit                    10086fed f   libucrt:exit.obj
 0001:00085ffc       __exit                     10086ffc f   libucrt:exit.obj
 0001:00086012       __is_c_termination_complete 10087012 f   libucrt:exit.obj
 0001:000862b1       ___acrt_allocate_buffer_for_argv 100872b1 f   libucrt:argv_parsing.obj
 0001:00086306       __configure_narrow_argv    10087306 f   libucrt:argv_parsing.obj
 0001:0008646a       ??$uninitialize@A6AXAAPAPAD@Z@?$dual_state_global@PAPAD@__crt_state_management@@QAEXA6AXAAPAPAD@Z@Z 1008746a f i libucrt:environment_initialization.obj
 0001:0008646a       ??$uninitialize@A6AXAAPAPA_W@Z@?$dual_state_global@PAPA_W@__crt_state_management@@QAEXA6AXAAPAPA_W@Z@Z 1008746a f i libucrt:environment_initialization.obj
 0001:000864e0       ___dcrt_uninitialize_environments_nolock 100874e0 f   libucrt:environment_initialization.obj
 0001:00086517       __initialize_narrow_environment 10087517 f   libucrt:environment_initialization.obj
 0001:0008651c       ??$?RV<lambda_800076c951b434888f4765a74a194fcc>@@AAV<lambda_4e60a939b0d047cfe11ddc22648dfba9>@@V<lambda_6dbb1268764f43b569ce7b67e331d33a>@@@?$__crt_seh_guarded_call@H@@QAEH$$QAV<lambda_800076c951b434888f4765a74a194fcc>@@AAV<lambda_4e60a939b0d047cfe11ddc22648dfba9>@@$$QAV<lambda_6dbb1268764f43b569ce7b67e331d33a>@@@Z 1008751c f i libucrt:onexit.obj
 0001:0008656d       ??$?RV<lambda_995298e7d72eb4c2aab26c0585b3abe5>@@AAV<lambda_275893d493268fdec8709772e3fcec0e>@@V<lambda_293819299cbf9a7022e18b56a874bb5c>@@@?$__crt_seh_guarded_call@H@@QAEH$$QAV<lambda_995298e7d72eb4c2aab26c0585b3abe5>@@AAV<lambda_275893d493268fdec8709772e3fcec0e>@@$$QAV<lambda_293819299cbf9a7022e18b56a874bb5c>@@@Z 1008756d f i libucrt:onexit.obj
 0001:000865be       ??$__acrt_lock_and_call@V<lambda_275893d493268fdec8709772e3fcec0e>@@@@YAHW4__acrt_lock_id@@$$QAV<lambda_275893d493268fdec8709772e3fcec0e>@@@Z 100875be f i libucrt:onexit.obj
 0001:000865e6       ??$__acrt_lock_and_call@V<lambda_4e60a939b0d047cfe11ddc22648dfba9>@@@@YAHW4__acrt_lock_id@@$$QAV<lambda_4e60a939b0d047cfe11ddc22648dfba9>@@@Z 100875e6 f i libucrt:onexit.obj
 0001:0008660e       ??$__crt_fast_encode_pointer@P6AHXZ@@YAP6AHXZQ6AHXZ@Z 1008760e f i libucrt:onexit.obj
 0001:0008688e       __crt_atexit               1008788e f   libucrt:onexit.obj
 0001:000868a4       __execute_onexit_table     100878a4 f   libucrt:onexit.obj
 0001:000868c1       __initialize_onexit_table  100878c1 f   libucrt:onexit.obj
 0001:000868fe       __register_onexit_function 100878fe f   libucrt:onexit.obj
 0001:0008694e       ___acrt_uninitialize_command_line 1008794e f   libucrt:argv_data.obj
 0001:00086a16       ___acrt_initialize         10087a16 f   libucrt:initialization.obj
 0001:00086a28       ___acrt_thread_attach      10087a28 f   libucrt:initialization.obj
 0001:00086a33       ___acrt_thread_detach      10087a33 f   libucrt:initialization.obj
 0001:00086a3b       ___acrt_uninitialize       10087a3b f   libucrt:initialization.obj
 0001:00086a4d       ___acrt_uninitialize_critical 10087a4d f   libucrt:initialization.obj
 0001:00086a5f       ___acrt_initialize_new_handler 10087a5f f   libucrt:new_handler.obj
 0001:00086a73       __callnewh                 10087a73 f   libucrt:new_handler.obj
 0001:00086ab7       __query_new_handler        10087ab7 f   libucrt:new_handler.obj
 0001:00086b09       __initterm                 10087b09 f   libucrt:initterm.obj
 0001:00086b65       __initterm_e               10087b65 f   libucrt:initterm.obj
 0001:00086baa       _terminate                 10087baa f   libucrt:terminate.obj
 0001:00086be6       ___ascii_stricmp           10087be6 f   libucrt:stricmp.obj
 0001:00086c21       __stricmp                  10087c21 f   libucrt:stricmp.obj
 0001:00086c21       _stricmp                   10087c21 f   libucrt:stricmp.obj
 0001:00086c69       __stricmp_l                10087c69 f   libucrt:stricmp.obj
 0001:00086d03       _strnicmp                  10087d03 f   libucrt:strnicmp.obj
 0001:00086d03       __strnicmp                 10087d03 f   libucrt:strnicmp.obj
 0001:00086d6f       __strnicmp_l               10087d6f f   libucrt:strnicmp.obj
 0001:00086e26       __mkdir                    10087e26 f   libucrt:mkdir.obj
 0001:00086e26       _mkdir                     10087e26 f   libucrt:mkdir.obj
 0001:00086ee8       _itoa                      10087ee8 f   libucrt:xtoa.obj
 0001:00086ee8       __itoa                     10087ee8 f   libucrt:xtoa.obj
 0001:00086f1f       _access                    10087f1f f   libucrt:access.obj
 0001:00086f1f       __access                   10087f1f f   libucrt:access.obj
 0001:00086f37       __access_s                 10087f37 f   libucrt:access.obj
 0001:00086f8c       _abort                     10087f8c f   libucrt:abort.obj
 0001:00086fcf       _strcpy_s                  10087fcf f   libucrt:strcpy_s.obj
 0001:00087029       __free_base                10088029 f   libucrt:free_base.obj
 0001:00087063       __malloc_base              10088063 f   libucrt:malloc_base.obj
 0001:000870b1       __calloc_base              100880b1 f   libucrt:calloc_base.obj
 0001:0008710e       _wcsncmp                   1008810e f   libucrt:wcsncmp.obj
 0001:00087148       ___acrt_call_reportfault   10088148 f   libucrt:invalid_parameter.obj
 0001:00087283       ___acrt_initialize_invalid_parameter_handler 10088283 f   libucrt:invalid_parameter.obj
 0001:00087297       __invalid_parameter        10088297 f   libucrt:invalid_parameter.obj
 0001:00087312       __invalid_parameter_noinfo 10088312 f   libucrt:invalid_parameter.obj
 0001:00087322       __invoke_watson            10088322 f   libucrt:invalid_parameter.obj
 0001:00087355       ___acrt_errno_from_os_error 10088355 f   libucrt:errno.obj
 0001:00087398       ___acrt_errno_map_os_error 10088398 f   libucrt:errno.obj
 0001:000873bb       ___doserrno                100883bb f   libucrt:errno.obj
 0001:000873ce       __errno                    100883ce f   libucrt:errno.obj
 0001:000873e1       ??$make_c_string_character_source@DPAPAD@__crt_strtox@@YA?AV?$c_string_character_source@D@0@QBDQAPAD@Z 100883e1 f i libucrt:strtox.obj
 0001:000873e1       ??$make_c_string_character_source@D$$T@__crt_strtox@@YA?AV?$c_string_character_source@D@0@QBD$$T@Z 100883e1 f i libucrt:atox.obj
 0001:000873fc       _strtol                    100883fc f   libucrt:strtox.obj
 0001:00087428       _strtoull                  10088428 f   libucrt:strtox.obj
 0001:00087454       __mbtowc_l                 10088454 f   libucrt:mbtowc.obj
 0001:0008754e       _mbtowc                    1008854e f   libucrt:mbtowc.obj
 0001:00087568       __wctomb_s_l               10088568 f   libucrt:wctomb.obj
 0001:00087689       _wctomb_s                  10088689 f   libucrt:wctomb.obj
 0001:000876a6       _strnlen                   100886a6 f   libucrt:strnlen.obj
 0001:000877cd       _wcsnlen                   100887cd f   libucrt:strnlen.obj
 0001:00087984       ??$?RV<lambda_3518db117f0e7cdb002338c5d3c47b6c>@@AAV<lambda_b2ea41f6bbb362cd97d94c6828d90b61>@@V<lambda_abdedf541bb04549bc734292b4a045d4>@@@?$__crt_seh_guarded_call@X@@QAEX$$QAV<lambda_3518db117f0e7cdb002338c5d3c47b6c>@@AAV<lambda_b2ea41f6bbb362cd97d94c6828d90b61>@@$$QAV<lambda_abdedf541bb04549bc734292b4a045d4>@@@Z 10088984 f i libucrt:per_thread_data.obj
 0001:000879d4       ??$?RV<lambda_51b6e8b1eb166f2a3faf91f424b38130>@@AAV<lambda_6250bd4b2a391816dd638c3bf72b0bcb>@@V<lambda_0b5a4a3e68152e1d9b943535f5f47bed>@@@?$__crt_seh_guarded_call@X@@QAEX$$QAV<lambda_51b6e8b1eb166f2a3faf91f424b38130>@@AAV<lambda_6250bd4b2a391816dd638c3bf72b0bcb>@@$$QAV<lambda_0b5a4a3e68152e1d9b943535f5f47bed>@@@Z 100889d4 f i libucrt:per_thread_data.obj
 0001:00087a35       ??$?RV<lambda_5b71d36f03204c0beab531769a5b5694>@@AAV<lambda_be2b3da3f62db62e9dad5dc70221a656>@@V<lambda_8f9ce462984622f9bf76b59e2aaaf805>@@@?$__crt_seh_guarded_call@X@@QAEX$$QAV<lambda_5b71d36f03204c0beab531769a5b5694>@@AAV<lambda_be2b3da3f62db62e9dad5dc70221a656>@@$$QAV<lambda_8f9ce462984622f9bf76b59e2aaaf805>@@@Z 10088a35 f i libucrt:per_thread_data.obj
 0001:00087a80       ??$?RV<lambda_9df27f884b057bc3edfc946cb5b7cf47>@@AAV<lambda_e69574bed617af4e071282c136b37893>@@V<lambda_cc0d902bcbbeb830f749456577db4721>@@@?$__crt_seh_guarded_call@X@@QAEX$$QAV<lambda_9df27f884b057bc3edfc946cb5b7cf47>@@AAV<lambda_e69574bed617af4e071282c136b37893>@@$$QAV<lambda_cc0d902bcbbeb830f749456577db4721>@@@Z 10088a80 f i libucrt:per_thread_data.obj
 0001:00087ac8       ??$__acrt_lock_and_call@V<lambda_6250bd4b2a391816dd638c3bf72b0bcb>@@@@YAXW4__acrt_lock_id@@$$QAV<lambda_6250bd4b2a391816dd638c3bf72b0bcb>@@@Z 10088ac8 f i libucrt:per_thread_data.obj
 0001:00087af0       ??$__acrt_lock_and_call@V<lambda_b2ea41f6bbb362cd97d94c6828d90b61>@@@@YAXW4__acrt_lock_id@@$$QAV<lambda_b2ea41f6bbb362cd97d94c6828d90b61>@@@Z 10088af0 f i libucrt:per_thread_data.obj
 0001:00087b18       ??$__acrt_lock_and_call@V<lambda_be2b3da3f62db62e9dad5dc70221a656>@@@@YAXW4__acrt_lock_id@@$$QAV<lambda_be2b3da3f62db62e9dad5dc70221a656>@@@Z 10088b18 f i libucrt:per_thread_data.obj
 0001:00087b40       ??$__acrt_lock_and_call@V<lambda_e69574bed617af4e071282c136b37893>@@@@YAXW4__acrt_lock_id@@$$QAV<lambda_e69574bed617af4e071282c136b37893>@@@Z 10088b40 f i libucrt:per_thread_data.obj
 0001:00087cf6       ___acrt_freeptd            10088cf6 f   libucrt:per_thread_data.obj
 0001:00087d22       ___acrt_getptd             10088d22 f   libucrt:per_thread_data.obj
 0001:00087da6       ___acrt_getptd_noexit      10088da6 f   libucrt:per_thread_data.obj
 0001:00087e2b       ___acrt_initialize_ptd     10088e2b f   libucrt:per_thread_data.obj
 0001:00087e57       ___acrt_uninitialize_ptd   10088e57 f   libucrt:per_thread_data.obj
 0001:00087e71       ___acrt_update_locale_info 10088e71 f   libucrt:locale_update.obj
 0001:00087e9e       ___acrt_update_multibyte_info 10088e9e f   libucrt:locale_update.obj
 0001:00087ecb       ?__acrt_fp_classify@@YA?AW4__acrt_fp_class@@ABN@Z 10088ecb f i libucrt:cvt.obj
 0001:00087f37       ?__acrt_fp_is_negative@@YA_NABN@Z 10088f37 f i libucrt:cvt.obj
 0001:00088796       ___acrt_fp_format          10089796 f   libucrt:cvt.obj
 0001:000888e0       __fileno                   100898e0 f   libucrt:fileno.obj
 0001:00088906       ___acrt_initialize_stdio   10089906 f   libucrt:_file.obj
 0001:000889ce       ___acrt_uninitialize_stdio 100899ce f   libucrt:_file.obj
 0001:00088a1a       __lock_file                10089a1a f   libucrt:_file.obj
 0001:00088a2e       __unlock_file              10089a2e f   libucrt:_file.obj
 0001:00088a42       __get_printf_count_output  10089a42 f   libucrt:printf_count_output.obj
 0001:00088a57       ___acrt_set_locale_changed 10089a57 f   libucrt:wsetlocale.obj
 0001:00088a62       ___acrt_uninitialize_locale 10089a62 f   libucrt:wsetlocale.obj
 0001:00088c20       ___acrt_initialize_lowio   10089c20 f   libucrt:ioinit.obj
 0001:00088c76       ___acrt_uninitialize_lowio 10089c76 f   libucrt:ioinit.obj
 0001:00088ca2       ___pctype_func             10089ca2 f   libucrt:ctype.obj
 0001:00088cc8       __isctype_l                10089cc8 f   libucrt:isctype.obj
 0001:00088d9a       _fegetround                10089d9a f   libucrt:fegetround.obj
 0001:00088dcc       __fFATN2                   10089dcc     libucrt:87triga.obj
 0001:00088e1c       __rtpiby2                  10089e1c     libucrt:87triga.obj
 0001:00088e60       __cintrindisp2             10089e60 f   libucrt:87cdisp.obj
 0001:00088ea4       __cintrindisp1             10089ea4 f   libucrt:87cdisp.obj
 0001:00088ee7       __ctrandisp2               10089ee7 f   libucrt:87cdisp.obj
 0001:00089076       __ctrandisp1               1008a076 f   libucrt:87cdisp.obj
 0001:000890a9       __fload                    1008a0a9 f   libucrt:87cdisp.obj
 0001:000890e5       ___libm_error_support      1008a0e5 f   libucrt:libm_error.obj
 0001:00089300       _acos                      1008a300 f   libucrt:acos.obj
 0001:00089340       __CIacos                   1008a340 f   libucrt:acos.obj
 0001:0008937b       __CIacos_default           1008a37b f   libucrt:acos.obj
 0001:0008938f       __acos_default             1008a38f     libucrt:acos.obj
 0001:00089450       _cos                       1008a450 f   libucrt:cos.obj
 0001:00089490       __CIcos                    1008a490 f   libucrt:cos.obj
 0001:000894cb       __CIcos_default            1008a4cb f   libucrt:cos.obj
 0001:000894df       __cos_default              1008a4df     libucrt:cos.obj
 0001:00089580       _sin                       1008a580 f   libucrt:sin.obj
 0001:000895c0       __CIsin                    1008a5c0 f   libucrt:sin.obj
 0001:000895fb       __CIsin_default            1008a5fb f   libucrt:sin.obj
 0001:0008960f       __sin_default              1008a60f     libucrt:sin.obj
 0001:000896b0       __CIsqrt                   1008a6b0 f   libucrt:sqrt.obj
 0001:000896c4       _sqrt                      1008a6c4     libucrt:sqrt.obj
 0001:0008976a       __isleadbyte_l             1008a76a f i libucrt:_wctype.obj
 0001:000899c0       ___acrt_LCMapStringA       1008a9c0 f   libucrt:lcmapstringa.obj
 0001:00089a0b       __freea_crt                1008aa0b f i libucrt:lcmapstringa.obj
 0001:00089a2b       __realloc_base             1008aa2b f   libucrt:realloc_base.obj
 0001:00089aa0       _pow                       1008aaa0 f   libucrt:pow.obj
 0001:00089ae0       __CIpow                    1008aae0 f   libucrt:pow.obj
 0001:00089b1b       __CIpow_default            1008ab1b f   libucrt:pow.obj
 0001:00089b34       __pow_default              1008ab34     libucrt:pow.obj
 0001:00089d30       __trandisp1                1008ad30 f   libucrt:87disp.obj
 0001:00089d97       __trandisp2                1008ad97 f   libucrt:87disp.obj
 0001:00089e23       __rttospopde               1008ae23     libucrt:87disp.obj
 0001:00089e28       __rttospop                 1008ae28     libucrt:87disp.obj
 0001:00089e2a       __rtnospop                 1008ae2a     libucrt:87disp.obj
 0001:00089e2c       __rttosnpop                1008ae2c     libucrt:87disp.obj
 0001:00089e2d       __rtnospopde               1008ae2d     libucrt:87disp.obj
 0001:00089e34       __rtzeropop                1008ae34     libucrt:87disp.obj
 0001:00089e36       __rtzeronpop               1008ae36     libucrt:87disp.obj
 0001:00089e3b       __rtzerospop               1008ae3b     libucrt:87disp.obj
 0001:00089e48       __rtonepop                 1008ae48     libucrt:87disp.obj
 0001:00089e4a       __rtonenpop                1008ae4a     libucrt:87disp.obj
 0001:00089e4f       __tosnan1                  1008ae4f     libucrt:87disp.obj
 0001:00089e7a       __nosnan2                  1008ae7a     libucrt:87disp.obj
 0001:00089e7c       __tosnan2                  1008ae7c     libucrt:87disp.obj
 0001:00089ea4       __nan2                     1008aea4     libucrt:87disp.obj
 0001:00089ee3       __rtindfpop                1008aee3     libucrt:87disp.obj
 0001:00089ee5       __rtindfnpop               1008aee5     libucrt:87disp.obj
 0001:00089ef6       __rttosnpopde              1008aef6     libucrt:87disp.obj
 0001:00089f00       __rtatan2inf               1008af00     libucrt:87disp.obj
 0001:00089f1d       __rtchsifneg               1008af1d     libucrt:87disp.obj
 0001:00089f30       _tan                       1008af30 f   libucrt:tan.obj
 0001:00089f70       __CItan                    1008af70 f   libucrt:tan.obj
 0001:00089fab       __CItan_default            1008afab f   libucrt:tan.obj
 0001:00089fbf       __tan_default              1008afbf     libucrt:tan.obj
 0001:0008a056       ___acrt_initialize_locks   1008b056 f   libucrt:locks.obj
 0001:0008a097       ___acrt_lock               1008b097 f   libucrt:locks.obj
 0001:0008a0ae       ___acrt_uninitialize_locks 1008b0ae f   libucrt:locks.obj
 0001:0008a0df       ___acrt_unlock             1008b0df f   libucrt:locks.obj
 0001:0008a20d       ___acrt_AreFileApisANSI@0  1008b20d f   libucrt:winapi_thunks.obj
 0001:0008a25b       ___acrt_FlsAlloc@4         1008b25b f   libucrt:winapi_thunks.obj
 0001:0008a2b1       ___acrt_FlsFree@4          1008b2b1 f   libucrt:winapi_thunks.obj
 0001:0008a307       ___acrt_FlsGetValue@4      1008b307 f   libucrt:winapi_thunks.obj
 0001:0008a35d       ___acrt_FlsSetValue@8      1008b35d f   libucrt:winapi_thunks.obj
 0001:0008a3b6       ___acrt_InitializeCriticalSectionEx@12 1008b3b6 f   libucrt:winapi_thunks.obj
 0001:0008a418       ___acrt_LCMapStringEx@36   1008b418 f   libucrt:winapi_thunks.obj
 0001:0008a4a0       ___acrt_LocaleNameToLCID@8 1008b4a0 f   libucrt:winapi_thunks.obj
 0001:0008a4fc       ___acrt_initialize_winapi_thunks 1008b4fc f   libucrt:winapi_thunks.obj
 0001:0008a522       ___acrt_is_packaged_app    1008b522 f   libucrt:winapi_thunks.obj
 0001:0008a5a9       ___acrt_uninitialize_winapi_thunks 1008b5a9 f   libucrt:winapi_thunks.obj
 0001:0008a9a1       ??1?$argument_list@D@?A0xb0e4b824@@QAE@XZ 1008b9a1 f i libucrt:argv_wildcards.obj
 0001:0008a9c6       ?append@?$argument_list@D@?A0xb0e4b824@@QAEHQAD@Z 1008b9c6 f i libucrt:argv_wildcards.obj
 0001:0008a9fb       ?expand_if_necessary@?$argument_list@D@?A0xb0e4b824@@AAEHXZ 1008b9fb f i libucrt:argv_wildcards.obj
 0001:0008aa82       ___acrt_expand_narrow_argv_wildcards 1008ba82 f   libucrt:argv_wildcards.obj
 0001:0008aa8d       ??$?RV<lambda_978dc153c237d78434369da87b74ff60>@@AAV<lambda_ad1ced32f4ac17aa236e5ef05d6b3b7c>@@V<lambda_4a8533e2866a575feecb8298ce776b0d>@@@?$__crt_seh_guarded_call@X@@QAEX$$QAV<lambda_978dc153c237d78434369da87b74ff60>@@AAV<lambda_ad1ced32f4ac17aa236e5ef05d6b3b7c>@@$$QAV<lambda_4a8533e2866a575feecb8298ce776b0d>@@@Z 1008ba8d f i libucrt:mbctype.obj
 0001:0008aad0       ??$__acrt_lock_and_call@V<lambda_ad1ced32f4ac17aa236e5ef05d6b3b7c>@@@@YAXW4__acrt_lock_id@@$$QAV<lambda_ad1ced32f4ac17aa236e5ef05d6b3b7c>@@@Z 1008bad0 f i libucrt:mbctype.obj
 0001:0008af67       ___acrt_initialize_multibyte 1008bf67 f   libucrt:mbctype.obj
 0001:0008af85       ___acrt_update_thread_multibyte_data 1008bf85 f   libucrt:mbctype.obj
 0001:0008b027       __setmbcp_nolock           1008c027 f   libucrt:mbctype.obj
 0001:0008b2f2       __ismbblead                1008c2f2 f   libucrt:ismbbyte.obj
 0001:0008b30a       ___acrt_initialize_command_line 1008c30a f   libucrt:argv_data.obj
 0001:0008b35a       ___dcrt_get_narrow_environment_from_os 1008c35a f   libucrt:get_environment_from_os.obj
 0001:0008b3dd       __recalloc                 1008c3dd f   libucrt:recalloc.obj
 0001:0008b3e8       __recalloc_base            1008c3e8 f   libucrt:recalloc.obj
 0001:0008b455       ___acrt_initialize_heap    1008c455 f   libucrt:heap_handle.obj
 0001:0008b466       ___acrt_uninitialize_heap  1008c466 f   libucrt:heap_handle.obj
 0001:0008b470       ___acrt_execute_initializers 1008c470 f   libucrt:shared_initialization.obj
 0001:0008b4f3       ___acrt_execute_uninitializers 1008c4f3 f   libucrt:shared_initialization.obj
 0001:0008b540       ??$?RV<lambda_a048d3beccc847880fc8490e18b82769>@@AAV<lambda_ec61778202f4f5fc7e7711acc23c3bca>@@V<lambda_f7496a158712204296dd6628a163878e>@@@?$__crt_seh_guarded_call@P6AXH@Z@@QAEP6AXH@Z$$QAV<lambda_a048d3beccc847880fc8490e18b82769>@@AAV<lambda_ec61778202f4f5fc7e7711acc23c3bca>@@$$QAV<lambda_f7496a158712204296dd6628a163878e>@@@Z 1008c540 f i libucrt:signal.obj
 0001:0008b59a       ??$__acrt_lock_and_call@V<lambda_ec61778202f4f5fc7e7711acc23c3bca>@@@@YAP6AXH@ZW4__acrt_lock_id@@$$QAV<lambda_ec61778202f4f5fc7e7711acc23c3bca>@@@Z 1008c59a f i libucrt:signal.obj
 0001:0008b604       ?initialize@?$dual_state_global@P6AHPAU_exception@@@Z@__crt_state_management@@QAEXQ6AHPAU_exception@@@Z@Z 1008c604 f i libucrt:matherr.obj
 0001:0008b604       ?initialize@?$dual_state_global@P6AXPB_W00II@Z@__crt_state_management@@QAEXQ6AXPB_W00II@Z@Z 1008c604 f i libucrt:invalid_parameter.obj
 0001:0008b604       ?initialize@?$dual_state_global@PAPAD@__crt_state_management@@QAEXQAPAD@Z 1008c604 f i libucrt:environment_initialization.obj
 0001:0008b604       ?initialize@?$dual_state_global@PAU__crt_locale_data@@@__crt_state_management@@QAEXQAU__crt_locale_data@@@Z 1008c604 f i libucrt:initialization.obj
 0001:0008b604       ?initialize@?$dual_state_global@P6AXH@Z@__crt_state_management@@QAEXQ6AXH@Z@Z 1008c604 f i libucrt:signal.obj
 0001:0008b604       ?initialize@?$dual_state_global@P6AHI@Z@__crt_state_management@@QAEXQ6AHI@Z@Z 1008c604 f i libucrt:new_handler.obj
 0001:0008b65d       ___acrt_get_sigabrt_handler 1008c65d f   libucrt:signal.obj
 0001:0008b674       ___acrt_initialize_signal_handlers 1008c674 f   libucrt:signal.obj
 0001:0008b6af       ___fpecode                 1008c6af f   libucrt:signal.obj
 0001:0008b6b8       _raise                     1008c6b8 f   libucrt:signal.obj
 0001:0008b8c0       ___acrt_has_user_matherr   1008c8c0 f   libucrt:matherr.obj
 0001:0008b8d9       ___acrt_initialize_user_matherr 1008c8d9 f   libucrt:matherr.obj
 0001:0008b8ed       ___acrt_invoke_user_matherr 1008c8ed f   libucrt:matherr.obj
 0001:0008b940       ___ascii_strnicmp          1008c940 f   libucrt:_strnicm.obj
 0001:0008b9a1       ___acrt_copy_path_to_wide_string 1008c9a1 f   libucrt:string_utilities.obj
 0001:0008ba68       __wmkdir                   1008ca68 f   libucrt:wmkdir.obj
 0001:0008ba92       __waccess_s                1008ca92 f   libucrt:waccess.obj
 0001:0008bb52       __query_new_mode           1008cb52 f   libucrt:new_mode.obj
 0001:0008bb58       ___acrt_add_locale_ref     1008cb58 f   libucrt:locale_refcounting.obj
 0001:0008bbd5       ___acrt_free_locale        1008cbd5 f   libucrt:locale_refcounting.obj
 0001:0008bd1f       ___acrt_locale_add_lc_time_reference 1008cd1f f   libucrt:locale_refcounting.obj
 0001:0008bd48       ___acrt_locale_free_lc_time_if_unreferenced 1008cd48 f   libucrt:locale_refcounting.obj
 0001:0008bd78       ___acrt_locale_release_lc_time_reference 1008cd78 f   libucrt:locale_refcounting.obj
 0001:0008bda1       ___acrt_release_locale_ref 1008cda1 f   libucrt:locale_refcounting.obj
 0001:0008be22       ___acrt_update_thread_locale_data 1008ce22 f   libucrt:locale_refcounting.obj
 0001:0008be99       __updatetlocinfoEx_nolock  1008ce99 f   libucrt:locale_refcounting.obj
 0001:0008bee9       ___acrt_fp_strflt_to_string 1008cee9 f   libucrt:_fptostr.obj
 0001:0008bfa5       ??0scoped_fp_state_reset@?A0x48fbfdd4@@QAE@XZ 1008cfa5 f i libucrt:cfout.obj
 0001:0008bfcf       ___acrt_fltout             1008cfcf f   libucrt:cfout.obj
 0001:0008d36b       __fcloseall                1008e36b f   libucrt:closeall.obj
 0001:0008d40b       ___acrt_stdio_flush_nolock 1008e40b f   libucrt:fflush.obj
 0001:0008d471       __fflush_nolock            1008e471 f   libucrt:fflush.obj
 0001:0008d4b8       __flushall                 1008e4b8 f   libucrt:fflush.obj
 0001:0008d599       ___acrt_stdio_free_buffer_nolock 1008e599 f   libucrt:_freebuf.obj
 0001:0008d5d7       __isatty                   1008e5d7 f   libucrt:isatty.obj
 0001:0008d62d       ___acrt_locale_free_monetary 1008e62d f   libucrt:initmon.obj
 0001:0008d72b       ___acrt_locale_free_numeric 1008e72b f   libucrt:initnum.obj
 0001:0008d7d0       ___acrt_locale_free_time   1008e7d0 f   libucrt:inittime.obj
 0001:0008d8b4       ___acrt_GetStringTypeA     1008e8b4 f   libucrt:getstringtypea.obj
 0001:0008d9d1       ___acrt_lowio_create_handle_array 1008e9d1 f   libucrt:osfinfo.obj
 0001:0008da4b       ___acrt_lowio_destroy_handle_array 1008ea4b f   libucrt:osfinfo.obj
 0001:0008da80       ___acrt_lowio_ensure_fh_exists 1008ea80 f   libucrt:osfinfo.obj
 0001:0008db18       ___acrt_lowio_lock_fh      1008eb18 f   libucrt:osfinfo.obj
 0001:0008db3b       ___acrt_lowio_unlock_fh    1008eb3b f   libucrt:osfinfo.obj
 0001:0008db5e       __free_osfhnd              1008eb5e f   libucrt:osfinfo.obj
 0001:0008dbef       __get_osfhandle            1008ebef f   libucrt:osfinfo.obj
 0001:0008defc       __getfpcontrolword         1008eefc f   libucrt:_fenvutils.obj
 0001:0008df3f       __getfpstatusword          1008ef3f f   libucrt:_fenvutils.obj
 0001:0008dfe7       __setfpcontrolword         1008efe7 f   libucrt:_fenvutils.obj
 0001:0008e067       __setfpstatusword          1008f067 f   libucrt:_fenvutils.obj
 0001:0008e0e7       __87except                 1008f0e7 f   libucrt:87except.obj
 0001:0008e1f2       ___acrt_initialize_sse2    1008f1f2 f   libucrt:mathfcns.obj
 0001:0008e210       __CIacos_pentium4          1008f210 f   libucrt:acos_pentium4.obj
 0001:0008e228       __acos_pentium4            1008f228     libucrt:acos_pentium4.obj
 0001:0008e770       __startTwoArgErrorHandling 1008f770 f   libucrt:genexcep.obj
 0001:0008e787       __startOneArgErrorHandling 1008f787 f   libucrt:genexcep.obj
 0001:0008e7d0       __twoToTOS                 1008f7d0 f   libucrt:common.obj
 0001:0008e7e5       __load_CW                  1008f7e5 f   libucrt:common.obj
 0001:0008e7fc       __convertTOStoQNaN         1008f7fc f   libucrt:common.obj
 0001:0008e815       __fload_withFB             1008f815 f   libucrt:common.obj
 0001:0008e858       __checkTOS_withFB          1008f858 f   libucrt:common.obj
 0001:0008e86e       __fast_exit                1008f86e f   libucrt:common.obj
 0001:0008e87b       __math_exit                1008f87b f   libucrt:common.obj
 0001:0008e8a5       __check_overflow_exit      1008f8a5 f   libucrt:common.obj
 0001:0008e8b9       __check_range_exit         1008f8b9 f   libucrt:common.obj
 0001:0008e960       __CIcos_pentium4           1008f960 f   libucrt:cos_pentium4.obj
 0001:0008e978       __cos_pentium4             1008f978     libucrt:cos_pentium4.obj
 0001:0008eb10       __CIsin_pentium4           1008fb10 f   libucrt:sin_pentium4.obj
 0001:0008eb28       __sin_pentium4             1008fb28     libucrt:sin_pentium4.obj
 0001:0008ecd8       ___strncnt                 1008fcd8 f   libucrt:strncnt.obj
 0001:0008ed00       __CIpow_pentium4           1008fd00 f   libucrt:pow_pentium4.obj
 0001:0008ed19       __pow_pentium4             1008fd19     libucrt:pow_pentium4.obj
 0001:0008f831       __fFEXP                    10090831     libucrt:87tran.obj
 0001:0008f888       __rtinfpopse               10090888     libucrt:87tran.obj
 0001:0008f88a       __rtinfnpopse              1009088a     libucrt:87tran.obj
 0001:0008f89a       __fFLN                     1009089a     libucrt:87tran.obj
 0001:0008f94f       __rtinfpop                 1009094f     libucrt:87tran.obj
 0001:0008f951       __rtinfnpop                10090951     libucrt:87tran.obj
 0001:0008f96e       __ffexpm1                  1009096e     libucrt:87tran.obj
 0001:0008fa17       __d_inttype                10090a17 f   libucrt:powhlp.obj
 0001:0008fa81       __powhlp                   10090a81 f   libucrt:powhlp.obj
 0001:0008fbb0       __CItan_pentium4           10090bb0 f   libucrt:tan_pentium4.obj
 0001:0008fbc8       __tan_pentium4             10090bc8     libucrt:tan_pentium4.obj
 0001:0008fecc       ___acrt_DownlevelLocaleNameToLCID 10090ecc f   libucrt:lcidtoname_downlevel.obj
 0001:0008ffe0       _qsort                     10090fe0 f   libucrt:qsort.obj
 0001:0009042b       _strncpy_s                 1009142b f   libucrt:strncpy_s.obj
 0001:00090440       _strpbrk                   10091440 f   libucrt:strpbrk.obj
 0001:00090480       __mbsdec                   10091480 f   libucrt:mbsdec.obj
 0001:00090497       __mbsdec_l                 10091497 f   libucrt:mbsdec.obj
 0001:00090533       __msize                    10091533 f   libucrt:msize.obj
 0001:00090566       _fegetenv                  10091566 f   libucrt:fegetenv.obj
 0001:00090583       _fesetenv                  10091583 f   libucrt:fesetenv.obj
 0001:000905cc       _feholdexcept              100915cc f   libucrt:feholdexcept.obj
 0001:00090620       _log10                     10091620 f   libucrt:log10.obj
 0001:00090660       __CIlog10                  10091660 f   libucrt:log10.obj
 0001:0009069b       __CIlog10_default          1009169b f   libucrt:log10.obj
 0001:000906af       __log10_default            100916af     libucrt:log10.obj
 0001:00090770       _ceil                      10091770 f   libucrt:ceil_pentium4.obj
 0001:000907b0       __ceil_pentium4            100917b0 f   libucrt:ceil_pentium4.obj
 0001:00090e1d       __write                    10091e1d f   libucrt:write.obj
 0001:00090f08       __write_nolock             10091f08 f   libucrt:write.obj
 0001:00091192       __lseeki64_nolock          10092192 f   libucrt:lseek.obj
 0001:000911ad       __fclose_nolock            100921ad f   libucrt:fclose.obj
 0001:00091223       _fclose                    10092223 f   libucrt:fclose.obj
 0001:000912a3       ??$?RV<lambda_61cee617f5178ae960314fd4d05640a0>@@AAV<lambda_6978c1fb23f02e42e1d9e99668cc68aa>@@V<lambda_9cd88cf8ad10232537feb2133f08c833>@@@?$__crt_seh_guarded_call@H@@QAEH$$QAV<lambda_61cee617f5178ae960314fd4d05640a0>@@AAV<lambda_6978c1fb23f02e42e1d9e99668cc68aa>@@$$QAV<lambda_9cd88cf8ad10232537feb2133f08c833>@@@Z 100922a3 f i libucrt:commit.obj
 0001:0009133b       ??$__acrt_lowio_lock_fh_and_call@V<lambda_6978c1fb23f02e42e1d9e99668cc68aa>@@@@YAHH$$QAV<lambda_6978c1fb23f02e42e1d9e99668cc68aa>@@@Z 1009233b f i libucrt:commit.obj
 0001:00091363       __commit                   10092363 f   libucrt:commit.obj
 0001:000913d2       __query_app_type           100923d2 f   libucrt:report_runtime_error.obj
 0001:000913d8       __errcode                  100923d8 f   libucrt:fpexcept.obj
 0001:0009140c       __except1                  1009240c f   libucrt:fpexcept.obj
 0001:000914da       __handle_exc               100924da f   libucrt:fpexcept.obj
 0001:000916ba       __raise_exc                100926ba f   libucrt:fpexcept.obj
 0001:000916dd       __raise_exc_ex             100926dd f   libucrt:fpexcept.obj
 0001:000919ce       __set_errno_from_matherr   100929ce f   libucrt:fpexcept.obj
 0001:000919fd       __umatherr                 100929fd f   libucrt:fpexcept.obj
 0001:00091a9f       __clrfp                    10092a9f f   libucrt:fpctrl.obj
 0001:00091ab2       __ctrlfp                   10092ab2 f   libucrt:fpctrl.obj
 0001:00091ade       __set_statfp               10092ade f   libucrt:fpctrl.obj
 0001:00091b39       __statfp                   10092b39 f   libucrt:fpctrl.obj
 0001:00091b4b       __frnd                     10092b4b f   libucrt:frnd.obj
 0001:00091b61       __fpclass                  10092b61 f   libucrt:ieeemisc.obj
 0001:00091c05       __decomp                   10092c05 f   libucrt:util.obj
 0001:00091cd9       __set_exp                  10092cd9 f   libucrt:util.obj
 0001:00091d08       __sptype                   10092d08 f   libucrt:util.obj
 0001:00091d66       __clearfp                  10092d66 f   libucrt:ieee87.obj
 0001:00091e50       __CIlog10_pentium4         10092e50 f   libucrt:log10_pentium4.obj
 0001:00091e68       __log10_pentium4           10092e68     libucrt:log10_pentium4.obj
 0001:000920e0       __ceil_default             100930e0 f   libucrt:ceil.obj
 0001:00092199       __putwch_nolock            10093199 f   libucrt:putwch.obj
 0001:000921de       ??$?RV<lambda_123407a5e2ac06da108355a851863b7a>@@AAV<lambda_2fe9b910cf3cbf4a0ab98a02ba45b3ec>@@V<lambda_ae55bdf541ad94d75914d381c370e64d>@@@?$__crt_seh_guarded_call@H@@QAEH$$QAV<lambda_123407a5e2ac06da108355a851863b7a>@@AAV<lambda_2fe9b910cf3cbf4a0ab98a02ba45b3ec>@@$$QAV<lambda_ae55bdf541ad94d75914d381c370e64d>@@@Z 100931de f i libucrt:close.obj
 0001:00092260       ??$__acrt_lowio_lock_fh_and_call@V<lambda_2fe9b910cf3cbf4a0ab98a02ba45b3ec>@@@@YAHH$$QAV<lambda_2fe9b910cf3cbf4a0ab98a02ba45b3ec>@@@Z 10093260 f i libucrt:close.obj
 0001:00092288       __close                    10093288 f   libucrt:close.obj
 0001:00092307       __close_nolock             10093307 f   libucrt:close.obj
 0001:000923a3       ?__acrt_stdio_free_stream@@YAXV__crt_stdio_stream@@@Z 100933a3 f   libucrt:stream.obj
 0001:000923de       ___dcrt_lowio_initialize_console_output 100933de f   libucrt:initcon.obj
 0001:000923fd       ___dcrt_terminate_console_output 100933fd f   libucrt:initcon.obj
 0001:00092414       _IsProcessorFeaturePresent@4 10093414 f   kernel32:KERNEL32.dll
 0001:00092420       __FindPESection            10093420 f   LIBCMT:pesect.obj
 0001:00092470       __IsNonwritableInCurrentImage 10093470 f   LIBCMT:pesect.obj
 0001:00092530       __ValidateImageBase        10093530 f   LIBCMT:pesect.obj
 0001:00092561       __EH_prolog3_catch         10093561 f   LIBCMT:ehprolg3.obj
 0001:000925a0       __aulldvrm                 100935a0 f   LIBCMT:ulldvrm.obj
 0001:00092640       __allmul                   10093640 f   LIBCMT:llmul.obj
 0001:00092680       __allshl                   10093680 f   LIBCMT:llshl.obj
 0001:000926a0       __aullshr                  100936a0 f   LIBCMT:ullshr.obj
 0001:000926c0       __SEH_prolog4_GS           100936c0 f   LIBCMT:_sehprolg4gs_.obj
 0001:00092709       __SEH_epilog4_GS           10093709 f   LIBCMT:_sehprolg4gs_.obj
 0001:00092720       __alldvrm                  10093720 f   LIBCMT:lldvrm.obj
 0001:00092800       __alloca_probe_16          10093800 f   LIBCMT:alloca16.obj
 0001:00092816       __alloca_probe_8           10093816     LIBCMT:alloca16.obj
 0001:00092830       _strrchr                   10093830 f   libvcruntime:strrchr.obj
 0002:00000000       __imp__DebugBreak@0        10094000     kernel32:KERNEL32.dll
 0002:00000004       __imp__QueryPerformanceCounter@4 10094004     kernel32:KERNEL32.dll
 0002:00000008       __imp__QueryPerformanceFrequency@4 10094008     kernel32:KERNEL32.dll
 0002:0000000c       __imp__IsProcessorFeaturePresent@4 1009400c     kernel32:KERNEL32.dll
 0002:00000010       __imp__IsDebuggerPresent@0 10094010     kernel32:KERNEL32.dll
 0002:00000014       __imp__UnhandledExceptionFilter@4 10094014     kernel32:KERNEL32.dll
 0002:00000018       __imp__SetUnhandledExceptionFilter@4 10094018     kernel32:KERNEL32.dll
 0002:0000001c       __imp__GetStartupInfoW@4   1009401c     kernel32:KERNEL32.dll
 0002:00000020       __imp__GetModuleHandleW@4  10094020     kernel32:KERNEL32.dll
 0002:00000024       __imp__GetCurrentProcessId@0 10094024     kernel32:KERNEL32.dll
 0002:00000028       __imp__GetCurrentThreadId@0 10094028     kernel32:KERNEL32.dll
 0002:0000002c       __imp__GetSystemTimeAsFileTime@4 1009402c     kernel32:KERNEL32.dll
 0002:00000030       __imp__InitializeSListHead@4 10094030     kernel32:KERNEL32.dll
 0002:00000034       __imp__GetCurrentProcess@0 10094034     kernel32:KERNEL32.dll
 0002:00000038       __imp__TerminateProcess@8  10094038     kernel32:KERNEL32.dll
 0002:0000003c       __imp__RtlUnwind@16        1009403c     kernel32:KERNEL32.dll
 0002:00000040       __imp__RaiseException@16   10094040     kernel32:KERNEL32.dll
 0002:00000044       __imp__InterlockedFlushSList@4 10094044     kernel32:KERNEL32.dll
 0002:00000048       __imp__GetLastError@0      10094048     kernel32:KERNEL32.dll
 0002:0000004c       __imp__SetLastError@4      1009404c     kernel32:KERNEL32.dll
 0002:00000050       __imp__EncodePointer@4     10094050     kernel32:KERNEL32.dll
 0002:00000054       __imp__EnterCriticalSection@4 10094054     kernel32:KERNEL32.dll
 0002:00000058       __imp__LeaveCriticalSection@4 10094058     kernel32:KERNEL32.dll
 0002:0000005c       __imp__DeleteCriticalSection@4 1009405c     kernel32:KERNEL32.dll
 0002:00000060       __imp__InitializeCriticalSectionAndSpinCount@8 10094060     kernel32:KERNEL32.dll
 0002:00000064       __imp__TlsAlloc@0          10094064     kernel32:KERNEL32.dll
 0002:00000068       __imp__TlsGetValue@4       10094068     kernel32:KERNEL32.dll
 0002:0000006c       __imp__TlsSetValue@8       1009406c     kernel32:KERNEL32.dll
 0002:00000070       __imp__TlsFree@4           10094070     kernel32:KERNEL32.dll
 0002:00000074       __imp__FreeLibrary@4       10094074     kernel32:KERNEL32.dll
 0002:00000078       __imp__GetProcAddress@8    10094078     kernel32:KERNEL32.dll
 0002:0000007c       __imp__LoadLibraryExW@12   1009407c     kernel32:KERNEL32.dll
 0002:00000080       __imp__ExitProcess@4       10094080     kernel32:KERNEL32.dll
 0002:00000084       __imp__GetModuleHandleExW@12 10094084     kernel32:KERNEL32.dll
 0002:00000088       __imp__GetModuleFileNameA@12 10094088     kernel32:KERNEL32.dll
 0002:0000008c       __imp__MultiByteToWideChar@24 1009408c     kernel32:KERNEL32.dll
 0002:00000090       __imp__WideCharToMultiByte@32 10094090     kernel32:KERNEL32.dll
 0002:00000094       __imp__HeapFree@12         10094094     kernel32:KERNEL32.dll
 0002:00000098       __imp__HeapAlloc@12        10094098     kernel32:KERNEL32.dll
 0002:0000009c       __imp__GetACP@0            1009409c     kernel32:KERNEL32.dll
 0002:000000a0       __imp__GetStdHandle@4      100940a0     kernel32:KERNEL32.dll
 0002:000000a4       __imp__GetFileType@4       100940a4     kernel32:KERNEL32.dll
 0002:000000a8       __imp__GetStringTypeW@16   100940a8     kernel32:KERNEL32.dll
 0002:000000ac       __imp__DecodePointer@4     100940ac     kernel32:KERNEL32.dll
 0002:000000b0       __imp__HeapReAlloc@16      100940b0     kernel32:KERNEL32.dll
 0002:000000b4       __imp__LCMapStringW@24     100940b4     kernel32:KERNEL32.dll
 0002:000000b8       __imp__FindClose@4         100940b8     kernel32:KERNEL32.dll
 0002:000000bc       __imp__FindFirstFileExA@24 100940bc     kernel32:KERNEL32.dll
 0002:000000c0       __imp__FindNextFileA@8     100940c0     kernel32:KERNEL32.dll
 0002:000000c4       __imp__IsValidCodePage@4   100940c4     kernel32:KERNEL32.dll
 0002:000000c8       __imp__GetOEMCP@0          100940c8     kernel32:KERNEL32.dll
 0002:000000cc       __imp__GetCPInfo@8         100940cc     kernel32:KERNEL32.dll
 0002:000000d0       __imp__GetCommandLineA@0   100940d0     kernel32:KERNEL32.dll
 0002:000000d4       __imp__GetCommandLineW@0   100940d4     kernel32:KERNEL32.dll
 0002:000000d8       __imp__GetEnvironmentStringsW@0 100940d8     kernel32:KERNEL32.dll
 0002:000000dc       __imp__FreeEnvironmentStringsW@4 100940dc     kernel32:KERNEL32.dll
 0002:000000e0       __imp__GetProcessHeap@0    100940e0     kernel32:KERNEL32.dll
 0002:000000e4       __imp__CreateDirectoryW@8  100940e4     kernel32:KERNEL32.dll
 0002:000000e8       __imp__GetFileAttributesExW@12 100940e8     kernel32:KERNEL32.dll
 0002:000000ec       __imp__SetStdHandle@8      100940ec     kernel32:KERNEL32.dll
 0002:000000f0       __imp__HeapSize@12         100940f0     kernel32:KERNEL32.dll
 0002:000000f4       __imp__WriteFile@20        100940f4     kernel32:KERNEL32.dll
 0002:000000f8       __imp__GetConsoleCP@0      100940f8     kernel32:KERNEL32.dll
 0002:000000fc       __imp__GetConsoleMode@8    100940fc     kernel32:KERNEL32.dll
 0002:00000100       __imp__SetFilePointerEx@20 10094100     kernel32:KERNEL32.dll
 0002:00000104       __imp__FlushFileBuffers@4  10094104     kernel32:KERNEL32.dll
 0002:00000108       __imp__WriteConsoleW@20    10094108     kernel32:KERNEL32.dll
 0002:0000010c       __imp__CloseHandle@4       1009410c     kernel32:KERNEL32.dll
 0002:00000110       __imp__CreateFileW@28      10094110     kernel32:KERNEL32.dll
 0002:00000114       \177KERNEL32_NULL_THUNK_DATA 10094114     kernel32:KERNEL32.dll
 0002:00000118       ___guard_check_icall_fptr  10094118     LIBCMT:guard_support.obj
 0002:0000011c       ___xc_a                    1009411c     LIBCMT:initializers.obj
 0002:00000130       ___xc_z                    10094130     LIBCMT:initializers.obj
 0002:00000134       ___xi_a                    10094134     LIBCMT:initializers.obj
 0002:00000138       ___acrt_stdio_initializer  10094138     libucrt:stdio_initializer.obj
 0002:0000013c       ___acrt_multibyte_initializer 1009413c     libucrt:multibyte_initializer.obj
 0002:00000140       ___acrt_tran_sse2_initializer 10094140     libucrt:sse2_initializer.obj
 0002:00000144       ___xi_z                    10094144     LIBCMT:initializers.obj
 0002:00000148       ___xp_a                    10094148     LIBCMT:initializers.obj
 0002:0000014c       ___acrt_locale_terminator  1009414c     libucrt:locale_initializer.obj
 0002:00000150       ___dcrt_console_output_terminator 10094150     libucrt:console_output_initializer.obj
 0002:00000154       ___acrt_stdio_terminator   10094154     libucrt:stdio_initializer.obj
 0002:00000158       ___xp_z                    10094158     LIBCMT:initializers.obj
 0002:0000015c       ___xt_a                    1009415c     LIBCMT:initializers.obj
 0002:00000160       ___xt_z                    10094160     LIBCMT:initializers.obj
 0002:00000170       ??_C@_0BC@LANKOHBM@voice_serverdebug?$AA@ 10094170     voice_gamemgr.obj
 0002:00000184       ??_C@_01GBGANLPD@0?$AA@    10094184     voice_gamemgr.obj
 0002:00000188       ??_C@_0L@MCGJBOEN@sv_alltalk?$AA@ 10094188     voice_gamemgr.obj
 0002:00000198       ??_7CVoiceGameMgr@@6B@     10094198     voice_gamemgr.obj
 0002:0000019c       ??_C@_02DKCKIIND@?$CFs?$AA@ 1009419c     voice_gamemgr.obj
 0002:000001a0       ??_C@_0BG@KNOEPLBA@sprites?1voiceicon?4spr?$AA@ 100941a0     voice_gamemgr.obj
 0002:000001b8       ??_C@_09PFCBDEAJ@VoiceMask?$AA@ 100941b8     voice_gamemgr.obj
 0002:000001c4       ??_C@_08NJOGAELP@ReqState?$AA@ 100941c4     voice_gamemgr.obj
 0002:000001d0       ??_C@_0DP@EGNAHAKD@CVoiceGameMgr?3?3ClientCommand?3?5cm@ 100941d0     voice_gamemgr.obj
 0002:00000210       ??_C@_04GMALMFDL@vban?$AA@ 10094210     voice_gamemgr.obj
 0002:00000218       ??_C@_02NJNOFBBI@?$CFx?$AA@ 10094218     voice_gamemgr.obj
 0002:0000021c       ??_C@_0DD@LCOADNGA@CVoiceGameMgr?3?3ClientCommand?3?5vb@ 1009421c     voice_gamemgr.obj
 0002:00000250       ??_C@_0DC@JCNCJGAN@CVoiceGameMgr?3?3ClientCommand?3?5in@ 10094250     voice_gamemgr.obj
 0002:00000284       ??_C@_0L@PALLMNHH@VModEnable?$AA@ 10094284     voice_gamemgr.obj
 0002:00000290       ??_C@_0CP@GEFPDNOJ@CVoiceGameMgr?3?3ClientCommand?3?5VM@ 10094290     voice_gamemgr.obj
 0002:000002c0       __real@00000000            100942c0     voice_gamemgr.obj
 0002:000002c8       __real@3fd3333333333333    100942c8     voice_gamemgr.obj
 0002:000002d0       __real@40000000            100942d0     pm_debug.obj
 0002:000002d4       __real@43800000            100942d4     pm_debug.obj
 0002:000002d8       __real@3f800000            100942d8     pm_math.obj
 0002:000002e0       __real@3f91df46a2529d39    100942e0     pm_math.obj
 0002:000002e8       __real@400921fb54442d18    100942e8     pm_math.obj
 0002:000002f0       __real@4066800000000000    100942f0     pm_math.obj
 0002:000002f8       __real@4076800000000000    100942f8     pm_math.obj
 0002:00000300       __real@42b40000            10094300     pm_math.obj
 0002:00000304       __real@43340000            10094304     pm_math.obj
 0002:00000308       __real@43b40000            10094308     pm_math.obj
 0002:0000030c       __real@bf800000            1009430c     pm_math.obj
 0002:00000310       __real@c3340000            10094310     pm_math.obj
 0002:00000320       __xmm@80000000800000008000000080000000 10094320     pm_math.obj
 0002:00000330       ??_C@_0BE@CMDBNMCL@sound?1materials?4txt?$AA@ 10094330     pm_shared.obj
 0002:00000344       ??_C@_0BE@PDHCPK@player?1pl_step1?4wav?$AA@ 10094344     pm_shared.obj
 0002:00000358       ??_C@_0BE@ENDLNDPB@player?1pl_step3?4wav?$AA@ 10094358     pm_shared.obj
 0002:0000036c       ??_C@_0BE@IGGHAAFE@player?1pl_step2?4wav?$AA@ 1009436c     pm_shared.obj
 0002:00000380       ??_C@_0BE@FADOODEJ@player?1pl_step4?4wav?$AA@ 10094380     pm_shared.obj
 0002:00000394       ??_C@_0BF@PCNBHMKJ@player?1pl_metal1?4wav?$AA@ 10094394     pm_shared.obj
 0002:000003ac       ??_C@_0BF@LPBJNNKC@player?1pl_metal3?4wav?$AA@ 100943ac     pm_shared.obj
 0002:000003c4       ??_C@_0BF@HEEFAOAH@player?1pl_metal2?4wav?$AA@ 100943c4     pm_shared.obj
 0002:000003dc       ??_C@_0BF@KCBMONBK@player?1pl_metal4?4wav?$AA@ 100943dc     pm_shared.obj
 0002:000003f4       ??_C@_0BE@BKDPFBGM@player?1pl_dirt1?4wav?$AA@ 100943f4     pm_shared.obj
 0002:00000408       ??_C@_0BE@FHPHPAGH@player?1pl_dirt3?4wav?$AA@ 10094408     pm_shared.obj
 0002:0000041c       ??_C@_0BE@JMKLCDMC@player?1pl_dirt2?4wav?$AA@ 1009441c     pm_shared.obj
 0002:00000430       ??_C@_0BE@EKPCMANP@player?1pl_dirt4?4wav?$AA@ 10094430     pm_shared.obj
 0002:00000444       ??_C@_0BE@OANKNBLM@player?1pl_duct1?4wav?$AA@ 10094444     pm_shared.obj
 0002:00000458       ??_C@_0BE@KNBCHALH@player?1pl_duct3?4wav?$AA@ 10094458     pm_shared.obj
 0002:0000046c       ??_C@_0BE@GGEOKDBC@player?1pl_duct2?4wav?$AA@ 1009446c     pm_shared.obj
 0002:00000480       ??_C@_0BE@LABHEAAP@player?1pl_duct4?4wav?$AA@ 10094480     pm_shared.obj
 0002:00000494       ??_C@_0BF@JCJIMDBO@player?1pl_grate1?4wav?$AA@ 10094494     pm_shared.obj
 0002:000004ac       ??_C@_0BF@NPFAGCBF@player?1pl_grate3?4wav?$AA@ 100944ac     pm_shared.obj
 0002:000004c4       ??_C@_0BF@BEAMLBLA@player?1pl_grate2?4wav?$AA@ 100944c4     pm_shared.obj
 0002:000004dc       ??_C@_0BF@MCFFFCKN@player?1pl_grate4?4wav?$AA@ 100944dc     pm_shared.obj
 0002:000004f4       ??_C@_0BE@JFAJGEOH@player?1pl_tile1?4wav?$AA@ 100944f4     pm_shared.obj
 0002:00000508       ??_C@_0BE@NIMBMFOM@player?1pl_tile3?4wav?$AA@ 10094508     pm_shared.obj
 0002:0000051c       ??_C@_0BE@BDJNBGEJ@player?1pl_tile2?4wav?$AA@ 1009451c     pm_shared.obj
 0002:00000530       ??_C@_0BE@MFMEPFFE@player?1pl_tile4?4wav?$AA@ 10094530     pm_shared.obj
 0002:00000544       ??_C@_0BE@OJICGPB@player?1pl_tile5?4wav?$AA@ 10094544     pm_shared.obj
 0002:00000558       ??_C@_0BF@BGAAHGEH@player?1pl_slosh1?4wav?$AA@ 10094558     pm_shared.obj
 0002:00000570       ??_C@_0BF@FLMINHEM@player?1pl_slosh3?4wav?$AA@ 10094570     pm_shared.obj
 0002:00000588       ??_C@_0BF@JAJEAEOJ@player?1pl_slosh2?4wav?$AA@ 10094588     pm_shared.obj
 0002:000005a0       ??_C@_0BF@EGMNOHPE@player?1pl_slosh4?4wav?$AA@ 100945a0     pm_shared.obj
 0002:000005b8       ??_C@_0BE@BGADGGEJ@player?1pl_wade1?4wav?$AA@ 100945b8     pm_shared.obj
 0002:000005cc       ??_C@_0BE@FLMLMHEC@player?1pl_wade3?4wav?$AA@ 100945cc     pm_shared.obj
 0002:000005e0       ??_C@_0BE@JAJHBEOH@player?1pl_wade2?4wav?$AA@ 100945e0     pm_shared.obj
 0002:000005f4       ??_C@_0BE@EGMOPHPK@player?1pl_wade4?4wav?$AA@ 100945f4     pm_shared.obj
 0002:00000608       ??_C@_0BG@FBOMDLIH@player?1pl_ladder1?4wav?$AA@ 10094608     pm_shared.obj
 0002:00000620       ??_C@_0BG@BMCEJKIM@player?1pl_ladder3?4wav?$AA@ 10094620     pm_shared.obj
 0002:00000638       ??_C@_0BG@NHHIEJCJ@player?1pl_ladder2?4wav?$AA@ 10094638     pm_shared.obj
 0002:00000650       ??_C@_0BG@BCBKKDE@player?1pl_ladder4?4wav?$AA@ 10094650     pm_shared.obj
 0002:00000668       ??_C@_0BE@GNHKJIFD@player?1pl_snow1?4wav?$AA@ 10094668     pm_shared.obj
 0002:0000067c       ??_C@_0BE@CALCDJFI@player?1pl_snow3?4wav?$AA@ 1009467c     pm_shared.obj
 0002:00000690       ??_C@_0BE@OLOOOKPN@player?1pl_snow2?4wav?$AA@ 10094690     pm_shared.obj
 0002:000006a4       ??_C@_0BE@DNLHAJOA@player?1pl_snow4?4wav?$AA@ 100946a4     pm_shared.obj
 0002:000006b8       ??_C@_0CB@CNILIGKA@Too?5many?5entities?5were?5touched?$CB?6@ 100946b8     pm_shared.obj
 0002:000006dc       ??_C@_0BL@ODOJHMIN@PM?5?5Got?5a?5NaN?5velocity?5?$CFi?6?$AA@ 100946dc     pm_shared.obj
 0002:000006f8       ??_C@_0BM@IKDFNEMI@PM?5?5Got?5a?5NaN?5origin?5on?5?$CFi?6?$AA@ 100946f8     pm_shared.obj
 0002:00000714       ??_C@_0CD@BDBMHNGO@PM?5?5Got?5a?5velocity?5too?5high?5on?5?$CF@ 10094714     pm_shared.obj
 0002:00000738       ??_C@_0CC@OFBNMFAF@PM?5?5Got?5a?5velocity?5too?5low?5on?5?$CFi@ 10094738     pm_shared.obj
 0002:0000075c       ??_C@_0DC@MKOCNFCM@Bogus?5pmove?5player?5movetype?5?$CFi?5o@ 1009475c     pm_shared.obj
 0002:00000790       __real@3dcccccd            10094790     pm_shared.obj
 0002:00000794       __real@3e000000            10094794     pm_shared.obj
 0002:00000798       __real@3eb33333            10094798     pm_shared.obj
 0002:0000079c       __real@3f000000            1009479c     pm_shared.obj
 0002:000007a0       __real@3f0ccccd            100947a0     pm_shared.obj
 0002:000007a4       __real@3f266666            100947a4     pm_shared.obj
 0002:000007a8       __real@3f333333            100947a8     pm_shared.obj
 0002:000007b0       __real@3f50624dd2f1a9fc    100947b0     pm_shared.obj
 0002:000007b8       __real@3f59999a            100947b8     pm_shared.obj
 0002:000007c0       __real@3f847ae147ae147b    100947c0     pm_shared.obj
 0002:000007c8       __real@3f8a9fbe76c8b439    100947c8     pm_shared.obj
 0002:000007d0       __real@3f99999a            100947d0     pm_shared.obj
 0002:000007d8       __real@3fa999999999999a    100947d8     pm_shared.obj
 0002:000007e0       __real@3fb999999999999a    100947e0     pm_shared.obj
 0002:000007e8       __real@3fb99999a0000000    100947e8     pm_shared.obj
 0002:000007f0       __real@3fc0000000000000    100947f0     pm_shared.obj
 0002:000007f8       __real@3fd0000000000000    100947f8     pm_shared.obj
 0002:00000800       __real@3fd54fdf3b645a1d    10094800     pm_shared.obj
 0002:00000808       __real@3fd6666666666666    10094808     pm_shared.obj
 0002:00000810       __real@3fe0000000000000    10094810     pm_shared.obj
 0002:00000818       __real@3fe3333333333333    10094818     pm_shared.obj
 0002:00000820       __real@3fe6666666666666    10094820     pm_shared.obj
 0002:00000828       __real@3fe999999999999a    10094828     pm_shared.obj
 0002:00000830       __real@3feccccccccccccd    10094830     pm_shared.obj
 0002:00000838       __real@3ff0000000000000    10094838     pm_shared.obj
 0002:00000840       __real@3ff8000000000000    10094840     pm_shared.obj
 0002:00000848       __real@4000000000000000    10094848     pm_shared.obj
 0002:00000850       __real@4024000000000000    10094850     pm_shared.obj
 0002:00000858       __real@4032000000000000    10094858     pm_shared.obj
 0002:00000860       __real@4033000000000000    10094860     pm_shared.obj
 0002:00000868       __real@40400000            10094868     pm_shared.obj
 0002:00000870       __real@4049000000000000    10094870     pm_shared.obj
 0002:00000878       __real@4059000000000000    10094878     pm_shared.obj
 0002:00000880       __real@40800000            10094880     pm_shared.obj
 0002:00000888       __real@408db00000000000    10094888     pm_shared.obj
 0002:00000890       __real@408f400000000000    10094890     pm_shared.obj
 0002:00000898       __real@40f1940000000000    10094898     pm_shared.obj
 0002:000008a0       __real@41000000            100948a0     pm_shared.obj
 0002:000008a4       __real@41800000            100948a4     pm_shared.obj
 0002:000008a8       __real@41880000            100948a8     pm_shared.obj
 0002:000008ac       __real@41900000            100948ac     pm_shared.obj
 0002:000008b0       __real@41f00000            100948b0     pm_shared.obj
 0002:000008b4       __real@42080000            100948b4     pm_shared.obj
 0002:000008b8       __real@42700000            100948b8     pm_shared.obj
 0002:000008bc       __real@42800000            100948bc     pm_shared.obj
 0002:000008c0       __real@42900000            100948c0     pm_shared.obj
 0002:000008c4       __real@43160000            100948c4     pm_shared.obj
 0002:000008c8       __real@43480000            100948c8     pm_shared.obj
 0002:000008cc       __real@437a0000            100948cc     pm_shared.obj
 0002:000008d0       __real@43910000            100948d0     pm_shared.obj
 0002:000008d4       __real@43af0000            100948d4     pm_shared.obj
 0002:000008d8       __real@44110000            100948d8     pm_shared.obj
 0002:000008dc       __real@44610000            100948dc     pm_shared.obj
 0002:000008e0       __real@461c4000            100948e0     pm_shared.obj
 0002:000008e4       __real@be000000            100948e4     pm_shared.obj
 0002:000008e8       __real@bfb999999999999a    100948e8     pm_shared.obj
 0002:000008f0       __real@c0000000            100948f0     pm_shared.obj
 0002:000008f4       __real@c0c00000            100948f4     pm_shared.obj
 0002:000008f8       __real@c1000000            100948f8     pm_shared.obj
 0002:00000900       __xmm@7fffffffffffffff7fffffffffffffff 10094900     pm_shared.obj
 0002:00000910       ??_C@_07ENKCPKMK@m_state?$AA@ 10094910     airtank.obj
 0002:0000091c       ??_7CBaseEntity@@6B@       1009491c     airtank.obj
 0002:00000a04       ??_C@_00CNPNBAHC@?$AA@     10094a04     airtank.obj
 0002:00000a0c       ??_7CBaseDelay@@6B@        10094a0c     airtank.obj
 0002:00000af8       ??_7CBaseToggle@@6B@       10094af8     airtank.obj
 0002:00000be8       ??_7CBaseMonster@@6B@      10094be8     airtank.obj
 0002:00000d1c       ??_7CGrenade@@6B@          10094d1c     airtank.obj
 0002:00000e54       ??_7CAirtank@@6B@          10094e54     airtank.obj
 0002:00000f88       ??_C@_08IJCDBDD@CAirtank?$AA@ 10094f88     airtank.obj
 0002:00000f94       ??_C@_0BE@MLFJCIML@models?1w_oxygen?4mdl?$AA@ 10094f94     airtank.obj
 0002:00000fa8       ??_C@_0BF@KDFBMAIC@doors?1aliendoor3?4wav?$AA@ 10094fa8     airtank.obj
 0002:00000fc0       ??_C@_0BE@OOEMNENA@player?1pl_swim2?4wav?$AA@ 10094fc0     airtank.obj
 0002:00000fd4       __real@41400000            10094fd4     airtank.obj
 0002:00000fdc       ??_7C9MMAmmo@@6B@          10094fdc     ammo.obj
 0002:000010c8       ??_C@_0BF@DKFPPBMJ@models?1w_9mmclip?4mdl?$AA@ 100950c8     ammo.obj
 0002:000010e0       ??_C@_0BD@BADMCPNB@items?19mmclip1?4wav?$AA@ 100950e0     ammo.obj
 0002:000010f4       ??_C@_03MDMENKFB@9mm?$AA@  100950f4     ammo.obj
 0002:000010fc       ??_7CBuckShotAmmo@@6B@     100950fc     ammo.obj
 0002:000011e8       ??_C@_0BF@MHABFIPK@models?1w_shotbox?4mdl?$AA@ 100951e8     ammo.obj
 0002:00001200       ??_C@_08BPIGABHK@buckshot?$AA@ 10095200     ammo.obj
 0002:00001210       ??_7C556NatoAmmo@@6B@      10095210     ammo.obj
 0002:000012fc       ??_C@_07KKEMNCGA@556Nato?$AA@ 100952fc     ammo.obj
 0002:00001308       ??_7C556NatoBox@@6B@       10095308     ammo.obj
 0002:000013f4       ??_C@_0L@BBMDIOPJ@556NatoBox?$AA@ 100953f4     ammo.obj
 0002:00001404       ??_7C762NatoAmmo@@6B@      10095404     ammo.obj
 0002:000014f0       ??_C@_07ECBAINJG@762Nato?$AA@ 100954f0     ammo.obj
 0002:000014fc       ??_7C45ACPAmmo@@6B@        100954fc     ammo.obj
 0002:000015e8       ??_C@_05FOCDLAPI@45acp?$AA@ 100955e8     ammo.obj
 0002:000015f4       ??_7C50AEAmmo@@6B@         100955f4     ammo.obj
 0002:000016e0       ??_C@_04FMGBJLAC@50AE?$AA@ 100956e0     ammo.obj
 0002:000016ec       ??_7C338MagnumAmmo@@6B@    100956ec     ammo.obj
 0002:000017d8       ??_C@_09EKNDEGBH@338Magnum?$AA@ 100957d8     ammo.obj
 0002:000017e8       ??_7C57MMAmmo@@6B@         100957e8     ammo.obj
 0002:000018d4       ??_C@_04KNLMLCJF@57mm?$AA@ 100958d4     ammo.obj
 0002:000018e0       ??_7C357SIGAmmo@@6B@       100958e0     ammo.obj
 0002:000019cc       ??_C@_06KFGFKCAH@357SIG?$AA@ 100959cc     ammo.obj
 0002:000019d4       ??_C@_0O@MPOLIKOH@m_flFrameRate?$AA@ 100959d4     animating.obj
 0002:000019e4       ??_C@_0BA@OLEAHHHL@m_flGroundSpeed?$AA@ 100959e4     animating.obj
 0002:000019f4       ??_C@_0BD@JIAJFKIP@m_flLastEventCheck?$AA@ 100959f4     animating.obj
 0002:00001a08       ??_C@_0BE@KDJHCPPB@m_fSequenceFinished?$AA@ 10095a08     animating.obj
 0002:00001a1c       ??_C@_0BB@HNMLKOJD@m_fSequenceLoops?$AA@ 10095a1c     animating.obj
 0002:00001a30       ??_C@_0P@NDHCCNML@CBaseAnimating?$AA@ 10095a30     animating.obj
 0002:00001a40       ??_C@_0BN@NKJBKGKO@Gibbed?5monster?5is?5thinking?$CB?6?$AA@ 10095a40     animating.obj
 0002:00001a60       __real@3f70000000000000    10095a60     animating.obj
 0002:00001a68       __real@4070000000000000    10095a68     animating.obj
 0002:00001a70       __real@461c3c00            10095a70     animating.obj
 0002:00001a74       __real@c61c3c00            10095a74     animating.obj
 0002:00001a80       __xmm@80000000000000008000000000000000 10095a80     animating.obj
 0002:00001a90       ??_C@_08OIFEHECL@ACT_IDLE?$AA@ 10095a90     animation.obj
 0002:00001a9c       ??_C@_09LEMIJFFP@ACT_GUARD?$AA@ 10095a9c     animation.obj
 0002:00001aa8       ??_C@_08JONJIAHE@ACT_WALK?$AA@ 10095aa8     animation.obj
 0002:00001ab4       ??_C@_07ECNMNGAD@ACT_RUN?$AA@ 10095ab4     animation.obj
 0002:00001abc       ??_C@_07ILNDAKKC@ACT_FLY?$AA@ 10095abc     animation.obj
 0002:00001ac4       ??_C@_08EOLKELJK@ACT_SWIM?$AA@ 10095ac4     animation.obj
 0002:00001ad0       ??_C@_07LIIIHIIB@ACT_HOP?$AA@ 10095ad0     animation.obj
 0002:00001ad8       ??_C@_08KHGFOJHJ@ACT_LEAP?$AA@ 10095ad8     animation.obj
 0002:00001ae4       ??_C@_08IMBIKIIB@ACT_FALL?$AA@ 10095ae4     animation.obj
 0002:00001af0       ??_C@_08NPFOOEG@ACT_LAND?$AA@ 10095af0     animation.obj
 0002:00001afc       ??_C@_0BA@DABDFMJP@ACT_STRAFE_LEFT?$AA@ 10095afc     animation.obj
 0002:00001b0c       ??_C@_0BB@OPPLLGEC@ACT_STRAFE_RIGHT?$AA@ 10095b0c     animation.obj
 0002:00001b20       ??_C@_0O@BAMLJAA@ACT_ROLL_LEFT?$AA@ 10095b20     animation.obj
 0002:00001b30       ??_C@_0P@IPHKCHHC@ACT_ROLL_RIGHT?$AA@ 10095b30     animation.obj
 0002:00001b40       ??_C@_0O@MLFCDDJI@ACT_TURN_LEFT?$AA@ 10095b40     animation.obj
 0002:00001b50       ??_C@_0P@HBGEGCIO@ACT_TURN_RIGHT?$AA@ 10095b50     animation.obj
 0002:00001b60       ??_C@_0L@NCCMFAL@ACT_CROUCH?$AA@ 10095b60     animation.obj
 0002:00001b6c       ??_C@_0P@CMHNNDIB@ACT_CROUCHIDLE?$AA@ 10095b6c     animation.obj
 0002:00001b7c       ??_C@_09ENDKGHG@ACT_STAND?$AA@ 10095b7c     animation.obj
 0002:00001b88       ??_C@_07DIHCELMD@ACT_USE?$AA@ 10095b88     animation.obj
 0002:00001b90       ??_C@_0M@BOIDEBEJ@ACT_SIGNAL1?$AA@ 10095b90     animation.obj
 0002:00001b9c       ??_C@_0M@DFKOBCIK@ACT_SIGNAL2?$AA@ 10095b9c     animation.obj
 0002:00001ba8       ??_C@_0M@CMLFCDML@ACT_SIGNAL3?$AA@ 10095ba8     animation.obj
 0002:00001bb4       ??_C@_0L@MIGKGEDN@ACT_TWITCH?$AA@ 10095bb4     animation.obj
 0002:00001bc0       ??_C@_09HFIKFAAL@ACT_COWER?$AA@ 10095bc0     animation.obj
 0002:00001bcc       ??_C@_0BB@JIEFKIOI@ACT_SMALL_FLINCH?$AA@ 10095bcc     animation.obj
 0002:00001be0       ??_C@_0P@EDHMCL@ACT_BIG_FLINCH?$AA@ 10095be0     animation.obj
 0002:00001bf0       ??_C@_0BC@KDKLKAFP@ACT_RANGE_ATTACK1?$AA@ 10095bf0     animation.obj
 0002:00001c04       ??_C@_0BC@IIIGPDJM@ACT_RANGE_ATTACK2?$AA@ 10095c04     animation.obj
 0002:00001c18       ??_C@_0BC@OHGDGFAN@ACT_MELEE_ATTACK1?$AA@ 10095c18     animation.obj
 0002:00001c2c       ??_C@_0BC@MMEODGMO@ACT_MELEE_ATTACK2?$AA@ 10095c2c     animation.obj
 0002:00001c40       ??_C@_0L@FGNDGBL@ACT_RELOAD?$AA@ 10095c40     animation.obj
 0002:00001c4c       ??_C@_07COBCGLDE@ACT_ARM?$AA@ 10095c4c     animation.obj
 0002:00001c54       ??_C@_0L@LLGMIOJE@ACT_DISARM?$AA@ 10095c54     animation.obj
 0002:00001c60       ??_C@_07CEBAEIFC@ACT_EAT?$AA@ 10095c60     animation.obj
 0002:00001c68       ??_C@_0O@HBJAPHE@ACT_DIESIMPLE?$AA@ 10095c68     animation.obj
 0002:00001c78       ??_C@_0BA@OJODCDOD@ACT_DIEBACKWARD?$AA@ 10095c78     animation.obj
 0002:00001c88       ??_C@_0P@DPFCCNCI@ACT_DIEFORWARD?$AA@ 10095c88     animation.obj
 0002:00001c98       ??_C@_0P@FINNEBPN@ACT_DIEVIOLENT?$AA@ 10095c98     animation.obj
 0002:00001ca8       ??_C@_0BB@LPDAMAAB@ACT_BARNACLE_HIT?$AA@ 10095ca8     animation.obj
 0002:00001cbc       ??_C@_0BC@HDBOMGPD@ACT_BARNACLE_PULL?$AA@ 10095cbc     animation.obj
 0002:00001cd0       ??_C@_0BD@JADJAGOL@ACT_BARNACLE_CHOMP?$AA@ 10095cd0     animation.obj
 0002:00001ce4       ??_C@_0BC@FAMKFEPG@ACT_BARNACLE_CHEW?$AA@ 10095ce4     animation.obj
 0002:00001cf8       ??_C@_09PJNKNFNG@ACT_SLEEP?$AA@ 10095cf8     animation.obj
 0002:00001d04       ??_C@_0BC@HBACNNEA@ACT_INSPECT_FLOOR?$AA@ 10095d04     animation.obj
 0002:00001d18       ??_C@_0BB@LALMHCOJ@ACT_INSPECT_WALL?$AA@ 10095d18     animation.obj
 0002:00001d2c       ??_C@_0P@HGHPHAOP@ACT_IDLE_ANGRY?$AA@ 10095d2c     animation.obj
 0002:00001d3c       ??_C@_0O@FEPGGNKL@ACT_WALK_HURT?$AA@ 10095d3c     animation.obj
 0002:00001d4c       ??_C@_0N@NKCEEJPC@ACT_RUN_HURT?$AA@ 10095d4c     animation.obj
 0002:00001d5c       ??_C@_09KHPBMHKN@ACT_HOVER?$AA@ 10095d5c     animation.obj
 0002:00001d68       ??_C@_09BNDMKGMA@ACT_GLIDE?$AA@ 10095d68     animation.obj
 0002:00001d74       ??_C@_0N@FEDDCIDM@ACT_FLY_LEFT?$AA@ 10095d74     animation.obj
 0002:00001d84       ??_C@_0O@KAEAGEGE@ACT_FLY_RIGHT?$AA@ 10095d84     animation.obj
 0002:00001d94       ??_C@_0BB@IFICNGKN@ACT_DETECT_SCENT?$AA@ 10095d94     animation.obj
 0002:00001da8       ??_C@_09NHBCDCIA@ACT_SNIFF?$AA@ 10095da8     animation.obj
 0002:00001db4       ??_C@_08HPNLGPCP@ACT_BITE?$AA@ 10095db4     animation.obj
 0002:00001dc0       ??_C@_0BD@CINFGIEM@ACT_THREAT_DISPLAY?$AA@ 10095dc0     animation.obj
 0002:00001dd4       ??_C@_0BB@CJPGCDOM@ACT_FEAR_DISPLAY?$AA@ 10095dd4     animation.obj
 0002:00001de8       ??_C@_0M@HGBBGBAI@ACT_EXCITED?$AA@ 10095de8     animation.obj
 0002:00001df4       ??_C@_0BE@JHNONJJE@ACT_SPECIAL_ATTACK1?$AA@ 10095df4     animation.obj
 0002:00001e08       ??_C@_0BE@LMPDIKFH@ACT_SPECIAL_ATTACK2?$AA@ 10095e08     animation.obj
 0002:00001e1c       ??_C@_0BA@LLIKMEPM@ACT_COMBAT_IDLE?$AA@ 10095e1c     animation.obj
 0002:00001e2c       ??_C@_0BA@COMJHCCH@ACT_WALK_SCARED?$AA@ 10095e2c     animation.obj
 0002:00001e3c       ??_C@_0P@HJLDPODJ@ACT_RUN_SCARED?$AA@ 10095e3c     animation.obj
 0002:00001e4c       ??_C@_0BC@LGHHGBPL@ACT_VICTORY_DANCE?$AA@ 10095e4c     animation.obj
 0002:00001e60       ??_C@_0BB@FHECMOLG@ACT_DIE_HEADSHOT?$AA@ 10095e60     animation.obj
 0002:00001e74       ??_C@_0BC@FEIPJODO@ACT_DIE_CHESTSHOT?$AA@ 10095e74     animation.obj
 0002:00001e88       ??_C@_0BA@FCDJFNMA@ACT_DIE_GUTSHOT?$AA@ 10095e88     animation.obj
 0002:00001e98       ??_C@_0BB@CAOPOJCO@ACT_DIE_BACKSHOT?$AA@ 10095e98     animation.obj
 0002:00001eac       ??_C@_0BA@CDFAJLID@ACT_FLINCH_HEAD?$AA@ 10095eac     animation.obj
 0002:00001ebc       ??_C@_0BB@KOBJAMIB@ACT_FLINCH_CHEST?$AA@ 10095ebc     animation.obj
 0002:00001ed0       ??_C@_0BD@KEBLNHBF@ACT_FLINCH_STOMACH?$AA@ 10095ed0     animation.obj
 0002:00001ee4       ??_C@_0BD@OKEFPKNB@ACT_FLINCH_LEFTARM?$AA@ 10095ee4     animation.obj
 0002:00001ef8       ??_C@_0BE@KIPBNHMG@ACT_FLINCH_RIGHTARM?$AA@ 10095ef8     animation.obj
 0002:00001f0c       ??_C@_0BD@PLKJHPHD@ACT_FLINCH_LEFTLEG?$AA@ 10095f0c     animation.obj
 0002:00001f20       ??_C@_0BE@LJBNFCGE@ACT_FLINCH_RIGHTLEG?$AA@ 10095f20     animation.obj
 0002:00001f34       ??_C@_0L@GOJOKMHJ@ACT_FLINCH?$AA@ 10095f34     animation.obj
 0002:00001f40       ??_C@_0BB@GNGPHJOA@ACT_LARGE_FLINCH?$AA@ 10095f40     animation.obj
 0002:00001f54       ??_C@_0N@IOMJLBEP@ACT_HOLDBOMB?$AA@ 10095f54     animation.obj
 0002:00001f64       ??_C@_0BA@DONJBJG@ACT_IDLE_FIDGET?$AA@ 10095f64     animation.obj
 0002:00001f74       ??_C@_0BA@HCHFDLBF@ACT_IDLE_SCARED?$AA@ 10095f74     animation.obj
 0002:00001f84       ??_C@_0BH@CLODPAFE@ACT_IDLE_SCARED_FIDGET?$AA@ 10095f84     animation.obj
 0002:00001f9c       ??_C@_0BA@CAELALOP@ACT_FOLLOW_IDLE?$AA@ 10095f9c     animation.obj
 0002:00001fac       ??_C@_0BH@JAICFDKA@ACT_FOLLOW_IDLE_FIDGET?$AA@ 10095fac     animation.obj
 0002:00001fc4       ??_C@_0BH@OBBKPJCD@ACT_FOLLOW_IDLE_SCARED?$AA@ 10095fc4     animation.obj
 0002:00001fdc       ??_C@_0BO@IOHHBFF@ACT_FOLLOW_IDLE_SCARED_FIDGET?$AA@ 10095fdc     animation.obj
 0002:00001ffc       ??_C@_0BA@PAOHEDHC@ACT_CROUCH_IDLE?$AA@ 10095ffc     animation.obj
 0002:0000200c       ??_C@_0BH@GOBFAHFD@ACT_CROUCH_IDLE_FIDGET?$AA@ 1009600c     animation.obj
 0002:00002024       ??_C@_0BH@BPINKNNA@ACT_CROUCH_IDLE_SCARED?$AA@ 10096024     animation.obj
 0002:0000203c       ??_C@_0BO@MPPBIBGE@ACT_CROUCH_IDLE_SCARED_FIDGET?$AA@ 1009603c     animation.obj
 0002:0000205c       ??_C@_0BA@IGGKLHCN@ACT_CROUCH_WALK?$AA@ 1009605c     animation.obj
 0002:0000206c       ??_C@_0BH@EDDBOEOC@ACT_CROUCH_WALK_SCARED?$AA@ 1009606c     animation.obj
 0002:00002084       ??_C@_0P@MFBGHDEI@ACT_CROUCH_DIE?$AA@ 10096084     animation.obj
 0002:00002094       ??_C@_0O@BBIDHCBL@ACT_WALK_BACK?$AA@ 10096094     animation.obj
 0002:000020a4       ??_C@_0BA@IMDFDHGM@ACT_IDLE_SNEAKY?$AA@ 100960a4     animation.obj
 0002:000020b4       ??_C@_0BH@BLJLJMAK@ACT_IDLE_SNEAKY_FIDGET?$AA@ 100960b4     animation.obj
 0002:000020cc       ??_C@_0BA@NAIJHOFO@ACT_WALK_SNEAKY?$AA@ 100960cc     animation.obj
 0002:000020dc       ??_C@_08BBOLILFM@ACT_WAVE?$AA@ 100960dc     animation.obj
 0002:000020e8       ??_C@_07HGJHJOGO@ACT_YES?$AA@ 100960e8     animation.obj
 0002:000020f0       ??_C@_06FKDLKDHB@ACT_NO?$AA@ 100960f0     animation.obj
 0002:000020f8       ??_C@_0M@ECGMMMKA@Bip01?5Spine?$AA@ 100960f8     animation.obj
 0002:00002104       ??_C@_0N@OECCGFMA@Bip01?5Pelvis?$AA@ 10096104     animation.obj
 0002:00002114       __real@3b800000            10096114     animation.obj
 0002:00002118       __real@3e45798ee2308c3a    10096118     animation.obj
 0002:00002120       __real@3f70101010101010    10096120     animation.obj
 0002:00002128       __real@3ff6800000000000    10096128     animation.obj
 0002:00002130       __real@405fc00000000000    10096130     animation.obj
 0002:00002138       __real@406fe00000000000    10096138     animation.obj
 0002:00002140       __real@43000000            10096140     animation.obj
 0002:00002144       __real@437f0000            10096144     animation.obj
 0002:00002148       __real@43b38000            10096148     animation.obj
 0002:0000214c       ??_C@_0BA@LJBIDINK@m_flFanFriction?$AA@ 1009614c     bmodels.obj
 0002:0000215c       ??_C@_0BA@FPHDGFEO@m_flAttenuation?$AA@ 1009615c     bmodels.obj
 0002:0000216c       ??_C@_0L@OBLGJEC@m_flVolume?$AA@ 1009616c     bmodels.obj
 0002:00002178       ??_C@_07JIEGLHEC@m_pitch?$AA@ 10096178     bmodels.obj
 0002:00002180       ??_C@_08LNPJLNLH@m_sounds?$AA@ 10096180     bmodels.obj
 0002:0000218c       ??_C@_07LHFDKIEN@m_accel?$AA@ 1009618c     bmodels.obj
 0002:00002194       ??_C@_0L@OJIPJCOG@m_distance?$AA@ 10096194     bmodels.obj
 0002:000021a0       ??_C@_06GHNDIOJB@m_time?$AA@ 100961a0     bmodels.obj
 0002:000021a8       ??_C@_06PFDCNHOI@m_damp?$AA@ 100961a8     bmodels.obj
 0002:000021b0       ??_C@_0L@BJHACKLM@m_maxSpeed?$AA@ 100961b0     bmodels.obj
 0002:000021bc       ??_C@_0M@NNLOBDPH@m_dampSpeed?$AA@ 100961bc     bmodels.obj
 0002:000021c8       ??_C@_08ELPBEIAB@m_center?$AA@ 100961c8     bmodels.obj
 0002:000021d4       ??_C@_07BKPGKFGI@m_start?$AA@ 100961d4     bmodels.obj
 0002:000021e0       ??_7CFuncWall@@6B@         100961e0     bmodels.obj
 0002:000022cc       ??_7CFuncWallToggle@@6B@   100962cc     bmodels.obj
 0002:000023b8       ??_7CFuncConveyor@@6B@     100963b8     bmodels.obj
 0002:000024a4       ??_7CFuncIllusionary@@6B@  100964a4     bmodels.obj
 0002:00002590       ??_C@_04NHPAFEHJ@skin?$AA@ 10096590     bmodels.obj
 0002:0000259c       ??_7CFuncMonsterClip@@6B@  1009659c     bmodels.obj
 0002:00002684       ??_C@_0N@DCDKEHFJ@showtriggers?$AA@ 10096684     bmodels.obj
 0002:00002698       ??_7CFuncRotating@@6B@     10096698     bmodels.obj
 0002:00002780       ??_C@_0O@CGAGPICB@CFuncRotating?$AA@ 10096780     bmodels.obj
 0002:00002790       ??_C@_0M@LOPKKDPA@fanfriction?$AA@ 10096790     bmodels.obj
 0002:0000279c       ??_C@_06IDJCEMPA@Volume?$AA@ 1009679c     bmodels.obj
 0002:000027a4       ??_C@_0M@PDOFLHHK@spawnorigin?$AA@ 100967a4     bmodels.obj
 0002:000027b0       ??_C@_06OHLGPBPO@sounds?$AA@ 100967b0     bmodels.obj
 0002:000027b8       ??_C@_0O@ODFFPFJ@fans?1fan1?4wav?$AA@ 100967b8     bmodels.obj
 0002:000027c8       ??_C@_0O@IIKBCNPH@fans?1fan2?4wav?$AA@ 100967c8     bmodels.obj
 0002:000027d8       ??_C@_0O@EDPNPOFC@fans?1fan3?4wav?$AA@ 100967d8     bmodels.obj
 0002:000027e8       ??_C@_0O@FOPIMOOK@fans?1fan4?4wav?$AA@ 100967e8     bmodels.obj
 0002:000027f8       ??_C@_0O@JFKEBNEP@fans?1fan5?4wav?$AA@ 100967f8     bmodels.obj
 0002:00002808       ??_C@_0BA@HKOJACLM@common?1null?4wav?$AA@ 10096808     bmodels.obj
 0002:0000281c       ??_7CPendulum@@6B@         1009681c     bmodels.obj
 0002:00002904       ??_C@_09JOGCGCC@CPendulum?$AA@ 10096904     bmodels.obj
 0002:00002910       ??_C@_08LHFODBFO@distance?$AA@ 10096910     bmodels.obj
 0002:0000291c       ??_C@_04LJMFGIIM@damp?$AA@ 1009691c     bmodels.obj
 0002:00002924       ??_C@_0O@IOFEHMMD@Not?5a?5client?6?$AA@ 10096924     bmodels.obj
 0002:00002938       __real@4030000000000000    10096938     bmodels.obj
 0002:00002940       __real@41200000            10096940     bmodels.obj
 0002:00002944       __real@428c0000            10096944     bmodels.obj
 0002:00002948       ??_C@_0N@EAELBAI@m_rgEntities?$AA@ 10096948     buttons.obj
 0002:00002958       ??_C@_0O@KPIAALOE@m_rgTriggered?$AA@ 10096958     buttons.obj
 0002:00002968       ??_C@_08MOIPHNPE@m_iTotal?$AA@ 10096968     buttons.obj
 0002:00002974       ??_C@_0O@GNFIEECD@m_fStayPushed?$AA@ 10096974     buttons.obj
 0002:00002984       ??_C@_0M@KJABBPEP@m_fRotating?$AA@ 10096984     buttons.obj
 0002:00002990       ??_C@_0P@PCDMKHMH@m_bLockedSound?$AA@ 10096990     buttons.obj
 0002:000029a0       ??_C@_0BC@LIBPGAIE@m_bLockedSentence?$AA@ 100969a0     buttons.obj
 0002:000029b4       ??_C@_0BB@MPNMHFNK@m_bUnlockedSound?$AA@ 100969b4     buttons.obj
 0002:000029c8       ??_C@_0BE@LPOFBFHP@m_bUnlockedSentence?$AA@ 100969c8     buttons.obj
 0002:000029dc       ??_C@_0BC@JFGEDHPE@m_strChangeTarget?$AA@ 100969dc     buttons.obj
 0002:000029f0       ??_C@_0L@GKPGPHLM@m_lastUsed?$AA@ 100969f0     buttons.obj
 0002:000029fc       ??_C@_0M@LKEPFCII@m_direction?$AA@ 100969fc     buttons.obj
 0002:00002a08       ??_C@_0O@JCLMIGPN@m_returnSpeed?$AA@ 10096a08     buttons.obj
 0002:00002a18       ??_C@_05PDEFFHK@m_end?$AA@ 10096a18     buttons.obj
 0002:00002a20       ??_C@_09MMBGICBH@m_flDelay?$AA@ 10096a20     buttons.obj
 0002:00002a2c       ??_C@_0O@HGLPJMHF@m_globalstate?$AA@ 10096a2c     buttons.obj
 0002:00002a3c       ??_C@_0O@LPJCMHPN@m_triggermode?$AA@ 10096a3c     buttons.obj
 0002:00002a4c       ??_C@_0P@JCCGBBEA@m_initialstate?$AA@ 10096a4c     buttons.obj
 0002:00002a5c       ??_C@_09CNJINBGN@classname?$AA@ 10096a5c     buttons.obj
 0002:00002a68       ??_C@_0L@FEPNPAJD@targetname?$AA@ 10096a68     buttons.obj
 0002:00002a74       ??_C@_06JJLAMBGK@target?$AA@ 10096a74     buttons.obj
 0002:00002a80       ??_7CPointEntity@@6B@      10096a80     buttons.obj
 0002:00002b6c       ??_7CMultiSource@@6B@      10096b6c     buttons.obj
 0002:00002c58       ??_7CBaseButton@@6B@       10096c58     buttons.obj
 0002:00002d48       ??_7CEnvGlobal@@6B@        10096d48     buttons.obj
 0002:00002e30       ??_C@_0L@KJFFOBEG@CEnvGlobal?$AA@ 10096e30     buttons.obj
 0002:00002e3c       ??_C@_0M@MJAMDOOL@globalstate?$AA@ 10096e3c     buttons.obj
 0002:00002e48       ??_C@_0M@CBGFGD@triggermode?$AA@ 10096e48     buttons.obj
 0002:00002e54       ??_C@_0N@IFCOBMKB@initialstate?$AA@ 10096e54     buttons.obj
 0002:00002e64       ??_C@_0N@DBMFGCJG@CMultiSource?$AA@ 10096e64     buttons.obj
 0002:00002e74       ??_C@_05IAKJCFIM@style?$AA@ 10096e74     buttons.obj
 0002:00002e7c       ??_C@_06LNLHEAAG@height?$AA@ 10096e7c     buttons.obj
 0002:00002e84       ??_C@_0L@MEPFGHK@killtarget?$AA@ 10096e84     buttons.obj
 0002:00002e90       ??_C@_06KGOBNNPE@value1?$AA@ 10096e90     buttons.obj
 0002:00002e98       ??_C@_06INMMIODH@value2?$AA@ 10096e98     buttons.obj
 0002:00002ea0       ??_C@_06JENHLPHG@value3?$AA@ 10096ea0     buttons.obj
 0002:00002ea8       ??_C@_0CB@JHICIDCN@MultiSrc?3Used?5by?5non?5member?5?$CFs?4?6@ 10096ea8     buttons.obj
 0002:00002ecc       ??_C@_0CE@CBAKMLBP@Multisource?5?$CFs?5enabled?5?$CI?$CFd?5input@ 10096ecc     buttons.obj
 0002:00002ef0       ??_C@_0O@FEGFAINB@multi_manager?$AA@ 10096ef0     buttons.obj
 0002:00002f00       ??_C@_0M@PKHCIBON@CBaseButton?$AA@ 10096f00     buttons.obj
 0002:00002f0c       ??_C@_0BD@PNMHEJJE@buttons?1spark1?4wav?$AA@ 10096f0c     buttons.obj
 0002:00002f20       ??_C@_0BD@HLFDDLDK@buttons?1spark2?4wav?$AA@ 10096f20     buttons.obj
 0002:00002f34       ??_C@_0BD@LAAPOIJP@buttons?1spark3?4wav?$AA@ 10096f34     buttons.obj
 0002:00002f48       ??_C@_0BD@KNAKNICH@buttons?1spark4?4wav?$AA@ 10096f48     buttons.obj
 0002:00002f5c       ??_C@_0BD@GGFGALIC@buttons?1spark5?4wav?$AA@ 10096f5c     buttons.obj
 0002:00002f70       ??_C@_0BD@OAMCHJCM@buttons?1spark6?4wav?$AA@ 10096f70     buttons.obj
 0002:00002f84       ??_C@_02JDNIPIGD@NA?$AA@   10096f84     buttons.obj
 0002:00002f88       ??_C@_02OOKPAMCG@ND?$AA@   10096f88     buttons.obj
 0002:00002f8c       ??_C@_02NMJJGOKE@NF?$AA@   10096f8c     buttons.obj
 0002:00002f90       ??_C@_05KIPGMOIA@NFIRE?$AA@ 10096f90     buttons.obj
 0002:00002f98       ??_C@_05JBKBJGI@NCHEM?$AA@ 10096f98     buttons.obj
 0002:00002fa0       ??_C@_04FKFHEEBF@NRAD?$AA@ 10096fa0     buttons.obj
 0002:00002fa8       ??_C@_04ECIDLBGP@NCON?$AA@ 10096fa8     buttons.obj
 0002:00002fb0       ??_C@_02ECBKEDCK@NH?$AA@   10096fb0     buttons.obj
 0002:00002fb4       ??_C@_02MFICFPOF@NG?$AA@   10096fb4     buttons.obj
 0002:00002fb8       ??_C@_02JPINBHIC@EA?$AA@   10096fb8     buttons.obj
 0002:00002fbc       ??_C@_02OCPKODMH@ED?$AA@   10096fbc     buttons.obj
 0002:00002fc0       ??_C@_02NAMMIBEF@EF?$AA@   10096fc0     buttons.obj
 0002:00002fc4       ??_C@_05MCDBDOED@EFIRE?$AA@ 10096fc4     buttons.obj
 0002:00002fcc       ??_C@_05GDNNOJKL@ECHEM?$AA@ 10096fcc     buttons.obj
 0002:00002fd4       ??_C@_04CNIHHFAE@ERAD?$AA@ 10096fd4     buttons.obj
 0002:00002fdc       ??_C@_04DFFDIAHO@ECON?$AA@ 10096fdc     buttons.obj
 0002:00002fe4       ??_C@_02EOEPKMML@EH?$AA@   10096fe4     buttons.obj
 0002:00002fe8       ??_C@_0N@GILCMLHJ@changetarget?$AA@ 10096fe8     buttons.obj
 0002:00002ff8       ??_C@_0N@MABAFCDP@locked_sound?$AA@ 10096ff8     buttons.obj
 0002:00003008       ??_C@_0BA@FINLDLMF@locked_sentence?$AA@ 10097008     buttons.obj
 0002:00003018       ??_C@_0P@GKCKKJNE@unlocked_sound?$AA@ 10097018     buttons.obj
 0002:00003028       ??_C@_0BC@MMCIOFOK@unlocked_sentence?$AA@ 10097028     buttons.obj
 0002:0000303c       ??_C@_0BE@CAMCEHHF@buttons?1button1?4wav?$AA@ 1009703c     buttons.obj
 0002:00003050       ??_C@_0BE@KGFGDFNL@buttons?1button2?4wav?$AA@ 10097050     buttons.obj
 0002:00003064       ??_C@_0BE@GNAKOGHO@buttons?1button3?4wav?$AA@ 10097064     buttons.obj
 0002:00003078       ??_C@_0BE@HAAPNGMG@buttons?1button4?4wav?$AA@ 10097078     buttons.obj
 0002:0000308c       ??_C@_0BE@LLFDAFGD@buttons?1button5?4wav?$AA@ 1009708c     buttons.obj
 0002:000030a0       ??_C@_0BE@DNMHHHMN@buttons?1button6?4wav?$AA@ 100970a0     buttons.obj
 0002:000030b4       ??_C@_0BE@PGJLKEGI@buttons?1button7?4wav?$AA@ 100970b4     buttons.obj
 0002:000030c8       ??_C@_0BE@HMNBGLN@buttons?1button8?4wav?$AA@ 100970c8     buttons.obj
 0002:000030dc       ??_C@_0BE@MMJBMFBI@buttons?1button9?4wav?$AA@ 100970dc     buttons.obj
 0002:000030f0       ??_C@_0BF@DJOOOKGD@buttons?1button10?4wav?$AA@ 100970f0     buttons.obj
 0002:00003108       ??_C@_0BF@PCLCDJMG@buttons?1button11?4wav?$AA@ 10097108     buttons.obj
 0002:00003120       ??_C@_0BJ@NJGHAHDG@buttons?1latchlocked1?4wav?$AA@ 10097120     buttons.obj
 0002:0000313c       ??_C@_0BL@KIJJHNJN@buttons?1latchunlocked1?4wav?$AA@ 1009713c     buttons.obj
 0002:00003158       ??_C@_0BJ@BHFHBCLE@buttons?1lightswitch2?4wav?$AA@ 10097158     buttons.obj
 0002:00003174       ??_C@_0BD@ENNHPNKC@buttons?1lever1?4wav?$AA@ 10097174     buttons.obj
 0002:00003188       ??_C@_0BD@MLEDIPAM@buttons?1lever2?4wav?$AA@ 10097188     buttons.obj
 0002:0000319c       ??_C@_0BD@BPFMKJ@buttons?1lever3?4wav?$AA@ 1009719c     buttons.obj
 0002:000031b0       ??_C@_0BD@BNBKGMBB@buttons?1lever4?4wav?$AA@ 100971b0     buttons.obj
 0002:000031c4       ??_C@_0BD@NGEGLPLE@buttons?1lever5?4wav?$AA@ 100971c4     buttons.obj
 0002:000031d8       ??_C@_06BALNJMNP@player?$AA@ 100971d8     buttons.obj
 0002:000031e0       ??_C@_0M@JCKPPNHK@multisource?$AA@ 100971e0     buttons.obj
 0002:000031f0       ??_7CRotButton@@6B@        100971f0     buttons.obj
 0002:000032e0       ??_7CMomentaryRotButton@@6B@ 100972e0     buttons.obj
 0002:000033cc       ??_C@_0BE@CPPKOILK@CMomentaryRotButton?$AA@ 100973cc     buttons.obj
 0002:000033e0       ??_C@_0M@CKKDCBFF@returnspeed?$AA@ 100973e0     buttons.obj
 0002:000033ec       ??_C@_0BF@HDAFEIEA@momentary_rot_button?$AA@ 100973ec     buttons.obj
 0002:00003408       ??_7CEnvSpark@@6B@         10097408     buttons.obj
 0002:000034f0       ??_C@_09JGAKDOFI@CEnvSpark?$AA@ 100974f0     buttons.obj
 0002:000034fc       ??_C@_08PGOOKKDM@MaxDelay?$AA@ 100974fc     buttons.obj
 0002:0000350c       ??_7CButtonTarget@@6B@     1009750c     buttons.obj
 0002:000035f8       __real@3fd999999999999a    100975f8     buttons.obj
 0002:00003600       __real@40c00000            10097600     buttons.obj
 0002:00003604       ??_C@_0L@NDJIMIKA@m_pGoalEnt?$AA@ 10097604     cbase.obj
 0002:00003610       ??_C@_0L@MGLKIPBK@m_pfnThink?$AA@ 10097610     cbase.obj
 0002:0000361c       ??_C@_0L@ENKAHLLN@m_pfnTouch?$AA@ 1009761c     cbase.obj
 0002:00003628       ??_C@_08JOPFCPPD@m_pfnUse?$AA@ 10097628     cbase.obj
 0002:00003634       ??_C@_0N@OCPFDOKL@m_pfnBlocked?$AA@ 10097634     cbase.obj
 0002:00003648       ??_7CSave@@6B@             10097648     cbase.obj
 0002:00003650       ??_7CRestore@@6B@          10097650     cbase.obj
 0002:00003654       ??_C@_0BB@IGGFEGJN@Print?3?5?$CFs?5?$CFi?5?$CFp?6?$AA@ 10097654     cbase.obj
 0002:00003668       ??_C@_0BC@IHPKIKNE@info_player_start?$AA@ 10097668     cbase.obj
 0002:0000367c       ??_C@_0BH@IGAFCIL@info_player_deathmatch?$AA@ 1009767c     cbase.obj
 0002:00003694       ??_C@_0BP@EGALGLCO@?5Time?5in?5old?5search?5loop?5?$CF?44f?6?$AA@ 10097694     cbase.obj
 0002:000036b4       ??_C@_0BP@KEGEGDOJ@?5Time?5in?5new?5search?5loop?5?$CF?44f?6?$AA@ 100976b4     cbase.obj
 0002:000036d4       ??_C@_0L@BIFLFHPF@worldspawn?$AA@ 100976d4     cbase.obj
 0002:000036e0       ??_C@_0BB@KEGJGNKN@hostage?1hos1?4wav?$AA@ 100976e0     cbase.obj
 0002:000036f4       ??_C@_0BB@CCPNBPAD@hostage?1hos2?4wav?$AA@ 100976f4     cbase.obj
 0002:00003708       ??_C@_0BB@OJKBMMKG@hostage?1hos3?4wav?$AA@ 10097708     cbase.obj
 0002:0000371c       ??_C@_0BB@PEKEPMBO@hostage?1hos4?4wav?$AA@ 1009771c     cbase.obj
 0002:00003730       ??_C@_0BB@DPPICPLL@hostage?1hos5?4wav?$AA@ 10097730     cbase.obj
 0002:00003744       ??_C@_05MKNHBHKB@czero?$AA@ 10097744     cbase.obj
 0002:0000374c       ??_C@_0L@PAMNGMAC@czero?2maps?$AA@ 1009774c     cbase.obj
 0002:00003758       ??_C@_0DJ@MHEBNOPG@Dormant?5entity?5?$CFs?5is?5trying?5to?5t@ 10097758     cbase.obj
 0002:00003794       ??_C@_0CE@FJGLLDCK@ENTITY?5TABLE?5OR?5INDEX?5IS?5WRONG?$CB?$CB@ 10097794     cbase.obj
 0002:000037b8       ??_C@_0L@JILCNGEO@globalname?$AA@ 100977b8     cbase.obj
 0002:000037c4       ??_C@_0CI@JIKFOGLG@Global?5entity?5found?5?$CFs?0?5wrong?5cl@ 100977c4     cbase.obj
 0002:000037ec       ??_C@_07BCNOFJKA@ENTVARS?$AA@ 100977ec     cbase.obj
 0002:000037f4       ??_C@_0CH@NCMENFAJ@Global?5Entity?5?$CFs?5?$CI?$CFs?$CJ?5not?5in?5tab@ 100977f4     cbase.obj
 0002:0000381c       ??_C@_04NLLCBHDK@BASE?$AA@ 1009781c     cbase.obj
 0002:00003824       ??_C@_0BF@NBCCBNJB@NULL?5Ent?5in?5Create?$CB?6?$AA@ 10097824     cbase.obj
 0002:00003840       __real@4014000000000000    10097840     cbase.obj
 0002:00003848       __real@40f2000000000000    10097848     cbase.obj
 0002:00003850       __real@447a0000            10097850     cbase.obj
 0002:00003854       __real@44fa0000            10097854     cbase.obj
 0002:00003858       __real@45800000            10097858     cbase.obj
 0002:0000385c       __real@c4fa0000            1009785c     cbase.obj
 0002:00003860       __real@c5800000            10097860     cbase.obj
 0002:00003864       ??_C@_0BM@KGFFMFEO@models?1player?1leet?1leet?4mdl?$AA@ 10097864     client.obj
 0002:00003880       ??_C@_0BM@DDJNPOMO@models?1player?1gign?1gign?4mdl?$AA@ 10097880     client.obj
 0002:0000389c       ??_C@_0BK@ELIICLAO@models?1player?1vip?1vip?4mdl?$AA@ 1009789c     client.obj
 0002:000038b8       ??_C@_0BM@BALAODDJ@models?1player?1gsg9?1gsg9?4mdl?$AA@ 100978b8     client.obj
 0002:000038d4       ??_C@_0CE@NNCELJEF@models?1player?1guerilla?1guerilla?4@ 100978d4     client.obj
 0002:000038f8       ??_C@_0CA@JHDEEGNP@models?1player?1arctic?1arctic?4mdl?$AA@ 100978f8     client.obj
 0002:00003918       ??_C@_0BK@HPEEDEPF@models?1player?1sas?1sas?4mdl?$AA@ 10097918     client.obj
 0002:00003934       ??_C@_0CA@FNBFJIKL@models?1player?1terror?1terror?4mdl?$AA@ 10097934     client.obj
 0002:00003954       ??_C@_0BO@ECHOIJE@models?1player?1urban?1urban?4mdl?$AA@ 10097954     client.obj
 0002:00003974       ??_C@_0BC@NCILMEI@models?1player?4mdl?$AA@ 10097974     client.obj
 0002:0000398c       ??_7CBasePlayer@@6B@       1009798c     client.obj
 0002:00003aec       ??_C@_0P@JBPCNICL@Counter?9Strike?$AA@ 10097aec     client.obj
 0002:00003afc       ??_C@_0BD@KJAAMOPK@?$CDGame_disconnected?$AA@ 10097afc     client.obj
 0002:00003b10       ??_C@_07PPNJOBJE@reload?6?$AA@ 10097b10     client.obj
 0002:00003b18       ??_C@_01CLKCMJKC@?5?$AA@   10097b18     client.obj
 0002:00003b1c       ??_C@_01EEMJAFIK@?6?$AA@   10097b1c     client.obj
 0002:00003b20       ??_C@_03MCPBMLDJ@?5?3?5?$AA@ 10097b20     client.obj
 0002:00003b24       ??_C@_03MDAFIFFL@0?40?$AA@ 10097b24     client.obj
 0002:00003b28       ??_C@_0P@CMHCFECL@mp_kickpercent?$AA@ 10097b28     client.obj
 0002:00003b38       ??_C@_03HLLJOCDO@1?40?$AA@ 10097b38     client.obj
 0002:00003b3c       ??_C@_0N@EOAHLPPK@?$CDGame_kicked?$AA@ 10097b3c     client.obj
 0002:00003b4c       ??_C@_0L@IPIJMECD@kick?5?$CD?5?$CFd?6?$AA@ 10097b4c     client.obj
 0002:00003b58       ??_C@_0O@EAJBMN@mp_startmoney?$AA@ 10097b58     client.obj
 0002:00003b68       ??_C@_0P@FJOMPPCK@trigger_camera?$AA@ 10097b68     client.obj
 0002:00003b78       ??_C@_0O@CIJKEDFC@?$DMunconnected?$DO?$AA@ 10097b78     client.obj
 0002:00003b88       ??_C@_0BA@PFGKJOCH@?$CDGame_connected?$AA@ 10097b88     client.obj
 0002:00003b98       ??_C@_03BANJEMDJ@say?$AA@  10097b98     client.obj
 0002:00003b9c       ??_C@_08NBFNGOHN@say_team?$AA@ 10097b9c     client.obj
 0002:00003ba8       ??_C@_05DNIIFBMG@?$CFs?5?$CFs?$AA@ 10097ba8     client.obj
 0002:00003bb0       ??_C@_0BB@MBCKIPEH@?$CDCstrike_Chat_CT?$AA@ 10097bb0     client.obj
 0002:00003bc4       ??_C@_0BM@LFDPJPHC@?$CICounter?9Terrorist?$CJ?5?$CFs?5?3?5?$CFs?$AA@ 10097bc4     client.obj
 0002:00003be0       ??_C@_0BA@CCBHPNEF@?$CDCstrike_Chat_T?$AA@ 10097be0     client.obj
 0002:00003bf0       ??_C@_0BE@IJJKKCAL@?$CITerrorist?$CJ?5?$CFs?5?3?5?$CFs?$AA@ 10097bf0     client.obj
 0002:00003c04       ??_C@_0BG@KMAFELCD@?$CDCstrike_Chat_CT_Dead?$AA@ 10097c04     client.obj
 0002:00003c1c       ??_C@_0CC@CAIKLOBD@?$CKDEAD?$CK?$CICounter?9Terrorist?$CJ?5?$CFs?5?3?5?$CF@ 10097c1c     client.obj
 0002:00003c40       ??_C@_0BF@EOBDKGLI@?$CDCstrike_Chat_T_Dead?$AA@ 10097c40     client.obj
 0002:00003c58       ??_C@_0BK@DGNCOPOJ@?$CKDEAD?$CK?$CITerrorist?$CJ?5?$CFs?5?3?5?$CFs?$AA@ 10097c58     client.obj
 0002:00003c74       ??_C@_0BD@INEDBIBN@?$CDCstrike_Chat_Spec?$AA@ 10097c74     client.obj
 0002:00003c88       ??_C@_0BE@OELINCBK@?$CISpectator?$CJ?5?$CFs?5?3?5?$CFs?$AA@ 10097c88     client.obj
 0002:00003c9c       ??_C@_0BG@KANAAEM@?$CDCstrike_Chat_AllSpec?$AA@ 10097c9c     client.obj
 0002:00003cb4       ??_C@_0P@LCGPMKIG@?$CKSPEC?$CK?5?$CFs?5?3?5?$CFs?$AA@ 10097cb4     client.obj
 0002:00003cc4       ??_C@_0BG@PHECNCGI@?$CDCstrike_Chat_AllDead?$AA@ 10097cc4     client.obj
 0002:00003cdc       ??_C@_0P@DCAFGHBP@?$CKDEAD?$CK?5?$CFs?5?3?5?$CFs?$AA@ 10097cdc     client.obj
 0002:00003cec       ??_C@_0BC@KBEAKGLE@?$CDCstrike_Chat_All?$AA@ 10097cec     client.obj
 0002:00003d00       ??_C@_07IAFACCAD@?$CFs?5?3?5?$CFs?$AA@ 10097d00     client.obj
 0002:00003d08       ??_C@_0P@KCHKAJME@mp_logmessages?$AA@ 10097d08     client.obj
 0002:00003d18       ??_C@_07NFEMOMDL@?5?$CIdead?$CJ?$AA@ 10097d18     client.obj
 0002:00003d20       ??_C@_0BM@OAFDDPGE@?$CC?$CFs?$DM?$CFi?$DO?$DM?$CFs?$DO?$DM?$CFs?$DO?$CC?5?$CFs?5?$CC?$CFs?$CC?$CFs?6?$AA@ 10097d20     client.obj
 0002:00003d3c       ??_C@_0BM@IJKHJNCO@?$CDCstrike_Already_Own_Weapon?$AA@ 10097d3c     client.obj
 0002:00003d58       ??_C@_0BB@LIMCEPGH@?$CDCannot_Buy_This?$AA@ 10097d58     client.obj
 0002:00003d6c       ??_C@_0O@EJLAHDE@?$CDCT_BuyPistol?$AA@ 10097d6c     client.obj
 0002:00003d7c       ??_C@_0N@GFKCLPCM@?$CDT_BuyPistol?$AA@ 10097d7c     client.obj
 0002:00003d8c       ??_C@_0P@MMHMJFMJ@?$CDAS_BuyShotgun?$AA@ 10097d8c     client.obj
 0002:00003d9c       ??_C@_0M@LAHEIFOL@?$CDBuyShotgun?$AA@ 10097d9c     client.obj
 0002:00003da8       ??_C@_0BI@HBJDJBNH@?$CDAS_CT_BuySubMachineGun?$AA@ 10097da8     client.obj
 0002:00003dc0       ??_C@_0BH@GPNPPGGC@?$CDAS_T_BuySubMachineGun?$AA@ 10097dc0     client.obj
 0002:00003dd8       ??_C@_0BF@OOCAIJAE@?$CDCT_BuySubMachineGun?$AA@ 10097dd8     client.obj
 0002:00003df0       ??_C@_0BE@GDCDIACE@?$CDT_BuySubMachineGun?$AA@ 10097df0     client.obj
 0002:00003e04       ??_C@_0BA@BDOMFJOF@?$CDAS_CT_BuyRifle?$AA@ 10097e04     client.obj
 0002:00003e14       ??_C@_0P@OILPMLON@?$CDAS_T_BuyRifle?$AA@ 10097e14     client.obj
 0002:00003e24       ??_C@_0N@MGPABABB@?$CDCT_BuyRifle?$AA@ 10097e24     client.obj
 0002:00003e34       ??_C@_0M@JELHNLMP@?$CDT_BuyRifle?$AA@ 10097e34     client.obj
 0002:00003e40       ??_C@_0BE@MCKCOBJJ@?$CDAS_T_BuyMachineGun?$AA@ 10097e40     client.obj
 0002:00003e54       ??_C@_0P@JIOHMBKP@?$CDBuyMachineGun?$AA@ 10097e54     client.obj
 0002:00003e64       ??_C@_0N@EJNALCHF@?$CDDCT_BuyItem?$AA@ 10097e64     client.obj
 0002:00003e74       ??_C@_0M@EGDEIFKH@?$CDDT_BuyItem?$AA@ 10097e74     client.obj
 0002:00003e80       ??_C@_0M@GPAPJACE@?$CDCT_BuyItem?$AA@ 10097e80     client.obj
 0002:00003e8c       ??_C@_0L@EACGHIJH@?$CDT_BuyItem?$AA@ 10097e8c     client.obj
 0002:00003e98       ??_C@_0P@IENAOOCA@weapon_glock18?$AA@ 10097e98     client.obj
 0002:00003ea8       ??_C@_0L@EDMNDHEN@weapon_usp?$AA@ 10097ea8     client.obj
 0002:00003eb4       ??_C@_0M@IHOHKFGH@weapon_p228?$AA@ 10097eb4     client.obj
 0002:00003ec0       ??_C@_0O@LLIAKKDL@weapon_deagle?$AA@ 10097ec0     client.obj
 0002:00003ed0       ??_C@_0BB@JLPINHFH@weapon_fiveseven?$AA@ 10097ed0     client.obj
 0002:00003ee4       ??_C@_0N@HKGPJCDJ@weapon_elite?$AA@ 10097ee4     client.obj
 0002:00003ef4       ??_C@_0BC@OGPCCPEA@?$CDNot_Enough_Money?$AA@ 10097ef4     client.obj
 0002:00003f08       ??_C@_09BGJHOLJJ@weapon_m3?$AA@ 10097f08     client.obj
 0002:00003f14       ??_C@_0O@FOKAPHMK@weapon_xm1014?$AA@ 10097f14     client.obj
 0002:00003f24       ??_C@_0L@ONMJNOFC@weapon_tmp?$AA@ 10097f24     client.obj
 0002:00003f30       ??_C@_0N@LAIMNCLL@weapon_mac10?$AA@ 10097f30     client.obj
 0002:00003f40       ??_C@_0P@BDOBOOBH@weapon_mp5navy?$AA@ 10097f40     client.obj
 0002:00003f50       ??_C@_0L@PJGHIAGM@weapon_p90?$AA@ 10097f50     client.obj
 0002:00003f5c       ??_C@_0N@INHMGHDN@weapon_famas?$AA@ 10097f5c     client.obj
 0002:00003f6c       ??_C@_0N@DNNFIMNL@weapon_galil?$AA@ 10097f6c     client.obj
 0002:00003f7c       ??_C@_0M@OPHHDLAA@weapon_ak47?$AA@ 10097f7c     client.obj
 0002:00003f88       ??_C@_0N@FKMAPCJF@weapon_scout?$AA@ 10097f88     client.obj
 0002:00003f98       ??_C@_0M@IFMEICCI@weapon_m4a1?$AA@ 10097f98     client.obj
 0002:00003fa4       ??_C@_0L@JNLIAPKB@weapon_aug?$AA@ 10097fa4     client.obj
 0002:00003fb0       ??_C@_0N@NNEJNONA@weapon_sg552?$AA@ 10097fb0     client.obj
 0002:00003fc0       ??_C@_0N@OPHPLMFC@weapon_sg550?$AA@ 10097fc0     client.obj
 0002:00003fd0       ??_C@_0L@JLLPFPFJ@weapon_awp?$AA@ 10097fd0     client.obj
 0002:00003fdc       ??_C@_0N@HCPHFJKK@weapon_g3sg1?$AA@ 10097fdc     client.obj
 0002:00003fec       ??_C@_0M@CABLLKH@weapon_m249?$AA@ 10097fec     client.obj
 0002:00003ff8       ??_C@_0BF@HMHDFKKP@?$CDAlready_Have_Kevlar?$AA@ 10097ff8     client.obj
 0002:00004010       ??_C@_0CD@GOEJLKNB@?$CDAlready_Have_Helmet_Bought_Kevl@ 10098010     client.obj
 0002:00004034       ??_C@_0M@OLDIGHJE@item_kevlar?$AA@ 10098034     client.obj
 0002:00004040       ??_C@_0BM@LAHHEJBL@?$CDAlready_Have_Kevlar_Helmet?$AA@ 10098040     client.obj
 0002:0000405c       ??_C@_0CD@EGJMBNAH@?$CDAlready_Have_Kevlar_Bought_Helm@ 1009805c     client.obj
 0002:00004080       ??_C@_0BB@BPPCALOG@item_assaultsuit?$AA@ 10098080     client.obj
 0002:00004094       ??_C@_09BIHNNKHL@Flashbang?$AA@ 10098094     client.obj
 0002:000040a0       ??_C@_0BG@DOCFEEKG@?$CDCannot_Carry_Anymore?$AA@ 100980a0     client.obj
 0002:000040b8       ??_C@_0BB@GIHHBGBI@weapon_flashbang?$AA@ 100980b8     client.obj
 0002:000040cc       ??_C@_09PHEHKHNO@HEGrenade?$AA@ 100980cc     client.obj
 0002:000040d8       ??_C@_0BB@PMMKILEI@weapon_hegrenade?$AA@ 100980d8     client.obj
 0002:000040ec       ??_C@_0N@PMLDOHPN@SmokeGrenade?$AA@ 100980ec     client.obj
 0002:000040fc       ??_C@_0BE@MIMOIBPO@weapon_smokegrenade?$AA@ 100980fc     client.obj
 0002:00004110       ??_C@_0BC@HFDPNJAF@?$CDAlready_Have_One?$AA@ 10098110     client.obj
 0002:00004124       ??_C@_0BG@DDCOBCMF@?$CDHint_use_nightvision?$AA@ 10098124     client.obj
 0002:0000413c       ??_C@_0BE@LKDCHNHC@items?1equip_nvg?4wav?$AA@ 1009813c     client.obj
 0002:00004150       ??_C@_07NCPCHDKA@defuser?$AA@ 10098150     client.obj
 0002:00004158       ??_C@_0BB@JLJFDOIJ@items?1kevlar?4wav?$AA@ 10098158     client.obj
 0002:0000416c       ??_C@_0BF@FIJIKGHL@items?1gunpickup2?4wav?$AA@ 1009816c     client.obj
 0002:00004184       ??_C@_06DOCLAGIB@terror?$AA@ 10098184     client.obj
 0002:0000418c       ??_C@_04GMKICAKG@leet?$AA@ 1009818c     client.obj
 0002:00004194       ??_C@_06DKKBDJIH@arctic?$AA@ 10098194     client.obj
 0002:0000419c       ??_C@_08ICNJGCGF@guerilla?$AA@ 1009819c     client.obj
 0002:000041a8       ??_C@_05LFIEKJDH@urban?$AA@ 100981a8     client.obj
 0002:000041b0       ??_C@_04CIFJPMNC@gsg9?$AA@ 100981b0     client.obj
 0002:000041b8       ??_C@_03OKDGKELD@sas?$AA@  100981b8     client.obj
 0002:000041bc       ??_C@_04OCAHIALK@gign?$AA@ 100981bc     client.obj
 0002:000041c4       ??_C@_05NCCFOPHA@model?$AA@ 100981c4     client.obj
 0002:000041cc       ??_C@_0BE@CHCMFIHK@func_vip_safetyzone?$AA@ 100981cc     client.obj
 0002:000041e0       ??_C@_0BI@POAODMML@?$CDCannot_Switch_From_VIP?$AA@ 100981e0     client.obj
 0002:000041f8       ??_C@_07JHPHPJCK@slot10?6?$AA@ 100981f8     client.obj
 0002:00004200       ??_C@_0BA@POONLJEP@?$CDAll_Teams_Full?$AA@ 10098200     client.obj
 0002:00004210       ??_C@_0BF@HKKMJEAE@?$CDCannot_Be_Spectator?$AA@ 10098210     client.obj
 0002:00004228       ??_C@_0CK@OGJOEPO@?$CC?$CFs?$DM?$CFi?$DO?$DM?$CFs?$DO?$DM?$CFs?$DO?$CC?5joined?5team?5?$CCSP@ 10098228     client.obj
 0002:00004254       ??_C@_0BB@OEJAGKCH@?$CDTerrorists_Full?$AA@ 10098254     client.obj
 0002:00004268       ??_C@_09KNODHGJI@?$CDCTs_Full?$AA@ 10098268     client.obj
 0002:00004274       ??_C@_0BF@NKCKONLO@?$CDToo_Many_Terrorists?$AA@ 10098274     client.obj
 0002:0000428c       ??_C@_0O@BPPKOGMK@?$CDToo_Many_CTs?$AA@ 1009828c     client.obj
 0002:0000429c       ??_C@_02KMLFINCE@CT?$AA@   1009829c     client.obj
 0002:000042a0       ??_C@_0BF@CCNBLLGO@?$CDHumans_Join_Team_CT?$AA@ 100982a0     client.obj
 0002:000042b8       ??_C@_0BE@LKCIMGMN@?$CDHumans_Join_Team_T?$AA@ 100982b8     client.obj
 0002:000042cc       ??_C@_01GAPBHFFA@T?$AA@    100982cc     client.obj
 0002:000042d0       ??_C@_0BE@CJNAPGLK@?$CDOnly_1_Team_Change?$AA@ 100982d0     client.obj
 0002:000042e4       ??_C@_0BC@BNFIAOEC@?$CDTerrorist_Select?$AA@ 100982e4     client.obj
 0002:000042f8       ??_C@_0L@EGMPNDED@?$CDCT_Select?$AA@ 100982f8     client.obj
 0002:00004304       ??_C@_0BF@OOPCLNBF@?$CDGame_join_terrorist?$AA@ 10098304     client.obj
 0002:0000431c       ??_C@_0O@EKKNDHLN@?$CDGame_join_ct?$AA@ 1009831c     client.obj
 0002:0000432c       ??_C@_0CD@MHFDPOCD@?$CC?$CFs?$DM?$CFi?$DO?$DM?$CFs?$DO?$DM?$CFs?$DO?$CC?5joined?5team?5?$CC?$CFs@ 1009832c     client.obj
 0002:00004350       ??_C@_09MJLDLCLN@?$CDCover_me?$AA@ 10098350     client.obj
 0002:0000435c       ??_C@_0P@PEFKBAA@?$CF?$CBMRAD_COVERME?$AA@ 1009835c     client.obj
 0002:0000436c       ??_C@_0BE@CHOPGKJB@?$CDYou_take_the_point?$AA@ 1009836c     client.obj
 0002:00004380       ??_C@_0BB@JCNCIMIL@?$CF?$CBMRAD_TAKEPOINT?$AA@ 10098380     client.obj
 0002:00004394       ??_C@_0BE@FHDGGEB@?$CDHold_this_position?$AA@ 10098394     client.obj
 0002:000043a8       ??_C@_0BA@NDPHFBGD@?$CF?$CBMRAD_POSITION?$AA@ 100983a8     client.obj
 0002:000043b8       ??_C@_0O@CCADNKEM@?$CDRegroup_team?$AA@ 100983b8     client.obj
 0002:000043c8       ??_C@_0P@IGJNMOMJ@?$CF?$CBMRAD_REGROUP?$AA@ 100983c8     client.obj
 0002:000043d8       ??_C@_0L@CJJBFEAH@?$CDFollow_me?$AA@ 100983d8     client.obj
 0002:000043e4       ??_C@_0BA@IKPAJMJG@?$CF?$CBMRAD_FOLLOWME?$AA@ 100983e4     client.obj
 0002:000043f4       ??_C@_0N@OANEBNMN@?$CDTaking_fire?$AA@ 100983f4     client.obj
 0002:00004404       ??_C@_0BB@HCDGHAGP@?$CF?$CBMRAD_HITASSIST?$AA@ 10098404     client.obj
 0002:00004418       ??_C@_09OMLKAAJK@?$CDGo_go_go?$AA@ 10098418     client.obj
 0002:00004424       ??_C@_09NOHEBGGE@?$CF?$CBMRAD_GO?$AA@ 10098424     client.obj
 0002:00004430       ??_C@_0BA@KCGNOHCG@?$CDTeam_fall_back?$AA@ 10098430     client.obj
 0002:00004440       ??_C@_0BA@IGIFECNC@?$CF?$CBMRAD_FALLBACK?$AA@ 10098440     client.obj
 0002:00004450       ??_C@_0BF@HPIIAGK@?$CDStick_together_team?$AA@ 10098450     client.obj
 0002:00004468       ??_C@_0BA@DIJPJEGF@?$CF?$CBMRAD_STICKTOG?$AA@ 10098468     client.obj
 0002:00004478       ??_C@_0BK@DPJJBAEE@?$CDGet_in_position_and_wait?$AA@ 10098478     client.obj
 0002:00004494       ??_C@_0BA@LHBMKHLH@?$CF?$CBMRAD_GETINPOS?$AA@ 10098494     client.obj
 0002:000044a4       ??_C@_0BB@BJKNMBML@?$CDStorm_the_front?$AA@ 100984a4     client.obj
 0002:000044b8       ??_C@_0BC@PIDKGNPD@?$CF?$CBMRAD_STORMFRONT?$AA@ 100984b8     client.obj
 0002:000044cc       ??_C@_0BA@GHPOMDIB@?$CDReport_in_team?$AA@ 100984cc     client.obj
 0002:000044dc       ??_C@_0BA@KCMOJKPN@?$CF?$CBMRAD_REPORTIN?$AA@ 100984dc     client.obj
 0002:000044ec       ??_C@_0N@EJHGINL@?$CDAffirmative?$AA@ 100984ec     client.obj
 0002:000044fc       ??_C@_0O@NJEIOJIN@?$CF?$CBMRAD_AFFIRM?$AA@ 100984fc     client.obj
 0002:0000450c       ??_C@_0M@DNBLLGBE@?$CDRoger_that?$AA@ 1009850c     client.obj
 0002:00004518       ??_C@_0N@KPCKOAIB@?$CF?$CBMRAD_ROGER?$AA@ 10098518     client.obj
 0002:00004528       ??_C@_0P@JMAKCKCE@?$CDEnemy_spotted?$AA@ 10098528     client.obj
 0002:00004538       ??_C@_0BB@NKOKMLA@?$CF?$CBMRAD_ENEMYSPOT?$AA@ 10098538     client.obj
 0002:0000454c       ??_C@_0N@CMJIBBMF@?$CDNeed_backup?$AA@ 1009854c     client.obj
 0002:0000455c       ??_C@_0O@GNGPPOMK@?$CF?$CBMRAD_BACKUP?$AA@ 1009855c     client.obj
 0002:0000456c       ??_C@_0O@JPBAFFGL@?$CDSector_clear?$AA@ 1009856c     client.obj
 0002:0000457c       ??_C@_0N@INAACLDI@?$CF?$CBMRAD_CLEAR?$AA@ 1009857c     client.obj
 0002:0000458c       ??_C@_0N@OANCKCII@?$CDIn_position?$AA@ 1009858c     client.obj
 0002:0000459c       ??_C@_0N@CCBJOANI@?$CF?$CBMRAD_INPOS?$AA@ 1009859c     client.obj
 0002:000045ac       ??_C@_0O@EGDDFOBN@?$CDReporting_in?$AA@ 100985ac     client.obj
 0002:000045bc       ??_C@_0BC@FEHHAALP@?$CF?$CBMRAD_REPRTINGIN?$AA@ 100985bc     client.obj
 0002:000045d0       ??_C@_0BC@EFOMPAPA@?$CDGet_out_of_there?$AA@ 100985d0     client.obj
 0002:000045e4       ??_C@_0M@KBCMOEHG@?$CF?$CBMRAD_BLOW?$AA@ 100985e4     client.obj
 0002:000045f0       ??_C@_09LJHHICAC@?$CDNegative?$AA@ 100985f0     client.obj
 0002:000045fc       ??_C@_0BA@KJPEKPMM@?$CF?$CBMRAD_NEGATIVE?$AA@ 100985fc     client.obj
 0002:0000460c       ??_C@_0M@PPLBOBIJ@?$CDEnemy_down?$AA@ 1009860c     client.obj
 0002:00004618       ??_C@_0BB@HFAMKIPI@?$CF?$CBMRAD_ENEMYDOWN?$AA@ 10098618     client.obj
 0002:0000462c       ??_C@_0P@IJIKBFNI@ammo_338magnum?$AA@ 1009862c     client.obj
 0002:0000463c       ??_C@_0BA@LKOJKHLF@ammo_556natobox?$AA@ 1009863c     client.obj
 0002:0000464c       ??_C@_0N@HCAEAANH@ammo_556nato?$AA@ 1009864c     client.obj
 0002:0000465c       ??_C@_0N@JKFIFPCB@ammo_762nato?$AA@ 1009865c     client.obj
 0002:0000466c       ??_C@_0O@ENPHGKLB@ammo_buckshot?$AA@ 1009866c     client.obj
 0002:0000467c       ??_C@_0L@EAFPCLDF@ammo_45acp?$AA@ 1009867c     client.obj
 0002:00004688       ??_C@_09NANFBHAH@ammo_57mm?$AA@ 10098688     client.obj
 0002:00004694       ??_C@_08KNPPPJNO@ammo_9mm?$AA@ 10098694     client.obj
 0002:000046a0       ??_C@_09IMMBFMNC@ammo_50ae?$AA@ 100986a0     client.obj
 0002:000046ac       ??_C@_0M@ENFFKNON@ammo_357sig?$AA@ 100986ac     client.obj
 0002:000046b8       ??_C@_0CL@COGCKJKE@Tried?5to?5buy?5ammo?5for?5an?5unrecog@ 100986b8     client.obj
 0002:000046e4       ??_C@_0BB@MEOEBCJC@?$CDAlias_Not_Avail?$AA@ 100986e4     client.obj
 0002:000046f8       ??_C@_08GCBAPFOD@primammo?$AA@ 100986f8     client.obj
 0002:00004704       ??_C@_07CAJIPGGL@secammo?$AA@ 10098704     client.obj
 0002:0000470c       ??_C@_04FOFDHAEH@vest?$AA@ 1009870c     client.obj
 0002:00004714       ??_C@_08HLFDGGKD@vesthelm?$AA@ 10098714     client.obj
 0002:00004720       ??_C@_05LEFLIPJH@flash?$AA@ 10098720     client.obj
 0002:00004728       ??_C@_06NNLFDAEC@hegren?$AA@ 10098728     client.obj
 0002:00004730       ??_C@_05JMMNKNJL@sgren?$AA@ 10098730     client.obj
 0002:00004738       ??_C@_04BIABMJBO@nvgs?$AA@ 10098738     client.obj
 0002:00004740       ??_C@_0BC@BCIMEFGB@?$CDBomb_Defusal_Kit?$AA@ 10098740     client.obj
 0002:00004754       ??_C@_06IDDCOJOK@shield?$AA@ 10098754     client.obj
 0002:0000475c       ??_C@_0BB@IKFBB@?$CDTactShield_Desc?$AA@ 1009875c     client.obj
 0002:00004770       ??_C@_07KMFNACKF@coverme?$AA@ 10098770     client.obj
 0002:00004778       ??_C@_09KDLEPHCP@takepoint?$AA@ 10098778     client.obj
 0002:00004784       ??_C@_07NLAPLPIM@holdpos?$AA@ 10098784     client.obj
 0002:0000478c       ??_C@_07CFIFGNGM@regroup?$AA@ 1009878c     client.obj
 0002:00004794       ??_C@_08LJGLPHPA@followme?$AA@ 10098794     client.obj
 0002:000047a0       ??_C@_0L@CEOPLFCH@takingfire?$AA@ 100987a0     client.obj
 0002:000047ac       ??_C@_02KPEDIMCA@go?$AA@   100987ac     client.obj
 0002:000047b0       ??_C@_08LFBOCJLE@fallback?$AA@ 100987b0     client.obj
 0002:000047bc       ??_C@_08LAEPPAD@sticktog?$AA@ 100987bc     client.obj
 0002:000047c8       ??_C@_08IEIHMMNB@getinpos?$AA@ 100987c8     client.obj
 0002:000047d4       ??_C@_0L@LMDEEINL@stormfront?$AA@ 100987d4     client.obj
 0002:000047e0       ??_C@_06MHOMHIDM@report?$AA@ 100987e0     client.obj
 0002:000047e8       ??_C@_05OGFBMPAP@roger?$AA@ 100987e8     client.obj
 0002:000047f0       ??_C@_09DMMINHBE@enemyspot?$AA@ 100987f0     client.obj
 0002:000047fc       ??_C@_0L@HDHAHJFC@needbackup?$AA@ 100987fc     client.obj
 0002:00004808       ??_C@_0M@JJJIFELL@sectorclear?$AA@ 10098808     client.obj
 0002:00004814       ??_C@_0L@IJFFADDJ@inposition?$AA@ 10098814     client.obj
 0002:00004820       ??_C@_0M@PNGJFLDL@reportingin?$AA@ 10098820     client.obj
 0002:0000482c       ??_C@_06CMFHLBA@getout?$AA@ 1009882c     client.obj
 0002:00004834       ??_C@_08JKGPMEKK@negative?$AA@ 10098834     client.obj
 0002:00004840       ??_C@_09EEGKNDFM@enemydown?$AA@ 10098840     client.obj
 0002:0000484c       ??_C@_0L@BAECHHDI@fullupdate?$AA@ 1009884c     client.obj
 0002:00004858       ??_C@_04GHHIKFLG@vote?$AA@ 10098858     client.obj
 0002:00004860       ??_C@_0BA@EFKKMJOH@?$CDWait_3_Seconds?$AA@ 10098860     client.obj
 0002:00004870       ??_C@_0BB@OAMIBCKD@?$CDGame_vote_usage?$AA@ 10098870     client.obj
 0002:00004884       ??_C@_0CC@INIIOHOO@?$CDCannot_Vote_With_Less_Than_Thre@ 10098884     client.obj
 0002:000048a8       ??_C@_0CA@DGENBLHP@?$CDGame_vote_players_on_your_team?$AA@ 100988a8     client.obj
 0002:000048c8       ??_C@_0BI@LCHLKIHP@?$CDGame_vote_not_yourself?$AA@ 100988c8     client.obj
 0002:000048e0       ??_C@_0BA@ELNOODGH@?$CDGame_vote_cast?$AA@ 100988e0     client.obj
 0002:000048f0       ??_C@_0BM@LCPDILJO@?$CDGame_vote_player_not_found?$AA@ 100988f0     client.obj
 0002:0000490c       ??_C@_08JDONMGOP@listmaps?$AA@ 1009890c     client.obj
 0002:00004918       ??_C@_07ODBLMEFI@votemap?$AA@ 10098918     client.obj
 0002:00004920       ??_C@_0BB@KFKBFIJE@?$CDCannot_Vote_Map?$AA@ 10098920     client.obj
 0002:00004934       ??_C@_0BE@KKLKFCIP@?$CDGame_votemap_usage?$AA@ 10098934     client.obj
 0002:00004948       ??_C@_0BO@INLMILDJ@?$CDCannot_Vote_Need_More_People?$AA@ 10098948     client.obj
 0002:00004968       ??_C@_0BE@MCDBCIFI@?$CDGame_voted_for_map?$AA@ 10098968     client.obj
 0002:0000497c       ??_C@_08JOHGOHMJ@timeleft?$AA@ 1009897c     client.obj
 0002:00004988       ??_C@_0BD@MJHCBKGH@?$CDGame_no_timelimit?$AA@ 10098988     client.obj
 0002:0000499c       ??_C@_0BA@MMPMJEGM@?$CDGame_timelimit?$AA@ 1009899c     client.obj
 0002:000049ac       ??_C@_0M@LKGJGEJM@listplayers?$AA@ 100989ac     client.obj
 0002:000049b8       ??_C@_0BA@CFOECNLA@client_buy_open?$AA@ 100989b8     client.obj
 0002:000049c8       ??_C@_0BB@HKFPKCPM@client_buy_close?$AA@ 100989c8     client.obj
 0002:000049dc       ??_C@_0L@JMKGJPHD@menuselect?$AA@ 100989dc     client.obj
 0002:000049e8       ??_C@_0BA@IBLJCCKJ@?$CDIG_Team_Select?$AA@ 100989e8     client.obj
 0002:000049f8       ??_C@_0N@OEDCBEKN@?$CDTeam_Select?$AA@ 100989f8     client.obj
 0002:00004a08       ??_C@_0CI@FPNBOBJJ@ClientCommand?$CI?$CJ?3?5Invalid?5menu?5se@ 10098a08     client.obj
 0002:00004a30       ??_C@_0L@JDKKHFA@chooseteam?$AA@ 10098a30     client.obj
 0002:00004a3c       ??_C@_0BK@CCELMDEJ@?$CDIG_VIP_Team_Select_Spect?$AA@ 10098a3c     client.obj
 0002:00004a58       ??_C@_0BE@DFLPNDLO@?$CDIG_VIP_Team_Select?$AA@ 10098a58     client.obj
 0002:00004a6c       ??_C@_0BG@KOPAIBJH@?$CDIG_Team_Select_Spect?$AA@ 10098a6c     client.obj
 0002:00004a84       ??_C@_0N@OMAMMGOA@showbriefing?$AA@ 10098a84     client.obj
 0002:00004a94       ??_C@_09BDGFIKJL@ignoremsg?$AA@ 10098a94     client.obj
 0002:00004aa0       ??_C@_0BL@NGCFBHFD@?$CDIgnore_Broadcast_Messages?$AA@ 10098aa0     client.obj
 0002:00004abc       ??_C@_0CA@CLCABEEN@?$CDIgnore_Broadcast_Team_Messages?$AA@ 10098abc     client.obj
 0002:00004adc       ??_C@_0BF@JCGIDKPF@?$CDAccept_All_Messages?$AA@ 10098adc     client.obj
 0002:00004af4       ??_C@_09CPJAOJIP@ignorerad?$AA@ 10098af4     client.obj
 0002:00004b00       ??_C@_0O@LMCNOLHM@?$CDIgnore_Radio?$AA@ 10098b00     client.obj
 0002:00004b10       ??_C@_0O@KHHJMHJD@?$CDAccept_Radio?$AA@ 10098b10     client.obj
 0002:00004b20       ??_C@_0L@OJFNDMGH@become_vip?$AA@ 10098b20     client.obj
 0002:00004b2c       ??_C@_0BH@GBJHAOPI@?$CDCommand_Not_Available?$AA@ 10098b2c     client.obj
 0002:00004b44       ??_C@_08OPNMBCGA@spectate?$AA@ 10098b44     client.obj
 0002:00004b50       ??_C@_08HONFDDNA@specmode?$AA@ 10098b50     client.obj
 0002:00004b5c       ??_C@_0M@KFPLKJEI@spec_set_ad?$AA@ 10098b5c     client.obj
 0002:00004b68       ??_C@_0L@GBHEMAKD@follownext?$AA@ 10098b68     client.obj
 0002:00004b74       ??_C@_06HNJAFFAK@follow?$AA@ 10098b74     client.obj
 0002:00004b7c       ??_C@_08GMEMMAKD@jointeam?$AA@ 10098b7c     client.obj
 0002:00004b88       ??_C@_09EONKEKIP@joinclass?$AA@ 10098b88     client.obj
 0002:00004b94       ??_C@_0M@HCKANOMF@nightvision?$AA@ 10098b94     client.obj
 0002:00004ba0       ??_C@_0BC@KBPFIBDD@items?1nvg_off?4wav?$AA@ 10098ba0     client.obj
 0002:00004bb4       ??_C@_0BB@LCIJBDDB@items?1nvg_on?4wav?$AA@ 10098bb4     client.obj
 0002:00004bc8       ??_C@_06HFIGNPNH@radio1?$AA@ 10098bc8     client.obj
 0002:00004bd0       ??_C@_07BKLDPKBP@?$CDRadioA?$AA@ 10098bd0     client.obj
 0002:00004bd8       ??_C@_06FOKLIMBE@radio2?$AA@ 10098bd8     client.obj
 0002:00004be0       ??_C@_07DBJOKJNM@?$CDRadioB?$AA@ 10098be0     client.obj
 0002:00004be8       ??_C@_06EHLALNFF@radio3?$AA@ 10098be8     client.obj
 0002:00004bf0       ??_C@_07CIIFJIJN@?$CDRadioC?$AA@ 10098bf0     client.obj
 0002:00004bf8       ??_C@_04PIONEEJD@drop?$AA@ 10098bf8     client.obj
 0002:00004c00       ??_C@_09FDEIFAFE@weapon_c4?$AA@ 10098c00     client.obj
 0002:00004c0c       ??_C@_03PKBINKFB@fov?$AA@  10098c0c     client.obj
 0002:00004c10       ??_C@_03MMGHDJKG@use?$AA@  10098c10     client.obj
 0002:00004c14       ??_C@_07MDJDKHIJ@weapon_?$AA@ 10098c14     client.obj
 0002:00004c1c       ??_C@_07MMLOGLIA@lastinv?$AA@ 10098c1c     client.obj
 0002:00004c24       ??_C@_08BILDIDAN@buyammo1?$AA@ 10098c24     client.obj
 0002:00004c30       ??_C@_08DDJONAMO@buyammo2?$AA@ 10098c30     client.obj
 0002:00004c3c       ??_C@_08FOHAMGBO@buyequip?$AA@ 10098c3c     client.obj
 0002:00004c48       ??_C@_03ODFDHHGP@buy?$AA@  10098c48     client.obj
 0002:00004c4c       ??_C@_04CCGGKFIE@?$CDBuy?$AA@ 10098c4c     client.obj
 0002:00004c54       ??_C@_0O@ONDHEEGD@cl_setautobuy?$AA@ 10098c54     client.obj
 0002:00004c64       ??_C@_0M@KKOFPINO@cl_setrebuy?$AA@ 10098c64     client.obj
 0002:00004c70       ??_C@_0L@CPFGHDBN@cl_autobuy?$AA@ 10098c70     client.obj
 0002:00004c7c       ??_C@_08EBBHJOB@cl_rebuy?$AA@ 10098c7c     client.obj
 0002:00004c88       ??_C@_0L@JJHEBHLH@smartradio?$AA@ 10098c88     client.obj
 0002:00004c94       ??_C@_0BG@GNPKOJL@?$CDGame_unknown_command?$AA@ 10098c94     client.obj
 0002:00004cac       ??_C@_04MEMAJGDJ@name?$AA@ 10098cac     client.obj
 0002:00004cb4       ??_C@_0BI@CIDMPNGC@?$CDName_change_at_respawn?$AA@ 10098cb4     client.obj
 0002:00004ccc       ??_C@_0BF@HCMGNALM@?$CDCstrike_Name_Change?$AA@ 10098ccc     client.obj
 0002:00004ce4       ??_C@_0CH@NAMGOCBE@?$CC?$CFs?$DM?$CFi?$DO?$DM?$CFs?$DO?$DM?$CFs?$DO?$CC?5changed?5name?5to@ 10098ce4     client.obj
 0002:00004d0c       ??_C@_0BD@BMHPBGOD@Can?8t?5instance?5?$CFs?6?$AA@ 10098d0c     client.obj
 0002:00004d20       ??_C@_05ODMCMJAJ@skill?$AA@ 10098d20     client.obj
 0002:00004d28       ??_C@_0BL@POEMGIDP@weapons?1dryfire_pistol?4wav?$AA@ 10098d28     client.obj
 0002:00004d44       ??_C@_0BK@GNAPJDHJ@weapons?1dryfire_rifle?4wav?$AA@ 10098d44     client.obj
 0002:00004d60       ??_C@_0BE@CPIIPLEE@player?1pl_shot1?4wav?$AA@ 10098d60     client.obj
 0002:00004d74       ??_C@_0BD@OIJCOHKN@player?1pl_die1?4wav?$AA@ 10098d74     client.obj
 0002:00004d88       ??_C@_0BF@IHAFAPNF@player?1headshot1?4wav?$AA@ 10098d88     client.obj
 0002:00004da0       ??_C@_0BF@BJBHNHL@player?1headshot2?4wav?$AA@ 10098da0     client.obj
 0002:00004db8       ??_C@_0BF@MKMNKONO@player?1headshot3?4wav?$AA@ 10098db8     client.obj
 0002:00004dd0       ??_C@_0BI@CFNAOCJN@player?1bhit_flesh?91?4wav?$AA@ 10098dd0     client.obj
 0002:00004de8       ??_C@_0BI@KDEEJADD@player?1bhit_flesh?92?4wav?$AA@ 10098de8     client.obj
 0002:00004e00       ??_C@_0BI@GIBIEDJG@player?1bhit_flesh?93?4wav?$AA@ 10098e00     client.obj
 0002:00004e18       ??_C@_0BJ@OHIJMCOC@player?1bhit_kevlar?91?4wav?$AA@ 10098e18     client.obj
 0002:00004e34       ??_C@_0BJ@GCFLABNG@player?1bhit_helmet?91?4wav?$AA@ 10098e34     client.obj
 0002:00004e50       ??_C@_0BA@CPFJPBKF@player?1die1?4wav?$AA@ 10098e50     client.obj
 0002:00004e60       ??_C@_0BA@KJMNIDAL@player?1die2?4wav?$AA@ 10098e60     client.obj
 0002:00004e70       ??_C@_0BA@GCJBFAKO@player?1die3?4wav?$AA@ 10098e70     client.obj
 0002:00004e80       ??_C@_0BC@IONHJGGE@player?1death6?4wav?$AA@ 10098e80     client.obj
 0002:00004e94       ??_C@_0BE@FHDLOCM@radio?1locknload?4wav?$AA@ 10098e94     client.obj
 0002:00004ea8       ??_C@_0BB@FFBECBEJ@radio?1letsgo?4wav?$AA@ 10098ea8     client.obj
 0002:00004ebc       ??_C@_0BC@DAFDCPOA@radio?1moveout?4wav?$AA@ 10098ebc     client.obj
 0002:00004ed0       ??_C@_0BB@HPHEMGHF@radio?1com_go?4wav?$AA@ 10098ed0     client.obj
 0002:00004ee4       ??_C@_0BC@LADAAEJB@radio?1rescued?4wav?$AA@ 10098ee4     client.obj
 0002:00004ef8       ??_C@_0BE@PECOFFIA@radio?1rounddraw?4wav?$AA@ 10098ef8     client.obj
 0002:00004f0c       ??_C@_0BG@DLDFGMFM@items?1ammopickup2?4wav?$AA@ 10098f0c     client.obj
 0002:00004f24       ??_C@_0BF@CBLGFFLP@weapons?1c4_beep1?4wav?$AA@ 10098f24     client.obj
 0002:00004f3c       ??_C@_0BF@KHCCCHBB@weapons?1c4_beep2?4wav?$AA@ 10098f3c     client.obj
 0002:00004f54       ??_C@_0BF@GMHOPELE@weapons?1c4_beep3?4wav?$AA@ 10098f54     client.obj
 0002:00004f6c       ??_C@_0BF@HBHLMEAM@weapons?1c4_beep4?4wav?$AA@ 10098f6c     client.obj
 0002:00004f84       ??_C@_0BF@LKCHBHKJ@weapons?1c4_beep5?4wav?$AA@ 10098f84     client.obj
 0002:00004f9c       ??_C@_0BI@BGMCEHJI@weapons?1c4_explode1?4wav?$AA@ 10098f9c     client.obj
 0002:00004fb4       ??_C@_0BF@ECHAMAIH@weapons?1c4_plant?4wav?$AA@ 10098fb4     client.obj
 0002:00004fcc       ??_C@_0BG@BKOPOBJB@weapons?1c4_disarm?4wav?$AA@ 10098fcc     client.obj
 0002:00004fe4       ??_C@_0BI@COHGPFHG@weapons?1c4_disarmed?4wav?$AA@ 10098fe4     client.obj
 0002:00004ffc       ??_C@_0BF@JODNKDND@weapons?1explode3?4wav?$AA@ 10098ffc     client.obj
 0002:00005014       ??_C@_0BF@IDDIJDGL@weapons?1explode4?4wav?$AA@ 10099014     client.obj
 0002:0000502c       ??_C@_0BF@EIGEEAMO@weapons?1explode5?4wav?$AA@ 1009902c     client.obj
 0002:00005044       ??_C@_0BD@DOKDOHJH@player?1sprayer?4wav?$AA@ 10099044     client.obj
 0002:00005058       ??_C@_0BI@DAMJBODD@player?1pl_fallpain2?4wav?$AA@ 10099058     client.obj
 0002:00005070       ??_C@_0BI@PLJFMNJG@player?1pl_fallpain3?4wav?$AA@ 10099070     client.obj
 0002:00005088       ??_C@_0BE@PGOLNKEF@player?1pl_snow5?4wav?$AA@ 10099088     client.obj
 0002:0000509c       ??_C@_0BE@HAHPKIOL@player?1pl_snow6?4wav?$AA@ 1009909c     client.obj
 0002:000050b0       ??_C@_0BF@DHFMPOGA@common?1npc_step1?4wav?$AA@ 100990b0     client.obj
 0002:000050c8       ??_C@_0BF@LBMIIMMO@common?1npc_step2?4wav?$AA@ 100990c8     client.obj
 0002:000050e0       ??_C@_0BF@HKJEFPGL@common?1npc_step3?4wav?$AA@ 100990e0     client.obj
 0002:000050f8       ??_C@_0BF@GHJBGPND@common?1npc_step4?4wav?$AA@ 100990f8     client.obj
 0002:00005110       ??_C@_0BE@GINIKGHO@player?1pl_swim1?4wav?$AA@ 10099110     client.obj
 0002:00005124       ??_C@_0BE@CFBAAHHF@player?1pl_swim3?4wav?$AA@ 10099124     client.obj
 0002:00005138       ??_C@_0BE@DIBFDHMN@player?1pl_swim4?4wav?$AA@ 10099138     client.obj
 0002:0000514c       ??_C@_0BB@MNLIPNHB@debris?1wood1?4wav?$AA@ 1009914c     client.obj
 0002:00005160       ??_C@_0BB@ELCMIPNP@debris?1wood2?4wav?$AA@ 10099160     client.obj
 0002:00005174       ??_C@_0BB@IAHAFMHK@debris?1wood3?4wav?$AA@ 10099174     client.obj
 0002:00005188       ??_C@_0BF@CHHJHBMH@plats?1train_use1?4wav?$AA@ 10099188     client.obj
 0002:000051a0       ??_C@_0BL@KDIEADLE@plats?1vehicle_ignition?4wav?$AA@ 100991a0     client.obj
 0002:000051bc       ??_C@_0BC@NNNLHPFN@debris?1glass1?4wav?$AA@ 100991bc     client.obj
 0002:000051d0       ??_C@_0BC@FLEPANPD@debris?1glass2?4wav?$AA@ 100991d0     client.obj
 0002:000051e4       ??_C@_0BC@JABDNOFG@debris?1glass3?4wav?$AA@ 100991e4     client.obj
 0002:000051f8       ??_C@_0BG@GEEPOHBH@items?1flashlight1?4wav?$AA@ 100991f8     client.obj
 0002:00005210       ??_C@_0BF@EIPAPGDL@common?1bodysplat?4wav?$AA@ 10099210     client.obj
 0002:00005228       ??_C@_0BE@OLEJEOLF@player?1pl_pain2?4wav?$AA@ 10099228     client.obj
 0002:0000523c       ??_C@_0BE@DNBAKNKI@player?1pl_pain4?4wav?$AA@ 1009923c     client.obj
 0002:00005250       ??_C@_0BE@PGEMHOAN@player?1pl_pain5?4wav?$AA@ 10099250     client.obj
 0002:00005264       ??_C@_0BE@HANIAMKD@player?1pl_pain6?4wav?$AA@ 10099264     client.obj
 0002:00005278       ??_C@_0BE@LLIENPAG@player?1pl_pain7?4wav?$AA@ 10099278     client.obj
 0002:0000528c       ??_C@_0BC@GKEFMKPJ@models?1p_ak47?4mdl?$AA@ 1009928c     client.obj
 0002:000052a0       ??_C@_0BB@CPEMAIAP@models?1p_aug?4mdl?$AA@ 100992a0     client.obj
 0002:000052b4       ??_C@_0BB@KGAACLAF@models?1p_awp?4mdl?$AA@ 100992b4     client.obj
 0002:000052c8       ??_C@_0BA@CPKBBBMD@models?1p_c4?4mdl?$AA@ 100992c8     client.obj
 0002:000052d8       ??_C@_0BA@ELMAHMAK@models?1w_c4?4mdl?$AA@ 100992d8     client.obj
 0002:000052e8       ??_C@_0BE@KPBMPGPG@models?1p_deagle?4mdl?$AA@ 100992e8     client.obj
 0002:000052fc       ??_C@_0CC@NJKEIHPF@models?1shield?1p_shield_deagle?4md@ 100992fc     client.obj
 0002:00005320       ??_C@_0BH@NINIHKNE@models?1p_flashbang?4mdl?$AA@ 10099320     client.obj
 0002:00005338       ??_C@_0CF@CJAALHPC@models?1shield?1p_shield_flashbang@ 10099338     client.obj
 0002:00005360       ??_C@_0BH@EABHNJHN@models?1p_hegrenade?4mdl?$AA@ 10099360     client.obj
 0002:00005378       ??_C@_0CF@LBMPBEFL@models?1shield?1p_shield_hegrenade@ 10099378     client.obj
 0002:000053a0       ??_C@_0BF@LGFHPLCO@models?1p_glock18?4mdl?$AA@ 100993a0     client.obj
 0002:000053b8       ??_C@_0CD@CPCIBCOF@models?1shield?1p_shield_glock18?4m@ 100993b8     client.obj
 0002:000053dc       ??_C@_0BC@JBBPDMJ@models?1p_p228?4mdl?$AA@ 100993dc     client.obj
 0002:000053f0       ??_C@_0CA@FCCKHDNA@models?1shield?1p_shield_p228?4mdl?$AA@ 100993f0     client.obj
 0002:00005410       ??_C@_0BK@FNBPFFHO@models?1p_smokegrenade?4mdl?$AA@ 10099410     client.obj
 0002:0000542c       ??_C@_0CI@JHIDJMDI@models?1shield?1p_shield_smokegren@ 1009942c     client.obj
 0002:00005454       ??_C@_0BB@KKLODAMH@models?1p_usp?4mdl?$AA@ 10099454     client.obj
 0002:00005468       ??_C@_0BP@EPJADEHI@models?1shield?1p_shield_usp?4mdl?$AA@ 10099468     client.obj
 0002:00005488       ??_C@_0BH@BDGNOJOK@models?1p_fiveseven?4mdl?$AA@ 10099488     client.obj
 0002:000054a0       ??_C@_0CF@OCLFCEMM@models?1shield?1p_shield_fiveseven@ 100994a0     client.obj
 0002:000054c8       ??_C@_0BD@BCKADMEP@models?1p_knife?4mdl?$AA@ 100994c8     client.obj
 0002:000054dc       ??_C@_0CB@HGJAKPAP@models?1shield?1p_shield_knife?4mdl@ 100994dc     client.obj
 0002:00005500       ??_C@_0BH@CFCBICKB@models?1w_flashbang?4mdl?$AA@ 10099500     client.obj
 0002:00005518       ??_C@_0BH@LNOOCBAI@models?1w_hegrenade?4mdl?$AA@ 10099518     client.obj
 0002:00005530       ??_C@_0BD@MGINMHOP@models?1p_sg550?4mdl?$AA@ 10099530     client.obj
 0002:00005544       ??_C@_0BD@FHJCBGFG@models?1p_g3sg1?4mdl?$AA@ 10099544     client.obj
 0002:00005558       ??_C@_0BC@PMBCLAHA@models?1p_m249?4mdl?$AA@ 10099558     client.obj
 0002:0000556c       ??_C@_0BA@GCJLFKCG@models?1p_m3?4mdl?$AA@ 1009956c     client.obj
 0002:0000557c       ??_C@_0BC@KHMDPNIK@models?1p_m4a1?4mdl?$AA@ 1009957c     client.obj
 0002:00005590       ??_C@_0BD@OLPGNBGM@models?1p_mac10?4mdl?$AA@ 10099590     client.obj
 0002:000055a4       ??_C@_0BB@GLJNJLBL@models?1p_mp5?4mdl?$AA@ 100995a4     client.obj
 0002:000055b8       ??_C@_0BD@MJHKGLLI@models?1p_ump45?4mdl?$AA@ 100995b8     client.obj
 0002:000055cc       ??_C@_0BB@NHNBOPI@models?1p_p90?4mdl?$AA@ 100995cc     client.obj
 0002:000055e0       ??_C@_0BD@IPEFEEOO@models?1p_scout?4mdl?$AA@ 100995e0     client.obj
 0002:000055f4       ??_C@_0BD@ILEFGGOE@models?1p_sg552?4mdl?$AA@ 100995f4     client.obj
 0002:00005608       ??_C@_0BK@BHCBNODF@models?1w_smokegrenade?4mdl?$AA@ 10099608     client.obj
 0002:00005624       ??_C@_0BB@FBPFNHMK@models?1p_tmp?4mdl?$AA@ 10099624     client.obj
 0002:00005638       ??_C@_0BD@NCNOKJJN@models?1p_elite?4mdl?$AA@ 10099638     client.obj
 0002:0000564c       ??_C@_0BE@LAEGAIIC@models?1p_xm1014?4mdl?$AA@ 1009964c     client.obj
 0002:00005660       ??_C@_0BD@EOICDMFF@models?1p_galil?4mdl?$AA@ 10099660     client.obj
 0002:00005674       ??_C@_0BD@KMIFKJNM@models?1p_famas?4mdl?$AA@ 10099674     client.obj
 0002:00005688       ??_C@_0BE@OPIONKMO@models?1p_shield?4mdl?$AA@ 10099688     client.obj
 0002:0000569c       ??_C@_0BE@JCPNNMJG@models?1w_shield?4mdl?$AA@ 1009969c     client.obj
 0002:000056b0       ??_C@_0BJ@BOHNAGME@sprites?1black_smoke1?4spr?$AA@ 100996b0     client.obj
 0002:000056cc       ??_C@_0BJ@JIOJHEGK@sprites?1black_smoke2?4spr?$AA@ 100996cc     client.obj
 0002:000056e8       ??_C@_0BJ@FDLFKHMP@sprites?1black_smoke3?4spr?$AA@ 100996e8     client.obj
 0002:00005704       ??_C@_0BJ@EOLAJHHH@sprites?1black_smoke4?4spr?$AA@ 10099704     client.obj
 0002:00005720       ??_C@_0BL@IFABAINK@sprites?1fast_wallpuff1?4spr?$AA@ 10099720     client.obj
 0002:0000573c       ??_C@_0BG@NPJJGPKL@sprites?1smokepuff?4spr?$AA@ 1009973c     client.obj
 0002:00005754       ??_C@_0BI@NMHLFKHL@sprites?1gas_puff_01?4spr?$AA@ 10099754     client.obj
 0002:0000576c       ??_C@_0BG@CLBMLHIH@sprites?1scope_arc?4tga?$AA@ 1009976c     client.obj
 0002:00005784       ??_C@_0BJ@PEPNEGBL@sprites?1scope_arc_nw?4tga?$AA@ 10099784     client.obj
 0002:000057a0       ??_C@_0BJ@LKODOFIL@sprites?1scope_arc_ne?4tga?$AA@ 100997a0     client.obj
 0002:000057bc       ??_C@_0BJ@PCPELLBF@sprites?1scope_arc_sw?4tga?$AA@ 100997bc     client.obj
 0002:000057d8       ??_C@_0BG@MNEIFLMJ@common?1wpn_hudoff?4wav?$AA@ 100997d8     client.obj
 0002:000057f0       ??_C@_0BF@JMGAEGF@common?1wpn_hudon?4wav?$AA@ 100997f0     client.obj
 0002:00005808       ??_C@_0BK@JHOFLAAJ@common?1wpn_moveselect?4wav?$AA@ 10099808     client.obj
 0002:00005824       ??_C@_0BG@FBAPKLEJ@common?1wpn_select?4wav?$AA@ 10099824     client.obj
 0002:0000583c       ??_C@_0BK@NELGKIDH@common?1wpn_denyselect?4wav?$AA@ 1009983c     client.obj
 0002:00005858       ??_C@_0BD@FPOMJEFG@player?1geiger6?4wav?$AA@ 10099858     client.obj
 0002:0000586c       ??_C@_0BD@NJHIOGPI@player?1geiger5?4wav?$AA@ 1009986c     client.obj
 0002:00005880       ??_C@_0BD@BCCEDFFN@player?1geiger4?4wav?$AA@ 10099880     client.obj
 0002:00005894       ??_C@_0BD@PCBAFOF@player?1geiger3?4wav?$AA@ 10099894     client.obj
 0002:000058a8       ??_C@_0BD@MEHNNGEA@player?1geiger2?4wav?$AA@ 100998a8     client.obj
 0002:000058bc       ??_C@_0BD@ECOJKEOO@player?1geiger1?4wav?$AA@ 100998bc     client.obj
 0002:000058d0       ??_C@_0BA@LBLLBKPK@enemy_terrorist?$AA@ 100998d0     client.obj
 0002:000058e0       ??_C@_0BK@CKEHIHMD@sprites?1shadow_circle?4spr?$AA@ 100998e0     client.obj
 0002:000058fc       ??_C@_0BH@NMPOFKFI@sprites?1wall_puff1?4spr?$AA@ 100998fc     client.obj
 0002:00005914       ??_C@_0BH@FKGKCIPG@sprites?1wall_puff2?4spr?$AA@ 10099914     client.obj
 0002:0000592c       ??_C@_0BH@JBDGPLFD@sprites?1wall_puff3?4spr?$AA@ 1009992c     client.obj
 0002:00005944       ??_C@_0BH@IMDDMLOL@sprites?1wall_puff4?4spr?$AA@ 10099944     client.obj
 0002:0000595c       ??_C@_0BK@BKLMNJDJ@sprites?1pistol_smoke1?4spr?$AA@ 1009995c     client.obj
 0002:00005978       ??_C@_0BK@JMCIKLJH@sprites?1pistol_smoke2?4spr?$AA@ 10099978     client.obj
 0002:00005994       ??_C@_0BJ@EEAGPFPD@sprites?1rifle_smoke1?4spr?$AA@ 10099994     client.obj
 0002:000059b0       ??_C@_0BJ@MCJCIHFN@sprites?1rifle_smoke2?4spr?$AA@ 100999b0     client.obj
 0002:000059cc       ??_C@_0BJ@JMOFEPI@sprites?1rifle_smoke3?4spr?$AA@ 100999cc     client.obj
 0002:000059e8       ??_C@_0BG@FCCGPODL@events?1decal_reset?4sc?$AA@ 100999e8     client.obj
 0002:00005a00       ??_C@_0CM@BANGGDIF@PlayerCustomization?3?5?5Couldn?8t?5g@ 10099a00     client.obj
 0002:00005a2c       ??_C@_0CL@FDKPJGAL@PlayerCustomization?3?5?5NULL?5custo@ 10099a2c     client.obj
 0002:00005a58       ??_C@_0DD@HOMPMPKP@PlayerCustomization?3?5?5Unknown?5cu@ 10099a58     client.obj
 0002:00005a8c       ??_C@_0O@PCHEEIFI@Entity_Encode?$AA@ 10099a8c     client.obj
 0002:00005a9c       ??_C@_0O@GGOABDLG@Custom_Encode?$AA@ 10099a9c     client.obj
 0002:00005aac       ??_C@_0O@ENIFDO@Player_Encode?$AA@ 10099aac     client.obj
 0002:00005abc       ??_C@_0P@HELJHMBJ@mp_consistency?$AA@ 10099abc     client.obj
 0002:00005acc       ??_C@_0CN@HNFCOJEN@Server?5is?5enforcing?5file?5consist@ 10099acc     client.obj
 0002:00005b00       __real@3fe51eb851eb851f    10099b00     client.obj
 0002:00005b08       __real@42c80000            10099b08     client.obj
 0002:00005b10       __real@bf50624dd2f1a9fc    10099b10     client.obj
 0002:00005b1c       ??_7CGib@@6B@              10099b1c     combat.obj
 0002:00005c04       ??_C@_0BG@BNKFADOJ@models?1germangibs?4mdl?$AA@ 10099c04     combat.obj
 0002:00005c1c       ??_C@_0BB@GHAHFCKB@models?1hgibs?4mdl?$AA@ 10099c1c     combat.obj
 0002:00005c30       ??_C@_0BB@JLBCHJGL@models?1agibs?4mdl?$AA@ 10099c30     combat.obj
 0002:00005c44       ??_C@_0P@CKNFIDAM@violence_hgibs?$AA@ 10099c44     combat.obj
 0002:00005c54       ??_C@_0P@NNKNCME@violence_agibs?$AA@ 10099c54     combat.obj
 0002:00005c64       ??_C@_03GIIHBGND@gib?$AA@  10099c64     combat.obj
 0002:00005c68       ??_C@_0BI@IDLPOIHJ@weapons?1ric_metal?91?4wav?$AA@ 10099c68     combat.obj
 0002:00005c80       ??_C@_0BI@FCLJKNH@weapons?1ric_metal?92?4wav?$AA@ 10099c80     combat.obj
 0002:00005c98       __real@3c800000            10099c98     combat.obj
 0002:00005c9c       __real@3e19999a            10099c9c     combat.obj
 0002:00005ca0       __real@3e4ccccd            10099ca0     combat.obj
 0002:00005ca4       __real@3e800000            10099ca4     combat.obj
 0002:00005ca8       __real@3e99999a            10099ca8     combat.obj
 0002:00005cac       __real@3ecccccd            10099cac     combat.obj
 0002:00005cb0       __real@3ee66666            10099cb0     combat.obj
 0002:00005cb4       __real@3f19999a            10099cb4     combat.obj
 0002:00005cb8       __real@3f4ccccd            10099cb8     combat.obj
 0002:00005cbc       __real@3f666666            10099cbc     combat.obj
 0002:00005cc0       __real@3fc3333333333333    10099cc0     combat.obj
 0002:00005cc8       __real@3fc999999999999a    10099cc8     combat.obj
 0002:00005cd0       __real@3fe4cccccccccccd    10099cd0     combat.obj
 0002:00005cd8       __real@3fe8000000000000    10099cd8     combat.obj
 0002:00005ce0       __real@3ffc000000000000    10099ce0     combat.obj
 0002:00005ce8       __real@400c000000000000    10099ce8     combat.obj
 0002:00005cf0       __real@40a00000            10099cf0     combat.obj
 0002:00005cf4       __real@40e00000            10099cf4     combat.obj
 0002:00005cf8       __real@41a00000            10099cf8     combat.obj
 0002:00005cfc       __real@41c00000            10099cfc     combat.obj
 0002:00005d00       __real@41c80000            10099d00     combat.obj
 0002:00005d04       __real@42000000            10099d04     combat.obj
 0002:00005d08       __real@42280000            10099d08     combat.obj
 0002:00005d0c       __real@42960000            10099d0c     combat.obj
 0002:00005d10       __real@42a00000            10099d10     combat.obj
 0002:00005d14       __real@43960000            10099d14     combat.obj
 0002:00005d18       __real@43e10000            10099d18     combat.obj
 0002:00005d1c       __real@43fa0000            10099d1c     combat.obj
 0002:00005d20       __real@44480000            10099d20     combat.obj
 0002:00005d24       __real@44bb8000            10099d24     combat.obj
 0002:00005d28       __real@457a0000            10099d28     combat.obj
 0002:00005d2c       __real@459c4000            10099d2c     combat.obj
 0002:00005d30       __real@45fa0000            10099d30     combat.obj
 0002:00005d34       __real@be19999a            10099d34     combat.obj
 0002:00005d38       __real@bf000000            10099d38     combat.obj
 0002:00005d40       __real@bfd3333333333333    10099d40     combat.obj
 0002:00005d48       __real@c0a00000            10099d48     combat.obj
 0002:00005d4c       __real@c1f00000            10099d4c     combat.obj
 0002:00005d50       __real@c2480000            10099d50     combat.obj
 0002:00005d54       __real@c2c60000            10099d54     combat.obj
 0002:00005d58       __real@c32c0000            10099d58     combat.obj
 0002:00005d5c       __real@c3480000            10099d5c     combat.obj
 0002:00005d60       ??_C@_0P@MPDEGIBO@m_bHealthValue?$AA@ 10099d60     doors.obj
 0002:00005d70       ??_C@_0L@OMBNPENP@m_bMoveSnd?$AA@ 10099d70     doors.obj
 0002:00005d7c       ??_C@_0L@GMCMFEFD@m_bStopSnd?$AA@ 10099d7c     doors.obj
 0002:00005d8c       ??_7CBaseDoor@@6B@         10099d8c     doors.obj
 0002:00005e78       ??_C@_09JANAHKGE@CBaseDoor?$AA@ 10099e78     doors.obj
 0002:00005e84       ??_C@_07BKDGPIOK@movesnd?$AA@ 10099e84     doors.obj
 0002:00005e8c       ??_C@_07JKAHFIGG@stopsnd?$AA@ 10099e8c     doors.obj
 0002:00005e94       ??_C@_0M@NNKPFEMJ@healthvalue?$AA@ 10099e94     doors.obj
 0002:00005ea0       ??_C@_0L@PAPDKEGB@WaveHeight?$AA@ 10099ea0     doors.obj
 0002:00005eac       ??_C@_0BE@BBEIDEHN@doors?1doormove1?4wav?$AA@ 10099eac     doors.obj
 0002:00005ec0       ??_C@_0BE@JHNMEGND@doors?1doormove2?4wav?$AA@ 10099ec0     doors.obj
 0002:00005ed4       ??_C@_0BE@FMIAJFHG@doors?1doormove3?4wav?$AA@ 10099ed4     doors.obj
 0002:00005ee8       ??_C@_0BE@EBIFKFMO@doors?1doormove4?4wav?$AA@ 10099ee8     doors.obj
 0002:00005efc       ??_C@_0BE@IKNJHGGL@doors?1doormove5?4wav?$AA@ 10099efc     doors.obj
 0002:00005f10       ??_C@_0BE@MENAEMF@doors?1doormove6?4wav?$AA@ 10099f10     doors.obj
 0002:00005f24       ??_C@_0BE@MHBBNHGA@doors?1doormove7?4wav?$AA@ 10099f24     doors.obj
 0002:00005f38       ??_C@_0BE@DGEHGFLF@doors?1doormove8?4wav?$AA@ 10099f38     doors.obj
 0002:00005f4c       ??_C@_0BE@PNBLLGBA@doors?1doormove9?4wav?$AA@ 10099f4c     doors.obj
 0002:00005f60       ??_C@_0BF@DHAEOICC@doors?1doormove10?4wav?$AA@ 10099f60     doors.obj
 0002:00005f78       ??_C@_0BE@FAKIMAOD@doors?1doorstop1?4wav?$AA@ 10099f78     doors.obj
 0002:00005f8c       ??_C@_0BE@NGDMLCEN@doors?1doorstop2?4wav?$AA@ 10099f8c     doors.obj
 0002:00005fa0       ??_C@_0BE@BNGAGBOI@doors?1doorstop3?4wav?$AA@ 10099fa0     doors.obj
 0002:00005fb4       ??_C@_0BE@GFFBFA@doors?1doorstop4?4wav?$AA@ 10099fb4     doors.obj
 0002:00005fc8       ??_C@_0BE@MLDJICPF@doors?1doorstop5?4wav?$AA@ 10099fc8     doors.obj
 0002:00005fdc       ??_C@_0BE@ENKNPAFL@doors?1doorstop6?4wav?$AA@ 10099fdc     doors.obj
 0002:00005ff0       ??_C@_0BE@IGPBCDPO@doors?1doorstop7?4wav?$AA@ 10099ff0     doors.obj
 0002:00006004       ??_C@_0BE@HHKHJBCL@doors?1doorstop8?4wav?$AA@ 1009a004     doors.obj
 0002:00006018       ??_C@_0BD@CAJBLNMK@func_door_rotating?$AA@ 1009a018     doors.obj
 0002:0000602c       ??_C@_09KJCKJKEG@func_door?$AA@ 1009a02c     doors.obj
 0002:0000603c       ??_7CRotDoor@@6B@          1009a03c     doors.obj
 0002:0000612c       ??_7CMomentaryDoor@@6B@    1009a12c     doors.obj
 0002:00006218       ??_C@_0P@CFKCHMA@CMomentaryDoor?$AA@ 1009a218     doors.obj
 0002:00006228       __real@4008000000000000    1009a228     doors.obj
 0002:00006230       ??_C@_0L@NFHODIAB@m_restrike?$AA@ 1009a230     effects.obj
 0002:0000623c       ??_C@_0BA@CPMFMELB@m_spriteTexture?$AA@ 1009a23c     effects.obj
 0002:0000624c       ??_C@_0BA@GILAOABN@m_iszSpriteName?$AA@ 1009a24c     effects.obj
 0002:0000625c       ??_C@_0N@HNOKCAMN@m_frameStart?$AA@ 1009a25c     effects.obj
 0002:0000626c       ??_C@_08PMDHJILP@m_radius?$AA@ 1009a26c     effects.obj
 0002:00006278       ??_C@_09KOIGKNNN@m_pSprite?$AA@ 1009a278     effects.obj
 0002:00006284       ??_C@_0P@BGIFJAHH@m_firePosition?$AA@ 1009a284     effects.obj
 0002:00006294       ??_C@_0L@HPDKAJAO@m_lastTime?$AA@ 1009a294     effects.obj
 0002:000062a0       ??_C@_0L@KIMBBNFK@m_maxFrame?$AA@ 1009a2a0     effects.obj
 0002:000062ac       ??_C@_07MIOJFLJL@m_iGibs?$AA@ 1009a2ac     effects.obj
 0002:000062b4       ??_C@_0P@DFLCGCLB@m_iGibCapacity?$AA@ 1009a2b4     effects.obj
 0002:000062c4       ??_C@_0P@OCHGOGJL@m_iGibMaterial?$AA@ 1009a2c4     effects.obj
 0002:000062d4       ??_C@_0BB@LHIGCDIG@m_iGibModelIndex?$AA@ 1009a2d4     effects.obj
 0002:000062e8       ??_C@_0BA@LKDGGDHE@m_flGibVelocity?$AA@ 1009a2e8     effects.obj
 0002:000062f8       ??_C@_0N@OALEENLK@m_flVariance?$AA@ 1009a2f8     effects.obj
 0002:00006308       ??_C@_0M@EIIIDCDB@m_flGibLife?$AA@ 1009a308     effects.obj
 0002:00006314       ??_C@_09HPAPBFGC@m_density?$AA@ 1009a314     effects.obj
 0002:00006320       ??_C@_0M@GMIBMEAJ@m_frequency?$AA@ 1009a320     effects.obj
 0002:0000632c       ??_C@_08JJPHCDOL@m_active?$AA@ 1009a32c     effects.obj
 0002:00006338       ??_C@_0BB@DNNBPBAL@m_iszStartEntity?$AA@ 1009a338     effects.obj
 0002:0000634c       ??_C@_0P@FKJLMNIL@m_iszEndEntity?$AA@ 1009a34c     effects.obj
 0002:0000635c       ??_C@_06DLBGLNDD@m_life?$AA@ 1009a35c     effects.obj
 0002:00006364       ??_C@_0M@NPALMKGE@m_boltWidth?$AA@ 1009a364     effects.obj
 0002:00006370       ??_C@_0BB@ILMDIDMA@m_noiseAmplitude?$AA@ 1009a370     effects.obj
 0002:00006384       ??_C@_0N@HHOEFNFF@m_brightness?$AA@ 1009a384     effects.obj
 0002:00006394       ??_C@_07DDLPDDFL@m_speed?$AA@ 1009a394     effects.obj
 0002:000063a0       ??_7CSprite@@6B@           1009a3a0     effects.obj
 0002:0000648c       ??_7CBeam@@6B@             1009a48c     effects.obj
 0002:00006578       ??_7CLaser@@6B@            1009a578     effects.obj
 0002:00006664       ??_7CBubbling@@6B@         1009a664     effects.obj
 0002:0000674c       ??_C@_09FGCAFFEN@CBubbling?$AA@ 1009a74c     effects.obj
 0002:00006758       ??_C@_0BD@CIFPGIGI@sprites?1bubble?4spr?$AA@ 1009a758     effects.obj
 0002:0000676c       ??_C@_07HAFFKDBK@density?$AA@ 1009a76c     effects.obj
 0002:00006774       ??_C@_09KJGFCOBE@frequency?$AA@ 1009a774     effects.obj
 0002:00006780       ??_C@_07LKPDDKMO@current?$AA@ 1009a780     effects.obj
 0002:00006788       ??_C@_04EPJBJPAD@beam?$AA@ 1009a788     effects.obj
 0002:00006790       ??_C@_0BD@BNAHIKPA@Firing?5targets?$CB?$CB?$CB?6?$AA@ 1009a790     effects.obj
 0002:000067a8       ??_7CLightning@@6B@        1009a7a8     effects.obj
 0002:00006890       ??_C@_0L@FFIJGPDE@CLightning?$AA@ 1009a890     effects.obj
 0002:0000689c       ??_C@_0P@DLOGNGEL@LightningStart?$AA@ 1009a89c     effects.obj
 0002:000068ac       ??_C@_0N@FJGGAMBM@LightningEnd?$AA@ 1009a8ac     effects.obj
 0002:000068bc       ??_C@_04HHOBACFH@life?$AA@ 1009a8bc     effects.obj
 0002:000068c4       ??_C@_09FFLCCDKJ@BoltWidth?$AA@ 1009a8c4     effects.obj
 0002:000068d0       ??_C@_0P@DKNCBEEG@NoiseAmplitude?$AA@ 1009a8d0     effects.obj
 0002:000068e0       ??_C@_0O@MNDDLKBD@TextureScroll?$AA@ 1009a8e0     effects.obj
 0002:000068f0       ??_C@_0L@JJMHBAPC@StrikeTime?$AA@ 1009a8f0     effects.obj
 0002:000068fc       ??_C@_07JDHEGGGP@texture?$AA@ 1009a8fc     effects.obj
 0002:00006904       ??_C@_0L@BJIFKNMI@framestart?$AA@ 1009a904     effects.obj
 0002:00006910       ??_C@_06GJMFONGK@Radius?$AA@ 1009a910     effects.obj
 0002:00006918       ??_C@_06GJOIPFFF@damage?$AA@ 1009a918     effects.obj
 0002:00006920       ??_C@_0M@BLHFOIPE@info_target?$AA@ 1009a920     effects.obj
 0002:0000692c       ??_C@_0O@GJDINDMF@info_landmark?$AA@ 1009a92c     effects.obj
 0002:0000693c       ??_C@_0M@ONCHNMHP@path_corner?$AA@ 1009a93c     effects.obj
 0002:00006948       ??_C@_0BP@IGPKCJMJ@env_beam?3?5unknown?5entity?5?$CC?$CFs?$CC?6?$AA@ 1009a948     effects.obj
 0002:00006968       ??_C@_06OBCHMGEC@CLaser?$AA@ 1009a968     effects.obj
 0002:00006970       ??_C@_0M@PBHIDOPD@LaserTarget?$AA@ 1009a970     effects.obj
 0002:0000697c       ??_C@_05IGKADHGO@width?$AA@ 1009a97c     effects.obj
 0002:00006984       ??_C@_09DDLHAFLJ@EndSprite?$AA@ 1009a984     effects.obj
 0002:00006994       ??_7CGlow@@6B@             1009a994     effects.obj
 0002:00006a7c       ??_C@_05HPCHIJFA@CGlow?$AA@ 1009aa7c     effects.obj
 0002:00006a88       ??_7CBombGlow@@6B@         1009aa88     effects.obj
 0002:00006b70       ??_C@_0BD@EIMLDBE@sprites?1flare1?4spr?$AA@ 1009ab70     effects.obj
 0002:00006b84       ??_C@_07KKJOEPDL@CSprite?$AA@ 1009ab84     effects.obj
 0002:00006b8c       ??_C@_0L@CNIGIIKA@env_sprite?$AA@ 1009ab8c     effects.obj
 0002:00006b9c       ??_7CGibShooter@@6B@       1009ab9c     effects.obj
 0002:00006c88       ??_C@_0M@FFLLFIKE@CGibShooter?$AA@ 1009ac88     effects.obj
 0002:00006c94       ??_C@_0BH@KBLNBNBD@models?1germanygibs?4mdl?$AA@ 1009ac94     effects.obj
 0002:00006cac       ??_C@_0N@JNEPMELP@m_flVelocity?$AA@ 1009acac     effects.obj
 0002:00006cbc       ??_C@_0BK@MGEKFNDN@GibShooter?5Body?5is?5?$DM?$DN?51?$CB?6?$AA@ 1009acbc     effects.obj
 0002:00006cdc       ??_7CEnvShooter@@6B@       1009acdc     effects.obj
 0002:00006dc8       ??_C@_0L@DPKGIHBD@shootmodel?$AA@ 1009adc8     effects.obj
 0002:00006dd4       ??_C@_0M@DDOAECHE@shootsounds?$AA@ 1009add4     effects.obj
 0002:00006de4       ??_7CTestEffect@@6B@       1009ade4     effects.obj
 0002:00006ecc       ??_C@_0BE@DOGFHABJ@sprites?1lgtning?4spr?$AA@ 1009aecc     effects.obj
 0002:00006ee4       ??_7CBlood@@6B@            1009aee4     effects.obj
 0002:00006fcc       ??_C@_05PEENBMOG@color?$AA@ 1009afcc     effects.obj
 0002:00006fd4       ??_C@_06LFKBJBLO@amount?$AA@ 1009afd4     effects.obj
 0002:00006fe0       ??_7CShake@@6B@            1009afe0     effects.obj
 0002:000070c8       ??_C@_09EHCGJNBI@amplitude?$AA@ 1009b0c8     effects.obj
 0002:000070d4       ??_C@_08LGBPINEC@duration?$AA@ 1009b0d4     effects.obj
 0002:000070e0       ??_C@_06KGHINEPG@radius?$AA@ 1009b0e0     effects.obj
 0002:000070ec       ??_7CFade@@6B@             1009b0ec     effects.obj
 0002:000071d4       ??_C@_08DKAMCIDA@holdtime?$AA@ 1009b1d4     effects.obj
 0002:000071e4       ??_7CMessage@@6B@          1009b1e4     effects.obj
 0002:000072cc       ??_C@_0N@LCEOMKPP@messagesound?$AA@ 1009b2cc     effects.obj
 0002:000072dc       ??_C@_0O@ICDLAPOA@messagevolume?$AA@ 1009b2dc     effects.obj
 0002:000072ec       ??_C@_0BD@OEKCJAMA@messageattenuation?$AA@ 1009b2ec     effects.obj
 0002:00007304       ??_7CEnvFunnel@@6B@        1009b304     effects.obj
 0002:000073ec       ??_C@_0BD@BJIJIDKM@sprites?1flare6?4spr?$AA@ 1009b3ec     effects.obj
 0002:00007404       ??_7CEnvBeverage@@6B@      1009b404     effects.obj
 0002:000074ec       ??_C@_0P@FIGGFLCB@models?1can?4mdl?$AA@ 1009b4ec     effects.obj
 0002:000074fc       ??_C@_0BG@PFBLLDCD@weapons?1g_bounce3?4wav?$AA@ 1009b4fc     effects.obj
 0002:00007514       ??_C@_0N@FDOOOEA@item_sodacan?$AA@ 1009b514     effects.obj
 0002:00007528       ??_7CItemSoda@@6B@         1009b528     effects.obj
 0002:00007610       __real@3fee666666666666    1009b610     effects.obj
 0002:00007618       __real@4004000000000000    1009b618     effects.obj
 0002:00007620       ??_C@_0N@NFMFFNFN@m_iMagnitude?$AA@ 1009b620     explode.obj
 0002:00007630       ??_C@_0O@OLNCEOIP@m_spriteScale?$AA@ 1009b630     explode.obj
 0002:00007644       ??_7CShower@@6B@           1009b644     explode.obj
 0002:0000772c       ??_C@_0BD@HNJLMAMD@models?1grenade?4mdl?$AA@ 1009b72c     explode.obj
 0002:00007744       ??_7CEnvExplosion@@6B@     1009b744     explode.obj
 0002:00007874       ??_C@_0O@OGPBOAJ@CEnvExplosion?$AA@ 1009b874     explode.obj
 0002:00007884       ??_C@_0L@LGAGNFGO@iMagnitude?$AA@ 1009b884     explode.obj
 0002:00007890       ??_C@_0N@GFJBOHAK@spark_shower?$AA@ 1009b890     explode.obj
 0002:000078a0       ??_C@_0O@NHOGPALB@env_explosion?$AA@ 1009b8a0     explode.obj
 0002:000078b0       ??_C@_03GOOLIKIF@?$CF3d?$AA@ 1009b8b0     explode.obj
 0002:000078b4       __real@42200000            1009b8b4     explode.obj
 0002:000078b8       ??_C@_0N@HAEOHIKC@item_battery?$AA@ 1009b8b8     func_break.obj
 0002:000078c8       ??_C@_0P@PMNEPGFM@item_healthkit?$AA@ 1009b8c8     func_break.obj
 0002:000078d8       ??_C@_0BC@GDALAHJA@weapon_9mmhandgun?$AA@ 1009b8d8     func_break.obj
 0002:000078ec       ??_C@_0N@IAIGGIKN@ammo_9mmclip?$AA@ 1009b8ec     func_break.obj
 0002:000078fc       ??_C@_0N@BIGGDBN@weapon_9mmAR?$AA@ 1009b8fc     func_break.obj
 0002:0000790c       ??_C@_0L@CCAPNHPH@ammo_9mmAR?$AA@ 1009b90c     func_break.obj
 0002:00007918       ??_C@_0BA@KLCOFANC@ammo_ARgrenades?$AA@ 1009b918     func_break.obj
 0002:00007928       ??_C@_0P@ILAKNOAG@weapon_shotgun?$AA@ 1009b928     func_break.obj
 0002:00007938       ??_C@_0BA@IMEECLKD@weapon_crossbow?$AA@ 1009b938     func_break.obj
 0002:00007948       ??_C@_0O@DMPMCOMO@ammo_crossbow?$AA@ 1009b948     func_break.obj
 0002:00007958       ??_C@_0L@DGJNBIBM@weapon_357?$AA@ 1009b958     func_break.obj
 0002:00007964       ??_C@_08OALJNDGM@ammo_357?$AA@ 1009b964     func_break.obj
 0002:00007970       ??_C@_0L@NJNPDFDL@weapon_rpg?$AA@ 1009b970     func_break.obj
 0002:0000797c       ??_C@_0N@FDODGIHO@ammo_rpgclip?$AA@ 1009b97c     func_break.obj
 0002:0000798c       ??_C@_0P@BLGPJBGG@ammo_gaussclip?$AA@ 1009b98c     func_break.obj
 0002:0000799c       ??_C@_0BD@DKJAMAOF@weapon_handgrenade?$AA@ 1009b99c     func_break.obj
 0002:000079b0       ??_C@_0BA@NAEGPHIJ@weapon_tripmine?$AA@ 1009b9b0     func_break.obj
 0002:000079c0       ??_C@_0P@NDDAPDLL@weapon_satchel?$AA@ 1009b9c0     func_break.obj
 0002:000079d0       ??_C@_0N@IKJKFJAM@weapon_snark?$AA@ 1009b9d0     func_break.obj
 0002:000079e0       ??_C@_0BB@MOKAIFA@weapon_hornetgun?$AA@ 1009b9e0     func_break.obj
 0002:000079f4       ??_C@_0M@MHCEIKLF@weapon_mp5n?$AA@ 1009b9f4     func_break.obj
 0002:00007a00       ??_C@_0L@HBMEOINH@m_Material?$AA@ 1009ba00     func_break.obj
 0002:00007a0c       ??_C@_0M@LDDEDCJB@m_Explosion?$AA@ 1009ba0c     func_break.obj
 0002:00007a18       ??_C@_07BOLCHLGN@m_angle?$AA@ 1009ba18     func_break.obj
 0002:00007a20       ??_C@_0O@PKADNALM@m_iszGibModel?$AA@ 1009ba20     func_break.obj
 0002:00007a30       ??_C@_0BB@MAJHCIPD@m_iszSpawnObject?$AA@ 1009ba30     func_break.obj
 0002:00007a44       ??_C@_0BC@CEGADJKF@debris?1flesh1?4wav?$AA@ 1009ba44     func_break.obj
 0002:00007a58       ??_C@_0BC@KCPEELAL@debris?1flesh2?4wav?$AA@ 1009ba58     func_break.obj
 0002:00007a6c       ??_C@_0BC@GJKIJIKO@debris?1flesh3?4wav?$AA@ 1009ba6c     func_break.obj
 0002:00007a80       ??_C@_0BC@LPPBHLLD@debris?1flesh5?4wav?$AA@ 1009ba80     func_break.obj
 0002:00007a94       ??_C@_0BC@DJGFAJBN@debris?1flesh6?4wav?$AA@ 1009ba94     func_break.obj
 0002:00007aa8       ??_C@_0BC@PCDJNKLI@debris?1flesh7?4wav?$AA@ 1009baa8     func_break.obj
 0002:00007abc       ??_C@_0BC@IKDONBFM@debris?1metal1?4wav?$AA@ 1009babc     func_break.obj
 0002:00007ad0       ??_C@_0BC@MKKKDPC@debris?1metal2?4wav?$AA@ 1009bad0     func_break.obj
 0002:00007ae4       ??_C@_0BC@MHPGHAFH@debris?1metal3?4wav?$AA@ 1009bae4     func_break.obj
 0002:00007af8       ??_C@_0BF@JDGIBJCG@debris?1concrete1?4wav?$AA@ 1009baf8     func_break.obj
 0002:00007b10       ??_C@_0BF@BFPMGLII@debris?1concrete2?4wav?$AA@ 1009bb10     func_break.obj
 0002:00007b28       ??_C@_0BF@NOKALICN@debris?1concrete3?4wav?$AA@ 1009bb28     func_break.obj
 0002:00007b40       ??_C@_0M@DIFBPOGJ@m_soundTime?$AA@ 1009bb40     func_break.obj
 0002:00007b4c       ??_C@_0BE@IOMCLHDF@debris?1pushbox1?4wav?$AA@ 1009bb4c     func_break.obj
 0002:00007b60       ??_C@_0BE@IFGMFJL@debris?1pushbox2?4wav?$AA@ 1009bb60     func_break.obj
 0002:00007b74       ??_C@_0BE@MDAKBGDO@debris?1pushbox3?4wav?$AA@ 1009bb74     func_break.obj
 0002:00007b8c       ??_7CBreakable@@6B@        1009bb8c     func_break.obj
 0002:00007c74       ??_C@_09DJINNLFM@explosion?$AA@ 1009bc74     func_break.obj
 0002:00007c80       ??_C@_08IBFBECLM@directed?$AA@ 1009bc80     func_break.obj
 0002:00007c8c       ??_C@_06NLFCANPD@random?$AA@ 1009bc8c     func_break.obj
 0002:00007c94       ??_C@_08KNOEMJMM@material?$AA@ 1009bc94     func_break.obj
 0002:00007ca0       ??_C@_09CNCNIOJH@deadmodel?$AA@ 1009bca0     func_break.obj
 0002:00007cac       ??_C@_06HFBMBICD@shards?$AA@ 1009bcac     func_break.obj
 0002:00007cb4       ??_C@_08GOGBFAEM@gibmodel?$AA@ 1009bcb4     func_break.obj
 0002:00007cc0       ??_C@_0M@KACAHILH@spawnobject?$AA@ 1009bcc0     func_break.obj
 0002:00007ccc       ??_C@_0BB@NILEAPEI@explodemagnitude?$AA@ 1009bccc     func_break.obj
 0002:00007ce0       ??_C@_03MHHCOBAB@lip?$AA@  1009bce0     func_break.obj
 0002:00007ce4       ??_C@_0L@CEALNHPH@CBreakable?$AA@ 1009bce4     func_break.obj
 0002:00007cf0       ??_C@_0BE@OJIFNLLD@models?1woodgibs?4mdl?$AA@ 1009bcf0     func_break.obj
 0002:00007d04       ??_C@_0BG@KNGABGKL@debris?1bustcrate1?4wav?$AA@ 1009bd04     func_break.obj
 0002:00007d1c       ??_C@_0BG@CLPEGEAF@debris?1bustcrate2?4wav?$AA@ 1009bd1c     func_break.obj
 0002:00007d34       ??_C@_0BF@MJBGOHAK@models?1fleshgibs?4mdl?$AA@ 1009bd34     func_break.obj
 0002:00007d4c       ??_C@_0BG@NDKODCGH@debris?1bustflesh1?4wav?$AA@ 1009bd4c     func_break.obj
 0002:00007d64       ??_C@_0BG@FFDKEAMJ@debris?1bustflesh2?4wav?$AA@ 1009bd64     func_break.obj
 0002:00007d7c       ??_C@_0BI@HEONPHCD@models?1computergibs?4mdl?$AA@ 1009bd7c     func_break.obj
 0002:00007d94       ??_C@_0BG@HNPANKJO@debris?1bustmetal1?4wav?$AA@ 1009bd94     func_break.obj
 0002:00007dac       ??_C@_0BG@PLGEKIDA@debris?1bustmetal2?4wav?$AA@ 1009bdac     func_break.obj
 0002:00007dc4       ??_C@_0BF@IIFBEHBM@models?1glassgibs?4mdl?$AA@ 1009bdc4     func_break.obj
 0002:00007ddc       ??_C@_0BG@CKBFHEJP@debris?1bustglass1?4wav?$AA@ 1009bddc     func_break.obj
 0002:00007df4       ??_C@_0BG@KMIBAGDB@debris?1bustglass2?4wav?$AA@ 1009bdf4     func_break.obj
 0002:00007e0c       ??_C@_0BK@OOFFABIO@models?1metalplategibs?4mdl?$AA@ 1009be0c     func_break.obj
 0002:00007e28       ??_C@_0BG@IDHDMAPD@models?1cindergibs?4mdl?$AA@ 1009be28     func_break.obj
 0002:00007e40       ??_C@_0BJ@JOGLGNID@debris?1bustconcrete1?4wav?$AA@ 1009be40     func_break.obj
 0002:00007e5c       ??_C@_0BJ@BIPPBPCN@debris?1bustconcrete2?4wav?$AA@ 1009be5c     func_break.obj
 0002:00007e78       ??_C@_0BE@PLLKBOK@models?1rockgibs?4mdl?$AA@ 1009be78     func_break.obj
 0002:00007e8c       ??_C@_0BH@LOPLEIDF@models?1ceilinggibs?4mdl?$AA@ 1009be8c     func_break.obj
 0002:00007ea4       ??_C@_0BH@EILDHCGK@debris?1bustceiling?4wav?$AA@ 1009bea4     func_break.obj
 0002:00007ebc       ??_C@_07JBPBHDIL@grenade?$AA@ 1009bebc     func_break.obj
 0002:00007ec8       ??_7CPushable@@6B@         1009bec8     func_break.obj
 0002:00007fb0       ??_C@_09KKAHHOPK@CPushable?$AA@ 1009bfb0     func_break.obj
 0002:00007fbc       ??_C@_04IAGNFIBA@size?$AA@ 1009bfbc     func_break.obj
 0002:00007fc4       ??_C@_08BFMHNEIJ@buoyancy?$AA@ 1009bfc4     func_break.obj
 0002:00007fd0       __real@3f40624dd2f1a9fc    1009bfd0     func_break.obj
 0002:00007fd8       __real@43c78000            1009bfd8     func_break.obj
 0002:00007fdc       __real@43c80000            1009bfdc     func_break.obj
 0002:00007fe0       ??_C@_0M@ICNAMDPN@m_yawCenter?$AA@ 1009bfe0     func_tank.obj
 0002:00007fec       ??_C@_09JHEFDFNO@m_yawRate?$AA@ 1009bfec     func_tank.obj
 0002:00007ff8       ??_C@_0L@EFFGEGJB@m_yawRange?$AA@ 1009bff8     func_tank.obj
 0002:00008004       ??_C@_0P@LILJIDIK@m_yawTolerance?$AA@ 1009c004     func_tank.obj
 0002:00008014       ??_C@_0O@BBJIIMJP@m_pitchCenter?$AA@ 1009c014     func_tank.obj
 0002:00008024       ??_C@_0M@CDMANIHF@m_pitchRate?$AA@ 1009c024     func_tank.obj
 0002:00008030       ??_C@_0N@EOGLJBM@m_pitchRange?$AA@ 1009c030     func_tank.obj
 0002:00008040       ??_C@_0BB@PMAMAGDP@m_pitchTolerance?$AA@ 1009c040     func_tank.obj
 0002:00008054       ??_C@_0L@IHEJBLGJ@m_fireLast?$AA@ 1009c054     func_tank.obj
 0002:00008060       ??_C@_0L@OAPAHBP@m_fireRate?$AA@ 1009c060     func_tank.obj
 0002:0000806c       ??_C@_0BA@BCCDMLCB@m_lastSightTime?$AA@ 1009c06c     func_tank.obj
 0002:0000807c       ??_C@_09EDALIAJL@m_persist?$AA@ 1009c07c     func_tank.obj
 0002:00008088       ??_C@_0L@JFNJJHEE@m_minRange?$AA@ 1009c088     func_tank.obj
 0002:00008094       ??_C@_0L@ECDCCFAF@m_maxRange?$AA@ 1009c094     func_tank.obj
 0002:000080a0       ??_C@_0M@FKHGMGPO@m_barrelPos?$AA@ 1009c0a0     func_tank.obj
 0002:000080ac       ??_C@_0BB@KBMLFKBO@m_iszSpriteSmoke?$AA@ 1009c0ac     func_tank.obj
 0002:000080c0       ??_C@_0BB@IIPEBLDA@m_iszSpriteFlash?$AA@ 1009c0c0     func_tank.obj
 0002:000080d4       ??_C@_0N@MJCDNHL@m_bulletType?$AA@ 1009c0d4     func_tank.obj
 0002:000080e4       ??_C@_0O@MFEMAGDC@m_sightOrigin?$AA@ 1009c0e4     func_tank.obj
 0002:000080f4       ??_C@_08CJBABAJF@m_spread?$AA@ 1009c0f4     func_tank.obj
 0002:00008100       ??_C@_0O@DAFMEDHA@m_pController?$AA@ 1009c100     func_tank.obj
 0002:00008110       ??_C@_0BG@CKGJOPMN@m_vecControllerUsePos?$AA@ 1009c110     func_tank.obj
 0002:00008128       ??_C@_0P@IFMDLDIK@m_flNextAttack?$AA@ 1009c128     func_tank.obj
 0002:00008138       ??_C@_0BA@NBNAKJHO@m_iBulletDamage?$AA@ 1009c138     func_tank.obj
 0002:00008148       ??_C@_0M@OPJDFHEL@m_iszMaster?$AA@ 1009c148     func_tank.obj
 0002:00008154       ??_C@_08CCODDFME@m_pLaser?$AA@ 1009c154     func_tank.obj
 0002:00008160       ??_C@_0M@DHNBEDGF@m_laserTime?$AA@ 1009c160     func_tank.obj
 0002:0000816c       ??_C@_07IFMFKMEI@m_pTank?$AA@ 1009c16c     func_tank.obj
 0002:00008178       ??_7CFuncTank@@6B@         1009c178     func_tank.obj
 0002:00008268       ??_C@_09PPGACJDE@CFuncTank?$AA@ 1009c268     func_tank.obj
 0002:00008274       ??_C@_07FJNOKMKC@yawrate?$AA@ 1009c274     func_tank.obj
 0002:0000827c       ??_C@_08BMCLOABP@yawrange?$AA@ 1009c27c     func_tank.obj
 0002:00008288       ??_C@_0N@OAOMINLL@yawtolerance?$AA@ 1009c288     func_tank.obj
 0002:00008298       ??_C@_0L@GAIJDEBJ@pitchrange?$AA@ 1009c298     func_tank.obj
 0002:000082a4       ??_C@_09CHOFBNGM@pitchrate?$AA@ 1009c2a4     func_tank.obj
 0002:000082b0       ??_C@_0P@IKIFKMPH@pitchtolerance?$AA@ 1009c2b0     func_tank.obj
 0002:000082c0       ??_C@_08JBBPILKD@firerate?$AA@ 1009c2c0     func_tank.obj
 0002:000082cc       ??_C@_06HIGCFHGK@barrel?$AA@ 1009c2cc     func_tank.obj
 0002:000082d4       ??_C@_07FDOCCIKO@barrely?$AA@ 1009c2d4     func_tank.obj
 0002:000082dc       ??_C@_07HIMPHLGN@barrelz?$AA@ 1009c2dc     func_tank.obj
 0002:000082e4       ??_C@_0M@FDMNOJCH@spritescale?$AA@ 1009c2e4     func_tank.obj
 0002:000082f0       ??_C@_0M@JGNDGPA@spritesmoke?$AA@ 1009c2f0     func_tank.obj
 0002:000082fc       ??_C@_0M@CAFCHHNO@spriteflash?$AA@ 1009c2fc     func_tank.obj
 0002:00008308       ??_C@_0M@EDLEIPPM@rotatesound?$AA@ 1009c308     func_tank.obj
 0002:00008314       ??_C@_0M@OANGIEMM@persistence?$AA@ 1009c314     func_tank.obj
 0002:00008320       ??_C@_06NCIIGPB@bullet?$AA@ 1009c320     func_tank.obj
 0002:00008328       ??_C@_0O@IOEGEOAO@bullet_damage?$AA@ 1009c328     func_tank.obj
 0002:00008338       ??_C@_0L@FGHJAEAD@firespread?$AA@ 1009c338     func_tank.obj
 0002:00008344       ??_C@_08MLAIDEPM@minRange?$AA@ 1009c344     func_tank.obj
 0002:00008350       ??_C@_08BMODIGLN@maxRange?$AA@ 1009c350     func_tank.obj
 0002:0000835c       ??_C@_06ECGAGODA@master?$AA@ 1009c35c     func_tank.obj
 0002:00008364       ??_C@_0N@FKGPNOIP@using?5TANK?$CB?6?$AA@ 1009c364     func_tank.obj
 0002:00008374       ??_C@_0BE@IELJMGLA@stopped?5using?5TANK?6?$AA@ 1009c374     func_tank.obj
 0002:0000838c       ??_7CFuncTankGun@@6B@      1009c38c     func_tank.obj
 0002:00008480       ??_7CFuncTankLaser@@6B@    1009c480     func_tank.obj
 0002:00008570       ??_C@_0P@KEDPEBIH@CFuncTankLaser?$AA@ 1009c570     func_tank.obj
 0002:00008580       ??_C@_0BP@BOGOALCH@Laser?5tank?5with?5no?5env_laser?$CB?6?$AA@ 1009c580     func_tank.obj
 0002:000085a0       ??_C@_0M@NBNOMMKB@laserentity?$AA@ 1009c5a0     func_tank.obj
 0002:000085ac       ??_C@_09PBEDIPND@env_laser?$AA@ 1009c5ac     func_tank.obj
 0002:000085bc       ??_7CFuncTankRocket@@6B@   1009c5bc     func_tank.obj
 0002:000086ac       ??_C@_0L@MFNEJJJF@rpg_rocket?$AA@ 1009c6ac     func_tank.obj
 0002:000086bc       ??_7CFuncTankMortar@@6B@   1009c6bc     func_tank.obj
 0002:000087b0       ??_7CFuncTankControls@@6B@ 1009c7b0     func_tank.obj
 0002:00008898       ??_C@_0BC@JJFEFACP@CFuncTankControls?$AA@ 1009c898     func_tank.obj
 0002:000088ac       ??_C@_09LDNHLJNI@func_tank?$AA@ 1009c8ac     func_tank.obj
 0002:000088b8       ??_C@_0M@CDMIIIAG@No?5tank?5?$CFs?6?$AA@ 1009c8b8     func_tank.obj
 0002:000088c8       __real@404ca5dc1a63c1f8    1009c8c8     func_tank.obj
 0002:000088d0       ??_C@_0BB@LIKIAMCO@displaysoundlist?$AA@ 1009c8d0     game.obj
 0002:000088e4       ??_C@_0N@MFFHNGOA@mp_timelimit?$AA@ 1009c8e4     game.obj
 0002:000088f4       ??_C@_0BA@JBCEDEIF@mp_friendlyfire?$AA@ 1009c8f4     game.obj
 0002:00008904       ??_C@_0O@DCOEKON@mp_flashlight?$AA@ 1009c904     game.obj
 0002:00008914       ??_C@_0P@HAABGEJ@decalfrequency?$AA@ 1009c914     game.obj
 0002:00008924       ??_C@_02PJNFELNH@30?$AA@   1009c924     game.obj
 0002:00008928       ??_C@_0BB@IMFDPFIC@mp_allowmonsters?$AA@ 1009c928     game.obj
 0002:0000893c       ??_C@_0N@LJJLGMIM@mp_roundtime?$AA@ 1009c93c     game.obj
 0002:0000894c       ??_C@_01BMBHCPLG@5?$AA@    1009c94c     game.obj
 0002:00008950       ??_C@_0L@EGNAKDEH@mp_buytime?$AA@ 1009c950     game.obj
 0002:0000895c       ??_C@_03GMOBGHL@1?45?$AA@  1009c95c     game.obj
 0002:00008960       ??_C@_0O@CHICILMC@mp_freezetime?$AA@ 1009c960     game.obj
 0002:00008970       ??_C@_01DHDKHMHF@6?$AA@    1009c970     game.obj
 0002:00008974       ??_C@_0L@MIBKNPIA@mp_c4timer?$AA@ 1009c974     game.obj
 0002:00008980       ??_C@_02IBONKJBH@45?$AA@   1009c980     game.obj
 0002:00008984       ??_C@_0BC@EJIEEJEB@mp_ghostfrequency?$AA@ 1009c984     game.obj
 0002:00008998       ??_C@_03NKBOLEBK@0?41?$AA@ 1009c998     game.obj
 0002:0000899c       ??_C@_0M@KOJDKBCE@mp_autokick?$AA@ 1009c99c     game.obj
 0002:000089a8       ??_C@_01HIHLOKLC@1?$AA@    1009c9a8     game.obj
 0002:000089ac       ??_C@_0BA@LNBDKCPA@sv_restartround?$AA@ 1009c9ac     game.obj
 0002:000089bc       ??_C@_0L@IMKHFNPM@sv_restart?$AA@ 1009c9bc     game.obj
 0002:000089c8       ??_C@_0O@OKANJHGH@mp_limitteams?$AA@ 1009c9c8     game.obj
 0002:000089d8       ??_C@_01FDFGLJHB@2?$AA@    1009c9d8     game.obj
 0002:000089dc       ??_C@_0BD@DMFALOCP@mp_autoteambalance?$AA@ 1009c9dc     game.obj
 0002:000089f0       ??_C@_0M@IIBMPPCO@mp_tkpunish?$AA@ 1009c9f0     game.obj
 0002:000089fc       ??_C@_0BC@FCBNFEMJ@mp_hostagepenalty?$AA@ 1009c9fc     game.obj
 0002:00008a10       ??_C@_02NBHMMMHK@13?$AA@   1009ca10     game.obj
 0002:00008a14       ??_C@_0BA@JKIOIBNB@mp_mirrordamage?$AA@ 1009ca14     game.obj
 0002:00008a24       ??_C@_0P@GGKMKPGJ@mp_forcecamera?$AA@ 1009ca24     game.obj
 0002:00008a34       ??_C@_0BB@BOLJKPAG@mp_forcechasecam?$AA@ 1009ca34     game.obj
 0002:00008a48       ??_C@_0BA@HKBJBDLO@mp_mapvoteratio?$AA@ 1009ca48     game.obj
 0002:00008a58       ??_C@_04HBOLGADO@0?466?$AA@ 1009ca58     game.obj
 0002:00008a60       ??_C@_0N@MCDBFMBA@mp_logdetail?$AA@ 1009ca60     game.obj
 0002:00008a70       ??_C@_03BAAJCDMO@800?$AA@  1009ca70     game.obj
 0002:00008a74       ??_C@_0N@EFLOOBIC@mp_maxrounds?$AA@ 1009ca74     game.obj
 0002:00008a84       ??_C@_0P@MJFMLKAP@mp_fadetoblack?$AA@ 1009ca84     game.obj
 0002:00008a94       ??_C@_0BB@CGMNNOMB@mp_windifference?$AA@ 1009ca94     game.obj
 0002:00008aa8       ??_C@_0M@CEJCHIBP@mp_playerid?$AA@ 1009caa8     game.obj
 0002:00008ab4       ??_C@_0M@CKAIEAOK@mp_winlimit?$AA@ 1009cab4     game.obj
 0002:00008ac0       ??_C@_0BB@DGDMGJHG@allow_spectators?$AA@ 1009cac0     game.obj
 0002:00008ad4       ??_C@_0M@ENIBOMLO@mp_chattime?$AA@ 1009cad4     game.obj
 0002:00008ae0       ??_C@_02PKFBJPLJ@10?$AA@   1009cae0     game.obj
 0002:00008ae4       ??_C@_0N@PMCBAPBD@mp_fragsleft?$AA@ 1009cae4     game.obj
 0002:00008af4       ??_C@_0M@DGKNHNI@mp_timeleft?$AA@ 1009caf4     game.obj
 0002:00008b00       ??_C@_0BB@NALJJEGA@humans_join_team?$AA@ 1009cb00     game.obj
 0002:00008b14       ??_C@_03OBJFJEBA@any?$AA@  1009cb14     game.obj
 0002:00008b18       ??_C@_0BC@DOIHDDHO@sk_agrunt_health1?$AA@ 1009cb18     game.obj
 0002:00008b2c       ??_C@_0BC@BFKKGALN@sk_agrunt_health2?$AA@ 1009cb2c     game.obj
 0002:00008b40       ??_C@_0BC@MLBFBPM@sk_agrunt_health3?$AA@ 1009cb40     game.obj
 0002:00008b54       ??_C@_0BF@OAADGBHL@sk_agrunt_dmg_punch1?$AA@ 1009cb54     game.obj
 0002:00008b6c       ??_C@_0BF@MLCODCLI@sk_agrunt_dmg_punch2?$AA@ 1009cb6c     game.obj
 0002:00008b84       ??_C@_0BF@NCDFADPJ@sk_agrunt_dmg_punch3?$AA@ 1009cb84     game.obj
 0002:00008b9c       ??_C@_0BC@PHMJAHEP@sk_apache_health1?$AA@ 1009cb9c     game.obj
 0002:00008bb0       ??_C@_0BC@NMOEFEIM@sk_apache_health2?$AA@ 1009cbb0     game.obj
 0002:00008bc4       ??_C@_0BC@MFPPGFMN@sk_apache_health3?$AA@ 1009cbc4     game.obj
 0002:00008bd8       ??_C@_0BC@HMGNFHLH@sk_barney_health1?$AA@ 1009cbd8     game.obj
 0002:00008bec       ??_C@_0BC@FHEAAEHE@sk_barney_health2?$AA@ 1009cbec     game.obj
 0002:00008c00       ??_C@_0BC@EOFLDFDF@sk_barney_health3?$AA@ 1009cc00     game.obj
 0002:00008c14       ??_C@_0BF@DEPDKIMK@sk_bullsquid_health1?$AA@ 1009cc14     game.obj
 0002:00008c2c       ??_C@_0BF@BPNOPLAJ@sk_bullsquid_health2?$AA@ 1009cc2c     game.obj
 0002:00008c44       ??_C@_0BF@GMFMKEI@sk_bullsquid_health3?$AA@ 1009cc44     game.obj
 0002:00008c5c       ??_C@_0BH@NLHMLKHD@sk_bullsquid_dmg_bite1?$AA@ 1009cc5c     game.obj
 0002:00008c74       ??_C@_0BH@PAFBOJLA@sk_bullsquid_dmg_bite2?$AA@ 1009cc74     game.obj
 0002:00008c8c       ??_C@_0BH@OJEKNIPB@sk_bullsquid_dmg_bite3?$AA@ 1009cc8c     game.obj
 0002:00008ca4       ??_C@_0BH@NJJOODC@sk_bullsquid_dmg_whip1?$AA@ 1009cca4     game.obj
 0002:00008cbc       ??_C@_0BH@CGLELNPB@sk_bullsquid_dmg_whip2?$AA@ 1009ccbc     game.obj
 0002:00008cd4       ??_C@_0BH@DPKPIMLA@sk_bullsquid_dmg_whip3?$AA@ 1009ccd4     game.obj
 0002:00008cec       ??_C@_0BH@MBJBNILL@sk_bullsquid_dmg_spit1?$AA@ 1009ccec     game.obj
 0002:00008d04       ??_C@_0BH@OKLMILHI@sk_bullsquid_dmg_spit2?$AA@ 1009cd04     game.obj
 0002:00008d1c       ??_C@_0BH@PDKHLKDJ@sk_bullsquid_dmg_spit3?$AA@ 1009cd1c     game.obj
 0002:00008d34       ??_C@_0BL@DCHJJJGH@sk_bigmomma_health_factor1?$AA@ 1009cd34     game.obj
 0002:00008d50       ??_C@_0BL@BJFEMKKE@sk_bigmomma_health_factor2?$AA@ 1009cd50     game.obj
 0002:00008d6c       ??_C@_0BL@EPPLOF@sk_bigmomma_health_factor3?$AA@ 1009cd6c     game.obj
 0002:00008d88       ??_C@_0BH@NLHHGGIE@sk_bigmomma_dmg_slash1?$AA@ 1009cd88     game.obj
 0002:00008da0       ??_C@_02PNFIDHGF@50?$AA@   1009cda0     game.obj
 0002:00008da4       ??_C@_0BH@PAFKDFEH@sk_bigmomma_dmg_slash2?$AA@ 1009cda4     game.obj
 0002:00008dbc       ??_C@_0BH@OJEBAEAG@sk_bigmomma_dmg_slash3?$AA@ 1009cdbc     game.obj
 0002:00008dd4       ??_C@_0BH@POCKLOK@sk_bigmomma_dmg_blast1?$AA@ 1009cdd4     game.obj
 0002:00008dec       ??_C@_03GNABGMEE@100?$AA@  1009cdec     game.obj
 0002:00008df0       ??_C@_0BH@CEMPPICJ@sk_bigmomma_dmg_blast2?$AA@ 1009cdf0     game.obj
 0002:00008e08       ??_C@_0BH@DNNEMJGI@sk_bigmomma_dmg_blast3?$AA@ 1009ce08     game.obj
 0002:00008e20       ??_C@_0BK@MIFFGIPE@sk_bigmomma_radius_blast1?$AA@ 1009ce20     game.obj
 0002:00008e3c       ??_C@_03HJHPABEB@250?$AA@  1009ce3c     game.obj
 0002:00008e40       ??_C@_0BK@ODHIDLDH@sk_bigmomma_radius_blast2?$AA@ 1009ce40     game.obj
 0002:00008e5c       ??_C@_0BK@PKGDAKHG@sk_bigmomma_radius_blast3?$AA@ 1009ce5c     game.obj
 0002:00008e78       ??_C@_0BF@GBMKEDFN@sk_gargantua_health1?$AA@ 1009ce78     game.obj
 0002:00008e90       ??_C@_0BF@EKOHBAJO@sk_gargantua_health2?$AA@ 1009ce90     game.obj
 0002:00008ea8       ??_C@_0BF@FDPMCBNP@sk_gargantua_health3?$AA@ 1009cea8     game.obj
 0002:00008ec0       ??_C@_0BI@DKCCFEMG@sk_gargantua_dmg_slash1?$AA@ 1009cec0     game.obj
 0002:00008ed8       ??_C@_0BI@BBAPAHAF@sk_gargantua_dmg_slash2?$AA@ 1009ced8     game.obj
 0002:00008ef0       ??_C@_0BI@IBEDGEE@sk_gargantua_dmg_slash3?$AA@ 1009cef0     game.obj
 0002:00008f08       ??_C@_0BH@GMFONFKN@sk_gargantua_dmg_fire1?$AA@ 1009cf08     game.obj
 0002:00008f20       ??_C@_0BH@EHHDIGGO@sk_gargantua_dmg_fire2?$AA@ 1009cf20     game.obj
 0002:00008f38       ??_C@_0BH@FOGILHCP@sk_gargantua_dmg_fire3?$AA@ 1009cf38     game.obj
 0002:00008f50       ??_C@_0BI@MIGELIDF@sk_gargantua_dmg_stomp1?$AA@ 1009cf50     game.obj
 0002:00008f68       ??_C@_0BI@ODEJOLPG@sk_gargantua_dmg_stomp2?$AA@ 1009cf68     game.obj
 0002:00008f80       ??_C@_0BI@PKFCNKLH@sk_gargantua_dmg_stomp3?$AA@ 1009cf80     game.obj
 0002:00008f98       ??_C@_0BF@CFJHKOCC@sk_hassassin_health1?$AA@ 1009cf98     game.obj
 0002:00008fb0       ??_C@_0BF@OLKPNOB@sk_hassassin_health2?$AA@ 1009cfb0     game.obj
 0002:00008fc8       ??_C@_0BF@BHKBMMKA@sk_hassassin_health3?$AA@ 1009cfc8     game.obj
 0002:00008fe0       ??_C@_0BE@DIPHKDEP@sk_headcrab_health1?$AA@ 1009cfe0     game.obj
 0002:00008ff4       ??_C@_0BE@BDNKPAIM@sk_headcrab_health2?$AA@ 1009cff4     game.obj
 0002:00009008       ??_C@_0BE@KMBMBMN@sk_headcrab_health3?$AA@ 1009d008     game.obj
 0002:0000901c       ??_C@_0BG@KFKADPB@sk_headcrab_dmg_bite1?$AA@ 1009d01c     game.obj
 0002:00009034       ??_C@_0BG@CBHHFADC@sk_headcrab_dmg_bite2?$AA@ 1009d034     game.obj
 0002:0000904c       ??_C@_0BG@DIGMGBHD@sk_headcrab_dmg_bite3?$AA@ 1009d04c     game.obj
 0002:00009064       ??_C@_0BC@EIPFCEBB@sk_hgrunt_health1?$AA@ 1009d064     game.obj
 0002:00009078       ??_C@_0BC@GDNIHHNC@sk_hgrunt_health2?$AA@ 1009d078     game.obj
 0002:0000908c       ??_C@_0BC@HKMDEGJD@sk_hgrunt_health3?$AA@ 1009d08c     game.obj
 0002:000090a0       ??_C@_0BA@ICNAMLFE@sk_hgrunt_kick1?$AA@ 1009d0a0     game.obj
 0002:000090b0       ??_C@_0BA@KJPNJIJH@sk_hgrunt_kick2?$AA@ 1009d0b0     game.obj
 0002:000090c0       ??_C@_0BA@LAOGKJNG@sk_hgrunt_kick3?$AA@ 1009d0c0     game.obj
 0002:000090d0       ??_C@_0BD@OODLFMHG@sk_hgrunt_pellets1?$AA@ 1009d0d0     game.obj
 0002:000090e4       ??_C@_0BD@MFBGAPLF@sk_hgrunt_pellets2?$AA@ 1009d0e4     game.obj
 0002:000090f8       ??_C@_0BD@NMANDOPE@sk_hgrunt_pellets3?$AA@ 1009d0f8     game.obj
 0002:0000910c       ??_C@_0BC@LBPOOFJI@sk_hgrunt_gspeed1?$AA@ 1009d10c     game.obj
 0002:00009120       ??_C@_0BC@JKNDLGFL@sk_hgrunt_gspeed2?$AA@ 1009d120     game.obj
 0002:00009134       ??_C@_0BC@IDMIIHBK@sk_hgrunt_gspeed3?$AA@ 1009d134     game.obj
 0002:00009148       ??_C@_0BE@CDHHAFAI@sk_houndeye_health1?$AA@ 1009d148     game.obj
 0002:0000915c       ??_C@_0BE@IFKFGML@sk_houndeye_health2?$AA@ 1009d15c     game.obj
 0002:00009170       ??_C@_0BE@BBEBGHIK@sk_houndeye_health3?$AA@ 1009d170     game.obj
 0002:00009184       ??_C@_0BH@JHDDFCAD@sk_houndeye_dmg_blast1?$AA@ 1009d184     game.obj
 0002:0000919c       ??_C@_0BH@LMBOABMA@sk_houndeye_dmg_blast2?$AA@ 1009d19c     game.obj
 0002:000091b4       ??_C@_0BH@KFAFDAIB@sk_houndeye_dmg_blast3?$AA@ 1009d1b4     game.obj
 0002:000091cc       ??_C@_0BC@BDLGPPDP@sk_islave_health1?$AA@ 1009d1cc     game.obj
 0002:000091e0       ??_C@_0BC@DIJLKMPM@sk_islave_health2?$AA@ 1009d1e0     game.obj
 0002:000091f4       ??_C@_0BC@CBIAJNLN@sk_islave_health3?$AA@ 1009d1f4     game.obj
 0002:00009208       ??_C@_0BE@DMGBMAPP@sk_islave_dmg_claw1?$AA@ 1009d208     game.obj
 0002:0000921c       ??_C@_0BE@BHEMJDDM@sk_islave_dmg_claw2?$AA@ 1009d21c     game.obj
 0002:00009230       ??_C@_0BE@OFHKCHN@sk_islave_dmg_claw3?$AA@ 1009d230     game.obj
 0002:00009244       ??_C@_0BI@FFNLOOJE@sk_islave_dmg_clawrake1?$AA@ 1009d244     game.obj
 0002:0000925c       ??_C@_0BI@HOPGLNFH@sk_islave_dmg_clawrake2?$AA@ 1009d25c     game.obj
 0002:00009274       ??_C@_0BI@GHONIMBG@sk_islave_dmg_clawrake3?$AA@ 1009d274     game.obj
 0002:0000928c       ??_C@_0BD@BHKHCCPE@sk_islave_dmg_zap1?$AA@ 1009d28c     game.obj
 0002:000092a0       ??_C@_0BD@DMIKHBDH@sk_islave_dmg_zap2?$AA@ 1009d2a0     game.obj
 0002:000092b4       ??_C@_0BD@CFJBEAHG@sk_islave_dmg_zap3?$AA@ 1009d2b4     game.obj
 0002:000092c8       ??_C@_0BH@JBKJNANN@sk_ichthyosaur_health1?$AA@ 1009d2c8     game.obj
 0002:000092e0       ??_C@_0BH@LKIEIDBO@sk_ichthyosaur_health2?$AA@ 1009d2e0     game.obj
 0002:000092f8       ??_C@_0BH@KDJPLCFP@sk_ichthyosaur_health3?$AA@ 1009d2f8     game.obj
 0002:00009310       ??_C@_0BG@KOGPIGHN@sk_ichthyosaur_shake1?$AA@ 1009d310     game.obj
 0002:00009328       ??_C@_0BG@IFECNFLO@sk_ichthyosaur_shake2?$AA@ 1009d328     game.obj
 0002:00009340       ??_C@_0BG@JMFJOEPP@sk_ichthyosaur_shake3?$AA@ 1009d340     game.obj
 0002:00009358       ??_C@_0BB@DKHDHIHF@sk_leech_health1?$AA@ 1009d358     game.obj
 0002:0000936c       ??_C@_0BB@BBFOCLLG@sk_leech_health2?$AA@ 1009d36c     game.obj
 0002:00009380       ??_C@_0BB@IEFBKPH@sk_leech_health3?$AA@ 1009d380     game.obj
 0002:00009394       ??_C@_0BD@DOPCNEFA@sk_leech_dmg_bite1?$AA@ 1009d394     game.obj
 0002:000093a8       ??_C@_0BD@BFNPIHJD@sk_leech_dmg_bite2?$AA@ 1009d3a8     game.obj
 0002:000093bc       ??_C@_0BD@MMELGNC@sk_leech_dmg_bite3?$AA@ 1009d3bc     game.obj
 0002:000093d0       ??_C@_0BG@GDGMGHLH@sk_controller_health1?$AA@ 1009d3d0     game.obj
 0002:000093e8       ??_C@_0BG@EIEBDEHE@sk_controller_health2?$AA@ 1009d3e8     game.obj
 0002:00009400       ??_C@_0BG@FBFKAFDF@sk_controller_health3?$AA@ 1009d400     game.obj
 0002:00009418       ??_C@_0BG@ELCHOIMF@sk_controller_dmgzap1?$AA@ 1009d418     game.obj
 0002:00009430       ??_C@_0BG@GAAKLLAG@sk_controller_dmgzap2?$AA@ 1009d430     game.obj
 0002:00009448       ??_C@_0BG@HJBBIKEH@sk_controller_dmgzap3?$AA@ 1009d448     game.obj
 0002:00009460       ??_C@_0BJ@KIGMHGMP@sk_controller_speedball1?$AA@ 1009d460     game.obj
 0002:0000947c       ??_C@_0BJ@IDEBCFAM@sk_controller_speedball2?$AA@ 1009d47c     game.obj
 0002:00009498       ??_C@_0BJ@JKFKBEEN@sk_controller_speedball3?$AA@ 1009d498     game.obj
 0002:000094b4       ??_C@_0BH@LMDGMDFH@sk_controller_dmgball1?$AA@ 1009d4b4     game.obj
 0002:000094cc       ??_C@_0BH@JHBLJAJE@sk_controller_dmgball2?$AA@ 1009d4cc     game.obj
 0002:000094e4       ??_C@_0BH@IOAAKBNF@sk_controller_dmgball3?$AA@ 1009d4e4     game.obj
 0002:000094fc       ??_C@_0BF@MLAANMBA@sk_nihilanth_health1?$AA@ 1009d4fc     game.obj
 0002:00009514       ??_C@_0BF@OACNIPND@sk_nihilanth_health2?$AA@ 1009d514     game.obj
 0002:0000952c       ??_C@_0BF@PJDGLOJC@sk_nihilanth_health3?$AA@ 1009d52c     game.obj
 0002:00009544       ??_C@_0BC@GIJOPGCA@sk_nihilanth_zap1?$AA@ 1009d544     game.obj
 0002:00009558       ??_C@_0BC@EDLDKFOD@sk_nihilanth_zap2?$AA@ 1009d558     game.obj
 0002:0000956c       ??_C@_0BC@FKKIJEKC@sk_nihilanth_zap3?$AA@ 1009d56c     game.obj
 0002:00009580       ??_C@_0BF@OHMOOEMB@sk_scientist_health1?$AA@ 1009d580     game.obj
 0002:00009598       ??_C@_0BF@MMODLHAC@sk_scientist_health2?$AA@ 1009d598     game.obj
 0002:000095b0       ??_C@_0BF@NFPIIGED@sk_scientist_health3?$AA@ 1009d5b0     game.obj
 0002:000095c8       ??_C@_0BB@GKNFNEDL@sk_snark_health1?$AA@ 1009d5c8     game.obj
 0002:000095dc       ??_C@_0BB@EBPIIHPI@sk_snark_health2?$AA@ 1009d5dc     game.obj
 0002:000095f0       ??_C@_0BB@FIODLGLJ@sk_snark_health3?$AA@ 1009d5f0     game.obj
 0002:00009604       ??_C@_0BD@IPGIAJLO@sk_snark_dmg_bite1?$AA@ 1009d604     game.obj
 0002:00009618       ??_C@_0BD@KEEFFKHN@sk_snark_dmg_bite2?$AA@ 1009d618     game.obj
 0002:0000962c       ??_C@_0BD@LNFOGLDM@sk_snark_dmg_bite3?$AA@ 1009d62c     game.obj
 0002:00009640       ??_C@_0BC@LKNMOKFE@sk_snark_dmg_pop1?$AA@ 1009d640     game.obj
 0002:00009654       ??_C@_0BC@JBPBLJJH@sk_snark_dmg_pop2?$AA@ 1009d654     game.obj
 0002:00009668       ??_C@_0BC@IIOKIING@sk_snark_dmg_pop3?$AA@ 1009d668     game.obj
 0002:0000967c       ??_C@_0BC@JNOIJMDA@sk_zombie_health1?$AA@ 1009d67c     game.obj
 0002:00009690       ??_C@_0BC@LGMFMPPD@sk_zombie_health2?$AA@ 1009d690     game.obj
 0002:000096a4       ??_C@_0BC@KPNOPOLC@sk_zombie_health3?$AA@ 1009d6a4     game.obj
 0002:000096b8       ??_C@_0BJ@PMDBEBBM@sk_zombie_dmg_one_slash1?$AA@ 1009d6b8     game.obj
 0002:000096d4       ??_C@_0BJ@NHBMBCNP@sk_zombie_dmg_one_slash2?$AA@ 1009d6d4     game.obj
 0002:000096f0       ??_C@_0BJ@MOAHCDJO@sk_zombie_dmg_one_slash3?$AA@ 1009d6f0     game.obj
 0002:0000970c       ??_C@_0BK@HCDJHKPM@sk_zombie_dmg_both_slash1?$AA@ 1009d70c     game.obj
 0002:00009728       ??_C@_0BK@FJBECJDP@sk_zombie_dmg_both_slash2?$AA@ 1009d728     game.obj
 0002:00009744       ??_C@_0BK@EAAPBIHO@sk_zombie_dmg_both_slash3?$AA@ 1009d744     game.obj
 0002:00009760       ??_C@_0BC@JJAHIELA@sk_turret_health1?$AA@ 1009d760     game.obj
 0002:00009774       ??_C@_0BC@LCCKNHHD@sk_turret_health2?$AA@ 1009d774     game.obj
 0002:00009788       ??_C@_0BC@KLDBOGDC@sk_turret_health3?$AA@ 1009d788     game.obj
 0002:0000979c       ??_C@_0BG@CGKJGHKJ@sk_miniturret_health1?$AA@ 1009d79c     game.obj
 0002:000097b4       ??_C@_0BG@NIEDEGK@sk_miniturret_health2?$AA@ 1009d7b4     game.obj
 0002:000097cc       ??_C@_0BG@BEJPAFCL@sk_miniturret_health3?$AA@ 1009d7cc     game.obj
 0002:000097e4       ??_C@_0BC@NHAHFHPP@sk_sentry_health1?$AA@ 1009d7e4     game.obj
 0002:000097f8       ??_C@_0BC@PMCKAEDM@sk_sentry_health2?$AA@ 1009d7f8     game.obj
 0002:0000980c       ??_C@_0BC@OFDBDFHN@sk_sentry_health3?$AA@ 1009d80c     game.obj
 0002:00009820       ??_C@_0BA@GAEAGBPD@sk_plr_crowbar1?$AA@ 1009d820     game.obj
 0002:00009830       ??_C@_0BA@ELGNDCDA@sk_plr_crowbar2?$AA@ 1009d830     game.obj
 0002:00009840       ??_C@_0BA@FCHGADHB@sk_plr_crowbar3?$AA@ 1009d840     game.obj
 0002:00009850       ??_C@_0BD@JILFLEDK@sk_plr_9mm_bullet1?$AA@ 1009d850     game.obj
 0002:00009864       ??_C@_0BD@LDJIOHPJ@sk_plr_9mm_bullet2?$AA@ 1009d864     game.obj
 0002:00009878       ??_C@_0BD@KKIDNGLI@sk_plr_9mm_bullet3?$AA@ 1009d878     game.obj
 0002:0000988c       ??_C@_0BD@BOMJHGLL@sk_plr_357_bullet1?$AA@ 1009d88c     game.obj
 0002:000098a0       ??_C@_0BD@DFOECFHI@sk_plr_357_bullet2?$AA@ 1009d8a0     game.obj
 0002:000098b4       ??_C@_0BD@CMPPBEDJ@sk_plr_357_bullet3?$AA@ 1009d8b4     game.obj
 0002:000098c8       ??_C@_0BF@CLJAENPO@sk_plr_9mmAR_bullet1?$AA@ 1009d8c8     game.obj
 0002:000098e0       ??_C@_0BF@LNBODN@sk_plr_9mmAR_bullet2?$AA@ 1009d8e0     game.obj
 0002:000098f8       ??_C@_0BF@BJKGCPHM@sk_plr_9mmAR_bullet3?$AA@ 1009d8f8     game.obj
 0002:00009910       ??_C@_0BG@MKFNJHFJ@sk_plr_9mmAR_grenade1?$AA@ 1009d910     game.obj
 0002:00009928       ??_C@_0BG@OBHAMEJK@sk_plr_9mmAR_grenade2?$AA@ 1009d928     game.obj
 0002:00009940       ??_C@_0BG@PIGLPFNL@sk_plr_9mmAR_grenade3?$AA@ 1009d940     game.obj
 0002:00009958       ??_C@_0BB@IPEDHCFB@sk_plr_buckshot1?$AA@ 1009d958     game.obj
 0002:0000996c       ??_C@_0BB@KEGOCBJC@sk_plr_buckshot2?$AA@ 1009d96c     game.obj
 0002:00009980       ??_C@_0BB@LNHFBAND@sk_plr_buckshot3?$AA@ 1009d980     game.obj
 0002:00009994       ??_C@_0BJ@MLNFHMGP@sk_plr_xbow_bolt_client1?$AA@ 1009d994     game.obj
 0002:000099b0       ??_C@_0BJ@OAPICPKM@sk_plr_xbow_bolt_client2?$AA@ 1009d9b0     game.obj
 0002:000099cc       ??_C@_0BJ@PJODBOON@sk_plr_xbow_bolt_client3?$AA@ 1009d9cc     game.obj
 0002:000099e8       ??_C@_0BK@PNNHCBDO@sk_plr_xbow_bolt_monster1?$AA@ 1009d9e8     game.obj
 0002:00009a04       ??_C@_0BK@NGPKHCPN@sk_plr_xbow_bolt_monster2?$AA@ 1009da04     game.obj
 0002:00009a20       ??_C@_0BK@MPOBEDLM@sk_plr_xbow_bolt_monster3?$AA@ 1009da20     game.obj
 0002:00009a3c       ??_C@_0M@HODEGCAI@sk_plr_rpg1?$AA@ 1009da3c     game.obj
 0002:00009a48       ??_C@_0M@FFBJDBML@sk_plr_rpg2?$AA@ 1009da48     game.obj
 0002:00009a54       ??_C@_0M@EMACAAIK@sk_plr_rpg3?$AA@ 1009da54     game.obj
 0002:00009a60       ??_C@_0O@CNNOBDPA@sk_plr_gauss1?$AA@ 1009da60     game.obj
 0002:00009a70       ??_C@_0O@GPDEADD@sk_plr_gauss2?$AA@ 1009da70     game.obj
 0002:00009a80       ??_C@_0O@BPOIHBHC@sk_plr_gauss3?$AA@ 1009da80     game.obj
 0002:00009a90       ??_C@_0BE@CBPIDPDF@sk_plr_egon_narrow1?$AA@ 1009da90     game.obj
 0002:00009aa4       ??_C@_0BE@KNFGMPG@sk_plr_egon_narrow2?$AA@ 1009daa4     game.obj
 0002:00009ab8       ??_C@_0BE@BDMOFNLH@sk_plr_egon_narrow3?$AA@ 1009dab8     game.obj
 0002:00009acc       ??_C@_0BC@DAHLFLHB@sk_plr_egon_wide1?$AA@ 1009dacc     game.obj
 0002:00009ae0       ??_C@_0BC@BLFGAILC@sk_plr_egon_wide2?$AA@ 1009dae0     game.obj
 0002:00009af4       ??_C@_0BC@CENDJPD@sk_plr_egon_wide3?$AA@ 1009daf4     game.obj
 0002:00009b08       ??_C@_0BF@OAAJKAIM@sk_plr_hand_grenade1?$AA@ 1009db08     game.obj
 0002:00009b20       ??_C@_0BF@MLCEPDEP@sk_plr_hand_grenade2?$AA@ 1009db20     game.obj
 0002:00009b38       ??_C@_0BF@NCDPMCAO@sk_plr_hand_grenade3?$AA@ 1009db38     game.obj
 0002:00009b50       ??_C@_0BA@BAEAJMHP@sk_plr_satchel1?$AA@ 1009db50     game.obj
 0002:00009b60       ??_C@_0BA@DLGNMPLM@sk_plr_satchel2?$AA@ 1009db60     game.obj
 0002:00009b70       ??_C@_0BA@CCHGPOPN@sk_plr_satchel3?$AA@ 1009db70     game.obj
 0002:00009b80       ??_C@_0BB@JEGPNOLC@sk_plr_tripmine1?$AA@ 1009db80     game.obj
 0002:00009b94       ??_C@_0BB@LPECINHB@sk_plr_tripmine2?$AA@ 1009db94     game.obj
 0002:00009ba8       ??_C@_0BB@KGFJLMDA@sk_plr_tripmine3?$AA@ 1009dba8     game.obj
 0002:00009bbc       ??_C@_0BA@KOMHKEHG@sk_12mm_bullet1?$AA@ 1009dbbc     game.obj
 0002:00009bcc       ??_C@_0BA@IFOKPHLF@sk_12mm_bullet2?$AA@ 1009dbcc     game.obj
 0002:00009bdc       ??_C@_0BA@JMPBMGPE@sk_12mm_bullet3?$AA@ 1009dbdc     game.obj
 0002:00009bec       ??_C@_0BB@NDOMKFMH@sk_9mmAR_bullet1?$AA@ 1009dbec     game.obj
 0002:00009c00       ??_C@_0BB@PIMBPGAE@sk_9mmAR_bullet2?$AA@ 1009dc00     game.obj
 0002:00009c14       ??_C@_0BB@OBNKMHEF@sk_9mmAR_bullet3?$AA@ 1009dc14     game.obj
 0002:00009c28       ??_C@_0P@NPBHABKI@sk_9mm_bullet1?$AA@ 1009dc28     game.obj
 0002:00009c38       ??_C@_0P@PEDKFCGL@sk_9mm_bullet2?$AA@ 1009dc38     game.obj
 0002:00009c48       ??_C@_0P@ONCBGDCK@sk_9mm_bullet3?$AA@ 1009dc48     game.obj
 0002:00009c58       ??_C@_0P@KLCKJFH@sk_hornet_dmg1?$AA@ 1009dc58     game.obj
 0002:00009c68       ??_C@_0P@CBJPPKJE@sk_hornet_dmg2?$AA@ 1009dc68     game.obj
 0002:00009c78       ??_C@_0P@DIIEMLNF@sk_hornet_dmg3?$AA@ 1009dc78     game.obj
 0002:00009c88       ??_C@_0BA@NMFKLONC@sk_suitcharger1?$AA@ 1009dc88     game.obj
 0002:00009c98       ??_C@_0BA@PHHHONBB@sk_suitcharger2?$AA@ 1009dc98     game.obj
 0002:00009ca8       ??_C@_0BA@OOGMNMFA@sk_suitcharger3?$AA@ 1009dca8     game.obj
 0002:00009cb8       ??_C@_0M@HMNNAIC@sk_battery1?$AA@ 1009dcb8     game.obj
 0002:00009cc4       ??_C@_0M@CMOAIDEB@sk_battery2?$AA@ 1009dcc4     game.obj
 0002:00009cd0       ??_C@_0M@DFPLLCAA@sk_battery3?$AA@ 1009dcd0     game.obj
 0002:00009cdc       ??_C@_0BC@HHOAEAEB@sk_healthcharger1?$AA@ 1009dcdc     game.obj
 0002:00009cf0       ??_C@_0BC@FMMNBDIC@sk_healthcharger2?$AA@ 1009dcf0     game.obj
 0002:00009d04       ??_C@_0BC@EFNGCCMD@sk_healthcharger3?$AA@ 1009dd04     game.obj
 0002:00009d18       ??_C@_0O@MPPDGIJI@sk_healthkit1?$AA@ 1009dd18     game.obj
 0002:00009d28       ??_C@_0O@OENODLFL@sk_healthkit2?$AA@ 1009dd28     game.obj
 0002:00009d38       ??_C@_0O@PNMFAKBK@sk_healthkit3?$AA@ 1009dd38     game.obj
 0002:00009d48       ??_C@_0BD@NLOAMMFL@sk_scientist_heal1?$AA@ 1009dd48     game.obj
 0002:00009d5c       ??_C@_0BD@PAMNJPJI@sk_scientist_heal2?$AA@ 1009dd5c     game.obj
 0002:00009d70       ??_C@_0BD@OJNGKONJ@sk_scientist_heal3?$AA@ 1009dd70     game.obj
 0002:00009d84       ??_C@_0BB@GBGAAOEF@sk_monster_head1?$AA@ 1009dd84     game.obj
 0002:00009d98       ??_C@_0BB@EKENFNIG@sk_monster_head2?$AA@ 1009dd98     game.obj
 0002:00009dac       ??_C@_0BB@FDFGGMMH@sk_monster_head3?$AA@ 1009ddac     game.obj
 0002:00009dc0       ??_C@_0BC@DAAMBDEK@sk_monster_chest1?$AA@ 1009ddc0     game.obj
 0002:00009dd4       ??_C@_0BC@BLCBEAIJ@sk_monster_chest2?$AA@ 1009ddd4     game.obj
 0002:00009de8       ??_C@_0BC@CDKHBMI@sk_monster_chest3?$AA@ 1009dde8     game.obj
 0002:00009dfc       ??_C@_0BE@NNMNMOBM@sk_monster_stomach1?$AA@ 1009ddfc     game.obj
 0002:00009e10       ??_C@_0BE@PGOAJNNP@sk_monster_stomach2?$AA@ 1009de10     game.obj
 0002:00009e24       ??_C@_0BE@OPPLKMJO@sk_monster_stomach3?$AA@ 1009de24     game.obj
 0002:00009e38       ??_C@_0BA@FECHMLMG@sk_monster_arm1?$AA@ 1009de38     game.obj
 0002:00009e48       ??_C@_0BA@HPAKJIAF@sk_monster_arm2?$AA@ 1009de48     game.obj
 0002:00009e58       ??_C@_0BA@GGBBKJEE@sk_monster_arm3?$AA@ 1009de58     game.obj
 0002:00009e68       ??_C@_0BA@GMOOOFIH@sk_monster_leg1?$AA@ 1009de68     game.obj
 0002:00009e78       ??_C@_0BA@EHMDLGEE@sk_monster_leg2?$AA@ 1009de78     game.obj
 0002:00009e88       ??_C@_0BA@FONIIHAF@sk_monster_leg3?$AA@ 1009de88     game.obj
 0002:00009e98       ??_C@_0BA@JGGFNPOK@sk_player_head1?$AA@ 1009de98     game.obj
 0002:00009ea8       ??_C@_0BA@LNEIIMCJ@sk_player_head2?$AA@ 1009dea8     game.obj
 0002:00009eb8       ??_C@_0BA@KEFDLNGI@sk_player_head3?$AA@ 1009deb8     game.obj
 0002:00009ec8       ??_C@_0BB@HGJCKIOC@sk_player_chest1?$AA@ 1009dec8     game.obj
 0002:00009edc       ??_C@_0BB@FNLPPLCB@sk_player_chest2?$AA@ 1009dedc     game.obj
 0002:00009ef0       ??_C@_0BB@EEKEMKGA@sk_player_chest3?$AA@ 1009def0     game.obj
 0002:00009f04       ??_C@_0BD@OHKANEGH@sk_player_stomach1?$AA@ 1009df04     game.obj
 0002:00009f18       ??_C@_0BD@MMINIHKE@sk_player_stomach2?$AA@ 1009df18     game.obj
 0002:00009f2c       ??_C@_0BD@NFJGLGOF@sk_player_stomach3?$AA@ 1009df2c     game.obj
 0002:00009f40       ??_C@_0P@DDKBDJFC@sk_player_arm1?$AA@ 1009df40     game.obj
 0002:00009f50       ??_C@_0P@BIIMGKJB@sk_player_arm2?$AA@ 1009df50     game.obj
 0002:00009f60       ??_C@_0P@BJHFLNA@sk_player_arm3?$AA@ 1009df60     game.obj
 0002:00009f70       ??_C@_0P@LGIBHBD@sk_player_leg1?$AA@ 1009df70     game.obj
 0002:00009f80       ??_C@_0P@CAEFEENA@sk_player_leg2?$AA@ 1009df80     game.obj
 0002:00009f90       ??_C@_0P@DJFOHFJB@sk_player_leg3?$AA@ 1009df90     game.obj
 0002:00009fa0       ??_C@_0L@FKMMBKBD@sv_gravity?$AA@ 1009dfa0     game.obj
 0002:00009fac       ??_C@_06MMOECJNC@sv_aim?$AA@ 1009dfac     game.obj
 0002:00009fb4       ??_C@_0N@OFGIKLBC@mp_footsteps?$AA@ 1009dfb4     game.obj
 0002:00009fc4       ??_C@_0O@OFAOFHGI@sv_accelerate?$AA@ 1009dfc4     game.obj
 0002:00009fd4       ??_C@_0M@CKLNABFC@sv_friction?$AA@ 1009dfd4     game.obj
 0002:00009fe0       ??_C@_0N@LFAHFFEG@sv_stopspeed?$AA@ 1009dfe0     game.obj
 0002:00009ff0       ??_C@_0BA@FKEOFPI@exec?5skill?4cfg?6?$AA@ 1009dff0     game.obj
 0002:0000a000       ??_C@_0BG@KNDHOFON@?6GAME?5SKILL?5LEVEL?3?$CFd?6?$AA@ 1009e000     gamerules.obj
 0002:0000a018       ??_C@_0P@OKGCFKIM@exec?5game?4cfg?6?$AA@ 1009e018     gamerules.obj
 0002:0000a030       __xmm@41700000424800004170000042960000 1009e030     gamerules.obj
 0002:0000a040       ??_C@_09OBGHCEGP@m_fAttenu?$AA@ 1009e040     ggrenade.obj
 0002:0000a04c       ??_C@_0N@CLNDFNPG@m_flNextFreq?$AA@ 1009e04c     ggrenade.obj
 0002:0000a05c       ??_C@_0L@HFCEAPNC@m_flC4Blow?$AA@ 1009e05c     ggrenade.obj
 0002:0000a068       ??_C@_0BF@ODOIEBHJ@m_flNextFreqInterval?$AA@ 1009e068     ggrenade.obj
 0002:0000a080       ??_C@_0N@KIGKFFB@m_flNextBeep?$AA@ 1009e080     ggrenade.obj
 0002:0000a090       ??_C@_0BE@GMKOIPKK@m_flDefuseCountDown?$AA@ 1009e090     ggrenade.obj
 0002:0000a0a4       ??_C@_0O@MLBBAGBI@m_flNextBlink?$AA@ 1009e0a4     ggrenade.obj
 0002:0000a0b4       ??_C@_0BE@FIKMNMEA@m_pentCurBombTarget?$AA@ 1009e0b4     ggrenade.obj
 0002:0000a0c8       ??_C@_0M@ECPABJAN@m_sBeepName?$AA@ 1009e0c8     ggrenade.obj
 0002:0000a0d4       ??_C@_07KEANFHNH@m_bIsC4?$AA@ 1009e0d4     ggrenade.obj
 0002:0000a0dc       ??_C@_0P@KIILDNFI@m_bStartDefuse?$AA@ 1009e0dc     ggrenade.obj
 0002:0000a0ec       ??_C@_09BLHHLMOP@m_SGSmoke?$AA@ 1009e0ec     ggrenade.obj
 0002:0000a0f8       ??_C@_0M@JDBNJPLN@m_bJustBlew?$AA@ 1009e0f8     ggrenade.obj
 0002:0000a104       ??_C@_0O@PJIOPLID@m_bLightSmoke?$AA@ 1009e104     ggrenade.obj
 0002:0000a114       ??_C@_09IAFCBAPF@m_usEvent?$AA@ 1009e114     ggrenade.obj
 0002:0000a120       ??_C@_0BI@LIEIOJPA@weapons?1flashbang?91?4wav?$AA@ 1009e120     ggrenade.obj
 0002:0000a138       ??_C@_0BI@DONMJLFO@weapons?1flashbang?92?4wav?$AA@ 1009e138     ggrenade.obj
 0002:0000a150       ??_C@_0BE@JJJKAAPC@weapons?1debris1?4wav?$AA@ 1009e150     ggrenade.obj
 0002:0000a164       ??_C@_0BE@BPAOHCFM@weapons?1debris2?4wav?$AA@ 1009e164     ggrenade.obj
 0002:0000a178       ??_C@_0BE@NEFCKBPJ@weapons?1debris3?4wav?$AA@ 1009e178     ggrenade.obj
 0002:0000a18c       ??_C@_0BH@EBHLGDPA@weapons?1sg_explode?4wav?$AA@ 1009e18c     ggrenade.obj
 0002:0000a1a4       ??_C@_0P@NGDPBEAP@func_breakable?$AA@ 1009e1a4     ggrenade.obj
 0002:0000a1b4       ??_C@_0BI@FGFAOFDP@weapons?1he_bounce?91?4wav?$AA@ 1009e1b4     ggrenade.obj
 0002:0000a1cc       ??_C@_0BJ@EONCICHB@weapons?1grenade_hit1?4wav?$AA@ 1009e1cc     ggrenade.obj
 0002:0000a1e8       ??_C@_0BJ@MIEGPANP@weapons?1grenade_hit2?4wav?$AA@ 1009e1e8     ggrenade.obj
 0002:0000a204       ??_C@_0BJ@DBKCDHK@weapons?1grenade_hit3?4wav?$AA@ 1009e204     ggrenade.obj
 0002:0000a220       ??_C@_0DJ@NINMOEJD@?$CC?$CFs?$DM?$CFi?$DO?$DM?$CFs?$DO?$DMCT?$DO?$CC?5triggered?5?$CCBegi@ 1009e220     ggrenade.obj
 0002:0000a25c       ??_C@_0BP@HHCOBNGE@?$CDDefusing_Bomb_With_Defuse_Kit?$AA@ 1009e25c     ggrenade.obj
 0002:0000a27c       ??_C@_0DM@DKDEGAEC@?$CC?$CFs?$DM?$CFi?$DO?$DM?$CFs?$DO?$DMCT?$DO?$CC?5triggered?5?$CCBegi@ 1009e27c     ggrenade.obj
 0002:0000a2b8       ??_C@_0CC@POHLPEJD@?$CDDefusing_Bomb_Without_Defuse_Ki@ 1009e2b8     ggrenade.obj
 0002:0000a2dc       ??_C@_0BN@BIGHJJBO@?$CDC4_Defuse_Must_Be_On_Ground?$AA@ 1009e2dc     ggrenade.obj
 0002:0000a2fc       ??_C@_07BGNHJKMP@BOMBDEF?$AA@ 1009e2fc     ggrenade.obj
 0002:0000a304       ??_C@_0CP@LFOIIOFK@?$CC?$CFs?$DM?$CFi?$DO?$DM?$CFs?$DO?$DMCT?$DO?$CC?5triggered?5?$CCDefu@ 1009e304     ggrenade.obj
 0002:0000a334       ??_C@_08MLDOFNI@CGrenade?$AA@ 1009e334     ggrenade.obj
 0002:0000a340       __real@3f733333            1009e340     ggrenade.obj
 0002:0000a348       __real@3fbeb851eb851eb8    1009e348     ggrenade.obj
 0002:0000a350       __real@3fe199999999999a    1009e350     ggrenade.obj
 0002:0000a358       __real@3feb333333333333    1009e358     ggrenade.obj
 0002:0000a360       __real@3ff6666666666666    1009e360     ggrenade.obj
 0002:0000a368       __real@41700000            1009e368     ggrenade.obj
 0002:0000a36c       __real@420c0000            1009e36c     ggrenade.obj
 0002:0000a370       __real@42480000            1009e370     ggrenade.obj
 0002:0000a374       __real@43898000            1009e374     ggrenade.obj
 0002:0000a378       ??_C@_0P@BFGOAFJC@m_flNextCharge?$AA@ 1009e378     healthkit.obj
 0002:0000a388       ??_C@_0O@FKECEDE@m_iReactivate?$AA@ 1009e388     healthkit.obj
 0002:0000a398       ??_C@_08KNDGHBFJ@m_iJuice?$AA@ 1009e398     healthkit.obj
 0002:0000a3a4       ??_C@_05IGICCOJP@m_iOn?$AA@ 1009e3a4     healthkit.obj
 0002:0000a3ac       ??_C@_0O@IKFNGDE@m_flSoundTime?$AA@ 1009e3ac     healthkit.obj
 0002:0000a3c0       ??_7CHealthKit@@6B@        1009e3c0     healthkit.obj
 0002:0000a4ac       ??_C@_0BE@COKIGALC@models?1w_medkit?4mdl?$AA@ 1009e4ac     healthkit.obj
 0002:0000a4c0       ??_C@_0BH@FOMKJFDE@items?1smallmedkit1?4wav?$AA@ 1009e4c0     healthkit.obj
 0002:0000a4dc       ??_7CWallHealth@@6B@       1009e4dc     healthkit.obj
 0002:0000a5c8       ??_C@_0M@JFMHKOKP@CWallHealth?$AA@ 1009e5c8     healthkit.obj
 0002:0000a5d4       ??_C@_07CALCDNJA@dmdelay?$AA@ 1009e5d4     healthkit.obj
 0002:0000a5dc       ??_C@_0BD@LMOBFGIO@items?1medshot4?4wav?$AA@ 1009e5dc     healthkit.obj
 0002:0000a5f0       ??_C@_0BF@IKPMFCMN@items?1medshotno1?4wav?$AA@ 1009e5f0     healthkit.obj
 0002:0000a608       ??_C@_0BF@MFCDNO@items?1medcharge4?4wav?$AA@ 1009e608     healthkit.obj
 0002:0000a620       __real@3fe1eb851eb851ec    1009e620     healthkit.obj
 0002:0000a628       __real@3fe3d70a3d70a3d7    1009e628     healthkit.obj
 0002:0000a634       ??_7CHostage@@6B@          1009e634     hostage.obj
 0002:0000a764       ??_C@_0P@GLDKGGMP@hostage_entity?$AA@ 1009e764     hostage.obj
 0002:0000a774       ??_C@_0BF@LMBIKAG@models?1scientist?4mdl?$AA@ 1009e774     hostage.obj
 0002:0000a78c       ??_C@_0BC@DDAJIPKB@sprites?1smoke?4spr?$AA@ 1009e78c     hostage.obj
 0002:0000a7a0       ??_C@_0BE@HDIAIJCL@info_hostage_rescue?$AA@ 1009e7a0     hostage.obj
 0002:0000a7b4       ??_C@_0DA@JONFNLLB@?$CC?$CFs?$DM?$CFi?$DO?$DM?$CFs?$DO?$DMCT?$DO?$CC?5triggered?5?$CCResc@ 1009e7b4     hostage.obj
 0002:0000a7e4       ??_C@_07ONGOFAAN@rescued?$AA@ 1009e7e4     hostage.obj
 0002:0000a7ec       ??_C@_07NBNGGAAC@escaped?$AA@ 1009e7ec     hostage.obj
 0002:0000a7f4       ??_C@_0BB@KCKPFJAC@?$CDInjured_Hostage?$AA@ 1009e7f4     hostage.obj
 0002:0000a808       ??_C@_0BO@BEACDLBB@?$CDHint_careful_around_hostages?$AA@ 1009e808     hostage.obj
 0002:0000a828       ??_C@_0BA@CGKIIKCB@?$CDKilled_Hostage?$AA@ 1009e828     hostage.obj
 0002:0000a838       ??_C@_0BB@NLHHEALJ@?$CDHint_lost_money?$AA@ 1009e838     hostage.obj
 0002:0000a84c       ??_C@_0CP@GPPNIBHN@?$CC?$CFs?$DM?$CFi?$DO?$DM?$CFs?$DO?$DM?$CFs?$DO?$CC?5triggered?5?$CCKill@ 1009e84c     hostage.obj
 0002:0000a87c       ??_C@_0CG@PCBGOMFO@?$CDHint_removed_for_next_hostage_k@ 1009e87c     hostage.obj
 0002:0000a8a4       ??_C@_0M@MNJNCGPD@disconnect?6?$AA@ 1009e8a4     hostage.obj
 0002:0000a8b0       ??_C@_0BL@NEPJEMLE@?$CDOnly_CT_Can_Move_Hostages?$AA@ 1009e8b0     hostage.obj
 0002:0000a8cc       ??_C@_0DA@IGPCJNFC@?$CC?$CFs?$DM?$CFi?$DO?$DM?$CFs?$DO?$DMCT?$DO?$CC?5triggered?5?$CCTouc@ 1009e8cc     hostage.obj
 0002:0000a900       __real@3fa1111111111111    1009e900     hostage.obj
 0002:0000a908       __real@403a000000000000    1009e908     hostage.obj
 0002:0000a910       __real@42dc0000            1009e910     hostage.obj
 0002:0000a914       __real@43200000            1009e914     hostage.obj
 0002:0000a918       __real@c1c80000            1009e918     hostage.obj
 0002:0000a920       __xmm@00000000c24800000000000000000000 1009e920     hostage.obj
 0002:0000a930       __xmm@00000000c2480000c248000000000000 1009e930     hostage.obj
 0002:0000a940       __xmm@42480000000000000000000000000000 1009e940     hostage.obj
 0002:0000a950       __xmm@42480000000000004248000042480000 1009e950     hostage.obj
 0002:0000a960       __xmm@42480000c248000000000000c2480000 1009e960     hostage.obj
 0002:0000a970       __xmm@c2480000000000000000000042480000 1009e970     hostage.obj
 0002:0000a980       ??_C@_0M@DFOHBOK@sv_stepsize?$AA@ 1009e980     hostage_localnav.obj
 0002:0000a98c       ??_C@_0M@ELLBMFNK@queue?5full?6?$AA@ 1009e98c     hostage_localnav.obj
 0002:0000a998       __real@3fa00000            1009e998     hostage_localnav.obj
 0002:0000a99c       __real@41500000            1009e99c     hostage_localnav.obj
 0002:0000a9a0       __real@41980000            1009e9a0     hostage_localnav.obj
 0002:0000a9a4       __real@41d00000            1009e9a4     hostage_localnav.obj
 0002:0000a9a8       __real@422c0000            1009e9a8     hostage_localnav.obj
 0002:0000a9ac       __real@42540000            1009e9ac     hostage_localnav.obj
 0002:0000a9b0       __real@42980000            1009e9b0     hostage_localnav.obj
 0002:0000a9b4       __real@42b20000            1009e9b4     hostage_localnav.obj
 0002:0000a9b8       __real@42ce0000            1009e9b8     hostage_localnav.obj
 0002:0000a9bc       __real@42ec0000            1009e9bc     hostage_localnav.obj
 0002:0000a9c0       __real@43060000            1009e9c0     hostage_localnav.obj
 0002:0000a9c4       __real@43170000            1009e9c4     hostage_localnav.obj
 0002:0000a9c8       __real@43290000            1009e9c8     hostage_localnav.obj
 0002:0000a9cc       __real@49742400            1009e9cc     hostage_localnav.obj
 0002:0000a9d4       ??_7CRecharge@@6B@         1009e9d4     h_battery.obj
 0002:0000aac0       ??_C@_09MDNIEDOH@CRecharge?$AA@ 1009eac0     h_battery.obj
 0002:0000aacc       ??_C@_0BG@KIEJIBEB@items?1suitcharge1?4wav?$AA@ 1009eacc     h_battery.obj
 0002:0000aae4       ??_C@_0BI@JGMJMEPH@items?1suitchargeno1?4wav?$AA@ 1009eae4     h_battery.obj
 0002:0000aafc       ??_C@_0BI@KOCMOAHK@items?1suitchargeok1?4wav?$AA@ 1009eafc     h_battery.obj
 0002:0000ab14       ??_C@_09NEPOCDBF@m_animate?$AA@ 1009eb14     h_cycler.obj
 0002:0000ab20       ??_C@_0O@HNGJMBGI@m_flStartTime?$AA@ 1009eb20     h_cycler.obj
 0002:0000ab30       ??_C@_07JIHGIBOM@CCycler?$AA@ 1009eb30     h_cycler.obj
 0002:0000ab3c       ??_7CGenericCycler@@6B@    1009eb3c     h_cycler.obj
 0002:0000ac70       ??_7CCyclerProbe@@6B@      1009ec70     h_cycler.obj
 0002:0000ada0       ??_C@_0BD@BPCMLOLM@models?1prdroid?4mdl?$AA@ 1009eda0     h_cycler.obj
 0002:0000adb4       ??_C@_0CL@JKNOOIKA@cycler?5at?5?$CF?40f?5?$CF?40f?5?$CF0?4f?5missing@ 1009edb4     h_cycler.obj
 0002:0000ade0       ??_C@_06IJHHNGJ@cycler?$AA@ 1009ede0     h_cycler.obj
 0002:0000ade8       ??_C@_0BK@LFJHEILO@sequence?3?5?$CFd?0?5frame?5?$CF?40f?6?$AA@ 1009ede8     h_cycler.obj
 0002:0000ae08       ??_7CCyclerSprite@@6B@     1009ee08     h_cycler.obj
 0002:0000aef0       ??_C@_0O@MHAFPOHA@CCyclerSprite?$AA@ 1009eef0     h_cycler.obj
 0002:0000af00       ??_C@_0M@JNJBBHKN@Sprite?3?5?$CFs?6?$AA@ 1009ef00     h_cycler.obj
 0002:0000af10       ??_7CWeaponCycler@@6B@     1009ef10     h_cycler.obj
 0002:0000b08c       ??_7CWreckage@@6B@         1009f08c     h_cycler.obj
 0002:0000b1bc       ??_C@_09PODKBLLD@CWreckage?$AA@ 1009f1bc     h_cycler.obj
 0002:0000b1c8       __real@43820000            1009f1c8     h_cycler.obj
 0002:0000b1cc       ??_C@_0P@BIKEAKN@models?1hostage?$AA@ 1009f1cc     h_export.obj
 0002:0000b1dc       ??_C@_08MMPLIDAA@spetsnaz?$AA@ 1009f1dc     h_export.obj
 0002:0000b1e8       ??_C@_07PLLENLFF@militia?$AA@ 1009f1e8     h_export.obj
 0002:0000b1f0       ??_C@_0BD@EINLPFKD@models?1hostage?4mdl?$AA@ 1009f1f0     h_export.obj
 0002:0000b204       ??_C@_08OEBGFPHK@hostage?1?$AA@ 1009f204     h_export.obj
 0002:0000b210       ??_C@_0O@PCKKNCOM@hostage?1huse?1?$AA@ 1009f210     h_export.obj
 0002:0000b220       ??_C@_04KMKFGGNA@?4nav?$AA@ 1009f220     h_export.obj
 0002:0000b228       ??_C@_0O@JEFGFABM@czero?2maps?2?$CFs?$AA@ 1009f228     h_export.obj
 0002:0000b238       ??_C@_0BB@LINBJCLN@?4?4?1czero?1maps?1?$CFs?$AA@ 1009f238     h_export.obj
 0002:0000b250       ??_7CWorldItem@@6B@        1009f250     items.obj
 0002:0000b338       ??_C@_04GPMDFGEJ@type?$AA@ 1009f338     items.obj
 0002:0000b340       ??_C@_0O@OIAMBJND@item_antidote?$AA@ 1009f340     items.obj
 0002:0000b350       ??_C@_0O@MNIBGPHB@item_security?$AA@ 1009f350     items.obj
 0002:0000b360       ??_C@_09PNLMJFNO@item_suit?$AA@ 1009f360     items.obj
 0002:0000b370       ??_7CItemSuit@@6B@         1009f370     items.obj
 0002:0000b45c       ??_C@_0BE@KLFIGEGF@models?1w_kevlar?4mdl?$AA@ 1009f45c     items.obj
 0002:0000b470       ??_C@_0BE@KLNAOLP@items?1tr_kevlar?4wav?$AA@ 1009f470     items.obj
 0002:0000b488       ??_7CItemBattery@@6B@      1009f488     items.obj
 0002:0000b574       ??_C@_0BF@DDCPJKEB@models?1w_battery?4mdl?$AA@ 1009f574     items.obj
 0002:0000b58c       ??_C@_09LBNDPFEG@?$CBHEV_?$CF1dP?$AA@ 1009f58c     items.obj
 0002:0000b59c       ??_7CItemAntidote@@6B@     1009f59c     items.obj
 0002:0000b688       ??_C@_0BG@ENGLBEKN@models?1w_antidote?4mdl?$AA@ 1009f688     items.obj
 0002:0000b6a0       ??_C@_09NECGNHED@?$CBHEV_DET4?$AA@ 1009f6a0     items.obj
 0002:0000b6b0       ??_7CItemSecurity@@6B@     1009f6b0     items.obj
 0002:0000b79c       ??_C@_0BG@DPFMODIA@models?1w_security?4mdl?$AA@ 1009f79c     items.obj
 0002:0000b7b8       ??_7CItemLongJump@@6B@     1009f7b8     items.obj
 0002:0000b8a4       ??_C@_0BG@EHJGCIAE@models?1w_longjump?4mdl?$AA@ 1009f8a4     items.obj
 0002:0000b8bc       ??_C@_03HJOOJOPI@slj?$AA@  1009f8bc     items.obj
 0002:0000b8c0       ??_C@_07BEEICHEF@?$CBHEV_A1?$AA@ 1009f8c0     items.obj
 0002:0000b8cc       ??_7CItemKevlar@@6B@       1009f8cc     items.obj
 0002:0000b9bc       ??_7CItemAssaultSuit@@6B@  1009f9bc     items.obj
 0002:0000baa8       ??_C@_0BF@EBGEOMJK@models?1w_assault?4mdl?$AA@ 1009faa8     items.obj
 0002:0000bac4       ??_7CItemThighPack@@6B@    1009fac4     items.obj
 0002:0000bbb0       ??_C@_0BH@OOEEBKAN@models?1w_thighpack?4mdl?$AA@ 1009fbb0     items.obj
 0002:0000bbc8       ??_C@_0N@GDIOFKLE@?$CDGot_defuser?$AA@ 1009fbc8     items.obj
 0002:0000bbd8       ??_C@_08OPMKBLBI@m_iStyle?$AA@ 1009fbd8     lights.obj
 0002:0000bbe4       ??_C@_0N@OACEFJCE@m_iszPattern?$AA@ 1009fbe4     lights.obj
 0002:0000bbf8       ??_7CLight@@6B@            1009fbf8     lights.obj
 0002:0000bce0       ??_C@_06FAKOHJJO@CLight?$AA@ 1009fce0     lights.obj
 0002:0000bce8       ??_C@_05NCNFOFLM@pitch?$AA@ 1009fce8     lights.obj
 0002:0000bcf0       ??_C@_07CHFOACKJ@pattern?$AA@ 1009fcf0     lights.obj
 0002:0000bcf8       ??_C@_01MCMALHOG@a?$AA@    1009fcf8     lights.obj
 0002:0000bcfc       ??_C@_01GOHFPIOK@m?$AA@    1009fcfc     lights.obj
 0002:0000bd04       ??_7CEnvLight@@6B@         1009fd04     lights.obj
 0002:0000bdec       ??_C@_06PHHMIKBC@_light?$AA@ 1009fdec     lights.obj
 0002:0000bdf4       ??_C@_0N@EPGDEDFI@?$CFd?5?$CFd?5?$CFd?5?$CFd?6?$AA@ 1009fdf4     lights.obj
 0002:0000be04       ??_C@_02DPKJAMEF@?$CFd?$AA@ 1009fe04     lights.obj
 0002:0000be08       ??_C@_0O@CGCGGHO@sv_skycolor_r?$AA@ 1009fe08     lights.obj
 0002:0000be18       ??_C@_0O@DFNHIAGK@sv_skycolor_g?$AA@ 1009fe18     lights.obj
 0002:0000be28       ??_C@_0O@EIKAHECP@sv_skycolor_b?$AA@ 1009fe28     lights.obj
 0002:0000be38       ??_C@_02NJPGOMH@?$CFf?$AA@ 1009fe38     lights.obj
 0002:0000be3c       ??_C@_0M@JBBFCNJL@sv_skyvec_x?$AA@ 1009fe3c     lights.obj
 0002:0000be48       ??_C@_0M@IIAOBMNK@sv_skyvec_y?$AA@ 1009fe48     lights.obj
 0002:0000be54       ??_C@_0M@KDCDEPBJ@sv_skyvec_z?$AA@ 1009fe54     lights.obj
 0002:0000be60       __real@3fe3333340000000    1009fe60     lights.obj
 0002:0000be68       __real@405c800000000000    1009fe68     lights.obj
 0002:0000be70       __real@43840000            1009fe70     lights.obj
 0002:0000be78       ??_7CMapInfo@@6B@          1009fe78     mapinfo.obj
 0002:0000bf60       ??_C@_06PPEMMAEC@buying?$AA@ 1009ff60     mapinfo.obj
 0002:0000bf68       ??_C@_0L@EHCFALFF@bombradius?$AA@ 1009ff68     mapinfo.obj
 0002:0000bf74       ??_C@_0M@HKKCKONL@m_textParms?$AA@ 1009ff74     maprules.obj
 0002:0000bf80       ??_C@_0O@ILAHDDJG@m_iszInTarget?$AA@ 1009ff80     maprules.obj
 0002:0000bf90       ??_C@_0P@OILNKAPD@m_iszOutTarget?$AA@ 1009ff90     maprules.obj
 0002:0000bfa0       ??_C@_0N@IONPGFBL@m_iszInCount?$AA@ 1009ffa0     maprules.obj
 0002:0000bfb0       ??_C@_0O@DCCANJAG@m_iszOutCount?$AA@ 1009ffb0     maprules.obj
 0002:0000bfc0       ??_C@_0M@BCINGCIH@CRuleEntity?$AA@ 1009ffc0     maprules.obj
 0002:0000bfd0       ??_7CGameScore@@6B@        1009ffd0     maprules.obj
 0002:0000c0b8       ??_C@_06GPGIDCJA@points?$AA@ 100a00b8     maprules.obj
 0002:0000c0c4       ??_7CGameEnd@@6B@          100a00c4     maprules.obj
 0002:0000c1b0       ??_7CGameText@@6B@         100a01b0     maprules.obj
 0002:0000c298       ??_C@_09KNMILNCN@CGameText?$AA@ 100a0298     maprules.obj
 0002:0000c2a4       ??_C@_07MFOHDNMP@channel?$AA@ 100a02a4     maprules.obj
 0002:0000c2ac       ??_C@_01FJMABOPO@x?$AA@    100a02ac     maprules.obj
 0002:0000c2b0       ??_C@_01EANLCPLP@y?$AA@    100a02b0     maprules.obj
 0002:0000c2b4       ??_C@_06HOPIODND@effect?$AA@ 100a02b4     maprules.obj
 0002:0000c2bc       ??_C@_06KEONFOCA@color2?$AA@ 100a02bc     maprules.obj
 0002:0000c2c4       ??_C@_06JFGPOFJL@fadein?$AA@ 100a02c4     maprules.obj
 0002:0000c2cc       ??_C@_07BJADIKJG@fadeout?$AA@ 100a02cc     maprules.obj
 0002:0000c2d4       ??_C@_06HPHNOPOF@fxtime?$AA@ 100a02d4     maprules.obj
 0002:0000c2e0       ??_7CGameTeamMaster@@6B@   100a02e0     maprules.obj
 0002:0000c3c8       ??_C@_09BHEEPGFP@teamindex?$AA@ 100a03c8     maprules.obj
 0002:0000c3d4       ??_C@_0N@MIOHHCGI@triggerstate?$AA@ 100a03d4     maprules.obj
 0002:0000c3e8       ??_7CGameTeamSet@@6B@      100a03e8     maprules.obj
 0002:0000c4d4       ??_7CGamePlayerZone@@6B@   100a04d4     maprules.obj
 0002:0000c5bc       ??_C@_0BA@DCNHONFL@CGamePlayerZone?$AA@ 100a05bc     maprules.obj
 0002:0000c5cc       ??_C@_08NHHEIPMM@intarget?$AA@ 100a05cc     maprules.obj
 0002:0000c5d8       ??_C@_09FFJEDAGP@outtarget?$AA@ 100a05d8     maprules.obj
 0002:0000c5e4       ??_C@_07EOAJDLKA@incount?$AA@ 100a05e4     maprules.obj
 0002:0000c5ec       ??_C@_08KGECFJPG@outcount?$AA@ 100a05ec     maprules.obj
 0002:0000c5fc       ??_7CGamePlayerHurt@@6B@   100a05fc     maprules.obj
 0002:0000c6e8       ??_7CGameCounter@@6B@      100a06e8     maprules.obj
 0002:0000c7d4       ??_7CGameCounterSet@@6B@   100a07d4     maprules.obj
 0002:0000c8c0       ??_7CGamePlayerEquip@@6B@  100a08c0     maprules.obj
 0002:0000c9ac       ??_7CGamePlayerTeam@@6B@   100a09ac     maprules.obj
 0002:0000ca94       ??_C@_0BB@FDMJCLGJ@game_team_master?$AA@ 100a0a94     maprules.obj
 0002:0000caa8       ??_C@_0BB@CGOJPOMI@m_iszXController?$AA@ 100a0aa8     mortar.obj
 0002:0000cabc       ??_C@_0BB@LNEMLCKH@m_iszYController?$AA@ 100a0abc     mortar.obj
 0002:0000cad0       ??_C@_0L@DBGLEAPC@m_flSpread?$AA@ 100a0ad0     mortar.obj
 0002:0000cadc       ??_C@_08OBKHPHNG@m_iCount?$AA@ 100a0adc     mortar.obj
 0002:0000cae8       ??_C@_0L@MHOLKBEB@m_fControl?$AA@ 100a0ae8     mortar.obj
 0002:0000caf8       ??_7CFuncMortarField@@6B@  100a0af8     mortar.obj
 0002:0000cbe4       ??_C@_0BB@NAKFLCBC@CFuncMortarField?$AA@ 100a0be4     mortar.obj
 0002:0000cbf8       ??_C@_0BD@JNNJPPFN@weapons?1mortar?4wav?$AA@ 100a0bf8     mortar.obj
 0002:0000cc0c       ??_C@_0BG@ENLMPGOF@weapons?1mortarhit?4wav?$AA@ 100a0c0c     mortar.obj
 0002:0000cc24       ??_C@_0P@OAGCDPBD@monster_mortar?$AA@ 100a0c24     mortar.obj
 0002:0000cc38       ??_7CMortar@@6B@           100a0c38     mortar.obj
 0002:0000cd6c       __real@40200000            100a0d6c     mortar.obj
 0002:0000cd70       __real@44800000            100a0d70     mortar.obj
 0002:0000cd78       ??_7IVoiceGameMgrHelper@@6B@ 100a0d78     multiplay_gamerules.obj
 0002:0000cd84       ??_7CCStrikeGameMgrHelper@@6B@ 100a0d84     multiplay_gamerules.obj
 0002:0000cd90       ??_7CHalfLifeMultiplay@@6B@ 100a0d90     multiplay_gamerules.obj
 0002:0000cea8       ??_C@_07NKIMKAEK@?$CF?$CBMRAD_?$AA@ 100a0ea8     multiplay_gamerules.obj
 0002:0000ceb0       ??_C@_09HBCKMAMK@TERRORIST?$AA@ 100a0eb0     multiplay_gamerules.obj
 0002:0000cebc       ??_C@_09GNDCBOBP@SPECTATOR?$AA@ 100a0ebc     multiplay_gamerules.obj
 0002:0000cec8       ??_C@_0CN@LAOOMEBG@Team?5?$CC?$CFs?$CC?5triggered?5?$CC?$CFs?$CC?5?$CICT?5?$CC?$CFi@ 100a0ec8     multiplay_gamerules.obj
 0002:0000cef8       ??_C@_0CJ@LIJKEKDH@World?5triggered?5?$CC?$CFs?$CC?5?$CICT?5?$CC?$CFi?$CC?$CJ?5?$CI@ 100a0ef8     multiplay_gamerules.obj
 0002:0000cf24       ??_C@_0BN@MKGLHLBE@World?5triggered?5?$CCRound_End?$CC?6?$AA@ 100a0f24     multiplay_gamerules.obj
 0002:0000cf44       ??_C@_0M@NHHOJIBJ@cl_himodels?$AA@ 100a0f44     multiplay_gamerules.obj
 0002:0000cf50       ??_C@_08KKMIMEJB@pausable?$AA@ 100a0f50     multiplay_gamerules.obj
 0002:0000cf5c       ??_C@_0P@DHKADKNH@lservercfgfile?$AA@ 100a0f5c     multiplay_gamerules.obj
 0002:0000cf6c       ??_C@_0CF@ILJOPBHJ@Executing?5listen?5server?5config?5f@ 100a0f6c     multiplay_gamerules.obj
 0002:0000cf94       ??_C@_08NNCMPFKC@exec?5?$CFs?6?$AA@ 100a0f94     multiplay_gamerules.obj
 0002:0000cfa0       ??_C@_09BKENKICP@perf_test?$AA@ 100a0fa0     multiplay_gamerules.obj
 0002:0000cfac       ??_C@_09PFGDPEO@print_ent?$AA@ 100a0fac     multiplay_gamerules.obj
 0002:0000cfb8       ??_C@_0P@CCDIMHBI@sv_clienttrace?$AA@ 100a0fb8     multiplay_gamerules.obj
 0002:0000cfc8       ??_C@_09ENPIJEF@weaponbox?$AA@ 100a0fc8     multiplay_gamerules.obj
 0002:0000cfd4       ??_C@_0O@CGAFKJKO@weapon_shield?$AA@ 100a0fd4     multiplay_gamerules.obj
 0002:0000cfe4       ??_C@_0O@NLOKLGJD@cycler_sprite?$AA@ 100a0fe4     multiplay_gamerules.obj
 0002:0000cff4       ??_C@_05OEPGNJB@light?$AA@ 100a0ff4     multiplay_gamerules.obj
 0002:0000cffc       ??_C@_0L@CGBMHOHE@func_water?$AA@ 100a0ffc     multiplay_gamerules.obj
 0002:0000d008       ??_C@_0BA@PKBGBJEG@func_tracktrain?$AA@ 100a1008     multiplay_gamerules.obj
 0002:0000d018       ??_C@_0N@MEANFAOF@func_vehicle?$AA@ 100a1018     multiplay_gamerules.obj
 0002:0000d028       ??_C@_0L@PGCOCBM@func_train?$AA@ 100a1028     multiplay_gamerules.obj
 0002:0000d034       ??_C@_0P@GKDHJCIP@armoury_entity?$AA@ 100a1034     multiplay_gamerules.obj
 0002:0000d044       ??_C@_0BA@JGPOPFCJ@ambient_generic?$AA@ 100a1044     multiplay_gamerules.obj
 0002:0000d054       ??_C@_0P@GKBPEKKN@item_thighpack?$AA@ 100a1054     multiplay_gamerules.obj
 0002:0000d064       ??_C@_0BI@BHGPMMGD@?$CDHint_you_have_the_bomb?$AA@ 100a1064     multiplay_gamerules.obj
 0002:0000d07c       ??_C@_0DL@ODLKFCMA@?$CC?$CFs?$DM?$CFi?$DO?$DM?$CFs?$DO?$DMTERRORIST?$DO?$CC?5triggere@ 100a107c     multiplay_gamerules.obj
 0002:0000d0b8       ??_C@_0O@CBMHJLOL@?$CDGame_scoring?$AA@ 100a10b8     multiplay_gamerules.obj
 0002:0000d0c8       ??_C@_0CD@MBGHJKFM@World?5triggered?5?$CCGame_Commencing@ 100a10c8     multiplay_gamerules.obj
 0002:0000d0ec       ??_C@_0BB@JHMCPEEG@?$CDGame_Commencing?$AA@ 100a10ec     multiplay_gamerules.obj
 0002:0000d100       ??_C@_05IGJPELAE@ctwin?$AA@ 100a1100     multiplay_gamerules.obj
 0002:0000d108       ??_C@_0N@CGPOGMON@?$CDVIP_Escaped?$AA@ 100a1108     multiplay_gamerules.obj
 0002:0000d118       ??_C@_06OLAPNHFM@terwin?$AA@ 100a1118     multiplay_gamerules.obj
 0002:0000d120       ??_C@_0BC@GMINPNKL@?$CDVIP_Assassinated?$AA@ 100a1120     multiplay_gamerules.obj
 0002:0000d134       ??_C@_0BE@JCDEADKB@?$CDTerrorists_Escaped?$AA@ 100a1134     multiplay_gamerules.obj
 0002:0000d148       ??_C@_0BD@LPMIFEEH@?$CDCTs_PreventEscape?$AA@ 100a1148     multiplay_gamerules.obj
 0002:0000d15c       ??_C@_0CB@LCNGDIMP@?$CDEscaping_Terrorists_Neutralized@ 100a115c     multiplay_gamerules.obj
 0002:0000d180       ??_C@_0P@GOHJDNDG@?$CDTarget_Bombed?$AA@ 100a1180     multiplay_gamerules.obj
 0002:0000d190       ??_C@_0O@FGCOAJMA@?$CDBomb_Defused?$AA@ 100a1190     multiplay_gamerules.obj
 0002:0000d1a0       ??_C@_08PFFPLHF@?$CDCTs_Win?$AA@ 100a11a0     multiplay_gamerules.obj
 0002:0000d1ac       ??_C@_0BA@BFAOAJJD@?$CDTerrorists_Win?$AA@ 100a11ac     multiplay_gamerules.obj
 0002:0000d1bc       ??_C@_0M@FDOBDFPP@?$CDRound_Draw?$AA@ 100a11bc     multiplay_gamerules.obj
 0002:0000d1c8       ??_C@_09EFKAJOOF@rounddraw?$AA@ 100a11c8     multiplay_gamerules.obj
 0002:0000d1d4       ??_C@_0BG@OAEPCCMF@?$CDAll_Hostages_Rescued?$AA@ 100a11d4     multiplay_gamerules.obj
 0002:0000d1ec       ??_C@_0BB@BABJCDGB@func_bomb_target?$AA@ 100a11ec     multiplay_gamerules.obj
 0002:0000d200       ??_C@_0BB@IPBLFIDN@info_bomb_target?$AA@ 100a1200     multiplay_gamerules.obj
 0002:0000d214       ??_C@_0BE@DEODJPHB@func_hostage_rescue?$AA@ 100a1214     multiplay_gamerules.obj
 0002:0000d228       ??_C@_0N@PNLKKEEA@func_buyzone?$AA@ 100a1228     multiplay_gamerules.obj
 0002:0000d238       ??_C@_0BA@INDIKMDO@func_escapezone?$AA@ 100a1238     multiplay_gamerules.obj
 0002:0000d248       ??_C@_0BO@HHABACFB@?$CDAuto_Team_Balance_Next_Round?$AA@ 100a1248     multiplay_gamerules.obj
 0002:0000d268       ??_C@_0BE@HKHPLIBK@info_map_parameters?$AA@ 100a1268     multiplay_gamerules.obj
 0002:0000d27c       ??_C@_0BD@CEAPOMPL@EVERYONE?5CAN?5BUY?$CB?6?$AA@ 100a127c     multiplay_gamerules.obj
 0002:0000d290       ??_C@_0BF@OCKFEFDH@Only?5CT?8s?5can?5buy?$CB?$CB?6?$AA@ 100a1290     multiplay_gamerules.obj
 0002:0000d2a8       ??_C@_0BE@OONOMIIM@Only?5T?8s?5can?5buy?$CB?$CB?6?$AA@ 100a12a8     multiplay_gamerules.obj
 0002:0000d2bc       ??_C@_0BC@DBCPELIO@No?5one?5can?5buy?$CB?$CB?6?$AA@ 100a12bc     multiplay_gamerules.obj
 0002:0000d2d0       ??_C@_0BC@FLLBIDJA@?$CDGame_in_position?$AA@ 100a12d0     multiplay_gamerules.obj
 0002:0000d2e4       ??_C@_0BF@KOOAEOAL@?$CDGame_added_position?$AA@ 100a12e4     multiplay_gamerules.obj
 0002:0000d2fc       ??_C@_0BE@CCMIOLBN@?$CDAll_VIP_Slots_Full?$AA@ 100a12fc     multiplay_gamerules.obj
 0002:0000d310       ??_C@_0BP@LCBLLNHF@World?5triggered?5?$CCRound_Start?$CC?6?$AA@ 100a1310     multiplay_gamerules.obj
 0002:0000d330       ??_C@_0P@PJFAONKI@?$CF?$CBMRAD_MOVEOUT?$AA@ 100a1330     multiplay_gamerules.obj
 0002:0000d340       ??_C@_0O@DDFEIKOD@?$CF?$CBMRAD_LETSGO?$AA@ 100a1340     multiplay_gamerules.obj
 0002:0000d350       ??_C@_0BB@PHDKOFGG@?$CF?$CBMRAD_LOCKNLOAD?$AA@ 100a1350     multiplay_gamerules.obj
 0002:0000d364       ??_C@_0M@KHKMLOAP@?$CF?$CBMRAD_ELIM?$AA@ 100a1364     multiplay_gamerules.obj
 0002:0000d370       ??_C@_0O@JNAIIKLK@?$CF?$CBMRAD_GETOUT?$AA@ 100a1370     multiplay_gamerules.obj
 0002:0000d380       ??_C@_0L@BMJCMAEL@?$CF?$CBMRAD_VIP?$AA@ 100a1380     multiplay_gamerules.obj
 0002:0000d38c       ??_C@_0O@LEBCOMND@?$CDTarget_Saved?$AA@ 100a138c     multiplay_gamerules.obj
 0002:0000d39c       ??_C@_0BG@ECKFAIGD@?$CDHostages_Not_Rescued?$AA@ 100a139c     multiplay_gamerules.obj
 0002:0000d3b4       ??_C@_0BI@PAIDCPCJ@?$CDTerrorists_Not_Escaped?$AA@ 100a13b4     multiplay_gamerules.obj
 0002:0000d3cc       ??_C@_0BB@JPNDAMOA@?$CDVIP_Not_Escaped?$AA@ 100a13cc     multiplay_gamerules.obj
 0002:0000d3e0       ??_C@_06BJCFNGJP@second?$AA@ 100a13e0     multiplay_gamerules.obj
 0002:0000d3e8       ??_C@_07GELLIBDG@seconds?$AA@ 100a13e8     multiplay_gamerules.obj
 0002:0000d3f0       ??_C@_0CJ@LMGDBJGG@World?5triggered?5?$CCRestart_Round_?$CI@ 100a13f0     multiplay_gamerules.obj
 0002:0000d41c       ??_C@_0CJ@INLBICIA@Team?5?$CCCT?$CC?5scored?5?$CC?$CFi?$CC?5with?5?$CC?$CFi?$CC?5@ 100a141c     multiplay_gamerules.obj
 0002:0000d448       ??_C@_0DA@IECIFEAB@Team?5?$CCTERRORIST?$CC?5scored?5?$CC?$CFi?$CC?5wit@ 100a1448     multiplay_gamerules.obj
 0002:0000d478       ??_C@_06BNAOAIEN@SECOND?$AA@ 100a1478     multiplay_gamerules.obj
 0002:0000d480       ??_C@_07JJOGDNLC@SECONDS?$AA@ 100a1480     multiplay_gamerules.obj
 0002:0000d488       ??_C@_0BG@LANBPMCA@?$CDGame_will_restart_in?$AA@ 100a1488     multiplay_gamerules.obj
 0002:0000d4a0       ??_C@_0BO@KLPCFOFA@?$CDGame_will_restart_in_console?$AA@ 100a14a0     multiplay_gamerules.obj
 0002:0000d4c0       ??_C@_0CP@BFJNGFGF@Changing?5maps?5because?5time?5limit@ 100a14c0     multiplay_gamerules.obj
 0002:0000d4f0       ??_C@_0DD@OFDHHIFI@Changing?5maps?5due?5to?5maximum?5rou@ 100a14f0     multiplay_gamerules.obj
 0002:0000d528       ??_C@_0EB@NBGDFGHH@Changing?5maps?4?4?4one?5team?5has?5won@ 100a1528     multiplay_gamerules.obj
 0002:0000d56c       ??_C@_0CB@FLKLBABJ@?$CC?$CFs?$DM?$CFi?$DO?$DM?$CFs?$DO?$DM?$DO?$CC?5entered?5the?5game?6@ 100a156c     multiplay_gamerules.obj
 0002:0000d590       ??_C@_0BB@HACPNBJC@game_playerleave?$AA@ 100a1590     multiplay_gamerules.obj
 0002:0000d5a4       ??_C@_0BP@PJHMJBCA@?$CC?$CFs?$DM?$CFi?$DO?$DM?$CFs?$DO?$DM?$CFs?$DO?$CC?5disconnected?6?$AA@ 100a15a4     multiplay_gamerules.obj
 0002:0000d5c4       ??_C@_0BD@GPEELGFG@?$CDTeam_Select_Spect?$AA@ 100a15c4     multiplay_gamerules.obj
 0002:0000d5d8       ??_C@_0BC@NDIKNKII@game_player_equip?$AA@ 100a15d8     multiplay_gamerules.obj
 0002:0000d5ec       ??_C@_0P@OLOFLAMO@game_playerdie?$AA@ 100a15ec     multiplay_gamerules.obj
 0002:0000d5fc       ??_C@_0BB@KGBGCPLF@?$CDKilled_Teammate?$AA@ 100a15fc     multiplay_gamerules.obj
 0002:0000d610       ??_C@_0BF@IJCDAJDJ@?$CDGame_teammate_kills?$AA@ 100a1610     multiplay_gamerules.obj
 0002:0000d628       ??_C@_0BN@LDFAFIJF@?$CDBanned_For_Killing_Teamates?$AA@ 100a1628     multiplay_gamerules.obj
 0002:0000d648       ??_C@_0BP@CFONGKM@?$CDHint_careful_around_teammates?$AA@ 100a1648     multiplay_gamerules.obj
 0002:0000d668       ??_C@_0BN@CEMIBJAD@?$CDHint_reward_for_killing_vip?$AA@ 100a1668     multiplay_gamerules.obj
 0002:0000d688       ??_C@_0DK@MEGDEICP@?$CC?$CFs?$DM?$CFi?$DO?$DM?$CFs?$DO?$DMTERRORIST?$DO?$CC?5triggere@ 100a1688     multiplay_gamerules.obj
 0002:0000d6c4       ??_C@_0CB@LEIFCBAH@?$CDHint_win_round_by_killing_enemy@ 100a16c4     multiplay_gamerules.obj
 0002:0000d6e8       ??_C@_0BA@DIPOICPC@game_playerkill?$AA@ 100a16e8     multiplay_gamerules.obj
 0002:0000d6f8       ??_C@_05MCBCHHEJ@world?$AA@ 100a16f8     multiplay_gamerules.obj
 0002:0000d700       ??_C@_0L@OOGMGOHD@tau_cannon?$AA@ 100a1700     multiplay_gamerules.obj
 0002:0000d70c       ??_C@_09PANNDLMO@gluon?5gun?$AA@ 100a170c     multiplay_gamerules.obj
 0002:0000d718       ??_C@_08IBNCMLPJ@monster_?$AA@ 100a1718     multiplay_gamerules.obj
 0002:0000d724       ??_C@_05NOJGJHG@func_?$AA@ 100a1724     multiplay_gamerules.obj
 0002:0000d72c       ??_C@_04HGALPFFB@egon?$AA@ 100a172c     multiplay_gamerules.obj
 0002:0000d734       ??_C@_05PBNKJDNB@gauss?$AA@ 100a1734     multiplay_gamerules.obj
 0002:0000d73c       ??_C@_0CO@LLFPEL@?$CC?$CFs?$DM?$CFi?$DO?$DM?$CFs?$DO?$DM?$CFs?$DO?$CC?5committed?5suici@ 100a173c     multiplay_gamerules.obj
 0002:0000d76c       ??_C@_0DE@DFLKMCED@?$CC?$CFs?$DM?$CFi?$DO?$DM?$CFs?$DO?$DM?$CFs?$DO?$CC?5killed?5?$CC?$CFs?$DM?$CFi?$DO?$DM@ 100a176c     multiplay_gamerules.obj
 0002:0000d7a0       ??_C@_0DG@IEFHAED@?$CC?$CFs?$DM?$CFi?$DO?$DM?$CFs?$DO?$DM?$CFs?$DO?$CC?5committed?5suici@ 100a17a0     multiplay_gamerules.obj
 0002:0000d7d8       ??_C@_0L@DONIJINK@minplayers?$AA@ 100a17d8     multiplay_gamerules.obj
 0002:0000d7e4       ??_C@_0L@PCNFODNF@maxplayers?$AA@ 100a17e4     multiplay_gamerules.obj
 0002:0000d7f0       ??_C@_0CM@ILNGGGAD@Skipping?5?$CFs?5from?5mapcycle?0?5not?5a@ 100a17f0     multiplay_gamerules.obj
 0002:0000d81c       ??_C@_0N@NBABDDNG@mapcyclefile?$AA@ 100a181c     multiplay_gamerules.obj
 0002:0000d82c       ??_C@_06PDCABMMD@?$CDVotes?$AA@ 100a182c     multiplay_gamerules.obj
 0002:0000d834       ??_C@_05FAGBKLJE@?$CDVote?$AA@ 100a1834     multiplay_gamerules.obj
 0002:0000d83c       ??_C@_0BB@JEEHFNCB@?$CDMap_Vote_Extend?$AA@ 100a183c     multiplay_gamerules.obj
 0002:0000d850       ??_C@_04FMANPBBG@0?435?$AA@ 100a1850     multiplay_gamerules.obj
 0002:0000d858       ??_C@_0BF@LEOPFPMM@?$CDGame_required_votes?$AA@ 100a1858     multiplay_gamerules.obj
 0002:0000d870       ??_C@_05MEEOHGLC@hldm1?$AA@ 100a1870     multiplay_gamerules.obj
 0002:0000d878       ??_C@_0CC@FEANGDAF@Unable?5to?5load?5map?5cycle?5file?5?$CFs@ 100a1878     multiplay_gamerules.obj
 0002:0000d89c       ??_C@_0BC@FAALNBDM@CHANGE?5LEVEL?3?5?$CFs?6?$AA@ 100a189c     multiplay_gamerules.obj
 0002:0000d8b0       ??_C@_0CJ@JMBELONF@PLAYER?5COUNT?3?5?5min?5?$CFi?5max?5?$CFi?5cur@ 100a18b0     multiplay_gamerules.obj
 0002:0000d8dc       ??_C@_0M@GHGDGIIH@RULES?3?5?5?$CFs?6?$AA@ 100a18dc     multiplay_gamerules.obj
 0002:0000d8e8       ??_C@_08DPEIBBAD@motdfile?$AA@ 100a18e8     multiplay_gamerules.obj
 0002:0000d8f4       ??_C@_08EHKIGBEA@hostname?$AA@ 100a18f4     multiplay_gamerules.obj
 0002:0000d900       __real@3ff4000000000000    100a1900     multiplay_gamerules.obj
 0002:0000d908       __real@42f00000            100a1908     multiplay_gamerules.obj
 0002:0000d90c       __real@44160000            100a190c     multiplay_gamerules.obj
 0002:0000d910       __real@454b2000            100a1910     multiplay_gamerules.obj
 0002:0000d914       __real@455ac000            100a1914     multiplay_gamerules.obj
 0002:0000d918       __real@bfe199999999999a    100a1918     multiplay_gamerules.obj
 0002:0000d920       __xmm@42f0000041a0000041a0000042c80000 100a1920     multiplay_gamerules.obj
 0002:0000d930       ??_C@_02PBAFKAGD@c4?$AA@   100a1930     observer.obj
 0002:0000d934       ??_C@_0P@EKNHLOCM@?$CDSpec_NoTarget?$AA@ 100a1934     observer.obj
 0002:0000d944       ??_C@_0N@KDFDPMBJ@?$CDSpec_Mode?$CFi?$AA@ 100a1944     observer.obj
 0002:0000d954       ??_C@_08KKHABFNG@m_flWait?$AA@ 100a1954     pathcorner.obj
 0002:0000d960       ??_C@_08FCNMPDAF@m_length?$AA@ 100a1960     pathcorner.obj
 0002:0000d96c       ??_C@_07DEMHEKGE@m_pnext?$AA@ 100a196c     pathcorner.obj
 0002:0000d974       ??_C@_0L@PDPEBDNF@m_paltpath?$AA@ 100a1974     pathcorner.obj
 0002:0000d980       ??_C@_0M@JELEFCEN@m_pprevious?$AA@ 100a1980     pathcorner.obj
 0002:0000d98c       ??_C@_09GJLPOOFC@m_altName?$AA@ 100a198c     pathcorner.obj
 0002:0000d99c       ??_7CPathTrack@@6B@        100a199c     pathcorner.obj
 0002:0000da88       ??_7CPathCorner@@6B@       100a1a88     pathcorner.obj
 0002:0000db70       ??_C@_0M@KMLCDEGG@CPathCorner?$AA@ 100a1b70     pathcorner.obj
 0002:0000db7c       ??_C@_04PNOAOIAG@wait?$AA@ 100a1b7c     pathcorner.obj
 0002:0000db84       ??_C@_0L@OCJCBBIH@CPathTrack?$AA@ 100a1b84     pathcorner.obj
 0002:0000db90       ??_C@_07NOKNLIHP@altpath?$AA@ 100a1b90     pathcorner.obj
 0002:0000db98       ??_C@_0BC@HHFGBHKD@Dead?5end?5link?5?$CFs?6?$AA@ 100a1b98     pathcorner.obj
 0002:0000dbac       ??_C@_0CE@NHMMIPJM@Bad?5sequence?5of?5path_tracks?5from@ 100a1bac     pathcorner.obj
 0002:0000dbd0       ??_C@_0L@HDAAGICM@path_track?$AA@ 100a1bd0     pathcorner.obj
 0002:0000dbdc       __real@49f42400            100a1bdc     perf_counter.obj
 0002:0000dbe0       __xmm@41f00000000000000000000000000000 100a1be0     perf_counter.obj
 0002:0000dbf0       ??_C@_08BGGADJCF@m_volume?$AA@ 100a1bf0     plats.obj
 0002:0000dbfc       ??_C@_0BD@FDNMBPME@m_pevCurrentTarget?$AA@ 100a1bfc     plats.obj
 0002:0000dc10       ??_C@_0M@GGJHBJGF@m_activated?$AA@ 100a1c10     plats.obj
 0002:0000dc1c       ??_C@_07ILBIFAOJ@m_ppath?$AA@ 100a1c1c     plats.obj
 0002:0000dc24       ??_C@_08OHPIAMEP@m_height?$AA@ 100a1c24     plats.obj
 0002:0000dc30       ??_C@_05KOFPJBEN@m_dir?$AA@ 100a1c30     plats.obj
 0002:0000dc38       ??_C@_0N@OCCOBKMN@m_startSpeed?$AA@ 100a1c38     plats.obj
 0002:0000dc48       ??_C@_0O@IJLDGMLM@m_controlMins?$AA@ 100a1c48     plats.obj
 0002:0000dc58       ??_C@_0O@FEKMJLJB@m_controlMaxs?$AA@ 100a1c58     plats.obj
 0002:0000dc68       ??_C@_08MKGFBFDP@m_flBank?$AA@ 100a1c68     plats.obj
 0002:0000dc74       ??_C@_0L@MPNOBFB@m_oldSpeed?$AA@ 100a1c74     plats.obj
 0002:0000dc80       ??_C@_0L@GBIFFNDK@m_trackTop?$AA@ 100a1c80     plats.obj
 0002:0000dc8c       ??_C@_0O@DNDAJFJJ@m_trackBottom?$AA@ 100a1c8c     plats.obj
 0002:0000dc9c       ??_C@_07CIONNGDK@m_train?$AA@ 100a1c9c     plats.obj
 0002:0000dca4       ??_C@_0P@LLGPCJDJ@m_trackTopName?$AA@ 100a1ca4     plats.obj
 0002:0000dcb4       ??_C@_0BC@IAGCBPAI@m_trackBottomName?$AA@ 100a1cb4     plats.obj
 0002:0000dcc8       ??_C@_0M@PECLMFMD@m_trainName?$AA@ 100a1cc8     plats.obj
 0002:0000dcd4       ??_C@_06JPKJKBFA@m_code?$AA@ 100a1cd4     plats.obj
 0002:0000dcdc       ??_C@_0O@IJLNHIAM@m_targetState?$AA@ 100a1cdc     plats.obj
 0002:0000dcec       ??_C@_05FCMIADIH@m_use?$AA@ 100a1cec     plats.obj
 0002:0000dcf4       ??_C@_04HDOEGONO@m_on?$AA@ 100a1cf4     plats.obj
 0002:0000dd00       ??_7CFuncTrackTrain@@6B@   100a1d00     plats.obj
 0002:0000dde8       ??_C@_0P@NOIFMLKO@CBasePlatTrain?$AA@ 100a1de8     plats.obj
 0002:0000ddf8       ??_C@_08OHGOKOGA@rotation?$AA@ 100a1df8     plats.obj
 0002:0000de04       ??_C@_06EMCPHFGM@volume?$AA@ 100a1e04     plats.obj
 0002:0000de0c       ??_C@_0BD@BEEIBLCM@plats?1bigmove1?4wav?$AA@ 100a1e0c     plats.obj
 0002:0000de20       ??_C@_0BD@JCNMGJIC@plats?1bigmove2?4wav?$AA@ 100a1e20     plats.obj
 0002:0000de34       ??_C@_0BE@NIAHEBHC@plats?1elevmove1?4wav?$AA@ 100a1e34     plats.obj
 0002:0000de48       ??_C@_0BE@FOJDDDNM@plats?1elevmove2?4wav?$AA@ 100a1e48     plats.obj
 0002:0000de5c       ??_C@_0BE@JFMPOAHJ@plats?1elevmove3?4wav?$AA@ 100a1e5c     plats.obj
 0002:0000de70       ??_C@_0BH@IOHBKOHJ@plats?1freightmove1?4wav?$AA@ 100a1e70     plats.obj
 0002:0000de88       ??_C@_0BH@IOFNMNH@plats?1freightmove2?4wav?$AA@ 100a1e88     plats.obj
 0002:0000dea0       ??_C@_0BF@MBNIOGIL@plats?1heavymove1?4wav?$AA@ 100a1ea0     plats.obj
 0002:0000deb8       ??_C@_0BE@BGALJLIM@plats?1rackmove1?4wav?$AA@ 100a1eb8     plats.obj
 0002:0000decc       ??_C@_0BE@NFAHGGGO@plats?1railmove1?4wav?$AA@ 100a1ecc     plats.obj
 0002:0000dee0       ??_C@_0BG@GMPINPFF@plats?1squeekmove1?4wav?$AA@ 100a1ee0     plats.obj
 0002:0000def8       ??_C@_0BE@JMFNEPEL@plats?1talkmove1?4wav?$AA@ 100a1ef8     plats.obj
 0002:0000df0c       ??_C@_0BE@BKMJDNOF@plats?1talkmove2?4wav?$AA@ 100a1f0c     plats.obj
 0002:0000df20       ??_C@_0BD@FFKIOPLC@plats?1bigstop1?4wav?$AA@ 100a1f20     plats.obj
 0002:0000df34       ??_C@_0BD@NDDMJNBM@plats?1bigstop2?4wav?$AA@ 100a1f34     plats.obj
 0002:0000df48       ??_C@_0BH@MPJBFKOH@plats?1freightstop1?4wav?$AA@ 100a1f48     plats.obj
 0002:0000df60       ??_C@_0BF@GKMGALL@plats?1heavystop2?4wav?$AA@ 100a1f60     plats.obj
 0002:0000df78       ??_C@_0BE@FHOLGPBC@plats?1rackstop1?4wav?$AA@ 100a1f78     plats.obj
 0002:0000df8c       ??_C@_0BE@JEOHJCPA@plats?1railstop1?4wav?$AA@ 100a1f8c     plats.obj
 0002:0000dfa0       ??_C@_0BG@CNBICLML@plats?1squeekstop1?4wav?$AA@ 100a1fa0     plats.obj
 0002:0000dfb8       ??_C@_0BE@NNLNLLNF@plats?1talkstop1?4wav?$AA@ 100a1fb8     plats.obj
 0002:0000dfd0       ??_7CFuncPlat@@6B@         100a1fd0     plats.obj
 0002:0000e0d0       ??_7CPlatTrigger@@6B@      100a20d0     plats.obj
 0002:0000e1b8       ??_C@_0BC@MFOAEBGM@?$CFs?5Blocked?5by?5?$CFs?6?$AA@ 100a21b8     plats.obj
 0002:0000e1d0       ??_7CFuncPlatRot@@6B@      100a21d0     plats.obj
 0002:0000e2cc       ??_C@_0N@LFDBJJHK@CFuncPlatRot?$AA@ 100a22cc     plats.obj
 0002:0000e2e0       ??_7CFuncTrain@@6B@        100a22e0     plats.obj
 0002:0000e3cc       ??_C@_0L@KGJCPLNP@CFuncTrain?$AA@ 100a23cc     plats.obj
 0002:0000e3d8       ??_C@_0BJ@OMMMCBEN@Train?5?$CFs?5speed?5to?5?$CF4?42f?6?$AA@ 100a23d8     plats.obj
 0002:0000e3f4       ??_C@_0BJ@BFCBAJNM@FuncTrain?5with?5no?5target?$AA@ 100a23f4     plats.obj
 0002:0000e410       ??_C@_0BA@LEBPOCBO@CFuncTrackTrain?$AA@ 100a2410     plats.obj
 0002:0000e420       ??_C@_06LHAOKEGO@wheels?$AA@ 100a2420     plats.obj
 0002:0000e428       ??_C@_0L@IGEBJHMI@startspeed?$AA@ 100a2428     plats.obj
 0002:0000e434       ??_C@_04JNPFOIOP@bank?$AA@ 100a2434     plats.obj
 0002:0000e43c       ??_C@_0CF@HEILEEIL@TRAIN?$CI?$CFs?$CJ?3?5Blocked?5by?5?$CFs?5?$CIdmg?3?$CF?4@ 100a243c     plats.obj
 0002:0000e464       ??_C@_0BK@FBEOOPJE@TRAIN?$CI?$CFs?$CJ?0?5speed?5to?5?$CF?42f?6?$AA@ 100a2464     plats.obj
 0002:0000e480       ??_C@_0BI@CKEBGBNG@plats?1ttrain_start1?4wav?$AA@ 100a2480     plats.obj
 0002:0000e498       ??_C@_0BH@JBKCPEP@TRAIN?$CI?$CFs?$CJ?3?5Speed?5is?50?6?$AA@ 100a2498     plats.obj
 0002:0000e4b0       ??_C@_0BG@ICJLEFNA@TRAIN?$CI?$CFs?$CJ?3?5Lost?5path?6?$AA@ 100a24b0     plats.obj
 0002:0000e4c8       ??_C@_0BO@GHOFJEJK@TrackTrain?5?$CFs?5speed?5to?5?$CF4?42f?6?$AA@ 100a24c8     plats.obj
 0002:0000e4e8       ??_C@_0BF@HIDIPGGD@TRAIN?$CI?$CFs?$CJ?3?5Dead?5end?5?$AA@ 100a24e8     plats.obj
 0002:0000e500       ??_C@_06CFJEGGIM@at?5?$CFs?6?$AA@ 100a2500     plats.obj
 0002:0000e508       ??_C@_0DC@BCPCIPIH@func_track_train?5must?5be?5on?5a?5pa@ 100a2508     plats.obj
 0002:0000e53c       ??_C@_0BP@KAGCAOND@Can?8t?5find?5a?5nearby?5track?5?$CB?$CB?$CB?6?$AA@ 100a253c     plats.obj
 0002:0000e55c       ??_C@_0CA@CEKPEFHF@TRAIN?3?5?$CFs?0?5Nearest?5track?5is?5?$CFs?6?$AA@ 100a255c     plats.obj
 0002:0000e57c       ??_C@_0O@LJFBEFEA@M_speed?5?$DN?5?$CFf?6?$AA@ 100a257c     plats.obj
 0002:0000e58c       ??_C@_0BC@BNAJEFJN@plats?1ttrain1?4wav?$AA@ 100a258c     plats.obj
 0002:0000e5a0       ??_C@_0BC@JLJNDHDD@plats?1ttrain2?4wav?$AA@ 100a25a0     plats.obj
 0002:0000e5b4       ??_C@_0BC@FAMBOEJG@plats?1ttrain3?4wav?$AA@ 100a25b4     plats.obj
 0002:0000e5c8       ??_C@_0BC@ENMENECO@plats?1ttrain4?4wav?$AA@ 100a25c8     plats.obj
 0002:0000e5dc       ??_C@_0BC@MHFCF@plats?1ttrain6?4wav?$AA@ 100a25dc     plats.obj
 0002:0000e5f0       ??_C@_0BC@MLFAKGIA@plats?1ttrain7?4wav?$AA@ 100a25f0     plats.obj
 0002:0000e604       ??_C@_0BI@OKHKLHOA@plats?1ttrain_brake1?4wav?$AA@ 100a2604     plats.obj
 0002:0000e61c       ??_C@_0BA@EJMDOJFA@events?1train?4sc?$AA@ 100a261c     plats.obj
 0002:0000e630       ??_7CFuncTrainControls@@6B@ 100a2630     plats.obj
 0002:0000e718       ??_C@_0N@IAKJBPML@No?5train?5?$CFs?6?$AA@ 100a2718     plats.obj
 0002:0000e72c       ??_7CFuncTrackChange@@6B@  100a272c     plats.obj
 0002:0000e830       ??_C@_0BB@HAADDNOI@CFuncTrackChange?$AA@ 100a2830     plats.obj
 0002:0000e844       ??_C@_05GCHOIEME@train?$AA@ 100a2844     plats.obj
 0002:0000e84c       ??_C@_08NLJLALP@toptrack?$AA@ 100a284c     plats.obj
 0002:0000e858       ??_C@_0M@GOILCKPL@bottomtrack?$AA@ 100a2858     plats.obj
 0002:0000e864       ??_C@_0CH@OBNOEFIM@Can?8t?5find?5train?5for?5track?5chang@ 100a2864     plats.obj
 0002:0000e88c       ??_C@_0CO@HLILMLEF@Can?8t?5find?5bottom?5track?5for?5trac@ 100a288c     plats.obj
 0002:0000e8bc       ??_C@_0CL@KCFJMNOL@Can?8t?5find?5top?5track?5for?5track?5c@ 100a28bc     plats.obj
 0002:0000e8ec       ??_7CFuncTrackAuto@@6B@    100a28ec     plats.obj
 0002:0000e9f4       ??_7CGunTarget@@6B@        100a29f4     plats.obj
 0002:0000eb24       ??_C@_0L@OMHPMBEA@CGunTarget?$AA@ 100a2b24     plats.obj
 0002:0000eb30       ??_C@_0BD@CAIGLONG@m_flFlashLightTime?$AA@ 100a2b30     player.obj
 0002:0000eb44       ??_C@_0BA@PPJCOFDL@m_iFlashBattery?$AA@ 100a2b44     player.obj
 0002:0000eb54       ??_C@_0P@KEOFIABN@m_afButtonLast?$AA@ 100a2b54     player.obj
 0002:0000eb64       ??_C@_0BC@NDJHIJIA@m_afButtonPressed?$AA@ 100a2b64     player.obj
 0002:0000eb78       ??_C@_0BD@JKPFKIHN@m_afButtonReleased?$AA@ 100a2b78     player.obj
 0002:0000eb8c       ??_C@_09FJADBKLE@m_rgItems?$AA@ 100a2b8c     player.obj
 0002:0000eb98       ??_C@_0BB@BNBADOCE@m_afPhysicsFlags?$AA@ 100a2b98     player.obj
 0002:0000ebac       ??_C@_0BC@EIPLGABJ@m_flTimeStepSound?$AA@ 100a2bac     player.obj
 0002:0000ebc0       ??_C@_0BD@PIBAPMMC@m_flTimeWeaponIdle?$AA@ 100a2bc0     player.obj
 0002:0000ebd4       ??_C@_0N@BADHJIDO@m_flSwimTime?$AA@ 100a2bd4     player.obj
 0002:0000ebe4       ??_C@_0N@OIJKAMKI@m_flDuckTime?$AA@ 100a2be4     player.obj
 0002:0000ebf4       ??_C@_0BB@BMHIALMA@m_flWallJumpTime?$AA@ 100a2bf4     player.obj
 0002:0000ec08       ??_C@_0P@JDLOBIKO@m_flSuitUpdate?$AA@ 100a2c08     player.obj
 0002:0000ec18       ??_C@_0BB@LIJDLDDA@m_rgSuitPlayList?$AA@ 100a2c18     player.obj
 0002:0000ec2c       ??_C@_0BA@JDHIHGP@m_iSuitPlayNext?$AA@ 100a2c2c     player.obj
 0002:0000ec3c       ??_C@_0BC@HLHFICFF@m_rgiSuitNoRepeat?$AA@ 100a2c3c     player.obj
 0002:0000ec50       ??_C@_0BH@NGIAKLAL@m_rgflSuitNoRepeatTime?$AA@ 100a2c50     player.obj
 0002:0000ec68       ??_C@_0BD@FNBHLOHL@m_lastDamageAmount?$AA@ 100a2c68     player.obj
 0002:0000ec7c       ??_C@_0BB@GHEKCEGC@m_rgpPlayerItems?$AA@ 100a2c7c     player.obj
 0002:0000ec90       ??_C@_0O@KIFOCAMF@m_pActiveItem?$AA@ 100a2c90     player.obj
 0002:0000eca0       ??_C@_0M@GJPNDMIJ@m_pLastItem?$AA@ 100a2ca0     player.obj
 0002:0000ecac       ??_C@_08FIGPODBE@m_rgAmmo?$AA@ 100a2cac     player.obj
 0002:0000ecb8       ??_C@_0M@IILFBJHF@m_idrowndmg?$AA@ 100a2cb8     player.obj
 0002:0000ecc4       ??_C@_0BB@LGCIKBLF@m_idrownrestored?$AA@ 100a2cc4     player.obj
 0002:0000ecd8       ??_C@_0M@HCJCMNGO@m_tSneaking?$AA@ 100a2cd8     player.obj
 0002:0000ece4       ??_C@_08NBNLKFA@m_iTrain?$AA@ 100a2ce4     player.obj
 0002:0000ecf0       ??_C@_0BA@IBLOCKKC@m_bitsHUDDamage?$AA@ 100a2cf0     player.obj
 0002:0000ed00       ??_C@_0BB@PBNAOOBP@m_flFallVelocity?$AA@ 100a2d00     player.obj
 0002:0000ed14       ??_C@_0BA@OLILJCPJ@m_iTargetVolume?$AA@ 100a2d14     player.obj
 0002:0000ed24       ??_C@_0BA@NPHEFKGO@m_iWeaponVolume?$AA@ 100a2d24     player.obj
 0002:0000ed34       ??_C@_0BD@INMMHMGB@m_iExtraSoundTypes?$AA@ 100a2d34     player.obj
 0002:0000ed48       ??_C@_0P@OGILBABK@m_iWeaponFlash?$AA@ 100a2d48     player.obj
 0002:0000ed58       ??_C@_0M@NLOPHCDO@m_fLongJump?$AA@ 100a2d58     player.obj
 0002:0000ed64       ??_C@_0L@GGOFAKM@m_fInitHUD?$AA@ 100a2d64     player.obj
 0002:0000ed70       ??_C@_09PMINGJGD@m_tbdPrev?$AA@ 100a2d70     player.obj
 0002:0000ed7c       ??_C@_0L@DBMEAMIB@m_iHideHUD?$AA@ 100a2d7c     player.obj
 0002:0000ed88       ??_C@_06MIFAJFHE@m_iFOV?$AA@ 100a2d88     player.obj
 0002:0000ed90       ??_C@_0BD@IHFPJLOG@m_flDisplayHistory?$AA@ 100a2d90     player.obj
 0002:0000eda4       ??_C@_0BA@NHGGLAHL@m_iJoiningState?$AA@ 100a2da4     player.obj
 0002:0000edb4       ??_C@_0N@KDOJHBJD@weapon_ump45?$AA@ 100a2db4     player.obj
 0002:0000edc4       ??_C@_08JCCGOMGF@deadback?$AA@ 100a2dc4     player.obj
 0002:0000edd0       ??_C@_0M@DPJMNOCF@deadsitting?$AA@ 100a2dd0     player.obj
 0002:0000eddc       ??_C@_0M@HHIAIDPD@deadstomach?$AA@ 100a2ddc     player.obj
 0002:0000ede8       ??_C@_09ENLMLMLP@deadtable?$AA@ 100a2de8     player.obj
 0002:0000edf4       ??_C@_0O@KBOGFHKN@m_messageTime?$AA@ 100a2df4     player.obj
 0002:0000ee04       ??_C@_0L@JJCHJEEA@m_loadTime?$AA@ 100a2e04     player.obj
 0002:0000ee10       ??_C@_04CPLLELMC@m249?$AA@ 100a2e10     player.obj
 0002:0000ee18       ??_C@_04KKFNFFAC@p228?$AA@ 100a2e18     player.obj
 0002:0000ee20       ??_C@_03BBKEAIF@?$DP?$DP?$DP?$AA@ 100a2e20     player.obj
 0002:0000ee24       ??_C@_05GHDFNNLC@scout?$AA@ 100a2e24     player.obj
 0002:0000ee2c       ??_C@_06PLJHLHIO@xm1014?$AA@ 100a2e2c     player.obj
 0002:0000ee34       ??_C@_05INHJPNJM@mac10?$AA@ 100a2e34     player.obj
 0002:0000ee3c       ??_C@_03CFKHOHFO@aug?$AA@  100a2e3c     player.obj
 0002:0000ee40       ??_C@_06POFKINOL@elites?$AA@ 100a2e40     player.obj
 0002:0000ee48       ??_C@_04EGPBINHA@fn57?$AA@ 100a2e48     player.obj
 0002:0000ee50       ??_C@_05JOBMFOLE@ump45?$AA@ 100a2e50     player.obj
 0002:0000ee58       ??_C@_05NCIKJDHF@sg550?$AA@ 100a2e58     player.obj
 0002:0000ee60       ??_C@_05CAKDPM@galil?$AA@  100a2e60     player.obj
 0002:0000ee68       ??_C@_05LAIJEIBK@famas?$AA@ 100a2e68     player.obj
 0002:0000ee70       ??_C@_03PLNCNPLC@usp?$AA@  100a2e70     player.obj
 0002:0000ee74       ??_C@_05KINDNLLC@glock?$AA@ 100a2e74     player.obj
 0002:0000ee7c       ??_C@_03CDKALHKG@awp?$AA@  100a2e7c     player.obj
 0002:0000ee80       ??_C@_03OBDHKFNL@mp5?$AA@  100a2e80     player.obj
 0002:0000ee84       ??_C@_02LENKBLKO@m3?$AA@   100a2e84     player.obj
 0002:0000ee88       ??_C@_04KIHOHCEN@m4a1?$AA@ 100a2e88     player.obj
 0002:0000ee90       ??_C@_03FFNGDGKN@tmp?$AA@  100a2e90     player.obj
 0002:0000ee94       ??_C@_05EPACHGIN@g3sg1?$AA@ 100a2e94     player.obj
 0002:0000ee9c       ??_C@_06BOLHOKHP@deagle?$AA@ 100a2e9c     player.obj
 0002:0000eea4       ??_C@_05OALMPBPH@sg552?$AA@ 100a2ea4     player.obj
 0002:0000eeac       ??_C@_04MCMNMLGF@ak47?$AA@ 100a2eac     player.obj
 0002:0000eeb4       ??_C@_05BIPCPIBA@knife?$AA@ 100a2eb4     player.obj
 0002:0000eebc       ??_C@_03EBHIGIJD@p90?$AA@  100a2ebc     player.obj
 0002:0000eec0       ??_C@_04CGFJFPFD@none?$AA@ 100a2ec0     player.obj
 0002:0000eec8       ??_C@_09MDJNEEPL@hegrenade?$AA@ 100a2ec8     player.obj
 0002:0000eed4       ??_C@_07PFMEFMOJ@glock18?$AA@ 100a2ed4     player.obj
 0002:0000eedc       ??_C@_05EHJKLNBO@elite?$AA@ 100a2edc     player.obj
 0002:0000eee4       ??_C@_09KEKPBIOE@fiveseven?$AA@ 100a2ee4     player.obj
 0002:0000eef0       ??_C@_07GCPFFMNO@mp5navy?$AA@ 100a2ef0     player.obj
 0002:0000eef8       ??_C@_06NFHHPLBG@?$CDGalil?$AA@ 100a2ef8     player.obj
 0002:0000ef00       ??_C@_08PBHOMJNH@defender?$AA@ 100a2f00     player.obj
 0002:0000ef0c       ??_C@_05FFOGGKHJ@?$CDAK47?$AA@ 100a2f0c     player.obj
 0002:0000ef14       ??_C@_04BKHOBHEH@cv47?$AA@ 100a2f14     player.obj
 0002:0000ef1c       ??_C@_06PECKIGBJ@?$CDSG552?$AA@ 100a2f1c     player.obj
 0002:0000ef24       ??_C@_08EMJFCFNO@krieg552?$AA@ 100a2f24     player.obj
 0002:0000ef30       ??_C@_06DJNIEFGH@magnum?$AA@ 100a2f30     player.obj
 0002:0000ef38       ??_C@_06CCKMHLJ@?$CDG3SG1?$AA@ 100a2f38     player.obj
 0002:0000ef40       ??_C@_05CMCEOMCJ@d3au1?$AA@ 100a2f40     player.obj
 0002:0000ef48       ??_C@_06GFNOBAPA@?$CDFamas?$AA@ 100a2f48     player.obj
 0002:0000ef50       ??_C@_07DGMOLMLC@clarion?$AA@ 100a2f50     player.obj
 0002:0000ef58       ??_C@_05KHCKDKIP@?$CDM4A1?$AA@ 100a2f58     player.obj
 0002:0000ef60       ??_C@_04OEJCDFLF@?$CDAug?$AA@ 100a2f60     player.obj
 0002:0000ef68       ??_C@_07IDINFOGA@bullpup?$AA@ 100a2f68     player.obj
 0002:0000ef70       ??_C@_06MGBMOEJL@?$CDSG550?$AA@ 100a2f70     player.obj
 0002:0000ef78       ??_C@_08HOKDEHFM@krieg550?$AA@ 100a2f78     player.obj
 0002:0000ef84       ??_C@_06DJCHCECI@9x19mm?$AA@ 100a2f84     player.obj
 0002:0000ef8c       ??_C@_04JPCAOOJK@km45?$AA@ 100a2f8c     player.obj
 0002:0000ef94       ??_C@_0L@PBOLLCPD@228compact?$AA@ 100a2f94     player.obj
 0002:0000efa0       ??_C@_09CMDABABB@nighthawk?$AA@ 100a2fa0     player.obj
 0002:0000efac       ??_C@_0M@CKAKAINH@?$CDBeretta96G?$AA@ 100a2fac     player.obj
 0002:0000efb8       ??_C@_0L@HLCNCOEO@?$CDFiveSeven?$AA@ 100a2fb8     player.obj
 0002:0000efc4       ??_C@_07FEBGLEPI@12gauge?$AA@ 100a2fc4     player.obj
 0002:0000efcc       ??_C@_0M@KEBDMAII@autoshotgun?$AA@ 100a2fcc     player.obj
 0002:0000efd8       ??_C@_06FICOKFHG@?$CDMac10?$AA@ 100a2fd8     player.obj
 0002:0000efe0       ??_C@_04DENBELHI@?$CDtmp?$AA@ 100a2fe0     player.obj
 0002:0000efe8       ??_C@_02GPIOAHGI@mp?$AA@   100a2fe8     player.obj
 0002:0000efec       ??_C@_03MNICIKIC@smg?$AA@  100a2fec     player.obj
 0002:0000eff0       ??_C@_03DNEJAOC@c90?$AA@   100a2ff0     player.obj
 0002:0000eff4       ??_C@_06HBOMKLFK@pistol?$AA@ 100a2ff4     player.obj
 0002:0000effc       ??_C@_03MAHJEHPO@SMG?$AA@  100a2ffc     player.obj
 0002:0000f000       ??_C@_0L@CFEKEAAE@machinegun?$AA@ 100a3000     player.obj
 0002:0000f00c       ??_C@_07PKBOGMMP@shotgun?$AA@ 100a300c     player.obj
 0002:0000f014       ??_C@_05NLPPOCND@rifle?$AA@ 100a3014     player.obj
 0002:0000f01c       ??_C@_06CBOFCDAC@sniper?$AA@ 100a301c     player.obj
 0002:0000f028       ??_7CWShield@@6B@          100a3028     player.obj
 0002:0000f110       ??_C@_09PEGKEGNI@CurWeapon?$AA@ 100a3110     player.obj
 0002:0000f11c       ??_C@_06NKMADNKG@Geiger?$AA@ 100a311c     player.obj
 0002:0000f124       ??_C@_0L@PALCELJK@Flashlight?$AA@ 100a3124     player.obj
 0002:0000f130       ??_C@_08JFEKNMJ@FlashBat?$AA@ 100a3130     player.obj
 0002:0000f13c       ??_C@_06GGDALCBD@Health?$AA@ 100a313c     player.obj
 0002:0000f144       ??_C@_06KGFFMMMJ@Damage?$AA@ 100a3144     player.obj
 0002:0000f14c       ??_C@_07OFDFNCDP@Battery?$AA@ 100a314c     player.obj
 0002:0000f154       ??_C@_05GFNCIBPC@Train?$AA@ 100a3154     player.obj
 0002:0000f15c       ??_C@_0L@HEMALLOE@HudTextPro?$AA@ 100a315c     player.obj
 0002:0000f168       ??_C@_07JNEKKACO@HudText?$AA@ 100a3168     player.obj
 0002:0000f170       ??_C@_07JAECCEML@SayText?$AA@ 100a3170     player.obj
 0002:0000f178       ??_C@_07GMGJNMMC@TextMsg?$AA@ 100a3178     player.obj
 0002:0000f180       ??_C@_0L@JMLCHIOL@WeaponList?$AA@ 100a3180     player.obj
 0002:0000f18c       ??_C@_08PEHACIKG@ResetHUD?$AA@ 100a318c     player.obj
 0002:0000f198       ??_C@_07PEONMAPN@InitHUD?$AA@ 100a3198     player.obj
 0002:0000f1a0       ??_C@_08IMMBLBLF@ViewMode?$AA@ 100a31a0     player.obj
 0002:0000f1ac       ??_C@_09HEMANCP@GameTitle?$AA@ 100a31ac     player.obj
 0002:0000f1b8       ??_C@_08DMGIIAG@DeathMsg?$AA@ 100a31b8     player.obj
 0002:0000f1c4       ??_C@_0M@MPCNLNKM@ScoreAttrib?$AA@ 100a31c4     player.obj
 0002:0000f1d0       ??_C@_09CBJIIAKN@ScoreInfo?$AA@ 100a31d0     player.obj
 0002:0000f1dc       ??_C@_08BHMNHEND@TeamInfo?$AA@ 100a31dc     player.obj
 0002:0000f1e8       ??_C@_09DEGMELBN@TeamScore?$AA@ 100a31e8     player.obj
 0002:0000f1f4       ??_C@_08JJGOBBMF@GameMode?$AA@ 100a31f4     player.obj
 0002:0000f200       ??_C@_04KFGJNABM@MOTD?$AA@ 100a3200     player.obj
 0002:0000f208       ??_C@_0L@FFDIDHBB@ServerName?$AA@ 100a3208     player.obj
 0002:0000f214       ??_C@_0L@EANOMKOP@AmmoPickup?$AA@ 100a3214     player.obj
 0002:0000f220       ??_C@_0L@FGOFFEAA@WeapPickup?$AA@ 100a3220     player.obj
 0002:0000f22c       ??_C@_0L@NIFLCEON@ItemPickup?$AA@ 100a322c     player.obj
 0002:0000f238       ??_C@_0L@IFFGJKPB@HideWeapon?$AA@ 100a3238     player.obj
 0002:0000f244       ??_C@_06NJNDMID@SetFOV?$AA@ 100a3244     player.obj
 0002:0000f24c       ??_C@_08IGGENMMJ@ShowMenu?$AA@ 100a324c     player.obj
 0002:0000f258       ??_C@_0M@FNPJCEOM@ScreenShake?$AA@ 100a3258     player.obj
 0002:0000f264       ??_C@_0L@OBKHMDDA@ScreenFade?$AA@ 100a3264     player.obj
 0002:0000f270       ??_C@_05BDDOEAPG@AmmoX?$AA@ 100a3270     player.obj
 0002:0000f278       ??_C@_09GCLOFLD@SendAudio?$AA@ 100a3278     player.obj
 0002:0000f284       ??_C@_09FNCKHMJK@RoundTime?$AA@ 100a3284     player.obj
 0002:0000f290       ??_C@_05INIBOMDG@Money?$AA@ 100a3290     player.obj
 0002:0000f298       ??_C@_09FEHNEEEH@ArmorType?$AA@ 100a3298     player.obj
 0002:0000f2a4       ??_C@_09HLBKBIK@BlinkAcct?$AA@ 100a32a4     player.obj
 0002:0000f2b0       ??_C@_0M@GOKLPADN@StatusValue?$AA@ 100a32b0     player.obj
 0002:0000f2bc       ??_C@_0L@KLILBJK@StatusText?$AA@ 100a32bc     player.obj
 0002:0000f2c8       ??_C@_0L@BOOHPCFL@StatusIcon?$AA@ 100a32c8     player.obj
 0002:0000f2d4       ??_C@_07EJHGBIIO@BarTime?$AA@ 100a32d4     player.obj
