 mp

 Timestamp is 59fd4d3c (Sat Nov  4 13:16:44 2017)

 Preferred load address is 10000000

 Start         Length     Name                   Class
 0001:00000000 00000070H .text$di                CODE
 0001:00000070 00092900H .text$mn                CODE
 0001:00092970 00000140H .text$x                 CODE
 0001:00092ab0 0000003bH .text$yd                CODE
 0002:00000000 00000118H .idata$5                DATA
 0002:00000118 00000004H .00cfg                  DATA
 0002:0000011c 00000004H .CRT$XCA                DATA
 0002:00000120 00000010H .CRT$XCU                DATA
 0002:00000130 00000004H .CRT$XCZ                DATA
 0002:00000134 00000004H .CRT$XIA                DATA
 0002:00000138 0000000cH .CRT$XIC                DATA
 0002:00000144 00000004H .CRT$XIZ                DATA
 0002:00000148 00000004H .CRT$XPA                DATA
 0002:0000014c 00000008H .CRT$XPX                DATA
 0002:00000154 00000004H .CRT$XPXA               DATA
 0002:00000158 00000004H .CRT$XPZ                DATA
 0002:0000015c 00000004H .CRT$XTA                DATA
 0002:00000160 00000010H .CRT$XTZ                DATA
 0002:00000164 00000000H .gfids$x                DATA
 0002:00000164 00000000H .gfids$y                DATA
 0002:00000170 00025d20H .rdata                  DATA
 0002:00025e90 00004520H .rdata$r                DATA
 0002:0002a3b0 0000003cH .rdata$sxdata           DATA
 0002:0002a3ec 00000334H .rdata$zzzdbg           DATA
 0002:0002a720 00000004H .rtc$IAA                DATA
 0002:0002a724 00000004H .rtc$IZZ                DATA
 0002:0002a728 00000004H .rtc$TAA                DATA
 0002:0002a72c 00000004H .rtc$TZZ                DATA
 0002:0002a730 00000700H .xdata$x                DATA
 0002:0002ae30 0000304cH .edata                  DATA
 0002:0002de7c 00000014H .idata$2                DATA
 0002:0002de90 00000014H .idata$3                DATA
 0002:0002dea4 00000118H .idata$4                DATA
 0002:0002dfbc 00000514H .idata$6                DATA
 0003:00000000 00005e40H .data                   DATA
 0003:00005e40 00001700H .data$r                 DATA
 0003:00007540 00044910H .bss                    DATA
 0004:00000000 00000060H .rsrc$01                DATA
 0004:00000060 00000180H .rsrc$02                DATA

  Address         Publics by Value              Rva+Base       Lib:Object

 0000:00000000       ___hybrid_auxiliary_iat    00000000     <absolute>
 0000:00000000       ___guard_iat_table         00000000     <absolute>
 0000:00000000       ___guard_longjmp_table     00000000     <absolute>
 0000:00000000       ___hybrid_code_map         00000000     <absolute>
 0000:00000000       ___guard_fids_table        00000000     <absolute>
 0000:00000000       ___guard_longjmp_count     00000000     <absolute>
 0000:00000000       ___hybrid_code_map_count   00000000     <absolute>
 0000:00000000       ___guard_iat_count         00000000     <absolute>
 0000:00000000       ___enclave_config          00000000     <absolute>
 0000:00000000       ___dynamic_value_reloc_table 00000000     <absolute>
 0000:00000000       __except_list              00000000     <absolute>
 0000:00000000       ___guard_fids_count        00000000     <absolute>
 0000:0000000f       ___safe_se_handler_count   0000000f     <absolute>
 0000:00000100       ___guard_flags             00000100     <absolute>
 0000:00000000       ___ImageBase               10000000     <linker-defined>
 0001:00000070       ??0CVoiceGameMgr@@QAE@XZ   10001070 f   voice_gamemgr.obj
 0001:00000090       ??1CVoiceGameMgr@@UAE@XZ   10001090 f   voice_gamemgr.obj
 0001:000000a0       ??4CBitVecAccessor@@QAEXH@Z 100010a0 f i voice_gamemgr.obj
 0001:000000f0       ??_GCVoiceGameMgr@@UAEPAXI@Z 100010f0 f i voice_gamemgr.obj
 0001:000000f0       ??_ECVoiceGameMgr@@UAEPAXI@Z 100010f0 f i voice_gamemgr.obj
 0001:00000120       ?ClientCommand@CVoiceGameMgr@@QAE_NPAVCBasePlayer@@PBD@Z 10001120 f   voice_gamemgr.obj
 0001:000002c0       ?ClientConnected@CVoiceGameMgr@@QAEXPAUedict_s@@@Z 100012c0 f   voice_gamemgr.obj
 0001:00000350       ?Init@CVoiceGameMgr@@QAE_NPAVIVoiceGameMgrHelper@@H@Z 10001350 f   voice_gamemgr.obj
 0001:000003e0       ?PlayerHasBlockedPlayer@CVoiceGameMgr@@QAE_NPAVCBasePlayer@@0@Z 100013e0 f   voice_gamemgr.obj
 0001:00000470       ?SUB_CallUseToggle@CBaseEntity@@QAEXXZ 10001470 f i voice_gamemgr.obj
 0001:00000490       ?Update@CVoiceGameMgr@@QAEXN@Z 10001490 f   voice_gamemgr.obj
 0001:000004c0       ?UpdateMasks@CVoiceGameMgr@@AAEXXZ 100014c0 f   voice_gamemgr.obj
 0001:00000760       ___local_stdio_printf_options 10001760 f i voice_gamemgr.obj
 0001:00000770       ___local_stdio_scanf_options 10001770 f i voice_gamemgr.obj
 0001:00000780       _sscanf                    10001780 f i voice_gamemgr.obj
 0001:000007b0       _AngleMatrix               100017b0 f   pm_math.obj
 0001:00000940       _AngleVectors              10001940 f   pm_math.obj
 0001:00000ae0       _CrossProduct              10001ae0 f   pm_math.obj
 0001:00000b40       _Length                    10001b40 f   pm_math.obj
 0001:00000b90       _VectorCompare             10001b90 f   pm_math.obj
 0001:00000bd0       _VectorMA                  10001bd0 f   pm_math.obj
 0001:00000c20       _VectorNormalize           10001c20 f   pm_math.obj
 0001:00000cd0       _VectorScale               10001cd0 f   pm_math.obj
 0001:00000d10       _PM_Accelerate             10001d10 f   pm_shared.obj
 0001:00000dd0       _PM_AddCorrectGravity      10001dd0 f   pm_shared.obj
 0001:00000e70       _PM_AddGravity             10001e70 f   pm_shared.obj
 0001:00000ee0       _PM_AddToTouched           10001ee0 f   pm_shared.obj
 0001:00000fb0       _PM_AirAccelerate          10001fb0 f   pm_shared.obj
 0001:00001070       _PM_AirMove                10002070 f   pm_shared.obj
 0001:000011e0       _PM_CalcRoll               100021e0 f   pm_shared.obj
 0001:00001290       _PM_CatagorizePosition     10002290 f   pm_shared.obj
 0001:000013f0       _PM_CatagorizeTextureType  100023f0 f   pm_shared.obj
 0001:000014e0       _PM_CheckFalling           100024e0 f   pm_shared.obj
 0001:00001610       _PM_CheckParamters         10002610 f   pm_shared.obj
 0001:00001850       _PM_CheckStuck             10002850 f   pm_shared.obj
 0001:00001be0       _PM_CheckVelocity          10002be0 f   pm_shared.obj
 0001:00001cf0       _PM_CheckWater             10002cf0 f   pm_shared.obj
 0001:00001f00       _PM_CheckWaterJump         10002f00 f   pm_shared.obj
 0001:000021c0       _PM_ClipVelocity           100031c0 f   pm_shared.obj
 0001:000022b0       _PM_CreateStuckTable       100032b0 f   pm_shared.obj
 0001:00002520       _PM_DropPunchAngle         10003520 f   pm_shared.obj
 0001:000025a0       _PM_Duck                   100035a0 f   pm_shared.obj
 0001:000027d0       _PM_FindTextureType        100037d0 f   pm_shared.obj
 0001:00002830       _PM_FixPlayerCrouchStuck   10003830 f   pm_shared.obj
 0001:000028f0       _PM_FixupGravityVelocity   100038f0 f   pm_shared.obj
 0001:00002960       _PM_FlyMove                10003960 f   pm_shared.obj
 0001:00002f30       _PM_Friction               10003f30 f   pm_shared.obj
 0001:00003110       _PM_GetRandomStuckOffsets  10004110 f   pm_shared.obj
 0001:00003170       _PM_InWater                10004170 f   pm_shared.obj
 0001:00003190       _PM_Init                   10004190 f   pm_shared.obj
 0001:000031c0       _PM_InitTextureTypes       100041c0 f   pm_shared.obj
 0001:00003420       _PM_Jump                   10004420 f   pm_shared.obj
 0001:000036d0       _PM_Ladder                 100046d0 f   pm_shared.obj
 0001:000037b0       _PM_LadderMove             100047b0 f   pm_shared.obj
 0001:00003b70       _PM_MapTextureTypeStepType 10004b70 f   pm_shared.obj
 0001:00003c00       _PM_Move                   10004c00 f   pm_shared.obj
 0001:00003c60       _PM_NoClip                 10004c60 f   pm_shared.obj
 0001:00003d60       _PM_Physics_Toss           10004d60 f   pm_shared.obj
 0001:00004110       _PM_PlayStepSound          10005110 f   pm_shared.obj
 0001:00004ab0       _PM_PlayWaterSounds        10005ab0 f   pm_shared.obj
 0001:00004bc0       _PM_PlayerMove             10005bc0 f   pm_shared.obj
 0001:00005010       _PM_PreventMegaBunnyJumping 10006010 f   pm_shared.obj
 0001:00005090       _PM_PushEntity             10006090 f   pm_shared.obj
 0001:00005190       _PM_ReduceTimers           10006190 f   pm_shared.obj
 0001:00005280       _PM_ResetStuckOffsets      10006280 f   pm_shared.obj
 0001:000052a0       _PM_SortTextures           100062a0 f   pm_shared.obj
 0001:00005310       _PM_SpectatorMove          10006310 f   pm_shared.obj
 0001:00005670       _PM_SplineFraction         10006670 f   pm_shared.obj
 0001:000056b0       _PM_SwapTextures           100066b0 f   pm_shared.obj
 0001:00005740       _PM_UnDuck                 10006740 f   pm_shared.obj
 0001:000058f0       _PM_UpdateStepSound        100068f0 f   pm_shared.obj
 0001:00005b90       _PM_WalkMove               10006b90 f   pm_shared.obj
 0001:000061f0       _PM_WaterJump              100071f0 f   pm_shared.obj
 0001:00006290       _PM_WaterMove              10007290 f   pm_shared.obj
 0001:00006650       ??$GetClassPtr@VCAirtank@@@@YAPAVCAirtank@@PAV0@@Z 10007650 f i airtank.obj
 0001:000067d0       ?Precache@CItemSoda@@UAEXXZ 100077d0 f i effects.obj
 0001:000067d0       @_guard_check_icall_nop@4  100077d0 f i LIBCMT:guard_support.obj
 0001:000067d0       ?ItemPreFrame@CBasePlayerItem@@UAEXXZ 100077d0 f i h_cycler.obj
 0001:000067d0       ?ReportAIState@CBaseMonster@@UAEXXZ 100077d0 f i mpstubb.obj
 0001:000067d0       ?DecalGunshot@@YAXPAUTraceResult@@H_NPAUentvars_s@@1@Z 100077d0 f i weapons.obj
 0001:000067d0       ?Sys_Error@@YAXPBD@Z       100077d0 f i client.obj
 0001:000067d0       ?ResetMaxSpeed@CBaseMonster@@UAEXXZ 100077d0 f i airtank.obj
 0001:000067d0       ?Precache@CSoundEnt@@UAEXXZ 100077d0 f i soundent.obj
 0001:000067d0       ?Activate@CBaseEntity@@UAEXXZ 100077d0 f i airtank.obj
 0001:000067d0       ?Reload@CBasePlayerWeapon@@UAEXXZ 100077d0 f i h_cycler.obj
 0001:000067d0       ?UpdateOwner@CBaseEntity@@UAEXXZ 100077d0 f i airtank.obj
 0001:000067d0       ?SUB_DoNothing@CBaseEntity@@QAEXXZ 100077d0 f i subs.obj
 0001:000067d0       ?StartSneaking@CBaseEntity@@UAEXXZ 100077d0 f i airtank.obj
 0001:000067d0       ?SpectatorDisconnect@CBaseSpectator@@QAEXXZ 100077d0 f i spectator.obj
 0001:000067d0       ?SecondaryAttack@CBasePlayerWeapon@@UAEXXZ 100077d0 f i h_cycler.obj
 0001:000067d0       ?UTIL_DrawBeamPoints@@YAXVVector@@0HEEE@Z 100077d0 f i hostage.obj
 0001:000067d0       ?Spawn@CTriggerRelay@@UAEXXZ 100077d0 f i triggers.obj
 0001:000067d0       ?Spawn@CPathCorner@@UAEXXZ 100077d0 f i pathcorner.obj
 0001:000067d0       ?OverrideReset@CBaseEntity@@UAEXXZ 100077d0 f i airtank.obj
 0001:000067d0       ?Restart@CBaseEntity@@UAEXXZ 100077d0 f i airtank.obj
 0001:000067d0       ?PainSound@CBaseMonster@@UAEXXZ 100077d0 f i airtank.obj
 0001:000067d0       ?SmartRadio@CBasePlayer@@QAEXXZ 100077d0 f i player.obj
 0001:000067d0       ?WeaponIdle@CBasePlayerWeapon@@UAEXXZ 100077d0 f i h_cycler.obj
 0001:000067d0       ?Spawn@CBaseEntity@@UAEXXZ 100077d0 f i airtank.obj
 0001:000067d0       ?ParmsNewLevel@@YAXXZ      100077d0 f i client.obj
 0001:000067d0       ?SendHostageIcons@CBasePlayer@@QAEXXZ 100077d0 f i player.obj
 0001:000067d0       ?ServerDeactivate@CHalfLifeMultiplay@@UAEXXZ 100077d0 f i multiplay_gamerules.obj
 0001:000067d0       ?CheckMapConditions@CHalfLifeTraining@@UAEXXZ 100077d0 f i training_gamerules.obj
 0001:000067d0       ?CreateInstancedBaselines@@YAXXZ 100077d0 f i client.obj
 0001:000067d0       ?Spawn@CTriggerChangeTarget@@UAEXXZ 100077d0 f i triggers.obj
 0001:000067d0       ?UpdateItemInfo@CBasePlayerWeapon@@UAEXXZ 100077d0 f i h_cycler.obj
 0001:000067d0       ?InitGraph@CGraph@@QAEXXZ  100077d0 f i mpstubb.obj
 0001:000067d0       ?StopSneaking@CBaseEntity@@UAEXXZ 100077d0 f i airtank.obj
 0001:000067d0       ?Precache@CBaseEntity@@UAEXXZ 100077d0 f i airtank.obj
 0001:000067e0       ?FLoadGraph@CGraph@@QAEHPAD@Z 100077e0 f i mpstubb.obj
 0001:000067e0       ?CheckNODFile@CGraph@@QAEHPAD@Z 100077e0 f i mpstubb.obj
 0001:000067e0       ?OnControls@CBaseEntity@@UAEHPAUentvars_s@@@Z 100077e0 f i airtank.obj
 0001:000067e0       ?AddPlayerItem@CBaseEntity@@UAEHPAVCBasePlayerItem@@@Z 100077e0 f i airtank.obj
 0001:000067e0       ?GetItemInfo@CWeaponCycler@@UAEHPAUItemInfo@@@Z 100077e0 f i h_cycler.obj
 0001:000067e0       ?RemovePlayerItem@CBaseEntity@@UAEHPAVCBasePlayerItem@@@Z 100077e0 f i airtank.obj
 0001:000067f0       ?PlayerGotWeapon@CHalfLifeMultiplay@@UAEXPAVCBasePlayer@@PAVCBasePlayerItem@@@Z 100077f0 f i multiplay_gamerules.obj
 0001:000067f0       ?AddPoints@CBaseEntity@@UAEXHH@Z 100077f0 f i airtank.obj
 0001:000067f0       ?AddPointsToTeam@CBaseEntity@@UAEXHH@Z 100077f0 f i airtank.obj
 0001:000067f0       ?PlayerGotItem@CHalfLifeMultiplay@@UAEXPAVCBasePlayer@@PAVCItem@@@Z 100077f0 f i multiplay_gamerules.obj
 0001:00006800       ?Blocked@CBaseEntity@@UAEXPAV1@@Z 10007800 f i airtank.obj
 0001:00006820       ?BloodColor@CBaseMonster@@UAEHXZ 10007820 f i airtank.obj
 0001:00006830       ?BloodColor@CHostage@@UAEHXZ 10007830 f i hostage.obj
 0001:00006830       ?BloodColor@CBaseEntity@@UAEHXZ 10007830 f i airtank.obj
 0001:00006830       ?SecondaryAmmoIndex@CBasePlayerWeapon@@UAEHXZ 10007830 f i weapons.obj
 0001:00006830       ?BloodColor@CGrenade@@UAEHXZ 10007830 f i airtank.obj
 0001:00006830       ?BloodColor@CGunTarget@@UAEHXZ 10007830 f i plats.obj
 0001:00006840       ?BodyTarget@CBaseEntity@@UAE?AVVector@@ABV2@@Z 10007840 f i airtank.obj
 0001:00006860       ?Center@CBaseEntity@@UAE?AVVector@@XZ 10007860 f i airtank.obj
 0001:000068c0       ?EarPosition@CBaseEntity@@UAE?AVVector@@XZ 100078c0 f i airtank.obj
 0001:000068c0       ?GetGunPosition@CBasePlayer@@UAE?AVVector@@XZ 100078c0 f i player.obj
 0001:000068c0       ?EyePosition@CBaseEntity@@UAE?AVVector@@XZ 100078c0 f i airtank.obj
 0001:00006910       ?GetDelay@CBaseToggle@@UAEMXZ 10007910 f i airtank.obj
 0001:00006920       ?GetToggleState@CBaseToggle@@UAEHXZ 10007920 f i airtank.obj
 0001:00006930       ?GiveAmmo@CBaseEntity@@UAEHHPADH@Z 10007930 f i airtank.obj
 0001:00006940       ?HasTarget@CBaseEntity@@UAEHH@Z 10007940 f i airtank.obj
 0001:000069a0       ?Illumination@CBaseEntity@@UAEHXZ 100079a0 f i airtank.obj
 0001:000069c0       ?IsAlive@CBaseEntity@@UAEHXZ 100079c0 f i airtank.obj
 0001:000069c0       ?IsAlive@CBasePlayer@@UAEHXZ 100079c0 f i client.obj
 0001:000069f0       ?IsAlive@CBaseMonster@@UAEHXZ 100079f0 f i airtank.obj
 0001:00006a00       ?IsBSPModel@CBaseEntity@@UAEHXZ 10007a00 f i airtank.obj
 0001:00006a20       ?IsMoving@CBaseEntity@@UAEHXZ 10007a20 f i airtank.obj
 0001:00006a70       ?KeyValue@CBaseEntity@@UAEXPAUKeyValueData_s@@@Z 10007a70 f i airtank.obj
 0001:00006a90       ?Killed@CAirtank@@UAEXPAUentvars_s@@H@Z 10007a90 f   airtank.obj
 0001:00006b00       ?ObjectCaps@CGrenade@@UAEHXZ 10007b00 f i airtank.obj
 0001:00006b20       ?Precache@CAirtank@@UAEXXZ 10007b20 f   airtank.obj
 0001:00006b40       ?ReflectGauss@CBaseEntity@@UAEHXZ 10007b40 f i airtank.obj
 0001:00006b80       ?Restore@CAirtank@@UAEHAAVCRestore@@@Z 10007b80 f   airtank.obj
 0001:00006bc0       ?Save@CAirtank@@UAEHAAVCSave@@@Z 10007bc0 f   airtank.obj
 0001:00006c00       ?Spawn@CAirtank@@UAEXXZ    10007c00 f   airtank.obj
 0001:00006ce0       ?TankThink@CAirtank@@QAEXXZ 10007ce0 f   airtank.obj
 0001:00006d00       ?TankTouch@CAirtank@@QAEXPAVCBaseEntity@@@Z 10007d00 f   airtank.obj
 0001:00006dd0       ?TeamID@CBaseEntity@@UAEPBDXZ 10007dd0 f i airtank.obj
 0001:00006de0       ?Think@CBaseEntity@@UAEXXZ 10007de0 f i airtank.obj
 0001:00006df0       ?Touch@CBaseEntity@@UAEXPAV1@@Z 10007df0 f i airtank.obj
 0001:00006e10       ?Use@CBaseEntity@@UAEXPAV1@0W4USE_TYPE@@M@Z 10007e10 f i airtank.obj
 0001:00006e40       _item_airtank              10007e40 f   airtank.obj
 0001:00006e50       ??$GetClassPtr@VC338MagnumAmmo@@@@YAPAVC338MagnumAmmo@@PAV0@@Z 10007e50 f i ammo.obj
 0001:00006eb0       ??$GetClassPtr@VC357SIGAmmo@@@@YAPAVC357SIGAmmo@@PAV0@@Z 10007eb0 f i ammo.obj
 0001:00006f10       ??$GetClassPtr@VC45ACPAmmo@@@@YAPAVC45ACPAmmo@@PAV0@@Z 10007f10 f i ammo.obj
 0001:00006f70       ??$GetClassPtr@VC50AEAmmo@@@@YAPAVC50AEAmmo@@PAV0@@Z 10007f70 f i ammo.obj
 0001:00006fd0       ??$GetClassPtr@VC556NatoAmmo@@@@YAPAVC556NatoAmmo@@PAV0@@Z 10007fd0 f i ammo.obj
 0001:00007030       ??$GetClassPtr@VC556NatoBox@@@@YAPAVC556NatoBox@@PAV0@@Z 10008030 f i ammo.obj
 0001:00007090       ??$GetClassPtr@VC57MMAmmo@@@@YAPAVC57MMAmmo@@PAV0@@Z 10008090 f i ammo.obj
 0001:000070f0       ??$GetClassPtr@VC762NatoAmmo@@@@YAPAVC762NatoAmmo@@PAV0@@Z 100080f0 f i ammo.obj
 0001:00007150       ??$GetClassPtr@VC9MMAmmo@@@@YAPAVC9MMAmmo@@PAV0@@Z 10008150 f i ammo.obj
 0001:000071b0       ??$GetClassPtr@VCBuckShotAmmo@@@@YAPAVCBuckShotAmmo@@PAV0@@Z 100081b0 f i ammo.obj
 0001:00007210       ?AddAmmo@C338MagnumAmmo@@UAEHPAVCBaseEntity@@@Z 10008210 f   ammo.obj
 0001:00007270       ?AddAmmo@C357SIGAmmo@@UAEHPAVCBaseEntity@@@Z 10008270 f   ammo.obj
 0001:000072d0       ?AddAmmo@C45ACPAmmo@@UAEHPAVCBaseEntity@@@Z 100082d0 f   ammo.obj
 0001:00007330       ?AddAmmo@C50AEAmmo@@UAEHPAVCBaseEntity@@@Z 10008330 f   ammo.obj
 0001:00007390       ?AddAmmo@C556NatoAmmo@@UAEHPAVCBaseEntity@@@Z 10008390 f   ammo.obj
 0001:000073f0       ?AddAmmo@C556NatoBox@@UAEHPAVCBaseEntity@@@Z 100083f0 f   ammo.obj
 0001:00007450       ?AddAmmo@C57MMAmmo@@UAEHPAVCBaseEntity@@@Z 10008450 f   ammo.obj
 0001:000074b0       ?AddAmmo@C762NatoAmmo@@UAEHPAVCBaseEntity@@@Z 100084b0 f   ammo.obj
 0001:00007510       ?AddAmmo@C9MMAmmo@@UAEHPAVCBaseEntity@@@Z 10008510 f   ammo.obj
 0001:00007570       ?AddAmmo@CBuckShotAmmo@@UAEHPAVCBaseEntity@@@Z 10008570 f   ammo.obj
 0001:000075d0       ?Precache@C556NatoAmmo@@UAEXXZ 100085d0 f   ammo.obj
 0001:000075d0       ?Precache@C338MagnumAmmo@@UAEXXZ 100085d0 f   ammo.obj
 0001:000075d0       ?Precache@C556NatoBox@@UAEXXZ 100085d0 f   ammo.obj
 0001:000075d0       ?Precache@C357SIGAmmo@@UAEXXZ 100085d0 f   ammo.obj
 0001:000075d0       ?Precache@C57MMAmmo@@UAEXXZ 100085d0 f   ammo.obj
 0001:000075d0       ?Precache@C45ACPAmmo@@UAEXXZ 100085d0 f   ammo.obj
 0001:000075d0       ?Precache@C762NatoAmmo@@UAEXXZ 100085d0 f   ammo.obj
 0001:000075d0       ?Precache@C9MMAmmo@@UAEXXZ 100085d0 f   ammo.obj
 0001:000075d0       ?Precache@C50AEAmmo@@UAEXXZ 100085d0 f   ammo.obj
 0001:000075f0       ?Precache@CBuckShotAmmo@@UAEXXZ 100085f0 f   ammo.obj
 0001:00007610       ?Spawn@C45ACPAmmo@@UAEXXZ  10008610 f   ammo.obj
 0001:00007610       ?Spawn@C357SIGAmmo@@UAEXXZ 10008610 f   ammo.obj
 0001:00007610       ?Spawn@C9MMAmmo@@UAEXXZ    10008610 f   ammo.obj
 0001:00007610       ?Spawn@C556NatoBox@@UAEXXZ 10008610 f   ammo.obj
 0001:00007610       ?Spawn@C57MMAmmo@@UAEXXZ   10008610 f   ammo.obj
 0001:00007610       ?Spawn@C50AEAmmo@@UAEXXZ   10008610 f   ammo.obj
 0001:00007610       ?Spawn@C556NatoAmmo@@UAEXXZ 10008610 f   ammo.obj
 0001:00007610       ?Spawn@C338MagnumAmmo@@UAEXXZ 10008610 f   ammo.obj
 0001:00007610       ?Spawn@C762NatoAmmo@@UAEXXZ 10008610 f   ammo.obj
 0001:00007640       ?Spawn@CBuckShotAmmo@@UAEXXZ 10008640 f   ammo.obj
 0001:00007670       _ammo_338magnum            10008670 f   ammo.obj
 0001:00007680       _ammo_357sig               10008680 f   ammo.obj
 0001:00007690       _ammo_45acp                10008690 f   ammo.obj
 0001:000076a0       _ammo_50ae                 100086a0 f   ammo.obj
 0001:000076b0       _ammo_556nato              100086b0 f   ammo.obj
 0001:000076c0       _ammo_556natobox           100086c0 f   ammo.obj
 0001:000076d0       _ammo_57mm                 100086d0 f   ammo.obj
 0001:000076e0       _ammo_762nato              100086e0 f   ammo.obj
 0001:000076f0       _ammo_9mm                  100086f0 f   ammo.obj
 0001:00007700       _ammo_buckshot             10008700 f   ammo.obj
 0001:00007710       ?DispatchAnimEvents@CBaseAnimating@@QAEXM@Z 10008710 f   animating.obj
 0001:00007850       ?ExtractBbox@CBaseAnimating@@QAEHHPAM0@Z 10008850 f   animating.obj
 0001:00007880       ?GetSequenceFlags@CBaseAnimating@@QAEHXZ 10008880 f   animating.obj
 0001:000078a0       ?InitBoneControllers@CBaseAnimating@@QAEXXZ 100088a0 f   animating.obj
 0001:00007920       ?LookupActivity@CBaseAnimating@@QAEHH@Z 10008920 f   animating.obj
 0001:00007950       ?LookupSequence@CBaseAnimating@@QAEHPBD@Z 10008950 f   animating.obj
 0001:00007980       ?ResetSequenceInfo@CBaseAnimating@@QAEXXZ 10008980 f   animating.obj
 0001:00007a00       ?Restore@CBaseAnimating@@UAEHAAVCRestore@@@Z 10008a00 f   animating.obj
 0001:00007a40       ?Save@CBaseAnimating@@UAEHAAVCSave@@@Z 10008a40 f   animating.obj
 0001:00007a80       ?SetBoneController@CBaseAnimating@@QAEMHM@Z 10008a80 f   animating.obj
 0001:00007ac0       ?SetSequenceBox@CBaseAnimating@@QAEXXZ 10008ac0 f   animating.obj
 0001:00007cc0       ?StudioFrameAdvance@CBaseAnimating@@QAEMM@Z 10008cc0 f   animating.obj
 0001:00007de0       ?SV_StudioSetupBones@@YAXPAUmodel_s@@MHQBM1PBE2HPBUedict_s@@@Z 10008de0 f   animation.obj
 0001:00008dd0       ?ConcatTransforms@@YAXQAY03$$CBM0QAY03M@Z 10009dd0 f   animation.obj
 0001:00008ff0       ?ExtractBbox@@YAHPAXHPAM1@Z 10009ff0 f   animation.obj
 0001:00009050       ?GetAnimationEvent@@YAHPAXPAUentvars_s@@PAUMonsterEvent_t@@MMH@Z 1000a050 f   animation.obj
 0001:00009170       ?GetSequenceFlags@@YAHPAXPAUentvars_s@@@Z 1000a170 f   animation.obj
 0001:000091b0       ?GetSequenceInfo@@YAXPAXPAUentvars_s@@PAM2@Z 1000a1b0 f   animation.obj
 0001:00009290       ?LookupActivity@@YAHPAXPAUentvars_s@@H@Z 1000a290 f   animation.obj
 0001:00009310       ?LookupAnimation@@YAPAUmstudioanim_t@@PAUmodel_s@@PAUmstudioseqdesc_t@@H@Z 1000a310 f   animation.obj
 0001:00009350       ?LookupSequence@@YAHPAXPBD@Z 1000a350 f   animation.obj
 0001:000093b0       ?SetController@@YAMPAXPAUentvars_s@@HM@Z 1000a3b0 f   animation.obj
 0001:00009550       ?StudioCalcBoneAdj@@YAXMPAMPBE1E@Z 1000a550 f   animation.obj
 0001:000097c0       ?StudioCalcBonePosition@@YAXHMPAUmstudiobone_t@@PAUmstudioanim_t@@PAM2@Z 1000a7c0 f   animation.obj
 0001:00009930       ?StudioCalcBoneQuaterion@@YAXHMPAUmstudiobone_t@@PAUmstudioanim_t@@PAM2@Z 1000a930 f   animation.obj
 0001:00009b10       ?StudioEstimateFrame@@YAMMPAUmstudioseqdesc_t@@@Z 1000ab10 f   animation.obj
 0001:00009b50       ?StudioGetAnim@@YAPAUmstudioanim_t@@PAUmodel_s@@PAUmstudioseqdesc_t@@@Z 1000ab50 f   animation.obj
 0001:00009be0       ?StudioSlerpBones@@YAXQAY03MQAY02M01M@Z 1000abe0 f   animation.obj
 0001:00009d20       _AngleQuaternion           1000ad20 f   animation.obj
 0001:00009e60       _QuaternionMatrix          1000ae60 f   animation.obj
 0001:0000a090       _QuaternionSlerp           1000b090 f   animation.obj
 0001:0000a390       _Server_GetBlendingInterface 1000b390 f   animation.obj
 0001:0000a3e0       ??$GetClassPtr@VCFuncConveyor@@@@YAPAVCFuncConveyor@@PAV0@@Z 1000b3e0 f i bmodels.obj
 0001:0000a440       ??$GetClassPtr@VCFuncIllusionary@@@@YAPAVCFuncIllusionary@@PAV0@@Z 1000b440 f i bmodels.obj
 0001:0000a560       ??$GetClassPtr@VCFuncMonsterClip@@@@YAPAVCFuncMonsterClip@@PAV0@@Z 1000b560 f i bmodels.obj
 0001:0000a5c0       ??$GetClassPtr@VCFuncRotating@@@@YAPAVCFuncRotating@@PAV0@@Z 1000b5c0 f i bmodels.obj
 0001:0000a620       ??$GetClassPtr@VCFuncWall@@@@YAPAVCFuncWall@@PAV0@@Z 1000b620 f i bmodels.obj
 0001:0000a680       ??$GetClassPtr@VCFuncWallToggle@@@@YAPAVCFuncWallToggle@@PAV0@@Z 1000b680 f i bmodels.obj
 0001:0000a6e0       ??$GetClassPtr@VCPendulum@@@@YAPAVCPendulum@@PAV0@@Z 1000b6e0 f i bmodels.obj
 0001:0000a780       ?Blocked@CFuncRotating@@UAEXPAVCBaseEntity@@@Z 1000b780 f   bmodels.obj
 0001:0000a7b0       ?Blocked@CPendulum@@UAEXPAVCBaseEntity@@@Z 1000b7b0 f   bmodels.obj
 0001:0000a7c0       ?FStrEq@@YAHPBD0@Z         1000b7c0 f i bmodels.obj
 0001:0000a810       ?HurtTouch@CFuncRotating@@QAEXPAVCBaseEntity@@@Z 1000b810 f   bmodels.obj
 0001:0000a990       ?IsOn@CFuncWallToggle@@QAEHXZ 1000b990 f   bmodels.obj
 0001:0000a9a0       ?KeyValue@CFuncIllusionary@@UAEXPAUKeyValueData_s@@@Z 1000b9a0 f   bmodels.obj
 0001:0000aa10       ?KeyValue@CFuncRotating@@UAEXPAUKeyValueData_s@@@Z 1000ba10 f   bmodels.obj
 0001:0000abf0       ?KeyValue@CPendulum@@UAEXPAUKeyValueData_s@@@Z 1000bbf0 f   bmodels.obj
 0001:0000acb0       ?PendulumUse@CPendulum@@QAEXPAVCBaseEntity@@0W4USE_TYPE@@M@Z 1000bcb0 f   bmodels.obj
 0001:0000ade0       ?Precache@CFuncRotating@@UAEXXZ 1000bde0 f   bmodels.obj
 0001:0000af80       ?RampPitchVol@CFuncRotating@@QAEXH@Z 1000bf80 f   bmodels.obj
 0001:0000b070       ?Restore@CFuncRotating@@UAEHAAVCRestore@@@Z 1000c070 f   bmodels.obj
 0001:0000b0b0       ?Restore@CPendulum@@UAEHAAVCRestore@@@Z 1000c0b0 f   bmodels.obj
 0001:0000b0f0       ?RopeTouch@CPendulum@@QAEXPAVCBaseEntity@@@Z 1000c0f0 f   bmodels.obj
 0001:0000b170       ?Rotate@CFuncRotating@@QAEXXZ 1000c170 f   bmodels.obj
 0001:0000b190       ?RotatingUse@CFuncRotating@@QAEXPAVCBaseEntity@@0W4USE_TYPE@@M@Z 1000c190 f   bmodels.obj
 0001:0000b360       ?Save@CFuncRotating@@UAEHAAVCSave@@@Z 1000c360 f   bmodels.obj
 0001:0000b3a0       ?Save@CPendulum@@UAEHAAVCSave@@@Z 1000c3a0 f   bmodels.obj
 0001:0000b3e0       ?Spawn@CFuncConveyor@@UAEXXZ 1000c3e0 f   bmodels.obj
 0001:0000b470       ?Spawn@CFuncIllusionary@@UAEXXZ 1000c470 f   bmodels.obj
 0001:0000b4d0       ?Spawn@CFuncMonsterClip@@UAEXXZ 1000c4d0 f   bmodels.obj
 0001:0000b520       ?Spawn@CFuncRotating@@UAEXXZ 1000c520 f   bmodels.obj
 0001:0000b720       ?Spawn@CFuncWall@@UAEXXZ   1000c720 f   bmodels.obj
 0001:0000b790       ?Spawn@CFuncWallToggle@@UAEXXZ 1000c790 f   bmodels.obj
 0001:0000b7b0       ?Spawn@CPendulum@@UAEXXZ   1000c7b0 f   bmodels.obj
 0001:0000b970       ?SpinDown@CFuncRotating@@QAEXXZ 1000c970 f   bmodels.obj
 0001:0000bad0       ?SpinUp@CFuncRotating@@QAEXXZ 1000cad0 f   bmodels.obj
 0001:0000bca0       ?Stop@CPendulum@@QAEXXZ    1000cca0 f   bmodels.obj
 0001:0000bcf0       ?Swing@CPendulum@@QAEXXZ   1000ccf0 f   bmodels.obj
 0001:0000bec0       ?Touch@CPendulum@@UAEXPAVCBaseEntity@@@Z 1000cec0 f   bmodels.obj
 0001:0000c030       ?TurnOff@CFuncWallToggle@@QAEXXZ 1000d030 f   bmodels.obj
 0001:0000c060       ?TurnOn@CFuncWallToggle@@QAEXXZ 1000d060 f   bmodels.obj
 0001:0000c090       ?UpdateSpeed@CFuncConveyor@@QAEXM@Z 1000d090 f   bmodels.obj
 0001:0000c100       ?Use@CFuncConveyor@@UAEXPAVCBaseEntity@@0W4USE_TYPE@@M@Z 1000d100 f   bmodels.obj
 0001:0000c140       ?Use@CFuncWall@@UAEXPAVCBaseEntity@@0W4USE_TYPE@@M@Z 1000d140 f   bmodels.obj
 0001:0000c180       ?Use@CFuncWallToggle@@UAEXPAVCBaseEntity@@0W4USE_TYPE@@M@Z 1000d180 f   bmodels.obj
 0001:0000c1c0       ?VecBModelOrigin@@YA?AVVector@@PAUentvars_s@@@Z 1000d1c0 f   bmodels.obj
 0001:0000c230       _func_conveyor             1000d230 f   bmodels.obj
 0001:0000c240       _func_illusionary          1000d240 f   bmodels.obj
 0001:0000c250       _func_monsterclip          1000d250 f   bmodels.obj
 0001:0000c260       _func_pendulum             1000d260 f   bmodels.obj
 0001:0000c270       _func_rotating             1000d270 f   bmodels.obj
 0001:0000c280       _func_wall                 1000d280 f   bmodels.obj
 0001:0000c290       _func_wall_toggle          1000d290 f   bmodels.obj
 0001:0000c2a0       ??$GetClassPtr@VCBaseButton@@@@YAPAVCBaseButton@@PAV0@@Z 1000d2a0 f i buttons.obj
 0001:0000c310       ??$GetClassPtr@VCButtonTarget@@@@YAPAVCButtonTarget@@PAV0@@Z 1000d310 f i buttons.obj
 0001:0000c370       ??$GetClassPtr@VCEnvGlobal@@@@YAPAVCEnvGlobal@@PAV0@@Z 1000d370 f i buttons.obj
 0001:0000c3d0       ??$GetClassPtr@VCEnvSpark@@@@YAPAVCEnvSpark@@PAV0@@Z 1000d3d0 f i buttons.obj
 0001:0000c430       ??$GetClassPtr@VCMomentaryRotButton@@@@YAPAVCMomentaryRotButton@@PAV0@@Z 1000d430 f i buttons.obj
 0001:0000c4e0       ??$GetClassPtr@VCMultiSource@@@@YAPAVCMultiSource@@PAV0@@Z 1000d4e0 f i buttons.obj
 0001:0000c540       ??$GetClassPtr@VCRotButton@@@@YAPAVCRotButton@@PAV0@@Z 1000d540 f i buttons.obj
 0001:0000c5b0       ??0CBaseToggle@@QAE@XZ     1000d5b0 f i buttons.obj
 0001:0000c670       ?ButtonActivate@CBaseButton@@QAEXXZ 1000d670 f   buttons.obj
 0001:0000c790       ?ButtonBackHome@CBaseButton@@QAEXXZ 1000d790 f   buttons.obj
 0001:0000c8e0       ?ButtonResponseToTouch@CBaseButton@@QAE?AW4BUTTON_CODE@1@XZ 1000d8e0 f   buttons.obj
 0001:0000c930       ?ButtonReturn@CBaseButton@@QAEXXZ 1000d930 f   buttons.obj
 0001:0000c9e0       ?ButtonSound@@YAPADH@Z     1000d9e0 f   buttons.obj
 0001:0000caf0       ?ButtonSpark@CBaseButton@@QAEXXZ 1000daf0 f   buttons.obj
 0001:0000cb60       ?ButtonTouch@CBaseButton@@QAEXPAVCBaseEntity@@@Z 1000db60 f   buttons.obj
 0001:0000cc80       ?ButtonUse@CBaseButton@@QAEXPAVCBaseEntity@@0W4USE_TYPE@@M@Z 1000dc80 f   buttons.obj
 0001:0000cd20       ?DoSpark@@YAXPAUentvars_s@@ABVVector@@@Z 1000dd20 f   buttons.obj
 0001:0000ced0       ?IsTriggered@CMultiSource@@UAEHPAVCBaseEntity@@@Z 1000ded0 f   buttons.obj
 0001:0000cf30       ?KeyValue@CBaseButton@@UAEXPAUKeyValueData_s@@@Z 1000df30 f   buttons.obj
 0001:0000d0d0       ?KeyValue@CEnvGlobal@@UAEXPAUKeyValueData_s@@@Z 1000e0d0 f   buttons.obj
 0001:0000d1e0       ?KeyValue@CEnvSpark@@UAEXPAUKeyValueData_s@@@Z 1000e1e0 f   buttons.obj
 0001:0000d300       ?KeyValue@CMomentaryRotButton@@UAEXPAUKeyValueData_s@@@Z 1000e300 f   buttons.obj
 0001:0000d3c0       ?KeyValue@CMultiSource@@UAEXPAUKeyValueData_s@@@Z 1000e3c0 f   buttons.obj
 0001:0000d4f0       ?ObjectCaps@CBaseButton@@UAEHXZ 1000e4f0 f i buttons.obj
 0001:0000d520       ?ObjectCaps@CButtonTarget@@UAEHXZ 1000e520 f   buttons.obj
 0001:0000d540       ?ObjectCaps@CMomentaryRotButton@@UAEHXZ 1000e540 f   buttons.obj
 0001:0000d560       ?ObjectCaps@CMultiSource@@UAEHXZ 1000e560 f i buttons.obj
 0001:0000d570       ?Off@CMomentaryRotButton@@QAEXXZ 1000e570 f   buttons.obj
 0001:0000d5f0       ?PlaySound@CMomentaryRotButton@@QAEXXZ 1000e5f0 f   buttons.obj
 0001:0000d630       ?Precache@CBaseButton@@UAEXXZ 1000e630 f   buttons.obj
 0001:0000d880       ?Precache@CEnvSpark@@UAEXXZ 1000e880 f   buttons.obj
 0001:0000d8d0       ?Register@CMultiSource@@QAEXXZ 1000e8d0 f   buttons.obj
 0001:0000da10       ?Restore@CBaseButton@@UAEHAAVCRestore@@@Z 1000ea10 f   buttons.obj
 0001:0000da50       ?Restore@CEnvGlobal@@UAEHAAVCRestore@@@Z 1000ea50 f   buttons.obj
 0001:0000da90       ?Restore@CEnvSpark@@UAEHAAVCRestore@@@Z 1000ea90 f   buttons.obj
 0001:0000dad0       ?Restore@CMomentaryRotButton@@UAEHAAVCRestore@@@Z 1000ead0 f   buttons.obj
 0001:0000db10       ?Restore@CMultiSource@@UAEHAAVCRestore@@@Z 1000eb10 f   buttons.obj
 0001:0000db50       ?Return@CMomentaryRotButton@@QAEXXZ 1000eb50 f   buttons.obj
 0001:0000dbc0       ?Save@CBaseButton@@UAEHAAVCSave@@@Z 1000ebc0 f   buttons.obj
 0001:0000dc00       ?Save@CEnvGlobal@@UAEHAAVCSave@@@Z 1000ec00 f   buttons.obj
 0001:0000dc40       ?Save@CEnvSpark@@UAEHAAVCSave@@@Z 1000ec40 f   buttons.obj
 0001:0000dc80       ?Save@CMomentaryRotButton@@UAEHAAVCSave@@@Z 1000ec80 f   buttons.obj
 0001:0000dcc0       ?Save@CMultiSource@@UAEHAAVCSave@@@Z 1000ecc0 f   buttons.obj
 0001:0000dd00       ?SparkStart@CEnvSpark@@QAEXPAVCBaseEntity@@0W4USE_TYPE@@M@Z 1000ed00 f   buttons.obj
 0001:0000dd70       ?SparkStop@CEnvSpark@@QAEXPAVCBaseEntity@@0W4USE_TYPE@@M@Z 1000ed70 f   buttons.obj
 0001:0000dd90       ?SparkThink@CEnvSpark@@QAEXXZ 1000ed90 f   buttons.obj
 0001:0000de00       ?Spawn@CBaseButton@@UAEXXZ 1000ee00 f   buttons.obj
 0001:0000e0f0       ?Spawn@CButtonTarget@@UAEXXZ 1000f0f0 f   buttons.obj
 0001:0000e160       ?Spawn@CEnvGlobal@@UAEXXZ  1000f160 f   buttons.obj
 0001:0000e1c0       ?Spawn@CEnvSpark@@UAEXXZ   1000f1c0 f   buttons.obj
 0001:0000e270       ?Spawn@CMomentaryRotButton@@UAEXXZ 1000f270 f   buttons.obj
 0001:0000e420       ?Spawn@CMultiSource@@UAEXXZ 1000f420 f   buttons.obj
 0001:0000e470       ?Spawn@CRotButton@@UAEXXZ  1000f470 f   buttons.obj
 0001:0000e660       ?TakeDamage@CBaseButton@@UAEHPAUentvars_s@@0MH@Z 1000f660 f   buttons.obj
 0001:0000e750       ?TakeDamage@CButtonTarget@@UAEHPAUentvars_s@@0MH@Z 1000f750 f   buttons.obj
 0001:0000e7a0       ?TriggerAndWait@CBaseButton@@QAEXXZ 1000f7a0 f   buttons.obj
 0001:0000e850       ?UpdateAllButtons@CMomentaryRotButton@@QAEXMH@Z 1000f850 f   buttons.obj
 0001:0000e910       ?UpdateSelf@CMomentaryRotButton@@QAEXM@Z 1000f910 f   buttons.obj
 0001:0000ea90       ?UpdateSelfReturn@CMomentaryRotButton@@QAEXM@Z 1000fa90 f   buttons.obj
 0001:0000eb60       ?UpdateTarget@CMomentaryRotButton@@QAEXM@Z 1000fb60 f   buttons.obj
 0001:0000ebe0       ?Use@CButtonTarget@@UAEXPAVCBaseEntity@@0W4USE_TYPE@@M@Z 1000fbe0 f   buttons.obj
 0001:0000ec60       ?Use@CEnvGlobal@@UAEXPAVCBaseEntity@@0W4USE_TYPE@@M@Z 1000fc60 f   buttons.obj
 0001:0000ecf0       ?Use@CMomentaryRotButton@@UAEXPAVCBaseEntity@@0W4USE_TYPE@@M@Z 1000fcf0 f   buttons.obj
 0001:0000ed70       ?Use@CMultiSource@@UAEXPAVCBaseEntity@@0W4USE_TYPE@@M@Z 1000fd70 f   buttons.obj
 0001:0000ee50       _button_target             1000fe50 f   buttons.obj
 0001:0000ee60       _env_global                1000fe60 f   buttons.obj
 0001:0000ee70       _env_spark                 1000fe70 f   buttons.obj
 0001:0000ee70       _env_debris                1000fe70 f   buttons.obj
 0001:0000ee80       _func_button               1000fe80 f   buttons.obj
 0001:0000ee90       _func_rot_button           1000fe90 f   buttons.obj
 0001:0000eea0       _momentary_rot_button      1000fea0 f   buttons.obj
 0001:0000eeb0       _multisource               1000feb0 f   buttons.obj
 0001:0000eed0       ?DispatchSpawn@@YAHPAUedict_s@@@Z 1000fed0 f   cbase.obj
 0001:0000f030       ?DispatchKeyValue@@YAXPAUedict_s@@PAUKeyValueData_s@@@Z 10010030 f   cbase.obj
 0001:0000f070       ?DispatchTouch@@YAXPAUedict_s@@0@Z 10010070 f   cbase.obj
 0001:0000f0d0       ?DispatchUse@@YAXPAUedict_s@@0@Z 100100d0 f   cbase.obj
 0001:0000f120       ?DispatchThink@@YAXPAUedict_s@@@Z 10010120 f   cbase.obj
 0001:0000f170       ?DispatchBlocked@@YAXPAUedict_s@@0@Z 10010170 f   cbase.obj
 0001:0000f1a0       ?DispatchSave@@YAXPAUedict_s@@PAUsaverestore_s@@@Z 100101a0 f   cbase.obj
 0001:0000f2b0       ?DispatchRestore@@YAHPAUedict_s@@PAUsaverestore_s@@H@Z 100102b0 f   cbase.obj
 0001:0000f640       ?DispatchObjectCollsionBox@@YAXPAUedict_s@@@Z 10010640 f   cbase.obj
 0001:0000f670       ?SaveWriteFields@@YAXPAUsaverestore_s@@PBDPAXPAUTYPEDESCRIPTION@@H@Z 10010670 f   cbase.obj
 0001:0000f6d0       ?SaveReadFields@@YAXPAUsaverestore_s@@PBDPAXPAUTYPEDESCRIPTION@@H@Z 100106d0 f   cbase.obj
 0001:0000f740       ??0?$CUtlMemory@Uhash_item_s@@@@QAE@HH@Z 10010740 f i cbase.obj
 0001:0000f780       ??0entvars_s@@QAE@XZ       10010780 f i cbase.obj
 0001:0000f9e0       ??1?$CUtlMemory@PAD@@QAE@XZ 100109e0 f i hintmessage.obj
 0001:0000f9e0       ??1?$CUtlMemory@Uhash_item_s@@@@QAE@XZ 100109e0 f i cbase.obj
 0001:0000f9f0       ??1CSave@@UAE@XZ           100109f0 f i cbase.obj
 0001:0000f9f0       ??1CRestore@@UAE@XZ        100109f0 f i cbase.obj
 0001:0000fa00       ??4EHANDLE@@QAEPAVCBaseEntity@@PAV1@@Z 10010a00 f   cbase.obj
 0001:0000fa40       ??BEHANDLE@@QAEHXZ         10010a40 f   cbase.obj
 0001:0000fa50       ??BEHANDLE@@QAEPAVCBaseEntity@@XZ 10010a50 f   cbase.obj
 0001:0000fa50       ??CEHANDLE@@QAEPAVCBaseEntity@@XZ 10010a50 f   cbase.obj
 0001:0000fa60       ??_GCRestore@@UAEPAXI@Z    10010a60 f i cbase.obj
 0001:0000fa60       ??_ECRestore@@UAEPAXI@Z    10010a60 f i cbase.obj
 0001:0000fa90       ??_GCSaveRestoreBuffer@@UAEPAXI@Z 10010a90 f i util.obj
 0001:0000fa90       ??_GCSave@@UAEPAXI@Z       10010a90 f i cbase.obj
 0001:0000fa90       ??_ECSave@@UAEPAXI@Z       10010a90 f i cbase.obj
 0001:0000fa90       ??_ECSaveRestoreBuffer@@UAEPAXI@Z 10010a90 f i util.obj
 0001:0000fac0       ?AddEntityHashValue@@YAXPAUentvars_s@@PBDW4hash_types_e@@@Z 10010ac0 f   cbase.obj
 0001:0000fc20       ?CONSOLE_ECHO@@YAXPADZZ    10010c20 f   cbase.obj
 0001:0000fc60       ?CREATE_NAMED_ENTITY@@YAPAUedict_s@@H@Z 10010c60 f   cbase.obj
 0001:0000fca0       ?CaseInsensitiveHash@@YAHPBDH@Z 10010ca0 f   cbase.obj
 0001:0000fce0       ?Create@CBaseEntity@@SAPAV1@PADABVVector@@1PAUedict_s@@@Z 10010ce0 f   cbase.obj
 0001:0000fd80       ?DamageDecal@CBaseEntity@@UAEHH@Z 10010d80 f   cbase.obj
 0001:0000fdb0       ?EmptyEntityHashTable@@YAXXZ 10010db0 f   cbase.obj
 0001:0000fe20       ?FindGlobalEntity@@YAPAVCBaseEntity@@HH@Z 10010e20 f   cbase.obj
 0001:0000fee0       ?Get@EHANDLE@@QAEPAUedict_s@@XZ 10010ee0 f   cbase.obj
 0001:0000ff00       ?GetNextTarget@CBaseEntity@@UAEPAV1@XZ 10010f00 f   cbase.obj
 0001:0000ff50       ?Grow@?$CUtlMemory@Uhash_item_s@@@@QAEXH@Z 10010f50 f i cbase.obj
 0001:0000ffc0       ?GrowVector@?$CUtlVector@Uhash_item_s@@@@IAEXH@Z 10010fc0 f i cbase.obj
 0001:00010000       ?Hooked_DispatchSpawn@@YAHPAUedict_s@@@Z 10011000 f   cbase.obj
 0001:000100b0       ?Intersects@CBaseEntity@@QAEHPAV1@@Z 100110b0 f   cbase.obj
 0001:00010140       ?IsDormant@CBaseEntity@@QAEHXZ 10011140 f   cbase.obj
 0001:00010150       ?IsInWorld@CBaseEntity@@UAEHXZ 10011150 f   cbase.obj
 0001:000101e0       ?Killed@CBaseEntity@@UAEXPAUentvars_s@@H@Z 100111e0 f   cbase.obj
 0001:00010210       ?MakeDormant@CBaseEntity@@QAEXXZ 10011210 f   cbase.obj
 0001:00010270       ?Normalize@Vector@@QBE?AV1@XZ 10011270 f i cbase.obj
 0001:00010310       ?OnFreeEntPrivateData@@YAXPAUedict_s@@@Z 10011310 f   cbase.obj
 0001:00010360       ?Purge@?$CUtlMemory@Uhash_item_s@@@@QAEXXZ 10011360 f i cbase.obj
 0001:00010360       ?Purge@?$CUtlMemory@PAD@@QAEXXZ 10011360 f i hintmessage.obj
 0001:00010390       ?Purge@?$CUtlVector@PAD@@QAEXXZ 10011390 f i hintmessage.obj
 0001:00010390       ?Purge@?$CUtlVector@Uhash_item_s@@@@QAEXXZ 10011390 f i cbase.obj
 0001:000103b0       ?REMOVE_ENTITY@@YAXPAUedict_s@@@Z 100113b0 f   cbase.obj
 0001:000103d0       ?RemoveEntityHashValue@@YAXPAUentvars_s@@PBDW4hash_types_e@@@Z 100113d0 f   cbase.obj
 0001:00010540       ?Restore@CBaseEntity@@UAEHAAVCRestore@@@Z 10011540 f   cbase.obj
 0001:00010660       ?Save@CBaseEntity@@UAEHAAVCSave@@@Z 10011660 f   cbase.obj
 0001:000106a0       ?SetCount@?$CUtlVector@Uhash_item_s@@@@QAEXH@Z 100116a0 f i cbase.obj
 0001:000106d0       ?SetObjectCollisionBox@@YAXPAUentvars_s@@@Z 100116d0 f   cbase.obj
 0001:00010910       ?SetObjectCollisionBox@CBaseEntity@@UAEXXZ 10011910 f   cbase.obj
 0001:00010920       ?ShiftElementsRight@?$CUtlVector@Uhash_item_s@@@@IAEXHH@Z 10011920 f i cbase.obj
 0001:00010960       ?ShouldToggle@CBaseEntity@@QAEHW4USE_TYPE@@H@Z 10011960 f   cbase.obj
 0001:00010990       ?TakeDamage@CBaseEntity@@UAEHPAUentvars_s@@0MH@Z 10011990 f   cbase.obj
 0001:00010c60       ?TakeHealth@CBaseEntity@@UAEHMH@Z 10011c60 f   cbase.obj
 0001:00010cd0       ?loopPerformance@@YAXXZ    10011cd0 f   cbase.obj
 0001:00010e80       ?printEntities@@YAXXZ      10011e80 f   cbase.obj
 0001:00010f30       _GetEntityAPI              10011f30 f   cbase.obj
 0001:00010fb0       _GetNewDLLFunctions        10011fb0 f   cbase.obj
 0001:00010ff0       ??$GetClassPtr@VCBasePlayer@@@@YAPAVCBasePlayer@@PAV0@@Z 10011ff0 f i client.obj
 0001:00011230       ??0Vector@@QAE@ABV0@@Z     10012230 f i client.obj
 0001:00011260       ??0Vector@@QAE@XZ          10012260 f i client.obj
 0001:00011280       ?AddToFullPack@@YAHPAUentity_state_s@@HPAUedict_s@@1HHPAE@Z 10012280 f   client.obj
 0001:00011720       ?iItemSlot@CG3SG1@@UAEHXZ  10012720 f   wpn_g3sg1.obj
 0001:00011720       ?iItemSlot@CTMP@@UAEHXZ    10012720 f   wpn_tmp.obj
 0001:00011720       ?UseDecrement@CUMP45@@UAEHXZ 10012720 f   wpn_ump45.obj
 0001:00011720       ?UseDecrement@CTMP@@UAEHXZ 10012720 f   wpn_tmp.obj
 0001:00011720       ?UseDecrement@CUSP@@UAEHXZ 10012720 f   wpn_usp.obj
 0001:00011720       ?iItemSlot@CM249@@UAEHXZ   10012720 f   wpn_m249.obj
 0001:00011720       ?UseDecrement@CHEGrenade@@UAEHXZ 10012720 f   wpn_hegrenade.obj
 0001:00011720       ?UseDecrement@CFamas@@UAEHXZ 10012720 f   wpn_famas.obj
 0001:00011720       ?iItemSlot@CSG552@@UAEHXZ  10012720 f   wpn_sg552.obj
 0001:00011720       ?Classify@CGunTarget@@UAEHXZ 10012720 f   plats.obj
 0001:00011720       ?UseDecrement@CG3SG1@@UAEHXZ 10012720 f   wpn_g3sg1.obj
 0001:00011720       ?UseDecrement@CM4A1@@UAEHXZ 10012720 f   wpn_m4a1.obj
 0001:00011720       ?UseDecrement@CELITE@@UAEHXZ 10012720 f   wpn_elite.obj
 0001:00011720       ?IsPlayer@CBasePlayer@@UAEHXZ 10012720 f   client.obj
 0001:00011720       ?iItemSlot@CP90@@UAEHXZ    10012720 f   wpn_p90.obj
 0001:00011720       ?UseDecrement@CXM1014@@UAEHXZ 10012720 f   wpn_xm1014.obj
 0001:00011720       ?UseDecrement@CC4@@UAEHXZ  10012720 f   wpn_c4.obj
 0001:00011720       ?IsTogglePlat@CFuncTrackChange@@UAEHXZ 10012720 f   plats.obj
 0001:00011720       ?UseDecrement@CSmokeGrenade@@UAEHXZ 10012720 f   wpn_smokegrenade.obj
 0001:00011720       ?CanDrop@CBasePlayerItem@@UAEHXZ 10012720 f   h_cycler.obj
 0001:00011720       ?IsNetClient@CBasePlayer@@UAEHXZ 10012720 f   client.obj
 0001:00011720       ?iItemSlot@CFamas@@UAEHXZ  10012720 f   wpn_famas.obj
 0001:00011720       ?UseDecrement@CSG552@@UAEHXZ 10012720 f   wpn_sg552.obj
 0001:00011720       ?iItemSlot@CWeaponCycler@@UAEHXZ 10012720 f   h_cycler.obj
 0001:00011720       ?iItemSlot@CGalil@@UAEHXZ  10012720 f   wpn_galil.obj
 0001:00011720       ?UseDecrement@CDEAGLE@@UAEHXZ 10012720 f   wpn_deagle.obj
 0001:00011720       ?iItemSlot@CM4A1@@UAEHXZ   10012720 f   wpn_m4a1.obj
 0001:00011720       ?iItemSlot@CM3@@UAEHXZ     10012720 f   wpn_m3.obj
 0001:00011720       ?iItemSlot@CSG550@@UAEHXZ  10012720 f   wpn_sg550.obj
 0001:00011720       ?UseDecrement@CSCOUT@@UAEHXZ 10012720 f   wpn_scout.obj
 0001:00011720       ?iItemSlot@CSCOUT@@UAEHXZ  10012720 f   wpn_scout.obj
 0001:00011720       ?UseDecrement@CAWP@@UAEHXZ 10012720 f   wpn_awp.obj
 0001:00011720       ?iItemSlot@CUMP45@@UAEHXZ  10012720 f   wpn_ump45.obj
 0001:00011720       ?UseDecrement@CAUG@@UAEHXZ 10012720 f   wpn_aug.obj
 0001:00011720       ?UseDecrement@CM3@@UAEHXZ  10012720 f   wpn_m3.obj
 0001:00011720       ?UseDecrement@CMAC10@@UAEHXZ 10012720 f   wpn_mac10.obj
 0001:00011720       ?UseDecrement@CSG550@@UAEHXZ 10012720 f   wpn_sg550.obj
 0001:00011720       ?UseDecrement@CGalil@@UAEHXZ 10012720 f   wpn_galil.obj
 0001:00011720       ?UseDecrement@CP90@@UAEHXZ 10012720 f   wpn_p90.obj
 0001:00011720       ?IsMultiplayer@CHalfLifeMultiplay@@UAEHXZ 10012720 f   multiplay_gamerules.obj
 0001:00011720       ?AllowLagCompensation@@YAHXZ 10012720 f   client.obj
 0001:00011720       ?iItemSlot@CMAC10@@UAEHXZ  10012720 f   wpn_mac10.obj
 0001:00011720       ?CanHolster@CBasePlayerItem@@UAEHXZ 10012720 f   h_cycler.obj
 0001:00011720       ?UseDecrement@CFlashbang@@UAEHXZ 10012720 f   wpn_flashbang.obj
 0001:00011720       ?UseDecrement@CMP5N@@UAEHXZ 10012720 f   wpn_mp5navy.obj
 0001:00011720       ?iItemSlot@CMP5N@@UAEHXZ   10012720 f   wpn_mp5navy.obj
 0001:00011720       ?IsWeapon@CBasePlayerWeapon@@UAEHXZ 10012720 f   h_cycler.obj
 0001:00011720       ?UseDecrement@CGLOCK18@@UAEHXZ 10012720 f   wpn_glock18.obj
 0001:00011720       ?iItemSlot@CXM1014@@UAEHXZ 10012720 f   wpn_xm1014.obj
 0001:00011720       ?CanDeploy@CBasePlayerWeapon@@UAEHXZ 10012720 f   weapons.obj
 0001:00011720       ?UseDecrement@CKnife@@UAEHXZ 10012720 f   wpn_knife.obj
 0001:00011720       ?UseDecrement@CP228@@UAEHXZ 10012720 f   wpn_p228.obj
 0001:00011720       ?UseDecrement@CAK47@@UAEHXZ 10012720 f   wpn_ak47.obj
 0001:00011720       ?UseDecrement@CFiveSeven@@UAEHXZ 10012720 f   wpn_fiveseven.obj
 0001:00011720       ?iItemSlot@CAUG@@UAEHXZ    10012720 f   wpn_aug.obj
 0001:00011720       ?IsDeathmatch@CHalfLifeMultiplay@@UAEHXZ 10012720 f   multiplay_gamerules.obj
 0001:00011720       ?iItemSlot@CAWP@@UAEHXZ    10012720 f   wpn_awp.obj
 0001:00011720       ?UseDecrement@CM249@@UAEHXZ 10012720 f   wpn_m249.obj
 0001:00011720       ?iItemSlot@CAK47@@UAEHXZ   10012720 f   wpn_ak47.obj
 0001:00011730       ?BlinkAccount@@YAXPAVCBasePlayer@@H@Z 10012730 f   client.obj
 0001:00011770       ?BodyTarget@CBasePlayer@@UAE?AVVector@@ABV2@@Z 10012770 f i client.obj
 0001:00011820       ?Buy@@YAXPAVCBasePlayer@@H@Z 10012820 f   client.obj
 0001:00011ad0       ?BuyAmmo@@YA_NPAVCBasePlayer@@H_N@Z 10012ad0 f   client.obj
 0001:00011b60       ?BuyGunAmmo@@YA_NPAVCBasePlayer@@PAVCBasePlayerItem@@_N@Z 10012b60 f   client.obj
 0001:00011cf0       ?BuyItem@@YAXPAVCBasePlayer@@H@Z 10012cf0 f   client.obj
 0001:00012240       ?BuyMachineGun@@YAXPAVCBasePlayer@@H@Z 10013240 f   client.obj
 0001:000122d0       ?BuyPistol@@YAXPAVCBasePlayer@@H@Z 100132d0 f   client.obj
 0001:00012420       ?BuyRifle@@YAXPAVCBasePlayer@@H@Z 10013420 f   client.obj
 0001:00012600       ?BuyShotgun@@YAXPAVCBasePlayer@@H@Z 10013600 f   client.obj
 0001:000126d0       ?BuySubMachineGun@@YAXPAVCBasePlayer@@H@Z 100136d0 f   client.obj
 0001:000127f0       ?BuyWeaponByWeaponID@@YAXPAVCBasePlayer@@H@Z 100137f0 f   client.obj
 0001:000128b0       ?CMD_ARGC@@YAHXZ           100138b0 f   client.obj
 0001:000128e0       ?CMD_ARGV@@YAPBDH@Z        100138e0 f   client.obj
 0001:00012910       ?CanBuyThis@@YA_NPAVCBasePlayer@@H@Z 10013910 f   client.obj
 0001:000129f0       ?CanBuyWeaponByMaptype@@YA_NHH_N@Z 100139f0 f   client.obj
 0001:00012ba0       ?CheckEntityRecentlyInPVS@@YA_NHHM@Z 10013ba0 f   client.obj
 0001:00012bf0       ?CheckPlayerPVSLeafChanged@@YA_NPAUedict_s@@H@Z 10013bf0 f   client.obj
 0001:00012c50       ?CheckStartMoney@@YAXXZ    10013c50 f   client.obj
 0001:00012ca0       ?ClientCommand@@YAXPAUedict_s@@@Z 10013ca0 f   client.obj
 0001:00012cc0       ?ClientConnect@@YAHPAUedict_s@@PBD1QAD@Z 10013cc0 f   client.obj
 0001:00012ce0       ?ClientDisconnect@@YAXPAUedict_s@@@Z 10013ce0 f   client.obj
 0001:00012db0       ?ClientKill@@YAXPAUedict_s@@@Z 10013db0 f   client.obj
 0001:00012e60       ?ClientPrecache@@YAXXZ     10013e60 f   client.obj
 0001:000142a0       ?ClientPutInServer@@YAXPAUedict_s@@@Z 100152a0 f   client.obj
 0001:00014740       ?ClientUserInfoChanged@@YAXPAUedict_s@@PAD@Z 10015740 f   client.obj
 0001:00014930       ?CmdEnd@@YAXPBUedict_s@@@Z 10015930 f   client.obj
 0001:000149c0       ?CmdStart@@YAXPBUedict_s@@PBUusercmd_s@@I@Z 100159c0 f   client.obj
 0001:00014a10       ?ConnectionlessPacket@@YAHPBUnetadr_s@@PBDPADPAH@Z 10015a10 f   client.obj
 0001:00014a20       ?CreateBaseline@@YAXHHPAUentity_state_s@@PAUedict_s@@HVVector@@2@Z 10015a20 f   client.obj
 0001:00014ba0       ?Custom_Encode@@YAXPAUdelta_s@@PBE1@Z 10015ba0 f   client.obj
 0001:00014c80       ?Custom_Entity_FieldInit@@YAXPAUdelta_s@@@Z 10015c80 f   client.obj
 0001:00014d30       ?DropPistol@@YAXPAVCBasePlayer@@@Z 10015d30 f   client.obj
 0001:00014d80       ?DropPrimary@@YAXPAVCBasePlayer@@@Z 10015d80 f   client.obj
 0001:00014de0       ?EntityFromUserID@@YAPAVCBaseEntity@@H@Z 10015de0 f   client.obj
 0001:00014e60       ?Entity_Encode@@YAXPAUdelta_s@@PBE1@Z 10015e60 f   client.obj
 0001:00014fc0       ?Entity_FieldInit@@YAXPAUdelta_s@@@Z 10015fc0 f   client.obj
 0001:00015040       ?FNullEnt@@YAHPBUedict_s@@@Z 10016040 f i client.obj
 0001:00015070       ?GetHullBounds@@YAHHPAM0@Z 10016070 f   client.obj
 0001:00015090       ?GetWeaponData@@YAHPAUedict_s@@PAUweapon_data_s@@@Z 10016090 f   client.obj
 0001:00015230       ?HandleBuyAliasCommands@@YAHPAVCBasePlayer@@PBD@Z 10016230 f   client.obj
 0001:00015660       ?HandleMenu_ChooseAppearance@@YAXPAVCBasePlayer@@H@Z 10016660 f   client.obj
 0001:00015840       ?HandleMenu_ChooseTeam@@YAHPAVCBasePlayer@@H@Z 10016840 f   client.obj
 0001:00015fe0       ?HandleRadioAliasCommands@@YAHPAVCBasePlayer@@PBD@Z 10016fe0 f   client.obj
 0001:00016550       ?Host_Say@@YAXPAUedict_s@@H@Z 10017550 f   client.obj
 0001:00016a90       ?InconsistentFile@@YAHPBUedict_s@@PBDPAD@Z 10017a90 f   client.obj
 0001:00016ae0       ?IsPrimaryWeapon@@YA_NH@Z  10017ae0 f   client.obj
 0001:00016b70       ?IsSneaking@CBasePlayer@@UAEHXZ 10017b70 f i client.obj
 0001:00016b90       ?ListPlayers@@YAXPAVCBasePlayer@@@Z 10017b90 f   client.obj
 0001:00016d10       ?MarkEntityInPVS@@YAXHHM_N@Z 10017d10 f   client.obj
 0001:00016d40       ?ParmsChangeLevel@@YAXXZ   10017d40 f   client.obj
 0001:00016d70       ?PlayerCustomization@@YAXPAUedict_s@@PAUcustomization_s@@@Z 10017d70 f   client.obj
 0001:00016df0       ?PlayerPostThink@@YAXPAUedict_s@@@Z 10017df0 f   client.obj
 0001:00016e10       ?PlayerPreThink@@YAXPAUedict_s@@@Z 10017e10 f   client.obj
 0001:00016e30       ?Player_Encode@@YAXPAUdelta_s@@PBE1@Z 10017e30 f   client.obj
 0001:00016f10       ?Player_FieldInit@@YAXPAUdelta_s@@@Z 10017f10 f   client.obj
 0001:00016f50       ?ProcessKickVote@@YAXPAVCBasePlayer@@0@Z 10017f50 f   client.obj
 0001:00017130       ?Q_UTF8ToUChar32@@YAHPBDAAGAA_N@Z 10018130 f   client.obj
 0001:00017290       ?Q_UnicodeValidate@@YA_NPBD@Z 10018290 f   client.obj
 0001:000172f0       ?Radio1@@YAXPAVCBasePlayer@@H@Z 100182f0 f   client.obj
 0001:000173f0       ?Radio2@@YAXPAVCBasePlayer@@H@Z 100183f0 f   client.obj
 0001:000174f0       ?Radio3@@YAXPAVCBasePlayer@@H@Z 100184f0 f   client.obj
 0001:00017680       ?RegisterEncoders@@YAXXZ   10018680 f   client.obj
 0001:000176c0       ?RemoveAll@?$CUtlVector@PAD@@QAEXXZ 100186c0 f i hintmessage.obj
 0001:000176c0       ?RemoveAll@?$CUtlVector@PAVCHintMessage@@@@QAEXXZ 100186c0 f i client.obj
 0001:000176c0       ?RemoveAll@?$CUtlVector@Uhash_item_s@@@@QAEXXZ 100186c0 f i cbase.obj
 0001:000176d0       ?ResetPlayerPVS@@YAXPAUedict_s@@H@Z 100186d0 f   client.obj
 0001:00017750       ?SelectDefaultTeam@@YAHXZ  10018750 f   client.obj
 0001:000177e0       ?ServerActivate@@YAXPAUedict_s@@HH@Z 100187e0 f   client.obj
 0001:000178c0       ?ServerDeactivate@@YAXXZ   100188c0 f   client.obj
 0001:000178e0       ?SetupVisibility@@YAXPAUedict_s@@0PAPAE1@Z 100188e0 f   client.obj
 0001:00017a10       ?ShowMenu@@YAXPAVCBasePlayer@@HHHPAD@Z 10018a10 f   client.obj
 0001:00017a60       ?ShowVGUIMenu@@YAXPAVCBasePlayer@@HHPAD@Z 10018a60 f   client.obj
 0001:00017ae0       ?SpectatorConnect@@YAXPAUedict_s@@@Z 10018ae0 f   client.obj
 0001:00017b00       ?SpectatorDisconnect@@YAXPAUedict_s@@@Z 10018b00 f   client.obj
 0001:00017b20       ?SpectatorThink@@YAXPAUedict_s@@@Z 10018b20 f   client.obj
 0001:00017b40       ?StartFrame@@YAXXZ         10018b40 f   client.obj
 0001:00017bb0       ?StartSneaking@CBasePlayer@@UAEXXZ 10018bb0 f i client.obj
 0001:00017bd0       ?StopSneaking@CBasePlayer@@UAEXXZ 10018bd0 f i client.obj
 0001:00017bf0       ?UpdateClientData@@YAXPBUedict_s@@HPAUclientdata_s@@@Z 10018bf0 f   client.obj
 0001:00017f60       ?_ClientCommand@@YAXPAUedict_s@@@Z 10018f60 f   client.obj
 0001:00019690       ?respawn@@YAXPAUentvars_s@@H@Z 1001a690 f   client.obj
 0001:00019710       _CountTeamPlayers          1001a710 f   client.obj
 0001:00019790       _CountTeams                1001a790 f   client.obj
 0001:00019820       __snprintf                 1001a820 f i client.obj
 0001:00019860       _sprintf                   1001a860 f i client.obj
 0001:000198a0       ??$GetClassPtr@VCGib@@@@YAPAVCGib@@PAV0@@Z 1001a8a0 f i combat.obj
 0001:00019900       ??0TraceResult@@QAE@XZ     1001a900 f i combat.obj
 0001:00019930       ??0Vector@@QAE@MMM@Z       1001a930 f i combat.obj
 0001:00019960       ??D@YA?AVVector@@MABV0@@Z  1001a960 f i combat.obj
 0001:000199a0       ??DVector@@QBE?AV0@M@Z     1001a9a0 f i combat.obj
 0001:000199e0       ??HVector@@QBE?AV0@ABV0@@Z 1001a9e0 f i combat.obj
 0001:00019a20       ?BecomeDead@CBaseMonster@@UAEXXZ 1001aa20 f   combat.obj
 0001:00019a70       ?BloodSplat@CBaseMonster@@QAEXABVVector@@0HH@Z 1001aa70 f   combat.obj
 0001:00019b30       ?BounceGibTouch@CGib@@QAEXPAVCBaseEntity@@@Z 1001ab30 f   combat.obj
 0001:00019ce0       ?CallGibMonster@CBaseMonster@@QAEXXZ 1001ace0 f   combat.obj
 0001:00019de0       ?DeadTakeDamage@CBaseMonster@@QAEHPAUentvars_s@@0MH@Z 1001ade0 f   combat.obj
 0001:0001a050       ?EMIT_SOUND@@YAXPAUedict_s@@HPBDMM@Z 1001b050 f i combat.obj
 0001:0001a090       ?ENT@@YAPAUedict_s@@PBUentvars_s@@@Z 1001b090 f i combat.obj
 0001:0001a0a0       ?FInViewCone@CBaseMonster@@UAEHPAVCBaseEntity@@@Z 1001b0a0 f   combat.obj
 0001:0001a160       ?FInViewCone@CBaseMonster@@UAEHPAVVector@@@Z 1001b160 f   combat.obj
 0001:0001a220       ?FNullEnt@@YAHPAUentvars_s@@@Z 1001b220 f i combat.obj
 0001:0001a250       ?FVisible@CBaseEntity@@UAEHABVVector@@@Z 1001b250 f   combat.obj
 0001:0001a2e0       ?FVisible@CBaseEntity@@UAEHPAV1@@Z 1001b2e0 f   combat.obj
 0001:0001a3d0       ?FadeMonster@CBaseMonster@@UAEXXZ 1001b3d0 f   combat.obj
 0001:0001a440       ?FireBullets3@CBaseEntity@@QAE?AVVector@@V2@0MMHHHMPAUentvars_s@@_NH@Z 1001b440 f   combat.obj
 0001:0001b0e0       ?FireBullets@CBaseEntity@@QAEXKVVector@@00MHHHPAUentvars_s@@@Z 1001c0e0 f   combat.obj
 0001:0001baa0       ?GetDeathActivity@CBaseMonster@@UAE?AW4Activity@@XZ 1001caa0 f   combat.obj
 0001:0001bd20       ?GibMonster@CBaseMonster@@UAEXXZ 1001cd20 f   combat.obj
 0001:0001be30       ?HasAlienGibs@CBaseMonster@@UAEHXZ 1001ce30 f   combat.obj
 0001:0001be60       ?HasHumanGibs@CBaseMonster@@UAEHXZ 1001ce60 f   combat.obj
 0001:0001be90       ?Instance@CBaseEntity@@SAPAV1@PAUedict_s@@@Z 1001ce90 f i combat.obj
 0001:0001bec0       ?Killed@CBaseMonster@@UAEXPAUentvars_s@@H@Z 1001cec0 f   combat.obj
 0001:0001bfc0       ?LimitVelocity@CGib@@QAEXXZ 1001cfc0 f   combat.obj
 0001:0001c080       ?RadiusDamage2@@YAXVVector@@PAUentvars_s@@1MMHH@Z 1001d080 f   combat.obj
 0001:0001c400       ?RadiusDamage@@YAXVVector@@PAUentvars_s@@1MMHH@Z 1001d400 f   combat.obj
 0001:0001c580       ?RadiusDamage@CBaseMonster@@QAEXPAUentvars_s@@0MHH@Z 1001d580 f   combat.obj
 0001:0001c680       ?RadiusFlash@@YAXVVector@@PAUentvars_s@@1M@Z 1001d680 f   combat.obj
 0001:0001cb60       ?SUB_FadeOut@CBaseEntity@@QAEXXZ 1001db60 f   combat.obj
 0001:0001cbe0       ?SUB_StartFadeOut@CBaseEntity@@QAEXXZ 1001dbe0 f   combat.obj
 0001:0001cc60       ?ShouldGibMonster@CBaseMonster@@QAEHH@Z 1001dc60 f   combat.obj
 0001:0001cca0       ?Spawn@CGib@@QAEXPBD@Z     1001dca0 f   combat.obj
 0001:0001cdf0       ?SpawnHeadGib@CGib@@SAXPAUentvars_s@@@Z 1001ddf0 f   combat.obj
 0001:0001d120       ?SpawnRandomGibs@CGib@@SAXPAUentvars_s@@HH@Z 1001e120 f   combat.obj
 0001:0001d480       ?StickyGibTouch@CGib@@QAEXPAVCBaseEntity@@@Z 1001e480 f   combat.obj
 0001:0001d650       ?TakeDamage@CBaseMonster@@UAEHPAUentvars_s@@0MH@Z 1001e650 f   combat.obj
 0001:0001d9b0       ?TakeHealth@CBaseMonster@@UAEHMH@Z 1001e9b0 f   combat.obj
 0001:0001da00       ?TraceAttack@CBaseEntity@@UAEXPAUentvars_s@@MVVector@@PAUTraceResult@@H@Z 1001ea00 f   combat.obj
 0001:0001db30       ?TraceAttack@CBaseMonster@@UAEXPAUentvars_s@@MVVector@@PAUTraceResult@@H@Z 1001eb30 f   combat.obj
 0001:0001dc30       ?TraceBleed@CBaseEntity@@UAEXMVVector@@PAUTraceResult@@H@Z 1001ec30 f   combat.obj
 0001:0001de50       ?VARS@@YAPAUentvars_s@@PAUedict_s@@@Z 1001ee50 f i combat.obj
 0001:0001de70       ?WaitTillLand@CGib@@QAEXXZ 1001ee70 f   combat.obj
 0001:0001df30       ?edict@CBaseEntity@@QAEPAUedict_s@@XZ 1001ef30 f i combat.obj
 0001:0001df40       ??$GetClassPtr@VCBaseDoor@@@@YAPAVCBaseDoor@@PAV0@@Z 1001ef40 f i doors.obj
 0001:0001dfb0       ??$GetClassPtr@VCMomentaryDoor@@@@YAPAVCMomentaryDoor@@PAV0@@Z 1001efb0 f i doors.obj
 0001:0001e020       ??$GetClassPtr@VCRotDoor@@@@YAPAVCRotDoor@@PAV0@@Z 1001f020 f i doors.obj
 0001:0001e090       ?Blocked@CBaseDoor@@UAEXPAVCBaseEntity@@@Z 1001f090 f   doors.obj
 0001:0001e340       ?DoorActivate@CBaseDoor@@QAEHXZ 1001f340 f   doors.obj
 0001:0001e400       ?DoorGoDown@CBaseDoor@@QAEXXZ 1001f400 f   doors.obj
 0001:0001e520       ?DoorGoUp@CBaseDoor@@QAEXXZ 1001f520 f   doors.obj
 0001:0001e820       ?DoorHitBottom@CBaseDoor@@QAEXXZ 1001f820 f   doors.obj
 0001:0001e930       ?DoorHitTop@CBaseDoor@@QAEXXZ 1001f930 f   doors.obj
 0001:0001ea90       ?DoorTouch@CBaseDoor@@QAEXPAVCBaseEntity@@@Z 1001fa90 f   doors.obj
 0001:0001eb20       ?FClassnameIs@@YAHPAUedict_s@@PBD@Z 1001fb20 f i doors.obj
 0001:0001eb80       ?KeyValue@CBaseDoor@@UAEXPAUKeyValueData_s@@@Z 1001fb80 f   doors.obj
 0001:0001edd0       ?KeyValue@CMomentaryDoor@@UAEXPAUKeyValueData_s@@@Z 1001fdd0 f   doors.obj
 0001:0001eea0       ?ObjectCaps@CBaseDoor@@UAEHXZ 1001fea0 f i doors.obj
 0001:0001eeb0       ?PlayLockSounds@@YAXPAUentvars_s@@PAUlocksounds@@HH@Z 1001feb0 f   doors.obj
 0001:0001f0f0       ?Precache@CBaseDoor@@UAEXXZ 100200f0 f   doors.obj
 0001:0001f600       ?Precache@CMomentaryDoor@@UAEXXZ 10020600 f   doors.obj
 0001:0001f780       ?Restart@CBaseDoor@@UAEXXZ 10020780 f   doors.obj
 0001:0001f7c0       ?Restart@CRotDoor@@UAEXXZ  100207c0 f   doors.obj
 0001:0001f900       ?Restore@CBaseDoor@@UAEHAAVCRestore@@@Z 10020900 f   doors.obj
 0001:0001f940       ?Restore@CMomentaryDoor@@UAEHAAVCRestore@@@Z 10020940 f   doors.obj
 0001:0001f980       ?Save@CBaseDoor@@UAEHAAVCSave@@@Z 10020980 f   doors.obj
 0001:0001f9c0       ?Save@CMomentaryDoor@@UAEHAAVCSave@@@Z 100209c0 f   doors.obj
 0001:0001fa00       ?SetToggleState@CBaseDoor@@UAEXH@Z 10020a00 f   doors.obj
 0001:0001fa30       ?SetToggleState@CRotDoor@@UAEXH@Z 10020a30 f   doors.obj
 0001:0001fa90       ?Spawn@CBaseDoor@@UAEXXZ   10020a90 f   doors.obj
 0001:0001fca0       ?Spawn@CMomentaryDoor@@UAEXXZ 10020ca0 f   doors.obj
 0001:0001fe80       ?Spawn@CRotDoor@@UAEXXZ    10020e80 f   doors.obj
 0001:000200a0       ?Use@CBaseDoor@@UAEXPAVCBaseEntity@@0W4USE_TYPE@@M@Z 100210a0 f   doors.obj
 0001:000200e0       ?Use@CMomentaryDoor@@UAEXPAVCBaseEntity@@0W4USE_TYPE@@M@Z 100210e0 f   doors.obj
 0001:00020260       _func_water                10021260 f   doors.obj
 0001:00020260       _func_door                 10021260 f   doors.obj
 0001:00020270       _func_door_rotating        10021270 f   doors.obj
 0001:00020280       _momentary_door            10021280 f   doors.obj
 0001:00020290       ??$GetClassPtr@VCBeam@@@@YAPAVCBeam@@PAV0@@Z 10021290 f i effects.obj
 0001:000202f0       ??$GetClassPtr@VCBlood@@@@YAPAVCBlood@@PAV0@@Z 100212f0 f i effects.obj
 0001:00020350       ??$GetClassPtr@VCBombGlow@@@@YAPAVCBombGlow@@PAV0@@Z 10021350 f i effects.obj
 0001:000203b0       ??$GetClassPtr@VCBubbling@@@@YAPAVCBubbling@@PAV0@@Z 100213b0 f i effects.obj
 0001:00020410       ??$GetClassPtr@VCEnvBeverage@@@@YAPAVCEnvBeverage@@PAV0@@Z 10021410 f i effects.obj
 0001:00020470       ??$GetClassPtr@VCEnvFunnel@@@@YAPAVCEnvFunnel@@PAV0@@Z 10021470 f i effects.obj
 0001:000204d0       ??$GetClassPtr@VCEnvShooter@@@@YAPAVCEnvShooter@@PAV0@@Z 100214d0 f i effects.obj
 0001:00020530       ??$GetClassPtr@VCFade@@@@YAPAVCFade@@PAV0@@Z 10021530 f i effects.obj
 0001:00020590       ??$GetClassPtr@VCGibShooter@@@@YAPAVCGibShooter@@PAV0@@Z 10021590 f i effects.obj
 0001:000205f0       ??$GetClassPtr@VCGlow@@@@YAPAVCGlow@@PAV0@@Z 100215f0 f i effects.obj
 0001:00020650       ??$GetClassPtr@VCItemSoda@@@@YAPAVCItemSoda@@PAV0@@Z 10021650 f i effects.obj
 0001:000206b0       ??$GetClassPtr@VCLaser@@@@YAPAVCLaser@@PAV0@@Z 100216b0 f i effects.obj
 0001:00020730       ??$GetClassPtr@VCLightning@@@@YAPAVCLightning@@PAV0@@Z 10021730 f i effects.obj
 0001:00020790       ??$GetClassPtr@VCMessage@@@@YAPAVCMessage@@PAV0@@Z 10021790 f i effects.obj
 0001:000207f0       ??$GetClassPtr@VCPointEntity@@@@YAPAVCPointEntity@@PAV0@@Z 100217f0 f i effects.obj
 0001:00020850       ??$GetClassPtr@VCShake@@@@YAPAVCShake@@PAV0@@Z 10021850 f i effects.obj
 0001:000208b0       ??$GetClassPtr@VCSprite@@@@YAPAVCSprite@@PAV0@@Z 100218b0 f i effects.obj
 0001:00020910       ??$GetClassPtr@VCTestEffect@@@@YAPAVCTestEffect@@PAV0@@Z 10021910 f i effects.obj
 0001:00020970       ?Activate@CLightning@@UAEXXZ 10021970 f   effects.obj
 0001:000209a0       ?Animate@CGlow@@QAEXM@Z    100219a0 f   effects.obj
 0001:000209f0       ?Animate@CSprite@@QAEXM@Z  100219f0 f   effects.obj
 0001:00020a70       ?AnimateThink@CSprite@@QAEXXZ 10021a70 f   effects.obj
 0001:00020ad0       ?AnimateUntilDead@CSprite@@QAEXXZ 10021ad0 f   effects.obj
 0001:00020b10       ?BeamCreate@CBeam@@SAPAV1@PBDH@Z 10021b10 f   effects.obj
 0001:00020b90       ?BeamDamage@CBeam@@QAEXPAUTraceResult@@@Z 10021b90 f   effects.obj
 0001:00020d20       ?BeamInit@CBeam@@QAEXPBDH@Z 10021d20 f   effects.obj
 0001:00020e00       ?BeamUpdateVars@CLightning@@QAEXXZ 10021e00 f   effects.obj
 0001:00021040       ?BloodPosition@CBlood@@QAE?AVVector@@PAVCBaseEntity@@@Z 10022040 f   effects.obj
 0001:00021160       ?CanThink@CItemSoda@@QAEXXZ 10022160 f   effects.obj
 0001:00021200       ?CanTouch@CItemSoda@@QAEXPAVCBaseEntity@@@Z 10022200 f   effects.obj
 0001:000212b0       ?Center@CBeam@@UAE?AVVector@@XZ 100222b0 f i effects.obj
 0001:00021310       ?CreateGib@CEnvShooter@@UAEPAVCGib@@XZ 10022310 f   effects.obj
 0001:00021400       ?CreateGib@CGibShooter@@UAEPAVCGib@@XZ 10022400 f   effects.obj
 0001:000214a0       ?DamageThink@CLightning@@QAEXXZ 100224a0 f   effects.obj
 0001:00021530       ?Direction@CBlood@@QAE?AVVector@@XZ 10022530 f   effects.obj
 0001:00021580       ?DoSparks@CBeam@@QAEXABVVector@@0@Z 10022580 f   effects.obj
 0001:000215c0       ?ExpandThink@CSprite@@QAEXXZ 100225c0 f   effects.obj
 0001:00021670       ?FClassnameIs@@YAHPAUentvars_s@@PBD@Z 10022670 f i effects.obj
 0001:000216c0       ?FireAtPoint@CLaser@@QAEXAAUTraceResult@@@Z 100226c0 f   effects.obj
 0001:00021720       ?FizzThink@CBubbling@@QAEXXZ 10022720 f   effects.obj
 0001:000217f0       ?GetEndPos@CBeam@@QAEABVVector@@XZ 100227f0 f   effects.obj
 0001:00021840       ?GetStartPos@CBeam@@QAEABVVector@@XZ 10022840 f   effects.obj
 0001:00021870       ?IsOn@CLaser@@QAEHXZ       10022870 f   effects.obj
 0001:00021890       ?IsPointEntity@@YAHPAVCBaseEntity@@@Z 10022890 f   effects.obj
 0001:00021940       ?KeyValue@CBlood@@UAEXPAUKeyValueData_s@@@Z 10022940 f   effects.obj
 0001:00021a30       ?KeyValue@CBubbling@@UAEXPAUKeyValueData_s@@@Z 10022a30 f   effects.obj
 0001:00021b50       ?KeyValue@CEnvShooter@@UAEXPAUKeyValueData_s@@@Z 10022b50 f   effects.obj
 0001:00021c90       ?KeyValue@CFade@@UAEXPAUKeyValueData_s@@@Z 10022c90 f   effects.obj
 0001:00021d70       ?KeyValue@CGibShooter@@UAEXPAUKeyValueData_s@@@Z 10022d70 f   effects.obj
 0001:00021ec0       ?KeyValue@CLaser@@UAEXPAUKeyValueData_s@@@Z 10022ec0 f   effects.obj
 0001:00022100       ?KeyValue@CLightning@@UAEXPAUKeyValueData_s@@@Z 10023100 f   effects.obj
 0001:000223b0       ?KeyValue@CMessage@@UAEXPAUKeyValueData_s@@@Z 100233b0 f   effects.obj
 0001:000224e0       ?KeyValue@CShake@@UAEXPAUKeyValueData_s@@@Z 100234e0 f   effects.obj
 0001:00022660       ?ObjectCaps@CBeam@@UAEHXZ  10023660 f i effects.obj
 0001:00022660       ?ObjectCaps@CSprite@@UAEHXZ 10023660 f i effects.obj
 0001:00022680       ?PointsInit@CBeam@@QAEXABVVector@@0@Z 10023680 f   effects.obj
 0001:000226f0       ?Precache@CBeam@@UAEXXZ    100236f0 f   effects.obj
 0001:00022740       ?Precache@CBubbling@@UAEXXZ 10023740 f   effects.obj
 0001:00022760       ?Precache@CEnvBeverage@@UAEXXZ 10023760 f   effects.obj
 0001:00022780       ?Precache@CEnvFunnel@@UAEXXZ 10023780 f   effects.obj
 0001:000227a0       ?Precache@CEnvShooter@@UAEXXZ 100237a0 f   effects.obj
 0001:000227e0       ?Precache@CGibShooter@@UAEXXZ 100237e0 f   effects.obj
 0001:00022820       ?Precache@CLaser@@UAEXXZ   10023820 f   effects.obj
 0001:00022870       ?Precache@CLightning@@UAEXXZ 10023870 f   effects.obj
 0001:000228a0       ?Precache@CMessage@@UAEXXZ 100238a0 f   effects.obj
 0001:000228d0       ?Precache@CSprite@@UAEXXZ  100238d0 f   effects.obj
 0001:00022960       ?Precache@CTestEffect@@UAEXXZ 10023960 f   effects.obj
 0001:00022970       ?RandomArea@CLightning@@QAEXXZ 10023970 f   effects.obj
 0001:00022e10       ?RandomPoint@CLightning@@QAEXAAVVector@@@Z 10023e10 f   effects.obj
 0001:00023040       ?RandomTargetname@CBeam@@QAEPAVCBaseEntity@@PBD@Z 10024040 f   effects.obj
 0001:00023090       ?RelinkBeam@CBeam@@QAEXXZ  10024090 f   effects.obj
 0001:000231e0       ?Restart@CSprite@@UAEXXZ   100241e0 f   effects.obj
 0001:00023240       ?Restore@CBubbling@@UAEHAAVCRestore@@@Z 10024240 f   effects.obj
 0001:00023280       ?Restore@CGibShooter@@UAEHAAVCRestore@@@Z 10024280 f   effects.obj
 0001:000232c0       ?Restore@CGlow@@UAEHAAVCRestore@@@Z 100242c0 f   effects.obj
 0001:00023300       ?Restore@CLaser@@UAEHAAVCRestore@@@Z 10024300 f   effects.obj
 0001:00023340       ?Restore@CLightning@@UAEHAAVCRestore@@@Z 10024340 f   effects.obj
 0001:00023380       ?Restore@CSprite@@UAEHAAVCRestore@@@Z 10024380 f   effects.obj
 0001:000233c0       ?Save@CBubbling@@UAEHAAVCSave@@@Z 100243c0 f   effects.obj
 0001:00023400       ?Save@CGibShooter@@UAEHAAVCSave@@@Z 10024400 f   effects.obj
 0001:00023440       ?Save@CGlow@@UAEHAAVCSave@@@Z 10024440 f   effects.obj
 0001:00023480       ?Save@CLaser@@UAEHAAVCSave@@@Z 10024480 f   effects.obj
 0001:000234c0       ?Save@CLightning@@UAEHAAVCSave@@@Z 100244c0 f   effects.obj
 0001:00023500       ?Save@CSprite@@UAEHAAVCSave@@@Z 10024500 f   effects.obj
 0001:00023540       ?SetEndEntity@CBeam@@QAEXH@Z 10024540 f   effects.obj
 0001:00023590       ?SetStartEntity@CBeam@@QAEXH@Z 10024590 f   effects.obj
 0001:000235e0       ?ShootThink@CGibShooter@@QAEXXZ 100245e0 f   effects.obj
 0001:00023990       ?Spawn@CBeam@@UAEXXZ       10024990 f   effects.obj
 0001:000239b0       ?Spawn@CBlood@@UAEXXZ      100249b0 f   effects.obj
 0001:000239f0       ?Spawn@CBombGlow@@UAEXXZ   100249f0 f   effects.obj
 0001:00023ac0       ?Spawn@CBubbling@@UAEXXZ   10024ac0 f   effects.obj
 0001:00023bc0       ?Spawn@CEnvBeverage@@UAEXXZ 10024bc0 f   effects.obj
 0001:00023c20       ?Spawn@CEnvFunnel@@UAEXXZ  10024c20 f   effects.obj
 0001:00023c50       ?Spawn@CFade@@UAEXXZ       10024c50 f   effects.obj
 0001:00023c90       ?Spawn@CGibShooter@@UAEXXZ 10024c90 f   effects.obj
 0001:00023d10       ?Spawn@CGlow@@UAEXXZ       10024d10 f   effects.obj
 0001:00023e00       ?Spawn@CItemSoda@@UAEXXZ   10024e00 f   effects.obj
 0001:00023eb0       ?Spawn@CLaser@@UAEXXZ      10024eb0 f   effects.obj
 0001:00024020       ?Spawn@CLightning@@UAEXXZ  10025020 f   effects.obj
 0001:00024170       ?Spawn@CMessage@@UAEXXZ    10025170 f   effects.obj
 0001:00024200       ?Spawn@CShake@@UAEXXZ      10025200 f   effects.obj
 0001:00024250       ?Spawn@CSprite@@UAEXXZ     10025250 f   effects.obj
 0001:00024330       ?SpriteCreate@CSprite@@SAPAV1@PBDABVVector@@H@Z 10025330 f   effects.obj
 0001:000243d0       ?SpriteInit@CSprite@@QAEXPBDABVVector@@@Z 100253d0 f   effects.obj
 0001:00024410       ?StrikeThink@CLaser@@QAEXXZ 10025410 f   effects.obj
 0001:000244d0       ?StrikeThink@CLightning@@QAEXXZ 100254d0 f   effects.obj
 0001:000248b0       ?StrikeUse@CLightning@@QAEXPAVCBaseEntity@@0W4USE_TYPE@@M@Z 100258b0 f   effects.obj
 0001:00024930       ?TestThink@CTestEffect@@QAEXXZ 10025930 f   effects.obj
 0001:00024c70       ?Think@CBombGlow@@UAEXXZ   10025c70 f   effects.obj
 0001:00024d80       ?Think@CGlow@@UAEXXZ       10025d80 f   effects.obj
 0001:00024de0       ?ToggleUse@CLightning@@QAEXPAVCBaseEntity@@0W4USE_TYPE@@M@Z 10025de0 f   effects.obj
 0001:00024e90       ?TriggerTouch@CBeam@@QAEXPAVCBaseEntity@@@Z 10025e90 f   effects.obj
 0001:00024ee0       ?TurnOff@CLaser@@QAEXXZ    10025ee0 f   effects.obj
 0001:00024f10       ?TurnOff@CSprite@@QAEXXZ   10025f10 f   effects.obj
 0001:00024f30       ?TurnOn@CLaser@@QAEXXZ     10025f30 f   effects.obj
 0001:00024f80       ?TurnOn@CSprite@@QAEXXZ    10025f80 f   effects.obj
 0001:00024ff0       ?Use@CBlood@@UAEXPAVCBaseEntity@@0W4USE_TYPE@@M@Z 10025ff0 f   effects.obj
 0001:00025170       ?Use@CBubbling@@UAEXPAVCBaseEntity@@0W4USE_TYPE@@M@Z 10026170 f   effects.obj
 0001:000251f0       ?Use@CEnvBeverage@@UAEXPAVCBaseEntity@@0W4USE_TYPE@@M@Z 100261f0 f   effects.obj
 0001:00025290       ?Use@CEnvFunnel@@UAEXPAVCBaseEntity@@0W4USE_TYPE@@M@Z 10026290 f   effects.obj
 0001:00025330       ?Use@CFade@@UAEXPAVCBaseEntity@@0W4USE_TYPE@@M@Z 10026330 f   effects.obj
 0001:00025400       ?Use@CGibShooter@@UAEXPAVCBaseEntity@@0W4USE_TYPE@@M@Z 10026400 f   effects.obj
 0001:00025420       ?Use@CLaser@@UAEXPAVCBaseEntity@@0W4USE_TYPE@@M@Z 10026420 f   effects.obj
 0001:00025460       ?Use@CMessage@@UAEXPAVCBaseEntity@@0W4USE_TYPE@@M@Z 10026460 f   effects.obj
 0001:00025570       ?Use@CShake@@UAEXPAVCBaseEntity@@0W4USE_TYPE@@M@Z 10026570 f   effects.obj
 0001:000255c0       ?Use@CSprite@@UAEXPAVCBaseEntity@@0W4USE_TYPE@@M@Z 100265c0 f   effects.obj
 0001:00025610       ?Use@CTestEffect@@UAEXPAVCBaseEntity@@0W4USE_TYPE@@M@Z 10026610 f   effects.obj
 0001:00025650       ?Zap@CLightning@@QAEXABVVector@@0@Z 10026650 f   effects.obj
 0001:000257a0       ?entindex@CBaseEntity@@QAEHXZ 100267a0 f i effects.obj
 0001:000257c0       _beam                      100267c0 f   effects.obj
 0001:000257d0       _env_beam                  100267d0 f   effects.obj
 0001:000257d0       _env_lightning             100267d0 f   effects.obj
 0001:000257e0       _env_beverage              100267e0 f   effects.obj
 0001:000257f0       _env_blood                 100267f0 f   effects.obj
 0001:00025800       _env_bombglow              10026800 f   effects.obj
 0001:00025810       _env_bubbles               10026810 f   effects.obj
 0001:00025820       _env_fade                  10026820 f   effects.obj
 0001:00025830       _env_funnel                10026830 f   effects.obj
 0001:00025840       _env_glow                  10026840 f   effects.obj
 0001:00025850       _env_laser                 10026850 f   effects.obj
 0001:00025860       _env_message               10026860 f   effects.obj
 0001:00025870       _env_shake                 10026870 f   effects.obj
 0001:00025880       _env_shooter               10026880 f   effects.obj
 0001:00025890       _env_sprite                10026890 f   effects.obj
 0001:000258a0       _gibshooter                100268a0 f   effects.obj
 0001:000258b0       _item_sodacan              100268b0 f   effects.obj
 0001:000258c0       _test_effect               100268c0 f   effects.obj
 0001:000258d0       ??$GetClassPtr@VCEnvExplosion@@@@YAPAVCEnvExplosion@@PAV0@@Z 100268d0 f i explode.obj
 0001:00025a30       ??$GetClassPtr@VCShower@@@@YAPAVCShower@@PAV0@@Z 10026a30 f i explode.obj
 0001:00025a90       ?ExplosionCreate@@YAXABVVector@@0PAUedict_s@@HH@Z 10026a90 f   explode.obj
 0001:00025b20       ?KeyValue@CEnvExplosion@@UAEXPAUKeyValueData_s@@@Z 10026b20 f   explode.obj
 0001:00025b90       ?Restore@CEnvExplosion@@UAEHAAVCRestore@@@Z 10026b90 f   explode.obj
 0001:00025bd0       ?Save@CEnvExplosion@@UAEHAAVCSave@@@Z 10026bd0 f   explode.obj
 0001:00025c10       ?Smoke@CEnvExplosion@@QAEXXZ 10026c10 f   explode.obj
 0001:00025cc0       ?Spawn@CEnvExplosion@@UAEXXZ 10026cc0 f   explode.obj
 0001:00025d20       ?Spawn@CShower@@UAEXXZ     10026d20 f   explode.obj
 0001:00025eb0       ?Think@CShower@@UAEXXZ     10026eb0 f   explode.obj
 0001:00025f40       ?Touch@CShower@@UAEXPAVCBaseEntity@@@Z 10026f40 f   explode.obj
 0001:00025fd0       ?Use@CEnvExplosion@@UAEXPAVCBaseEntity@@0W4USE_TYPE@@M@Z 10026fd0 f   explode.obj
 0001:000262f0       _env_explosion             100272f0 f   explode.obj
 0001:00026300       _spark_shower              10027300 f   explode.obj
 0001:00026310       ??$GetClassPtr@VCBreakable@@@@YAPAVCBreakable@@PAV0@@Z 10027310 f i func_break.obj
 0001:00026370       ??$GetClassPtr@VCPushable@@@@YAPAVCPushable@@PAV0@@Z 10027370 f i func_break.obj
 0001:000263d0       ?BreakTouch@CBreakable@@QAEXPAVCBaseEntity@@@Z 100273d0 f   func_break.obj
 0001:000265f0       ?DamageDecal@CBreakable@@UAEHH@Z 100275f0 f   func_break.obj
 0001:00026630       ?DamageSound@CBreakable@@QAEXXZ 10027630 f   func_break.obj
 0001:000267c0       ?Die@CBreakable@@QAEXXZ    100277c0 f   func_break.obj
 0001:00026e50       ?IsBreakable@CBreakable@@QAEHXZ 10027e50 f   func_break.obj
 0001:00026e70       ?KeyValue@CBreakable@@UAEXPAUKeyValueData_s@@@Z 10027e70 f   func_break.obj
 0001:00027090       ?KeyValue@CPushable@@UAEXPAUKeyValueData_s@@@Z 10028090 f   func_break.obj
 0001:00027250       ?MaterialSoundList@CBreakable@@SAPAPBDW4Materials@@AAH@Z 10028250 f   func_break.obj
 0001:000272f0       ?MaterialSoundPrecache@CBreakable@@SAXW4Materials@@@Z 100282f0 f   func_break.obj
 0001:00027340       ?MaterialSoundRandom@CBreakable@@SAXPAUedict_s@@W4Materials@@M@Z 10028340 f   func_break.obj
 0001:000273a0       ?Move@CPushable@@QAEXPAVCBaseEntity@@H@Z 100283a0 f   func_break.obj
 0001:000275e0       ?ObjectCaps@CRecharge@@UAEHXZ 100285e0 f i h_battery.obj
 0001:000275e0       ?ObjectCaps@CWallHealth@@UAEHXZ 100285e0 f i healthkit.obj
 0001:000275e0       ?ObjectCaps@CPushable@@UAEHXZ 100285e0 f i func_break.obj
 0001:000275f0       ?Precache@CBreakable@@UAEXXZ 100285f0 f   func_break.obj
 0001:00027780       ?Precache@CPushable@@UAEXXZ 10028780 f   func_break.obj
 0001:000277c0       ?Restart@CBreakable@@UAEXXZ 100287c0 f   func_break.obj
 0001:000278b0       ?Restore@CBreakable@@UAEHAAVCRestore@@@Z 100288b0 f   func_break.obj
 0001:000278f0       ?Restore@CPushable@@UAEHAAVCRestore@@@Z 100288f0 f   func_break.obj
 0001:00027930       ?Save@CBreakable@@UAEHAAVCSave@@@Z 10028930 f   func_break.obj
 0001:00027970       ?Save@CPushable@@UAEHAAVCSave@@@Z 10028970 f   func_break.obj
 0001:000279b0       ?Spawn@CBreakable@@UAEXXZ  100289b0 f   func_break.obj
 0001:00027a90       ?Spawn@CPushable@@UAEXXZ   10028a90 f   func_break.obj
 0001:00027bc0       ?TakeDamage@CBreakable@@UAEHPAUentvars_s@@0MH@Z 10028bc0 f   func_break.obj
 0001:00027e20       ?TakeDamage@CPushable@@UAEHPAUentvars_s@@0MH@Z 10028e20 f   func_break.obj
 0001:00027e60       ?Touch@CPushable@@UAEXPAVCBaseEntity@@@Z 10028e60 f   func_break.obj
 0001:00027ec0       ?TraceAttack@CBreakable@@UAEXPAUentvars_s@@MVVector@@PAUTraceResult@@H@Z 10028ec0 f   func_break.obj
 0001:00028000       ?Use@CBreakable@@UAEXPAVCBaseEntity@@0W4USE_TYPE@@M@Z 10029000 f   func_break.obj
 0001:00028080       ?Use@CPushable@@UAEXPAVCBaseEntity@@0W4USE_TYPE@@M@Z 10029080 f   func_break.obj
 0001:00028110       _func_breakable            10029110 f   func_break.obj
 0001:00028120       _func_pushable             10029120 f   func_break.obj
 0001:00028130       ??$GetClassPtr@VCFuncTankControls@@@@YAPAVCFuncTankControls@@PAV0@@Z 10029130 f i func_tank.obj
 0001:00028190       ??$GetClassPtr@VCFuncTankGun@@@@YAPAVCFuncTankGun@@PAV0@@Z 10029190 f i func_tank.obj
 0001:00028200       ??$GetClassPtr@VCFuncTankLaser@@@@YAPAVCFuncTankLaser@@PAV0@@Z 10029200 f i func_tank.obj
 0001:00028270       ??$GetClassPtr@VCFuncTankMortar@@@@YAPAVCFuncTankMortar@@PAV0@@Z 10029270 f i func_tank.obj
 0001:000282e0       ??$GetClassPtr@VCFuncTankRocket@@@@YAPAVCFuncTankRocket@@PAV0@@Z 100292e0 f i func_tank.obj
 0001:00028350       ??0CFuncTank@@QAE@XZ       10029350 f i func_tank.obj
 0001:000283c0       ?Activate@CFuncTankLaser@@UAEXXZ 100293c0 f   func_tank.obj
 0001:000283f0       ?AdjustAnglesForBarrel@CFuncTank@@QAEXAAVVector@@M@Z 100293f0 f   func_tank.obj
 0001:00028520       ?BarrelPosition@CFuncTank@@QAE?AVVector@@XZ 10029520 f i func_tank.obj
 0001:00028650       ?ControllerPostFrame@CFuncTank@@QAEXXZ 10029650 f   func_tank.obj
 0001:00028760       ?FindTarget@CFuncTank@@QAEPAUedict_s@@PAU2@@Z 10029760 f   func_tank.obj
 0001:00028770       ?Fire@CFuncTank@@UAEXABVVector@@0PAUentvars_s@@@Z 10029770 f   func_tank.obj
 0001:000289e0       ?Fire@CFuncTankGun@@UAEXABVVector@@0PAUentvars_s@@@Z 100299e0 f   func_tank.obj
 0001:00028b60       ?Fire@CFuncTankLaser@@UAEXABVVector@@0PAUentvars_s@@@Z 10029b60 f   func_tank.obj
 0001:00028cd0       ?Fire@CFuncTankMortar@@UAEXABVVector@@0PAUentvars_s@@@Z 10029cd0 f   func_tank.obj
 0001:00028db0       ?Fire@CFuncTankRocket@@UAEXABVVector@@0PAUentvars_s@@@Z 10029db0 f   func_tank.obj
 0001:00028e40       ?GetLaser@CFuncTankLaser@@QAEPAVCLaser@@XZ 10029e40 f   func_tank.obj
 0001:00028f20       ?InRange@CFuncTank@@QAEHM@Z 10029f20 f   func_tank.obj
 0001:00028f60       ?KeyValue@CFuncTank@@UAEXPAUKeyValueData_s@@@Z 10029f60 f   func_tank.obj
 0001:000293f0       ?KeyValue@CFuncTankLaser@@UAEXPAUKeyValueData_s@@@Z 1002a3f0 f   func_tank.obj
 0001:00029460       ?KeyValue@CFuncTankMortar@@UAEXPAUKeyValueData_s@@@Z 1002a460 f   func_tank.obj
 0001:000294d0       ?ObjectCaps@CFuncTankControls@@UAEHXZ 1002a4d0 f   func_tank.obj
 0001:000294e0       ?OnControls@CFuncTank@@UAEHPAUentvars_s@@@Z 1002a4e0 f   func_tank.obj
 0001:00029560       ?Precache@CFuncTank@@UAEXXZ 1002a560 f   func_tank.obj
 0001:000295d0       ?Precache@CFuncTankRocket@@UAEXXZ 1002a5d0 f   func_tank.obj
 0001:000295f0       ?Restore@CFuncTank@@UAEHAAVCRestore@@@Z 1002a5f0 f   func_tank.obj
 0001:00029630       ?Restore@CFuncTankControls@@UAEHAAVCRestore@@@Z 1002a630 f   func_tank.obj
 0001:00029670       ?Restore@CFuncTankLaser@@UAEHAAVCRestore@@@Z 1002a670 f   func_tank.obj
 0001:000296b0       ?Save@CFuncTank@@UAEHAAVCSave@@@Z 1002a6b0 f   func_tank.obj
 0001:000296f0       ?Save@CFuncTankControls@@UAEHAAVCSave@@@Z 1002a6f0 f   func_tank.obj
 0001:00029730       ?Save@CFuncTankLaser@@UAEHAAVCSave@@@Z 1002a730 f   func_tank.obj
 0001:00029770       ?Spawn@CFuncTank@@UAEXXZ   1002a770 f   func_tank.obj
 0001:00029860       ?Spawn@CFuncTankControls@@UAEXXZ 1002a860 f   func_tank.obj
 0001:00029900       ?StartControl@CFuncTank@@QAEHPAVCBasePlayer@@@Z 1002a900 f   func_tank.obj
 0001:000299d0       ?StartRotSound@CFuncTank@@QAEXXZ 1002a9d0 f   func_tank.obj
 0001:00029a40       ?StopControl@CFuncTank@@QAEXXZ 1002aa40 f   func_tank.obj
 0001:00029ac0       ?StopRotSound@CFuncTank@@QAEXXZ 1002aac0 f   func_tank.obj
 0001:00029b20       ?TankTrace@CFuncTank@@QAEXABVVector@@00AAUTraceResult@@@Z 1002ab20 f   func_tank.obj
 0001:00029ca0       ?Think@CFuncTank@@UAEXXZ   1002aca0 f   func_tank.obj
 0001:00029d10       ?Think@CFuncTankControls@@UAEXXZ 1002ad10 f   func_tank.obj
 0001:00029dd0       ?Think@CFuncTankLaser@@UAEXXZ 1002add0 f   func_tank.obj
 0001:00029e00       ?TrackTarget@CFuncTank@@QAEXXZ 1002ae00 f   func_tank.obj
 0001:0002a4d0       ?UpdateTargetPosition@CFuncTank@@UAE?AVVector@@PAVCBaseEntity@@@Z 1002b4d0 f i func_tank.obj
 0001:0002a500       ?Use@CFuncTank@@UAEXPAVCBaseEntity@@0W4USE_TYPE@@M@Z 1002b500 f   func_tank.obj
 0001:0002a600       ?Use@CFuncTankControls@@UAEXPAVCBaseEntity@@0W4USE_TYPE@@M@Z 1002b600 f   func_tank.obj
 0001:0002a630       _func_tank                 1002b630 f   func_tank.obj
 0001:0002a640       _func_tankcontrols         1002b640 f   func_tank.obj
 0001:0002a650       _func_tanklaser            1002b650 f   func_tank.obj
 0001:0002a660       _func_tankmortar           1002b660 f   func_tank.obj
 0001:0002a670       _func_tankrocket           1002b670 f   func_tank.obj
 0001:0002a680       ?GameDLLInit@@YAXXZ        1002b680 f   game.obj
 0001:0002aa60       ?CanHaveAmmo@CGameRules@@UAEHPAVCBasePlayer@@PBDH@Z 1002ba60 f   gamerules.obj
 0001:0002aaa0       ?CanHavePlayerItem@CGameRules@@UAEHPAVCBasePlayer@@PAVCBasePlayerItem@@@Z 1002baa0 f   gamerules.obj
 0001:0002ab10       ?GetPlayerSpawnSpot@CGameRules@@UAEPAUedict_s@@PAVCBasePlayer@@@Z 1002bb10 f   gamerules.obj
 0001:0002abf0       ?InstallGameRules@@YAPAVCGameRules@@XZ 1002bbf0 f   gamerules.obj
 0001:0002acb0       ?RefreshSkillData@CGameRules@@UAEXXZ 1002bcb0 f   gamerules.obj
 0001:0002ad30       ??$GetClassPtr@VCGrenade@@@@YAPAVCGrenade@@PAV0@@Z 1002bd30 f i ggrenade.obj
 0001:0002adc0       ??0CBaseMonster@@QAE@XZ    1002bdc0 f i ggrenade.obj
 0001:0002aec0       ?BounceSound@CGrenade@@UAEXXZ 1002bec0 f   ggrenade.obj
 0001:0002af90       ?BounceTouch@CGrenade@@QAEXPAVCBaseEntity@@@Z 1002bf90 f   ggrenade.obj
 0001:0002b210       ?C4Think@CGrenade@@QAEXXZ  1002c210 f   ggrenade.obj
 0001:0002b860       ?DangerSoundThink@CGrenade@@QAEXXZ 1002c860 f   ggrenade.obj
 0001:0002b990       ?Detonate2@CGrenade@@QAEXXZ 1002c990 f   ggrenade.obj
 0001:0002ba50       ?Detonate3@CGrenade@@QAEXXZ 1002ca50 f   ggrenade.obj
 0001:0002bb10       ?Detonate@CGrenade@@QAEXXZ 1002cb10 f   ggrenade.obj
 0001:0002bbd0       ?DetonateUse@CGrenade@@QAEXPAVCBaseEntity@@0W4USE_TYPE@@M@Z 1002cbd0 f   ggrenade.obj
 0001:0002bbf0       ?Explode2@CGrenade@@QAEXPAUTraceResult@@H@Z 1002cbf0 f   ggrenade.obj
 0001:0002c280       ?Explode3@CGrenade@@QAEXPAUTraceResult@@H@Z 1002d280 f   ggrenade.obj
 0001:0002c650       ?Explode@CGrenade@@QAEXPAUTraceResult@@H@Z 1002d650 f   ggrenade.obj
 0001:0002c8d0       ?Explode@CGrenade@@QAEXVVector@@0@Z 1002d8d0 f   ggrenade.obj
 0001:0002c970       ?ExplodeTouch@CGrenade@@QAEXPAVCBaseEntity@@@Z 1002d970 f   ggrenade.obj
 0001:0002cba0       ?Killed@CGrenade@@UAEXPAUentvars_s@@H@Z 1002dba0 f   ggrenade.obj
 0001:0002cbb0       ?PreDetonate@CGrenade@@QAEXXZ 1002dbb0 f   ggrenade.obj
 0001:0002cc00       ?Restore@CGrenade@@UAEHAAVCRestore@@@Z 1002dc00 f   ggrenade.obj
 0001:0002cc40       ?SG_Detonate@CGrenade@@QAEXXZ 1002dc40 f   ggrenade.obj
 0001:0002cef0       ?SG_Smoke@CGrenade@@QAEXXZ 1002def0 f   ggrenade.obj
 0001:0002d110       ?SG_TumbleThink@CGrenade@@QAEXXZ 1002e110 f   ggrenade.obj
 0001:0002d2b0       ?Save@CGrenade@@UAEHAAVCSave@@@Z 1002e2b0 f   ggrenade.obj
 0001:0002d2f0       ?ShootSatchelCharge@CGrenade@@SAPAV1@PAUentvars_s@@VVector@@1@Z 1002e2f0 f   ggrenade.obj
 0001:0002d570       ?ShootSmokeGrenade@CGrenade@@SAPAV1@PAUentvars_s@@VVector@@1MG@Z 1002e570 f   ggrenade.obj
 0001:0002d6e0       ?ShootTimed2@CGrenade@@SAPAV1@PAUentvars_s@@VVector@@1MHG@Z 1002e6e0 f   ggrenade.obj
 0001:0002d810       ?ShootTimed@CGrenade@@SAPAV1@PAUentvars_s@@VVector@@1M@Z 1002e810 f   ggrenade.obj
 0001:0002d970       ?SlideTouch@CGrenade@@QAEXPAVCBaseEntity@@@Z 1002e970 f   ggrenade.obj
 0001:0002d9f0       ?Smoke2@CGrenade@@QAEXXZ   1002e9f0 f   ggrenade.obj
 0001:0002db20       ?Smoke3_A@CGrenade@@QAEXXZ 1002eb20 f   ggrenade.obj
 0001:0002dcb0       ?Smoke3_B@CGrenade@@QAEXXZ 1002ecb0 f   ggrenade.obj
 0001:0002de50       ?Smoke3_C@CGrenade@@QAEXXZ 1002ee50 f   ggrenade.obj
 0001:0002dfb0       ?Smoke@CGrenade@@QAEXXZ    1002efb0 f   ggrenade.obj
 0001:0002e0d0       ?Spawn@CGrenade@@UAEXXZ    1002f0d0 f   ggrenade.obj
 0001:0002e1d0       ?TumbleThink@CGrenade@@QAEXXZ 1002f1d0 f   ggrenade.obj
 0001:0002e340       ?Use@CGrenade@@UAEXPAVCBaseEntity@@0W4USE_TYPE@@M@Z 1002f340 f   ggrenade.obj
 0001:0002e570       _grenade                   1002f570 f   ggrenade.obj
 0001:0002e580       ??$GetClassPtr@VCHealthKit@@@@YAPAVCHealthKit@@PAV0@@Z 1002f580 f i healthkit.obj
 0001:0002e5e0       ??$GetClassPtr@VCWallHealth@@@@YAPAVCWallHealth@@PAV0@@Z 1002f5e0 f i healthkit.obj
 0001:0002e700       ?KeyValue@CRecharge@@UAEXPAUKeyValueData_s@@@Z 1002f700 f   h_battery.obj
 0001:0002e700       ?KeyValue@CWallHealth@@UAEXPAUKeyValueData_s@@@Z 1002f700 f   healthkit.obj
 0001:0002e810       ?MyTouch@CHealthKit@@UAEHPAVCBasePlayer@@@Z 1002f810 f   healthkit.obj
 0001:0002e8f0       ?Off@CWallHealth@@QAEXXZ   1002f8f0 f   healthkit.obj
 0001:0002e990       ?Precache@CHealthKit@@UAEXXZ 1002f990 f   healthkit.obj
 0001:0002e9b0       ?Precache@CWallHealth@@UAEXXZ 1002f9b0 f   healthkit.obj
 0001:0002e9e0       ?Recharge@CWallHealth@@QAEXXZ 1002f9e0 f   healthkit.obj
 0001:0002ea40       ?Restore@CWallHealth@@UAEHAAVCRestore@@@Z 1002fa40 f   healthkit.obj
 0001:0002ea80       ?Save@CWallHealth@@UAEHAAVCSave@@@Z 1002fa80 f   healthkit.obj
 0001:0002eac0       ?Spawn@CHealthKit@@UAEXXZ  1002fac0 f   healthkit.obj
 0001:0002eaf0       ?Spawn@CWallHealth@@UAEXXZ 1002faf0 f   healthkit.obj
 0001:0002eb80       ?Use@CWallHealth@@UAEXPAVCBaseEntity@@0W4USE_TYPE@@M@Z 1002fb80 f   healthkit.obj
 0001:0002ed70       _func_healthcharger        1002fd70 f   healthkit.obj
 0001:0002ed80       _item_healthkit            1002fd80 f   healthkit.obj
 0001:0002ed90       ??0?$CUtlMemory@PAVCHintMessage@@@@QAE@HH@Z 1002fd90 f i client.obj
 0001:0002ed90       ??0?$CUtlMemory@PAD@@QAE@HH@Z 1002fd90 f i hintmessage.obj
 0001:0002edd0       ??0CHintMessage@@QAE@PBD_NPAV?$CUtlVector@PBD@@M@Z 1002fdd0 f   hintmessage.obj
 0001:0002eee0       ??1?$CUtlVector@PAD@@QAE@XZ 1002fee0 f i hintmessage.obj
 0001:0002eef0       ??1CHintMessage@@QAE@XZ    1002fef0 f   hintmessage.obj
 0001:0002ef30       ?AddMessage@CHintMessageQueue@@QAE_NPBDM_NPAV?$CUtlVector@PBD@@@Z 1002ff30 f   hintmessage.obj
 0001:0002efb0       ?Grow@?$CUtlMemory@PAVCHintMessage@@@@QAEXH@Z 1002ffb0 f i hintmessage.obj
 0001:0002efb0       ?Grow@?$CUtlMemory@PAD@@QAEXH@Z 1002ffb0 f i hintmessage.obj
 0001:0002f020       ?GrowVector@?$CUtlVector@PAVCHintMessage@@@@IAEXH@Z 10030020 f i hintmessage.obj
 0001:0002f020       ?GrowVector@?$CUtlVector@PAD@@IAEXH@Z 10030020 f i hintmessage.obj
 0001:0002f060       ?InsertBefore@?$CUtlVector@PAVCHintMessage@@@@QAEHHABQAVCHintMessage@@@Z 10030060 f i hintmessage.obj
 0001:0002f060       ?InsertBefore@?$CUtlVector@PAD@@QAEHHABQAD@Z 10030060 f i hintmessage.obj
 0001:0002f090       ?IsExternallyAllocated@?$CUtlMemory@Uhash_item_s@@@@QBE_NXZ 10030090 f i cbase.obj
 0001:0002f090       ?IsExternallyAllocated@?$CUtlMemory@PAD@@QBE_NXZ 10030090 f i hintmessage.obj
 0001:0002f090       ?IsExternallyAllocated@?$CUtlMemory@PAVCHintMessage@@@@QBE_NXZ 10030090 f i client.obj
 0001:0002f0a0       ?Remove@?$CUtlVector@PAVCHintMessage@@@@QAEXH@Z 100300a0 f i hintmessage.obj
 0001:0002f0c0       ?Reset@CHintMessageQueue@@QAEXXZ 100300c0 f   hintmessage.obj
 0001:0002f100       ?Send@CHintMessage@@QAEXPAVCBaseEntity@@@Z 10030100 f   hintmessage.obj
 0001:0002f120       ?ShiftElementsLeft@?$CUtlVector@PAVCHintMessage@@@@IAEXHH@Z 10030120 f i hintmessage.obj
 0001:0002f160       ?ShiftElementsRight@?$CUtlVector@PAD@@IAEXHH@Z 10030160 f i hintmessage.obj
 0001:0002f160       ?ShiftElementsRight@?$CUtlVector@PAVCHintMessage@@@@IAEXHH@Z 10030160 f i hintmessage.obj
 0001:0002f1a0       ?Update@CHintMessageQueue@@QAEXPAVCBaseEntity@@@Z 100301a0 f   hintmessage.obj
 0001:0002f200       ??$GetClassPtr@VCBaseEntity@@@@YAPAVCBaseEntity@@PAV0@@Z 10030200 f i hostage.obj
 0001:0002f260       ??$GetClassPtr@VCHostage@@@@YAPAVCHostage@@PAV0@@Z 10030260 f i hostage.obj
 0001:0002f390       ?AnnounceDeath@CHostage@@QAEXPAVCBasePlayer@@@Z 10030390 f   hostage.obj
 0001:0002f4a0       ?ApplyHostagePenalty@CHostage@@QAEXPAVCBasePlayer@@@Z 100304a0 f   hostage.obj
 0001:0002f520       ?Classify@CHostage@@UAEHXZ 10030520 f i hostage.obj
 0001:0002f520       ?iItemSlot@CKnife@@UAEHXZ  10030520 f i wpn_knife.obj
 0001:0002f530       ?DoFollow@CHostage@@QAEXXZ 10030530 f   hostage.obj
 0001:0002f8c0       ?GetModifiedDamage@CHostage@@QAEMM@Z 100308c0 f   hostage.obj
 0001:0002f9a0       ?GiveCTTouchBonus@CHostage@@QAEXPAVCBasePlayer@@@Z 100309a0 f   hostage.obj
 0001:0002fa20       ?IdleThink@CHostage@@QAEXXZ 10030a20 f   hostage.obj
 0001:0002ff80       ?MoveToward@CHostage@@QAEXAAVVector@@@Z 10030f80 f   hostage.obj
 0001:000303a0       ?NavReady@CHostage@@QAEXXZ 100313a0 f   hostage.obj
 0001:000305c0       ?ObjectCaps@CHostage@@UAEHXZ 100315c0 f   hostage.obj
 0001:000305d0       ?PlayFollowRescueSound@CHostage@@QAEXXZ 100315d0 f   hostage.obj
 0001:000306b0       ?PlayPainSound@CHostage@@QAEXXZ 100316b0 f   hostage.obj
 0001:00030740       ?PointAt@CHostage@@QAEXAAVVector@@@Z 10031740 f   hostage.obj
 0001:000307b0       ?PreThink@CHostage@@QAEXXZ 100317b0 f   hostage.obj
 0001:00030b40       ?Precache@CHostage@@UAEXXZ 10031b40 f   hostage.obj
 0001:00030bd0       ?RePosition@CHostage@@QAEXXZ 10031bd0 f   hostage.obj
 0001:00030dc0       ?Remove@CHostage@@QAEXXZ   10031dc0 f   hostage.obj
 0001:00030e50       ?SendHostageEventMsg@CHostage@@QAEXXZ 10031e50 f   hostage.obj
 0001:00030f30       ?SendHostagePositionMsg@CHostage@@QAEXXZ 10031f30 f   hostage.obj
 0001:00031040       ?SetActivity@CHostage@@QAEXW4Activity@@@Z 10032040 f   hostage.obj
 0001:000310b0       ?SetDeathActivity@CHostage@@QAEXXZ 100320b0 f   hostage.obj
 0001:00031110       ?SetFlinchActivity@CHostage@@QAEXXZ 10032110 f   hostage.obj
 0001:00031170       ?Spawn@CHostage@@UAEXXZ    10032170 f   hostage.obj
 0001:00031580       ?TakeDamage@CHostage@@UAEHPAUentvars_s@@0MH@Z 10032580 f   hostage.obj
 0001:000317b0       ?Touch@CHostage@@UAEXPAVCBaseEntity@@@Z 100327b0 f   hostage.obj
 0001:00031a40       ?Use@CHostage@@UAEXPAVCBaseEntity@@0W4USE_TYPE@@M@Z 10032a40 f   hostage.obj
 0001:00031b90       ?Wiggle@CHostage@@QAEXXZ   10032b90 f   hostage.obj
 0001:00031ee0       _monster_scientist         10032ee0 f   hostage.obj
 0001:00031ee0       _hostage_entity            10032ee0 f   hostage.obj
 0001:00031ef0       ??0CLocalNav@@QAE@PAVCHostage@@@Z 10032ef0 f   hostage_localnav.obj
 0001:00031f80       ?AddNode@CLocalNav@@QAEHHAAVVector@@HHH@Z 10032f80 f   hostage_localnav.obj
 0001:00031fe0       ?AddPathNode@CLocalNav@@QAEXHHHH@Z 10032fe0 f   hostage_localnav.obj
 0001:000321c0       ?AddPathNodes@CLocalNav@@QAEXHH@Z 100331c0 f   hostage_localnav.obj
 0001:00032240       ?FindDirectPath@CLocalNav@@QAEHAAVVector@@0MH@Z 10033240 f   hostage_localnav.obj
 0001:000324d0       ?FindPath@CLocalNav@@QAEHAAVVector@@0MH@Z 100334d0 f   hostage_localnav.obj
 0001:00032820       ?GetBestNode@CLocalNav@@QAEHAAVVector@@0@Z 10033820 f   hostage_localnav.obj
 0001:00032950       ?GetFurthestTraversableNode@CLocalNav@@QAEHAAVVector@@PAV2@HH@Z 10033950 f   hostage_localnav.obj
 0001:000329a0       ?GetNode@CLocalNav@@QAEPAUlocalnode_s@@H@Z 100339a0 f   hostage_localnav.obj
 0001:000329b0       ?HostagePrethink@CLocalNav@@SAXXZ 100339b0 f   hostage_localnav.obj
 0001:00032a00       ?NodeExists@CLocalNav@@QAEHHH@Z 10033a00 f   hostage_localnav.obj
 0001:00032a40       ?PathClear@CLocalNav@@QAEHAAVVector@@0HAAUTraceResult@@@Z 10033a40 f   hostage_localnav.obj
 0001:00032ab0       ?PathTraversable@CLocalNav@@QAEHAAVVector@@0H@Z 10033ab0 f   hostage_localnav.obj
 0001:00032e60       ?RequestNav@CLocalNav@@SAXPAVCHostage@@@Z 10033e60 f   hostage_localnav.obj
 0001:00032f00       ?Reset@CLocalNav@@SAXXZ    10033f00 f   hostage_localnav.obj
 0001:00032f40       ?SetTargetEnt@CLocalNav@@QAEXPAVCBaseEntity@@@Z 10033f40 f   hostage_localnav.obj
 0001:00032f70       ?SetupPathNodes@CLocalNav@@QAEHHPAVVector@@H@Z 10033f70 f   hostage_localnav.obj
 0001:00032fc0       ?SlopeTraversable@CLocalNav@@QAEHAAVVector@@0HAAUTraceResult@@@Z 10033fc0 f   hostage_localnav.obj
 0001:000331b0       ?StepJumpable@CLocalNav@@QAEHAAVVector@@0HAAUTraceResult@@@Z 100341b0 f   hostage_localnav.obj
 0001:00033360       ?StepTraversable@CLocalNav@@QAEHAAVVector@@0HAAUTraceResult@@@Z 10034360 f   hostage_localnav.obj
 0001:000334c0       ?Think@CLocalNav@@SAXXZ    100344c0 f   hostage_localnav.obj
 0001:000336b0       ??$GetClassPtr@VCRecharge@@@@YAPAVCRecharge@@PAV0@@Z 100346b0 f i h_battery.obj
 0001:000337d0       ?Off@CRecharge@@QAEXXZ     100347d0 f   h_battery.obj
 0001:00033870       ?Precache@CRecharge@@UAEXXZ 10034870 f   h_battery.obj
 0001:000338a0       ?Recharge@CRecharge@@QAEXXZ 100348a0 f   h_battery.obj
 0001:000338d0       ?Restore@CRecharge@@UAEHAAVCRestore@@@Z 100348d0 f   h_battery.obj
 0001:00033910       ?Save@CRecharge@@UAEHAAVCSave@@@Z 10034910 f   h_battery.obj
 0001:00033950       ?Spawn@CRecharge@@UAEXXZ   10034950 f   h_battery.obj
 0001:000339e0       ?Use@CRecharge@@UAEXPAVCBaseEntity@@0W4USE_TYPE@@M@Z 100349e0 f   h_battery.obj
 0001:00033c80       _func_recharge             10034c80 f   h_battery.obj
 0001:00033c90       ??$GetClassPtr@VCCyclerProbe@@@@YAPAVCCyclerProbe@@PAV0@@Z 10034c90 f i h_cycler.obj
 0001:00033d00       ??$GetClassPtr@VCCyclerSprite@@@@YAPAVCCyclerSprite@@PAV0@@Z 10034d00 f i h_cycler.obj
 0001:00033d80       ??$GetClassPtr@VCGenericCycler@@@@YAPAVCGenericCycler@@PAV0@@Z 10034d80 f i h_cycler.obj
 0001:00033df0       ??$GetClassPtr@VCWeaponCycler@@@@YAPAVCWeaponCycler@@PAV0@@Z 10034df0 f i h_cycler.obj
 0001:00033e70       ??$GetClassPtr@VCWreckage@@@@YAPAVCWreckage@@PAV0@@Z 10034e70 f i h_cycler.obj
 0001:00033ee0       ?AddWeapon@CBasePlayerWeapon@@UAEHXZ 10034ee0 f i h_cycler.obj
 0001:00033ef0       ?Animate@CCyclerSprite@@QAEXM@Z 10034ef0 f   h_cycler.obj
 0001:00033f60       ?Deploy@CWeaponCycler@@UAEHXZ 10034f60 f   h_cycler.obj
 0001:00033fd0       ?GenericCyclerSpawn@CCycler@@QAEXPADVVector@@1@Z 10034fd0 f   h_cycler.obj
 0001:000340d0       ?GetMaxSpeed@CBasePlayerItem@@UAEMXZ 100350d0 f i h_cycler.obj
 0001:000340e0       ?GetWeaponPtr@CBasePlayerWeapon@@UAEPAVCBasePlayerItem@@XZ 100350e0 f i h_cycler.obj
 0001:000340f0       ?ObjectCaps@CCycler@@UAEHXZ 100350f0 f i h_cycler.obj
 0001:00034100       ?ObjectCaps@CCyclerSprite@@UAEHXZ 10035100 f i h_cycler.obj
 0001:00034110       ?Precache@CWreckage@@EAEXXZ 10035110 f   h_cycler.obj
 0001:00034140       ?PrimaryAttack@CWeaponCycler@@UAEXXZ 10035140 f   h_cycler.obj
 0001:00034180       ?Restart@CCyclerSprite@@UAEXXZ 10035180 f   h_cycler.obj
 0001:00034260       ?Restore@CCycler@@UAEHAAVCRestore@@@Z 10035260 f   h_cycler.obj
 0001:000342a0       ?Restore@CCyclerSprite@@UAEHAAVCRestore@@@Z 100352a0 f   h_cycler.obj
 0001:000342e0       ?Restore@CWreckage@@EAEHAAVCRestore@@@Z 100352e0 f   h_cycler.obj
 0001:00034320       ?Save@CCycler@@UAEHAAVCSave@@@Z 10035320 f   h_cycler.obj
 0001:00034360       ?Save@CCyclerSprite@@UAEHAAVCSave@@@Z 10035360 f   h_cycler.obj
 0001:000343a0       ?Save@CWreckage@@EAEHAAVCSave@@@Z 100353a0 f   h_cycler.obj
 0001:000343e0       ?SecondaryAttack@CWeaponCycler@@UAEXXZ 100353e0 f   h_cycler.obj
 0001:000344a0       ?Spawn@CCycler@@UAEXXZ     100354a0 f   h_cycler.obj
 0001:00034590       ?Spawn@CCyclerProbe@@UAEXXZ 10035590 f   h_cycler.obj
 0001:00034610       ?Spawn@CCyclerSprite@@UAEXXZ 10035610 f   h_cycler.obj
 0001:00034750       ?Spawn@CGenericCycler@@UAEXXZ 10035750 f i h_cycler.obj
 0001:000347b0       ?Spawn@CWeaponCycler@@UAEXXZ 100357b0 f   h_cycler.obj
 0001:00034880       ?Spawn@CWreckage@@EAEXXZ   10035880 f   h_cycler.obj
 0001:00034940       ?TakeDamage@CCycler@@UAEHPAUentvars_s@@0MH@Z 10035940 f   h_cycler.obj
 0001:000349f0       ?TakeDamage@CCyclerSprite@@UAEHPAUentvars_s@@0MH@Z 100359f0 f   h_cycler.obj
 0001:00034a20       ?Think@CCycler@@UAEXXZ     10035a20 f   h_cycler.obj
 0001:00034ad0       ?Think@CCyclerSprite@@UAEXXZ 10035ad0 f   h_cycler.obj
 0001:00034b50       ?Think@CWreckage@@EAEXXZ   10035b50 f   h_cycler.obj
 0001:00034d30       ?Use@CCycler@@UAEXPAVCBaseEntity@@0W4USE_TYPE@@M@Z 10035d30 f   h_cycler.obj
 0001:00034d70       ?Use@CCyclerSprite@@UAEXPAVCBaseEntity@@0W4USE_TYPE@@M@Z 10035d70 f   h_cycler.obj
 0001:00034db0       _cycler                    10035db0 f   h_cycler.obj
 0001:00034dc0       _cycler_prdroid            10035dc0 f   h_cycler.obj
 0001:00034dd0       _cycler_sprite             10035dd0 f   h_cycler.obj
 0001:00034de0       _cycler_weapon             10035de0 f   h_cycler.obj
 0001:00034df0       _cycler_wreckage           10035df0 f   h_cycler.obj
 0001:00034e00       ?GiveFnptrsToDll@@YGXPAUenginefuncs_s@@PAUglobalvars_t@@@Z 10035e00 f   h_export.obj
 0001:00034f10       ?Hooked_EmitSound@@YAXPAUedict_s@@HPBDMMHH@Z 10035f10 f   h_export.obj
 0001:000350b0       ?Hooked_GetGameDir@@YAXPAD@Z 100360b0 f   h_export.obj
 0001:000350d0       ?Hooked_LoadFileForMe@@YAPAEPADPAH@Z 100360d0 f   h_export.obj
 0001:00035190       ?Hooked_ModelIndex@@YAHPBD@Z 10036190 f   h_export.obj
 0001:000351c0       ?Hooked_PrecacheModel@@YAHPAD@Z 100361c0 f   h_export.obj
 0001:00035220       ?Hooked_PrecacheSound@@YAHPAD@Z 10036220 f   h_export.obj
 0001:000352d0       ?Hooked_SetClientKeyValue@@YAXHPAD00@Z 100362d0 f   h_export.obj
 0001:000353a0       ?Hooked_SetModel@@YAXPAUedict_s@@PBD@Z 100363a0 f   h_export.obj
 0001:000353d0       ?va@@YAPADPADZZ            100363d0 f   h_export.obj
 0001:00035410       _DllMain@12                10036410 f   h_export.obj
 0001:00035420       ??$GetClassPtr@VCItemAntidote@@@@YAPAVCItemAntidote@@PAV0@@Z 10036420 f i items.obj
 0001:00035480       ??$GetClassPtr@VCItemAssaultSuit@@@@YAPAVCItemAssaultSuit@@PAV0@@Z 10036480 f i items.obj
 0001:000354e0       ??$GetClassPtr@VCItemBattery@@@@YAPAVCItemBattery@@PAV0@@Z 100364e0 f i items.obj
 0001:00035540       ??$GetClassPtr@VCItemKevlar@@@@YAPAVCItemKevlar@@PAV0@@Z 10036540 f i items.obj
 0001:000355a0       ??$GetClassPtr@VCItemLongJump@@@@YAPAVCItemLongJump@@PAV0@@Z 100365a0 f i items.obj
 0001:00035600       ??$GetClassPtr@VCItemSecurity@@@@YAPAVCItemSecurity@@PAV0@@Z 10036600 f i items.obj
 0001:00035660       ??$GetClassPtr@VCItemSuit@@@@YAPAVCItemSuit@@PAV0@@Z 10036660 f i items.obj
 0001:000356c0       ??$GetClassPtr@VCItemThighPack@@@@YAPAVCItemThighPack@@PAV0@@Z 100366c0 f i items.obj
 0001:00035720       ??$GetClassPtr@VCWorldItem@@@@YAPAVCWorldItem@@PAV0@@Z 10036720 f i items.obj
 0001:00035780       ?ItemTouch@CItem@@QAEXPAVCBaseEntity@@@Z 10036780 f   items.obj
 0001:00035830       ?KeyValue@CWorldItem@@UAEXPAUKeyValueData_s@@@Z 10036830 f   items.obj
 0001:000358a0       ?Materialize@CItem@@QAEXXZ 100368a0 f   items.obj
 0001:00035900       ?MyTouch@CItemAntidote@@EAEHPAVCBasePlayer@@@Z 10036900 f i items.obj
 0001:00035930       ?MyTouch@CItemAssaultSuit@@EAEHPAVCBasePlayer@@@Z 10036930 f i items.obj
 0001:000359f0       ?MyTouch@CItemBattery@@EAEHPAVCBasePlayer@@@Z 100369f0 f i items.obj
 0001:00035b30       ?MyTouch@CItemKevlar@@EAEHPAVCBasePlayer@@@Z 10036b30 f i items.obj
 0001:00035c00       ?MyTouch@CItemLongJump@@EAEHPAVCBasePlayer@@@Z 10036c00 f i items.obj
 0001:00035cb0       ?MyTouch@CItemSecurity@@EAEHPAVCBasePlayer@@@Z 10036cb0 f i items.obj
 0001:00035cd0       ?MyTouch@CItemSuit@@EAEHPAVCBasePlayer@@@Z 10036cd0 f i items.obj
 0001:00035d40       ?MyTouch@CItemThighPack@@EAEHPAVCBasePlayer@@@Z 10036d40 f i items.obj
 0001:00035e20       ?Precache@CItemAntidote@@EAEXXZ 10036e20 f i items.obj
 0001:00035e30       ?Precache@CItemAssaultSuit@@EAEXXZ 10036e30 f i items.obj
 0001:00035e40       ?Precache@CItemBattery@@EAEXXZ 10036e40 f i items.obj
 0001:00035e60       ?Precache@CItemKevlar@@EAEXXZ 10036e60 f i items.obj
 0001:00035e70       ?Precache@CItemLongJump@@EAEXXZ 10036e70 f i items.obj
 0001:00035e80       ?Precache@CItemSecurity@@EAEXXZ 10036e80 f i items.obj
 0001:00035e90       ?Precache@CItemSuit@@EAEXXZ 10036e90 f i items.obj
 0001:00035eb0       ?Precache@CItemThighPack@@EAEXXZ 10036eb0 f i items.obj
 0001:00035ec0       ?Respawn@CItem@@UAEPAVCBaseEntity@@XZ 10036ec0 f   items.obj
 0001:00035f30       ?Spawn@CItem@@UAEXXZ       10036f30 f   items.obj
 0001:00035fd0       ?Spawn@CItemAntidote@@EAEXXZ 10036fd0 f i items.obj
 0001:00036000       ?Spawn@CItemAssaultSuit@@EAEXXZ 10037000 f i items.obj
 0001:00036030       ?Spawn@CItemBattery@@EAEXXZ 10037030 f i items.obj
 0001:00036060       ?Spawn@CItemSuit@@EAEXXZ   10037060 f i items.obj
 0001:00036060       ?Spawn@CItemKevlar@@EAEXXZ 10037060 f i items.obj
 0001:00036090       ?Spawn@CItemLongJump@@EAEXXZ 10037090 f i items.obj
 0001:000360c0       ?Spawn@CItemSecurity@@EAEXXZ 100370c0 f i items.obj
 0001:000360f0       ?Spawn@CItemThighPack@@EAEXXZ 100370f0 f i items.obj
 0001:00036120       ?Spawn@CWorldItem@@UAEXXZ  10037120 f   items.obj
 0001:00036200       _item_antidote             10037200 f   items.obj
 0001:00036210       _item_assaultsuit          10037210 f   items.obj
 0001:00036220       _item_battery              10037220 f   items.obj
 0001:00036230       _item_kevlar               10037230 f   items.obj
 0001:00036240       _item_longjump             10037240 f   items.obj
 0001:00036250       _item_security             10037250 f   items.obj
 0001:00036260       _item_suit                 10037260 f   items.obj
 0001:00036270       _item_thighpack            10037270 f   items.obj
 0001:00036280       _world_items               10037280 f   items.obj
 0001:00036290       ??$GetClassPtr@VCEnvLight@@@@YAPAVCEnvLight@@PAV0@@Z 10037290 f i lights.obj
 0001:000362f0       ??$GetClassPtr@VCLight@@@@YAPAVCLight@@PAV0@@Z 100372f0 f i lights.obj
 0001:00036350       ?KeyValue@CEnvLight@@UAEXPAUKeyValueData_s@@@Z 10037350 f   lights.obj
 0001:00036550       ?KeyValue@CLight@@UAEXPAUKeyValueData_s@@@Z 10037550 f   lights.obj
 0001:00036670       ?Restart@CLight@@UAEXXZ    10037670 f   lights.obj
 0001:000366f0       ?Restore@CLight@@UAEHAAVCRestore@@@Z 100376f0 f   lights.obj
 0001:00036730       ?Save@CLight@@UAEHAAVCSave@@@Z 10037730 f   lights.obj
 0001:00036770       ?Spawn@CEnvLight@@UAEXXZ   10037770 f   lights.obj
 0001:00036830       ?Spawn@CLight@@UAEXXZ      10037830 f   lights.obj
 0001:000368c0       ?Use@CLight@@UAEXPAVCBaseEntity@@0W4USE_TYPE@@M@Z 100378c0 f   lights.obj
 0001:00036960       _light_environment         10037960 f   lights.obj
 0001:00036970       _light                     10037970 f   lights.obj
 0001:00036970       _light_spot                10037970 f   lights.obj
 0001:00036980       ??$GetClassPtr@VCMapInfo@@@@YAPAVCMapInfo@@PAV0@@Z 10037980 f i mapinfo.obj
 0001:000369e0       ?KeyValue@CMapInfo@@UAEXPAUKeyValueData_s@@@Z 100379e0 f   mapinfo.obj
 0001:00036aa0       ?Spawn@CMapInfo@@UAEXXZ    10037aa0 f   mapinfo.obj
 0001:00036ad0       _info_map_parameters       10037ad0 f   mapinfo.obj
 0001:00036ae0       ??$GetClassPtr@VCGameCounter@@@@YAPAVCGameCounter@@PAV0@@Z 10037ae0 f i maprules.obj
 0001:00036b40       ??$GetClassPtr@VCGameCounterSet@@@@YAPAVCGameCounterSet@@PAV0@@Z 10037b40 f i maprules.obj
 0001:00036ba0       ??$GetClassPtr@VCGameEnd@@@@YAPAVCGameEnd@@PAV0@@Z 10037ba0 f i maprules.obj
 0001:00036c00       ??$GetClassPtr@VCGamePlayerEquip@@@@YAPAVCGamePlayerEquip@@PAV0@@Z 10037c00 f i maprules.obj
 0001:00036c60       ??$GetClassPtr@VCGamePlayerHurt@@@@YAPAVCGamePlayerHurt@@PAV0@@Z 10037c60 f i maprules.obj
 0001:00036cc0       ??$GetClassPtr@VCGamePlayerTeam@@@@YAPAVCGamePlayerTeam@@PAV0@@Z 10037cc0 f i maprules.obj
 0001:00036d20       ??$GetClassPtr@VCGamePlayerZone@@@@YAPAVCGamePlayerZone@@PAV0@@Z 10037d20 f i maprules.obj
 0001:00036d80       ??$GetClassPtr@VCGameScore@@@@YAPAVCGameScore@@PAV0@@Z 10037d80 f i maprules.obj
 0001:00036de0       ??$GetClassPtr@VCGameTeamMaster@@@@YAPAVCGameTeamMaster@@PAV0@@Z 10037de0 f i maprules.obj
 0001:00036e40       ??$GetClassPtr@VCGameTeamSet@@@@YAPAVCGameTeamSet@@PAV0@@Z 10037e40 f i maprules.obj
 0001:00036ea0       ??$GetClassPtr@VCGameText@@@@YAPAVCGameText@@PAV0@@Z 10037ea0 f i maprules.obj
 0001:00036f00       ?CanFireForActivator@CRuleEntity@@IAEHPAVCBaseEntity@@@Z 10037f00 f   maprules.obj
 0001:00036f30       ?EquipPlayer@CGamePlayerEquip@@AAEXPAVCBaseEntity@@@Z 10037f30 f   maprules.obj
 0001:00036fa0       ?IsTriggered@CGameTeamMaster@@UAEHPAVCBaseEntity@@@Z 10037fa0 f   maprules.obj
 0001:00036fc0       ?KeyValue@CGamePlayerEquip@@UAEXPAUKeyValueData_s@@@Z 10037fc0 f   maprules.obj
 0001:00037050       ?KeyValue@CGamePlayerZone@@UAEXPAUKeyValueData_s@@@Z 10038050 f   maprules.obj
 0001:00037190       ?KeyValue@CGameScore@@UAEXPAUKeyValueData_s@@@Z 10038190 f   maprules.obj
 0001:00037210       ?KeyValue@CGameTeamMaster@@UAEXPAUKeyValueData_s@@@Z 10038210 f   maprules.obj
 0001:00037310       ?KeyValue@CGameText@@UAEXPAUKeyValueData_s@@@Z 10038310 f   maprules.obj
 0001:000375f0       ?KeyValue@CRuleEntity@@UAEXPAUKeyValueData_s@@@Z 100385f0 f   maprules.obj
 0001:00037660       ?ObjectCaps@CGameTeamMaster@@UAEHXZ 10038660 f i maprules.obj
 0001:00037660       ?ObjectCaps@CFireAndDie@@UAEHXZ 10038660 f i triggers.obj
 0001:00037670       ?Restore@CGamePlayerZone@@UAEHAAVCRestore@@@Z 10038670 f   maprules.obj
 0001:000376b0       ?Restore@CGameText@@UAEHAAVCRestore@@@Z 100386b0 f   maprules.obj
 0001:000376f0       ?Restore@CRuleEntity@@UAEHAAVCRestore@@@Z 100386f0 f   maprules.obj
 0001:00037730       ?Save@CGamePlayerZone@@UAEHAAVCSave@@@Z 10038730 f   maprules.obj
 0001:00037770       ?Save@CGameText@@UAEHAAVCSave@@@Z 10038770 f   maprules.obj
 0001:000377b0       ?Save@CRuleEntity@@UAEHAAVCSave@@@Z 100387b0 f   maprules.obj
 0001:000377f0       ?Spawn@CGameCounter@@UAEXXZ 100387f0 f   maprules.obj
 0001:00037810       ?Spawn@CGameScore@@UAEXXZ  10038810 f   maprules.obj
 0001:00037820       ?Spawn@CRuleBrushEntity@@UAEXXZ 10038820 f   maprules.obj
 0001:00037860       ?Spawn@CRuleEntity@@UAEXXZ 10038860 f   maprules.obj
 0001:00037890       ?Spawn@CRulePointEntity@@UAEXXZ 10038890 f   maprules.obj
 0001:000378c0       ?TargetTeamName@CGamePlayerTeam@@AAEPBDPBD@Z 100388c0 f   maprules.obj
 0001:00037950       ?TeamID@CGameTeamMaster@@UAEPBDXZ 10038950 f   maprules.obj
 0001:00037970       ?TeamMatch@CGameTeamMaster@@AAEHPAVCBaseEntity@@@Z 10038970 f   maprules.obj
 0001:000379d0       ?Touch@CGamePlayerEquip@@UAEXPAVCBaseEntity@@@Z 100389d0 f   maprules.obj
 0001:00037a00       ?Use@CGameCounter@@UAEXPAVCBaseEntity@@0W4USE_TYPE@@M@Z 10038a00 f   maprules.obj
 0001:00037ae0       ?Use@CGameCounterSet@@UAEXPAVCBaseEntity@@0W4USE_TYPE@@M@Z 10038ae0 f   maprules.obj
 0001:00037b30       ?Use@CGameEnd@@UAEXPAVCBaseEntity@@0W4USE_TYPE@@M@Z 10038b30 f   maprules.obj
 0001:00037b60       ?Use@CGamePlayerEquip@@UAEXPAVCBaseEntity@@0W4USE_TYPE@@M@Z 10038b60 f   maprules.obj
 0001:00037b70       ?Use@CGamePlayerHurt@@UAEXPAVCBaseEntity@@0W4USE_TYPE@@M@Z 10038b70 f   maprules.obj
 0001:00037c00       ?Use@CGamePlayerTeam@@UAEXPAVCBaseEntity@@0W4USE_TYPE@@M@Z 10038c00 f   maprules.obj
 0001:00037c90       ?Use@CGamePlayerZone@@UAEXPAVCBaseEntity@@0W4USE_TYPE@@M@Z 10038c90 f   maprules.obj
 0001:00037e10       ?Use@CGameScore@@UAEXPAVCBaseEntity@@0W4USE_TYPE@@M@Z 10038e10 f   maprules.obj
 0001:00037e80       ?Use@CGameTeamMaster@@UAEXPAVCBaseEntity@@0W4USE_TYPE@@M@Z 10038e80 f   maprules.obj
 0001:00037f30       ?Use@CGameTeamSet@@UAEXPAVCBaseEntity@@0W4USE_TYPE@@M@Z 10038f30 f   maprules.obj
 0001:00037f90       ?Use@CGameText@@UAEXPAVCBaseEntity@@0W4USE_TYPE@@M@Z 10038f90 f   maprules.obj
 0001:00038010       _game_counter              10039010 f   maprules.obj
 0001:00038020       _game_counter_set          10039020 f   maprules.obj
 0001:00038030       _game_end                  10039030 f   maprules.obj
 0001:00038040       _game_player_equip         10039040 f   maprules.obj
 0001:00038050       _game_player_hurt          10039050 f   maprules.obj
 0001:00038060       _game_player_team          10039060 f   maprules.obj
 0001:00038070       _game_score                10039070 f   maprules.obj
 0001:00038080       _game_team_master          10039080 f   maprules.obj
 0001:00038090       _game_team_set             10039090 f   maprules.obj
 0001:000380a0       _game_text                 100390a0 f   maprules.obj
 0001:000380b0       _game_zone_player          100390b0 f   maprules.obj
 0001:000380c0       ??0CMemoryPool@@QAE@HH@Z   100390c0 f   MemPool.obj
 0001:00038100       ??1CMemoryPool@@QAE@XZ     10039100 f   MemPool.obj
 0001:00038130       ?AddNewBlob@CMemoryPool@@QAEXXZ 10039130 f   MemPool.obj
 0001:000381c0       ?Alloc@CMemoryPool@@QAEPAXI@Z 100391c0 f   MemPool.obj
 0001:00038210       ?Free@CMemoryPool@@QAEXPAX@Z 10039210 f   MemPool.obj
 0001:00038230       ??$GetClassPtr@VCFuncMortarField@@@@YAPAVCFuncMortarField@@PAV0@@Z 10039230 f i mortar.obj
 0001:000382a0       ??$GetClassPtr@VCMortar@@@@YAPAVCMortar@@PAV0@@Z 100392a0 f i mortar.obj
 0001:00038370       ?FieldUse@CFuncMortarField@@QAEXPAVCBaseEntity@@0W4USE_TYPE@@M@Z 10039370 f   mortar.obj
 0001:000386d0       ?KeyValue@CFuncMortarField@@UAEXPAUKeyValueData_s@@@Z 100396d0 f   mortar.obj
 0001:00038830       ?MortarExplode@CMortar@@QAEXXZ 10039830 f   mortar.obj
 0001:00038a30       ?Precache@CFuncMortarField@@UAEXXZ 10039a30 f   mortar.obj
 0001:00038a60       ?Precache@CMortar@@UAEXXZ  10039a60 f   mortar.obj
 0001:00038a80       ?Restore@CFuncMortarField@@UAEHAAVCRestore@@@Z 10039a80 f   mortar.obj
 0001:00038ac0       ?Save@CFuncMortarField@@UAEHAAVCSave@@@Z 10039ac0 f   mortar.obj
 0001:00038b00       ?Spawn@CFuncMortarField@@UAEXXZ 10039b00 f   mortar.obj
 0001:00038b60       ?Spawn@CMortar@@UAEXXZ     10039b60 f   mortar.obj
 0001:00038ba0       _func_mortar_field         10039ba0 f   mortar.obj
 0001:00038bb0       _monster_mortar            10039bb0 f   mortar.obj
 0001:00038bc0       ?BestVisibleEnemy@CBaseMonster@@UAEPAVCBaseEntity@@XZ 10039bc0 f   mpstubb.obj
 0001:00038d00       ?ChangeYaw@CBaseMonster@@UAEMH@Z 10039d00 f   mpstubb.obj
 0001:00038d10       ?CorpseFallThink@CBaseMonster@@QAEXXZ 10039d10 f   mpstubb.obj
 0001:00038d70       ?IRelationship@CBaseMonster@@UAEHPAVCBaseEntity@@@Z 10039d70 f   mpstubb.obj
 0001:00038da0       ?KeyValue@CBaseMonster@@UAEXPAUKeyValueData_s@@@Z 10039da0 f   mpstubb.obj
 0001:00038db0       ?Look@CBaseMonster@@UAEXH@Z 10039db0 f   mpstubb.obj
 0001:00038f60       ?MonsterInitDead@CBaseMonster@@UAEXXZ 10039f60 f   mpstubb.obj
 0001:00039020       ?CanPlayerHearPlayer@CCStrikeGameMgrHelper@@UAE_NPAVCBasePlayer@@0@Z 1003a020 f i multiplay_gamerules.obj
 0001:00039090       ??_EIVoiceGameMgrHelper@@UAEPAXI@Z 1003a090 f i multiplay_gamerules.obj
 0001:00039090       ??_GIVoiceGameMgrHelper@@UAEPAXI@Z 1003a090 f i multiplay_gamerules.obj
 0001:00039090       ??_ECCStrikeGameMgrHelper@@UAEPAXI@Z 1003a090 f i multiplay_gamerules.obj
 0001:00039090       ??_GCCStrikeGameMgrHelper@@UAEPAXI@Z 1003a090 f i multiplay_gamerules.obj
 0001:000390c0       ??0CHalfLifeMultiplay@@QAE@XZ 1003a0c0 f   multiplay_gamerules.obj
 0001:00039480       ?AddToVIPQueue@CHalfLifeMultiplay@@QAEHPAVCBasePlayer@@@Z 1003a480 f   multiplay_gamerules.obj
 0001:00039560       ?AmmoShouldRespawn@CHalfLifeMultiplay@@UAEHPAVCBasePlayerAmmo@@@Z 1003a560 f   multiplay_gamerules.obj
 0001:00039590       ?BalanceTeams@CHalfLifeMultiplay@@QAEXXZ 1003a590 f   multiplay_gamerules.obj
 0001:00039720       ?BombRoundEndCheck@CHalfLifeMultiplay@@QAEHH@Z 1003a720 f   multiplay_gamerules.obj
 0001:000397f0       ?Broadcast@@YAXPBD@Z       1003a7f0 f   multiplay_gamerules.obj
 0001:000398a0       ?CanHavePlayerItem@CHalfLifeMultiplay@@UAEHPAVCBasePlayer@@PAVCBasePlayerItem@@@Z 1003a8a0 f   multiplay_gamerules.obj
 0001:000398b0       ?CareerRestart@CHalfLifeMultiplay@@QAEXXZ 1003a8b0 f   multiplay_gamerules.obj
 0001:00039970       ?ChangeLevel@CHalfLifeMultiplay@@UAEXXZ 1003a970 f   multiplay_gamerules.obj
 0001:00039be0       ?Use@CFuncMonsterClip@@UAEXPAVCBaseEntity@@0W4USE_TYPE@@M@Z 1003abe0 f i bmodels.obj
 0001:00039be0       ?ChangePlayerTeam@CGameRules@@UAEXPAVCBasePlayer@@PBDHH@Z 1003abe0 f i multiplay_gamerules.obj
 0001:00039bf0       ?CheckAllowSpecator@CHalfLifeMultiplay@@QAEXXZ 1003abf0 f   multiplay_gamerules.obj
 0001:00039c50       ?CheckFreezePeriodExpired@CHalfLifeMultiplay@@QAEXXZ 1003ac50 f   multiplay_gamerules.obj
 0001:00039e40       ?CheckGameCvar@CHalfLifeMultiplay@@QAEXXZ 1003ae40 f   multiplay_gamerules.obj
 0001:00039f30       ?CheckGameOver@CHalfLifeMultiplay@@QAEHXZ 1003af30 f   multiplay_gamerules.obj
 0001:0003a010       ?CheckLevelInitialized@CHalfLifeMultiplay@@QAEXXZ 1003b010 f   multiplay_gamerules.obj
 0001:0003a090       ?CheckMapConditions@CHalfLifeMultiplay@@UAEXXZ 1003b090 f   multiplay_gamerules.obj
 0001:0003a140       ?CheckMaxRounds@CHalfLifeMultiplay@@QAEHXZ 1003b140 f   multiplay_gamerules.obj
 0001:0003a180       ?CheckRestartRound@CHalfLifeMultiplay@@QAEXXZ 1003b180 f   multiplay_gamerules.obj
 0001:0003a2a0       ?CheckRoundTimeExpired@CHalfLifeMultiplay@@QAEXXZ 1003b2a0 f   multiplay_gamerules.obj
 0001:0003a3f0       ?CheckTimeLimit@CHalfLifeMultiplay@@QAEHXZ 1003b3f0 f   multiplay_gamerules.obj
 0001:0003a470       ?CheckVIPQueue@CHalfLifeMultiplay@@QAEXXZ 1003b470 f   multiplay_gamerules.obj
 0001:0003a510       ?CheckWinConditions@CHalfLifeMultiplay@@UAEXXZ 1003b510 f   multiplay_gamerules.obj
 0001:0003a5c0       ?CheckWinLimit@CHalfLifeMultiplay@@QAEHXZ 1003b5c0 f   multiplay_gamerules.obj
 0001:0003a610       ?CleanUpMap@CHalfLifeMultiplay@@UAEXXZ 1003b610 f   multiplay_gamerules.obj
 0001:0003a910       ?FindNearestNode@CGraph@@QAEHABVVector@@H@Z 1003b910 f   mpstubb.obj
 0001:0003a910       ?ClientCommand@CHalfLifeMultiplay@@UAEHPAVCBasePlayer@@PBD@Z 1003b910 f   multiplay_gamerules.obj
 0001:0003a920       ?ClientCommand_DeadOrAlive@CHalfLifeMultiplay@@UAEHPAVCBasePlayer@@PBD@Z 1003b920 f   multiplay_gamerules.obj
 0001:0003a940       ?ClientConnected@CHalfLifeMultiplay@@UAEHPAUedict_s@@PBD1QAD@Z 1003b940 f   multiplay_gamerules.obj
 0001:0003a960       ?ClientDisconnected@CHalfLifeMultiplay@@UAEXPAUedict_s@@@Z 1003b960 f   multiplay_gamerules.obj
 0001:0003aba0       ?ClientUserInfoChanged@CHalfLifeMultiplay@@UAEXPAVCBasePlayer@@PAD@Z 1003bba0 f   multiplay_gamerules.obj
 0001:0003abd0       ?CountPlayers@@YAHXZ       1003bbd0 f   multiplay_gamerules.obj
 0001:0003ac10       ?DeadPlayerAmmo@CHalfLifeMultiplay@@UAEHPAVCBasePlayer@@@Z 1003bc10 f   multiplay_gamerules.obj
 0001:0003ac20       ?DeadPlayerWeapons@CHalfLifeMultiplay@@UAEHPAVCBasePlayer@@@Z 1003bc20 f   multiplay_gamerules.obj
 0001:0003ac30       ?DeathNotice@CHalfLifeMultiplay@@UAEXPAVCBasePlayer@@PAUentvars_s@@1@Z 1003bc30 f   multiplay_gamerules.obj
 0001:0003aff0       ?DestroyMapCycle@@YAXPAUmapcycle_s@@@Z 1003bff0 f   multiplay_gamerules.obj
 0001:0003b040       ?DisplayMaps@CHalfLifeMultiplay@@QAEXPAVCBasePlayer@@H@Z 1003c040 f   multiplay_gamerules.obj
 0001:0003b1d0       ?EndMultiplayerGame@CHalfLifeMultiplay@@UAEXXZ 1003c1d0 f i multiplay_gamerules.obj
 0001:0003b1e0       ?EndRoundMessage@@YAXPBDH@Z 1003c1e0 f   multiplay_gamerules.obj
 0001:0003b2b0       ?ExtractCommandString@@YAXPAD0@Z 1003c2b0 f   multiplay_gamerules.obj
 0001:0003b3e0       ?FAllowFlashlight@CHalfLifeMultiplay@@UAEHXZ 1003c3e0 f   multiplay_gamerules.obj
 0001:0003b420       ?FAllowMonsters@CHalfLifeMultiplay@@UAEHXZ 1003c420 f   multiplay_gamerules.obj
 0001:0003b460       ?FPlayerCanRespawn@CHalfLifeMultiplay@@UAEHPAVCBasePlayer@@@Z 1003c460 f   multiplay_gamerules.obj
 0001:0003b530       ?FPlayerCanTakeDamage@CHalfLifeMultiplay@@UAEHPAVCBasePlayer@@PAVCBaseEntity@@@Z 1003c530 f   multiplay_gamerules.obj
 0001:0003b590       ?FShouldSwitchWeapon@CHalfLifeMultiplay@@UAEHPAVCBasePlayer@@PAVCBasePlayerItem@@@Z 1003c590 f   multiplay_gamerules.obj
 0001:0003b610       ?FlWeaponRespawnTime@CHalfLifeMultiplay@@UAEMPAVCBasePlayerItem@@@Z 1003c610 f   multiplay_gamerules.obj
 0001:0003b610       ?FlAmmoRespawnTime@CHalfLifeMultiplay@@UAEMPAVCBasePlayerAmmo@@@Z 1003c610 f   multiplay_gamerules.obj
 0001:0003b620       ?FlHEVChargerRechargeTime@CHalfLifeMultiplay@@UAEMXZ 1003c620 f   multiplay_gamerules.obj
 0001:0003b630       ?FlHealthChargerRechargeTime@CHalfLifeMultiplay@@UAEMXZ 1003c630 f   multiplay_gamerules.obj
 0001:0003b640       ?FlItemRespawnTime@CHalfLifeMultiplay@@UAEMPAVCItem@@@Z 1003c640 f   multiplay_gamerules.obj
 0001:0003b650       ?FlPlayerFallDamage@CHalfLifeMultiplay@@UAEMPAVCBasePlayer@@@Z 1003c650 f   multiplay_gamerules.obj
 0001:0003b6a0       ?FlPlayerSpawnTime@CHalfLifeMultiplay@@UAEMPAVCBasePlayer@@@Z 1003c6a0 f   multiplay_gamerules.obj
 0001:0003b6b0       ?FlWeaponTryRespawn@CHalfLifeMultiplay@@UAEMPAVCBasePlayerItem@@@Z 1003c6b0 f   multiplay_gamerules.obj
 0001:0003b710       ?GetGameDescription@CGameRules@@UAEPBDXZ 1003c710 f i multiplay_gamerules.obj
 0001:0003b710       ?GetGameDescription@@YAPBDXZ 1003c710 f i client.obj
 0001:0003b720       ?GetMapCount@@YAHXZ        1003c720 f   multiplay_gamerules.obj
 0001:0003b760       ?GetNextBestWeapon@CHalfLifeMultiplay@@UAEHPAVCBasePlayer@@PAVCBasePlayerItem@@@Z 1003c760 f   multiplay_gamerules.obj
 0001:0003b830       ?GetPlayerSpawnSpot@CHalfLifeMultiplay@@UAEPAUedict_s@@PAVCBasePlayer@@@Z 1003c830 f   multiplay_gamerules.obj
 0001:0003b890       ?GetTeam@@YAPADH@Z         1003c890 f   multiplay_gamerules.obj
 0001:0003b8d0       ?SetDefaultPlayerTeam@CGameRules@@UAEPBDPAVCBasePlayer@@@Z 1003c8d0 f i multiplay_gamerules.obj
 0001:0003b8d0       ?GetIndexedTeamName@CGameRules@@UAEPBDH@Z 1003c8d0 f i multiplay_gamerules.obj
 0001:0003b8d0       ?GetTeamID@CHalfLifeMultiplay@@UAEPBDPAVCBaseEntity@@@Z 1003c8d0 f i multiplay_gamerules.obj
 0001:0003b8e0       ?GetTeamIndex@CGameRules@@UAEHPBD@Z 1003c8e0 f i multiplay_gamerules.obj
 0001:0003b8f0       ?GiveC4@CHalfLifeMultiplay@@UAEXXZ 1003c8f0 f   multiplay_gamerules.obj
 0001:0003bc00       ?GoToIntermission@CHalfLifeMultiplay@@UAEXXZ 1003cc00 f   multiplay_gamerules.obj
 0001:0003bd10       ?HasRoundTimeExpired@CHalfLifeMultiplay@@QAEHXZ 1003cd10 f   multiplay_gamerules.obj
 0001:0003bd50       ?HostageRescueRoundEndCheck@CHalfLifeMultiplay@@QAEHH@Z 1003cd50 f   multiplay_gamerules.obj
 0001:0003be30       ?InitHUD@CHalfLifeMultiplay@@UAEXPAVCBasePlayer@@@Z 1003ce30 f   multiplay_gamerules.obj
 0001:0003c2e0       ?InitializePlayerCounts@CHalfLifeMultiplay@@QAEXAAH000@Z 1003d2e0 f   multiplay_gamerules.obj
 0001:0003c420       ?IsBombPlanted@CHalfLifeMultiplay@@QAEHXZ 1003d420 f   multiplay_gamerules.obj
 0001:0003c450       ?IsCoOp@CHalfLifeMultiplay@@UAEHXZ 1003d450 f   multiplay_gamerules.obj
 0001:0003c460       ?IsFreezePeriod@CGameRules@@UAEHXZ 1003d460 f i multiplay_gamerules.obj
 0001:0003c470       ?IsThereABomb@CHalfLifeMultiplay@@QAEHXZ 1003d470 f   multiplay_gamerules.obj
 0001:0003c4c0       ?IsThereABomber@CHalfLifeMultiplay@@QAEHXZ 1003d4c0 f   multiplay_gamerules.obj
 0001:0003c510       ?IsVIPQueueEmpty@CHalfLifeMultiplay@@QAEHXZ 1003d510 f   multiplay_gamerules.obj
 0001:0003c550       ?IsValidTeam@CGameRules@@UAEHPBD@Z 1003d550 f i multiplay_gamerules.obj
 0001:0003c550       ?FPlayerCanRespawn@CHalfLifeTraining@@UAEHPAVCBasePlayer@@@Z 1003d550 f i training_gamerules.obj
 0001:0003c550       ?IsAllowedToSpawn@CHalfLifeMultiplay@@UAEHPAVCBaseEntity@@@Z 1003d550 f i multiplay_gamerules.obj
 0001:0003c550       ?IsTriggered@CBaseEntity@@UAEHPAV1@@Z 1003d550 f i airtank.obj
 0001:0003c560       ?ItemShouldRespawn@CHalfLifeMultiplay@@UAEHPAVCItem@@@Z 1003d560 f   multiplay_gamerules.obj
 0001:0003c590       ?MP_COM_GetToken@@YAPADXZ  1003d590 f   multiplay_gamerules.obj
 0001:0003c5a0       ?MP_COM_Parse@@YAPADPAD@Z  1003d5a0 f   multiplay_gamerules.obj
 0001:0003c690       ?MP_COM_TokenWaiting@@YAHPAD@Z 1003d690 f   multiplay_gamerules.obj
 0001:0003c6e0       ?MarkLivingPlayersOnTeamAsNotReceivingMoneyNextRound@CHalfLifeMultiplay@@QAEXH@Z 1003d6e0 f   multiplay_gamerules.obj
 0001:0003c770       ?NeededPlayersCheck@CHalfLifeMultiplay@@QAEHAAH@Z 1003d770 f   multiplay_gamerules.obj
 0001:0003c810       ?PickNextVIP@CHalfLifeMultiplay@@QAEXXZ 1003d810 f   multiplay_gamerules.obj
 0001:0003c9d0       ?PlayerKilled@CHalfLifeMultiplay@@UAEXPAVCBasePlayer@@PAUentvars_s@@1@Z 1003d9d0 f   multiplay_gamerules.obj
 0001:0003ce50       ?PlayerRelationship@CHalfLifeMultiplay@@UAEHPAVCBaseEntity@@0@Z 1003de50 f   multiplay_gamerules.obj
 0001:0003ceb0       ?PlayerSpawn@CHalfLifeMultiplay@@UAEXPAVCBasePlayer@@@Z 1003deb0 f   multiplay_gamerules.obj
 0001:0003cf40       ?PlayerThink@CHalfLifeMultiplay@@UAEXPAVCBasePlayer@@@Z 1003df40 f   multiplay_gamerules.obj
 0001:0003d0a0       ?PrisonRoundEndCheck@CHalfLifeMultiplay@@QAEHHHHHH@Z 1003e0a0 f   multiplay_gamerules.obj
 0001:0003d240       ?ProcessMapVote@CHalfLifeMultiplay@@QAEXPAVCBasePlayer@@H@Z 1003e240 f   multiplay_gamerules.obj
 0001:0003d3b0       ?ReadMultiplayCvars@@YAXPAVCHalfLifeMultiplay@@@Z 1003e3b0 f   multiplay_gamerules.obj
 0001:0003d530       ?RefreshSkillData@CHalfLifeMultiplay@@UAEXXZ 1003e530 f   multiplay_gamerules.obj
 0001:0003d570       ?ReloadMapCycleFile@@YAHPADPAUmapcycle_s@@@Z 1003e570 f   multiplay_gamerules.obj
 0001:0003d820       ?RemoveGuns@CHalfLifeMultiplay@@UAEXXZ 1003e820 f   multiplay_gamerules.obj
 0001:0003d8c0       ?ResetAllMapVotes@CHalfLifeMultiplay@@QAEXXZ 1003e8c0 f   multiplay_gamerules.obj
 0001:0003d940       ?ResetCurrentVIP@CHalfLifeMultiplay@@QAEXXZ 1003e940 f   multiplay_gamerules.obj
 0001:0003da20       ?RestartRound@CHalfLifeMultiplay@@UAEXXZ 1003ea20 f   multiplay_gamerules.obj
 0001:0003e160       ?SendMOTDToClient@CHalfLifeMultiplay@@QAEXPAUedict_s@@@Z 1003f160 f   multiplay_gamerules.obj
 0001:0003e290       ?ShouldAutoAim@CGameRules@@UAEHPAVCBasePlayer@@PAUedict_s@@@Z 1003f290 f i multiplay_gamerules.obj
 0001:0003e290       ?CanHaveItem@CHalfLifeMultiplay@@UAEHPAVCBasePlayer@@PAVCItem@@@Z 1003f290 f i multiplay_gamerules.obj
 0001:0003e290       ?IPointsForKill@CHalfLifeMultiplay@@UAEHPAVCBasePlayer@@0@Z 1003f290 f i multiplay_gamerules.obj
 0001:0003e2a0       ?StackVIPQueue@CHalfLifeMultiplay@@QAEXXZ 1003f2a0 f   multiplay_gamerules.obj
 0001:0003e2e0       ?SwapAllPlayers@CHalfLifeMultiplay@@QAEXXZ 1003f2e0 f   multiplay_gamerules.obj
 0001:0003e370       ?TeamExterminationCheck@CHalfLifeMultiplay@@QAEHHHHHH@Z 1003f370 f   multiplay_gamerules.obj
 0001:0003e520       ?TeamFull@CHalfLifeMultiplay@@QAEHH@Z 1003f520 f   multiplay_gamerules.obj
 0001:0003e560       ?TeamStacked@CHalfLifeMultiplay@@QAEHHH@Z 1003f560 f   multiplay_gamerules.obj
 0001:0003e600       ?TerminateRound@CHalfLifeMultiplay@@QAEXMH@Z 1003f600 f   multiplay_gamerules.obj
 0001:0003e640       ?Think@CHalfLifeMultiplay@@UAEXXZ 1003f640 f   multiplay_gamerules.obj
 0001:0003e880       ?UpdateGameMode@CHalfLifeMultiplay@@UAEXPAVCBasePlayer@@@Z 1003f880 f   multiplay_gamerules.obj
 0001:0003e8c0       ?UpdateTeamScores@CHalfLifeMultiplay@@QAEXXZ 1003f8c0 f   multiplay_gamerules.obj
 0001:0003e930       ?VIPRoundEndCheck@CHalfLifeMultiplay@@QAEHH@Z 1003f930 f   multiplay_gamerules.obj
 0001:0003ea70       ?VecItemRespawnSpot@CHalfLifeMultiplay@@UAE?AVVector@@PAVCItem@@@Z 1003fa70 f   multiplay_gamerules.obj
 0001:0003ea70       ?VecAmmoRespawnSpot@CHalfLifeMultiplay@@UAE?AVVector@@PAVCBasePlayerAmmo@@@Z 1003fa70 f   multiplay_gamerules.obj
 0001:0003ea70       ?VecWeaponRespawnSpot@CHalfLifeMultiplay@@UAE?AVVector@@PAVCBasePlayerItem@@@Z 1003fa70 f   multiplay_gamerules.obj
 0001:0003eaa0       ?WeaponShouldRespawn@CHalfLifeMultiplay@@UAEHPAVCBasePlayerItem@@@Z 1003faa0 f   multiplay_gamerules.obj
 0001:0003eac0       ?GetForceCamera@@YAHXZ     1003fac0 f   observer.obj
 0001:0003eb20       ?Observer_CheckProperties@CBasePlayer@@QAEXXZ 1003fb20 f   observer.obj
 0001:0003ee40       ?Observer_CheckTarget@CBasePlayer@@QAEXXZ 1003fe40 f   observer.obj
 0001:0003ef90       ?Observer_FindNextPlayer@CBasePlayer@@QAEX_NPAD@Z 1003ff90 f   observer.obj
 0001:0003f1d0       ?Observer_HandleButtons@CBasePlayer@@QAEXXZ 100401d0 f   observer.obj
 0001:0003f2d0       ?Observer_IsValidTarget@CBasePlayer@@QAEPAVCBaseEntity@@H_N@Z 100402d0 f   observer.obj
 0001:0003f340       ?Observer_SetMode@CBasePlayer@@QAEXH@Z 10040340 f   observer.obj
 0001:0003f540       ?UpdateClientEffects@@YAXPAVCBasePlayer@@H@Z 10040540 f   observer.obj
 0001:0003f7e0       ??$GetClassPtr@VCPathCorner@@@@YAPAVCPathCorner@@PAV0@@Z 100407e0 f i pathcorner.obj
 0001:0003f840       ??$GetClassPtr@VCPathTrack@@@@YAPAVCPathTrack@@PAV0@@Z 10040840 f i pathcorner.obj
 0001:0003f8a0       ?Activate@CPathTrack@@UAEXXZ 100408a0 f   pathcorner.obj
 0001:0003f8c0       ?GetDelay@CPathCorner@@UAEMXZ 100408c0 f i pathcorner.obj
 0001:0003f8d0       ?GetNext@CPathTrack@@QAEPAV1@XZ 100408d0 f   pathcorner.obj
 0001:0003f900       ?GetPrevious@CPathTrack@@QAEPAV1@XZ 10040900 f   pathcorner.obj
 0001:0003f930       ?Instance@CPathTrack@@SAPAV1@PAUedict_s@@@Z 10040930 f   pathcorner.obj
 0001:0003f990       ?KeyValue@CPathCorner@@UAEXPAUKeyValueData_s@@@Z 10040990 f   pathcorner.obj
 0001:0003fa00       ?KeyValue@CPathTrack@@UAEXPAUKeyValueData_s@@@Z 10040a00 f   pathcorner.obj
 0001:0003fa70       ?Link@CPathTrack@@QAEXXZ   10040a70 f   pathcorner.obj
 0001:0003fb50       ?LookAhead@CPathTrack@@QAEPAV1@PAVVector@@MH@Z 10040b50 f   pathcorner.obj
 0001:0003ff80       ?Nearest@CPathTrack@@QAEPAV1@VVector@@@Z 10040f80 f   pathcorner.obj
 0001:00040090       ?Project@CPathTrack@@QAEXPAV1@0PAVVector@@M@Z 10041090 f   pathcorner.obj
 0001:000401b0       ?Restore@CPathCorner@@UAEHAAVCRestore@@@Z 100411b0 f   pathcorner.obj
 0001:000401f0       ?Restore@CPathTrack@@UAEHAAVCRestore@@@Z 100411f0 f   pathcorner.obj
 0001:00040230       ?Save@CPathCorner@@UAEHAAVCSave@@@Z 10041230 f   pathcorner.obj
 0001:00040270       ?Save@CPathTrack@@UAEHAAVCSave@@@Z 10041270 f   pathcorner.obj
 0001:000402b0       ?SetPrevious@CPathTrack@@QAEXPAV1@@Z 100412b0 f   pathcorner.obj
 0001:00040320       ?Spawn@CPathTrack@@UAEXXZ  10041320 f   pathcorner.obj
 0001:00040390       ?Use@CPathTrack@@UAEXPAVCBaseEntity@@0W4USE_TYPE@@M@Z 10041390 f   pathcorner.obj
 0001:00040420       ?ValidPath@CPathTrack@@QAEPAV1@PAV1@H@Z 10041420 f   pathcorner.obj
 0001:00040450       _path_corner               10041450 f   pathcorner.obj
 0001:00040460       _path_track                10041460 f   pathcorner.obj
 0001:00040470       ?GetCurTime@CPerformanceCounter@@QAEMXZ 10041470 f   perf_counter.obj
 0001:00040560       ?InitializePerformanceCounter@CPerformanceCounter@@QAEXXZ 10041560 f   perf_counter.obj
 0001:000405e0       ??$GetClassPtr@VCFuncPlat@@@@YAPAVCFuncPlat@@PAV0@@Z 100415e0 f i plats.obj
 0001:00040650       ??$GetClassPtr@VCFuncPlatRot@@@@YAPAVCFuncPlatRot@@PAV0@@Z 10041650 f i plats.obj
 0001:000406b0       ??$GetClassPtr@VCFuncTrackAuto@@@@YAPAVCFuncTrackAuto@@PAV0@@Z 100416b0 f i plats.obj
 0001:00040760       ??$GetClassPtr@VCFuncTrackChange@@@@YAPAVCFuncTrackChange@@PAV0@@Z 10041760 f i plats.obj
 0001:000407c0       ??$GetClassPtr@VCFuncTrackTrain@@@@YAPAVCFuncTrackTrain@@PAV0@@Z 100417c0 f i plats.obj
 0001:00040860       ??$GetClassPtr@VCFuncTrain@@@@YAPAVCFuncTrain@@PAV0@@Z 10041860 f i plats.obj
 0001:000408f0       ??$GetClassPtr@VCFuncTrainControls@@@@YAPAVCFuncTrainControls@@PAV0@@Z 100418f0 f i plats.obj
 0001:00040950       ??$GetClassPtr@VCGunTarget@@@@YAPAVCGunTarget@@PAV0@@Z 10041950 f i plats.obj
 0001:00040a00       ??$GetClassPtr@VCPlatTrigger@@@@YAPAVCPlatTrigger@@PAV0@@Z 10041a00 f i plats.obj
 0001:00040a60       ??0CFuncPlatRot@@QAE@XZ    10041a60 f i plats.obj
 0001:00040ab0       ??0CFuncTrackChange@@QAE@XZ 10041ab0 f i plats.obj
 0001:00040b00       ?Activate@CFuncTrain@@UAEXXZ 10041b00 f   plats.obj
 0001:00040c30       ?Activate@CGunTarget@@UAEXXZ 10041c30 f   plats.obj
 0001:00040ce0       ?Blocked@CFuncPlat@@UAEXPAVCBaseEntity@@@Z 10041ce0 f   plats.obj
 0001:00040da0       ?Blocked@CFuncTrackTrain@@UAEXPAVCBaseEntity@@@Z 10041da0 f   plats.obj
 0001:00040f80       ?Blocked@CFuncTrain@@UAEXPAVCBaseEntity@@@Z 10041f80 f   plats.obj
 0001:00040fe0       ?BodyTarget@CGunTarget@@UAE?AVVector@@ABV2@@Z 10041fe0 f i plats.obj
 0001:00041000       ?CallGoDown@CFuncPlat@@QAEXXZ 10042000 f i plats.obj
 0001:00041010       ?CallHitBottom@CFuncPlat@@QAEXXZ 10042010 f i plats.obj
 0001:00041020       ?CallHitTop@CFuncPlat@@QAEXXZ 10042020 f i plats.obj
 0001:00041030       ?DeadEnd@CFuncTrackTrain@@QAEXXZ 10042030 f   plats.obj
 0001:00041150       ?EvaluateTrain@CFuncTrackChange@@QAE?AW4TRAIN_CODE@@PAVCPathTrack@@@Z 10042150 f   plats.obj
 0001:00041240       ?Find@CFuncTrackChange@@QAEXXZ 10042240 f   plats.obj
 0001:000414e0       ?Find@CFuncTrackTrain@@QAEXXZ 100424e0 f   plats.obj
 0001:000416e0       ?Find@CFuncTrainControls@@QAEXXZ 100426e0 f   plats.obj
 0001:00041820       ?GoDown@CFuncPlat@@UAEXXZ  10042820 f   plats.obj
 0001:000418d0       ?GoDown@CFuncPlatRot@@UAEXXZ 100428d0 f   plats.obj
 0001:00041910       ?GoDown@CFuncTrackChange@@UAEXXZ 10042910 f   plats.obj
 0001:000419f0       ?GoUp@CFuncPlat@@UAEXXZ    100429f0 f   plats.obj
 0001:00041aa0       ?GoUp@CFuncPlatRot@@UAEXXZ 10042aa0 f   plats.obj
 0001:00041ae0       ?GoUp@CFuncTrackChange@@UAEXXZ 10042ae0 f   plats.obj
 0001:00041bc0       ?HitBottom@CFuncPlat@@UAEXXZ 10042bc0 f   plats.obj
 0001:00041c60       ?HitBottom@CFuncPlatRot@@UAEXXZ 10042c60 f   plats.obj
 0001:00041ca0       ?HitBottom@CFuncTrackChange@@UAEXXZ 10042ca0 f   plats.obj
 0001:00041d30       ?HitTop@CFuncPlat@@UAEXXZ  10042d30 f   plats.obj
 0001:00041e00       ?HitTop@CFuncPlatRot@@UAEXXZ 10042e00 f   plats.obj
 0001:00041e40       ?HitTop@CFuncTrackChange@@UAEXXZ 10042e40 f   plats.obj
 0001:00041ed0       ?Instance@CFuncTrackTrain@@SAPAV1@PAUedict_s@@@Z 10042ed0 f   plats.obj
 0001:00041f30       ?KeyValue@CBasePlatTrain@@UAEXPAUKeyValueData_s@@@Z 10042f30 f   plats.obj
 0001:00042100       ?KeyValue@CFuncTrackChange@@UAEXPAUKeyValueData_s@@@Z 10043100 f   plats.obj
 0001:00042210       ?KeyValue@CFuncTrackTrain@@UAEXPAUKeyValueData_s@@@Z 10043210 f   plats.obj
 0001:000423d0       ?KeyValue@CFuncTrain@@UAEXPAUKeyValueData_s@@@Z 100433d0 f   plats.obj
 0001:00042440       ?NearestPath@CFuncTrackTrain@@QAEXXZ 10043440 f   plats.obj
 0001:000426d0       ?Next@CFuncTrackTrain@@QAEXXZ 100436d0 f   plats.obj
 0001:00042d00       ?Next@CFuncTrain@@QAEXXZ   10043d00 f   plats.obj
 0001:00043030       ?Next@CGunTarget@@QAEXXZ   10044030 f   plats.obj
 0001:00043110       ?NextThink@CFuncTrackTrain@@QAEXMH@Z 10044110 f   plats.obj
 0001:00043110       ?NextThink@CFuncVehicle@@QAEXMH@Z 10044110 f   vehicle.obj
 0001:00043160       ?OnControls@CFuncTrackTrain@@UAEHPAUentvars_s@@@Z 10044160 f   plats.obj
 0001:00043290       ?OverrideReset@CFuncTrackChange@@UAEXXZ 10044290 f   plats.obj
 0001:000432c0       ?OverrideReset@CFuncTrackTrain@@UAEXXZ 100442c0 f   plats.obj
 0001:00043300       ?OverrideReset@CFuncTrain@@UAEXXZ 10044300 f   plats.obj
 0001:000433f0       ?PlatUse@CFuncPlat@@QAEXPAVCBaseEntity@@0W4USE_TYPE@@M@Z 100443f0 f   plats.obj
 0001:00043470       ?Precache@CBasePlatTrain@@UAEXXZ 10044470 f   plats.obj
 0001:000437b0       ?Precache@CFuncPlat@@UAEXXZ 100447b0 f   plats.obj
 0001:000437d0       ?Precache@CFuncTrackChange@@UAEXXZ 100447d0 f   plats.obj
 0001:000437f0       ?Precache@CFuncTrackTrain@@UAEXXZ 100447f0 f   plats.obj
 0001:00043980       ?Precache@CFuncTrain@@UAEXXZ 10044980 f   plats.obj
 0001:00043990       ?Restart@CFuncTrackTrain@@UAEXXZ 10044990 f   plats.obj
 0001:00043a70       ?Restart@CFuncTrain@@UAEXXZ 10044a70 f   plats.obj
 0001:00043b10       ?Restore@CBasePlatTrain@@UAEHAAVCRestore@@@Z 10044b10 f   plats.obj
 0001:00043b50       ?Restore@CFuncPlatRot@@UAEHAAVCRestore@@@Z 10044b50 f   plats.obj
 0001:00043b90       ?Restore@CFuncTrackChange@@UAEHAAVCRestore@@@Z 10044b90 f   plats.obj
 0001:00043bd0       ?Restore@CFuncTrackTrain@@UAEHAAVCRestore@@@Z 10044bd0 f   plats.obj
 0001:00043c10       ?Restore@CFuncTrain@@UAEHAAVCRestore@@@Z 10044c10 f   plats.obj
 0001:00043c50       ?Restore@CGunTarget@@UAEHAAVCRestore@@@Z 10044c50 f   plats.obj
 0001:00043c90       ?RotMove@CFuncPlatRot@@QAEXAAVVector@@M@Z 10044c90 f   plats.obj
 0001:00043d30       ?STOP_SOUND@@YAXPAUedict_s@@HPBD@Z 10044d30 f i plats.obj
 0001:00043d60       ?Save@CBasePlatTrain@@UAEHAAVCSave@@@Z 10044d60 f   plats.obj
 0001:00043da0       ?Save@CFuncPlatRot@@UAEHAAVCSave@@@Z 10044da0 f   plats.obj
 0001:00043de0       ?Save@CFuncTrackChange@@UAEHAAVCSave@@@Z 10044de0 f   plats.obj
 0001:00043e20       ?Save@CFuncTrackTrain@@UAEHAAVCSave@@@Z 10044e20 f   plats.obj
 0001:00043e60       ?Save@CFuncTrain@@UAEHAAVCSave@@@Z 10044e60 f   plats.obj
 0001:00043ea0       ?Save@CGunTarget@@UAEHAAVCSave@@@Z 10044ea0 f   plats.obj
 0001:00043ee0       ?SetControls@CFuncTrackTrain@@QAEXPAUentvars_s@@@Z 10044ee0 f   plats.obj
 0001:00043f90       ?Setup@CFuncPlat@@QAEXXZ   10044f90 f   plats.obj
 0001:000440f0       ?SetupRotation@CFuncPlatRot@@QAEXXZ 100450f0 f   plats.obj
 0001:000441f0       ?Spawn@CFuncPlat@@UAEXXZ   100451f0 f   plats.obj
 0001:00044250       ?Spawn@CFuncPlatRot@@UAEXXZ 10045250 f   plats.obj
 0001:00044260       ?Spawn@CFuncTrackChange@@UAEXXZ 10045260 f   plats.obj
 0001:00044340       ?Spawn@CFuncTrackTrain@@UAEXXZ 10045340 f   plats.obj
 0001:00044510       ?Spawn@CFuncTrain@@UAEXXZ  10045510 f   plats.obj
 0001:00044630       ?Spawn@CFuncTrainControls@@UAEXXZ 10045630 f   plats.obj
 0001:000446b0       ?Spawn@CGunTarget@@UAEXXZ  100456b0 f   plats.obj
 0001:00044790       ?SpawnInsideTrigger@CPlatTrigger@@QAEXPAVCFuncPlat@@@Z 10045790 f   plats.obj
 0001:00044910       ?Start@CGunTarget@@QAEXXZ  10045910 f   plats.obj
 0001:00044930       ?Stop@CGunTarget@@QAEXXZ   10045930 f   plats.obj
 0001:00044970       ?StopSound@CFuncTrackTrain@@QAEXXZ 10045970 f   plats.obj
 0001:000449f0       ?TakeDamage@CGunTarget@@UAEHPAUentvars_s@@0MH@Z 100459f0 f   plats.obj
 0001:00044a70       ?InitHUD@CHalfLifeTraining@@UAEXPAVCBasePlayer@@@Z 10045a70 f   training_gamerules.obj
 0001:00044a70       ?C4Touch@CGrenade@@QAEXPAVCBaseEntity@@@Z 10045a70 f   voice_gamemgr.obj
 0001:00044a70       ?UpdateLocation@CBasePlayer@@QAEX_N@Z 10045a70 f   player.obj
 0001:00044a70       ?Touch@CFuncTrackChange@@UAEXPAVCBaseEntity@@@Z 10045a70 f   plats.obj
 0001:00044a70       ?OnTouchingWeapon@CBasePlayer@@UAEXPAVCBasePlayerWeapon@@@Z 10045a70 f   client.obj
 0001:00044a70       ?SetToggleState@CBaseEntity@@UAEXH@Z 10045a70 f   airtank.obj
 0001:00044a70       ?DeathNotice@CBaseEntity@@UAEXPAUentvars_s@@@Z 10045a70 f   airtank.obj
 0001:00044a70       ?HandleAnimEvent@CBaseAnimating@@UAEXPAUMonsterEvent_t@@@Z 10045a70 f   airtank.obj
 0001:00044a70       ?ShowNodeConnections@CGraph@@QAEXH@Z 10045a70 f   mpstubb.obj
 0001:00044a80       ?Touch@CPlatTrigger@@UAEXPAVCBaseEntity@@@Z 10045a80 f   plats.obj
 0001:00044b20       ?UpdateAutoTargets@CFuncTrackAuto@@UAEXH@Z 10045b20 f   plats.obj
 0001:00044bd0       ?UpdateAutoTargets@CFuncTrackChange@@UAEXH@Z 10045bd0 f   plats.obj
 0001:00044c30       ?UpdateSound@CFuncTrackTrain@@QAEXXZ 10045c30 f   plats.obj
 0001:00044da0       ?UpdateTrain@CFuncTrackChange@@QAEXAAVVector@@@Z 10045da0 f   plats.obj
 0001:00044f90       ?Use@CFuncTrackAuto@@UAEXPAVCBaseEntity@@0W4USE_TYPE@@M@Z 10045f90 f   plats.obj
 0001:000450c0       ?Use@CFuncTrackChange@@UAEXPAVCBaseEntity@@0W4USE_TYPE@@M@Z 100460c0 f   plats.obj
 0001:00045150       ?Use@CFuncTrackTrain@@UAEXPAVCBaseEntity@@0W4USE_TYPE@@M@Z 10046150 f   plats.obj
 0001:000452f0       ?Use@CFuncTrain@@UAEXPAVCBaseEntity@@0W4USE_TYPE@@M@Z 100462f0 f   plats.obj
 0001:000453b0       ?Use@CGunTarget@@UAEXPAVCBaseEntity@@0W4USE_TYPE@@M@Z 100463b0 f   plats.obj
 0001:00045430       ?Wait@CFuncTrain@@QAEXXZ   10046430 f   plats.obj
 0001:00045600       ?Wait@CGunTarget@@QAEXXZ   10046600 f   plats.obj
 0001:000456d0       _func_guntarget            100466d0 f   plats.obj
 0001:000456e0       _func_plat                 100466e0 f   plats.obj
 0001:000456f0       _func_platrot              100466f0 f   plats.obj
 0001:00045700       _func_trackautochange      10046700 f   plats.obj
 0001:00045710       _func_trackchange          10046710 f   plats.obj
 0001:00045720       _func_tracktrain           10046720 f   plats.obj
 0001:00045730       _func_train                10046730 f   plats.obj
 0001:00045740       _func_traincontrols        10046740 f   plats.obj
 0001:00045750       ??$GetClassPtr@VCBloodSplat@@@@YAPAVCBloodSplat@@PAV0@@Z 10046750 f i player.obj
 0001:000457b0       ??$GetClassPtr@VCDeadHEV@@@@YAPAVCDeadHEV@@PAV0@@Z 100467b0 f i player.obj
 0001:00045820       ??$GetClassPtr@VCInfoIntermission@@@@YAPAVCInfoIntermission@@PAV0@@Z 10046820 f i player.obj
 0001:00045880       ??$GetClassPtr@VCRevertSaved@@@@YAPAVCRevertSaved@@PAV0@@Z 10046880 f i player.obj
 0001:000458e0       ??$GetClassPtr@VCSprayCan@@@@YAPAVCSprayCan@@PAV0@@Z 100468e0 f i player.obj
 0001:00045940       ??$GetClassPtr@VCStripWeapons@@@@YAPAVCStripWeapons@@PAV0@@Z 10046940 f i player.obj
 0001:000459a0       ??$GetClassPtr@VCWShield@@@@YAPAVCWShield@@PAV0@@Z 100469a0 f i player.obj
 0001:00045a00       ??9Vector@@QBEHABV0@@Z     10046a00 f i player.obj
 0001:00045a40       ?AddAccount@CBasePlayer@@QAEXH_N@Z 10046a40 f   player.obj
 0001:00045ac0       ?AddAutoBuyData@CBasePlayer@@QAEXPBD@Z 10046ac0 f   player.obj
 0001:00045b10       ?AddPlayerItem@CBasePlayer@@UAEHPAVCBasePlayerItem@@@Z 10046b10 f   player.obj
 0001:00045cb0       ?AddPoints@CBasePlayer@@UAEXHH@Z 10046cb0 f   player.obj
 0001:00045d80       ?AddPointsToTeam@CBasePlayer@@UAEXHH@Z 10046d80 f   player.obj
 0001:00045e10       ?AmmoInventory@CBasePlayer@@QAEHH@Z 10046e10 f   player.obj
 0001:00045e30       ?AutoBuy@CBasePlayer@@QAEXXZ 10046e30 f   player.obj
 0001:00045e60       ?AutoaimDeflection@CBasePlayer@@QAE?AVVector@@AAV2@MM@Z 10046e60 f   player.obj
 0001:00045ea0       ?Blind@CBasePlayer@@UAEXMMMH@Z 10046ea0 f   player.obj
 0001:00045f00       ?BufPrintf@@YAPADPADAAHPBDZZ 10046f00 f   player.obj
 0001:00045f70       ?BuildRebuyStruct@CBasePlayer@@QAEXXZ 10046f70 f   player.obj
 0001:000460c0       ?BuyAliasToWeaponID@@YAPBDPBDAAH@Z 100470c0 f   player.obj
 0001:00046130       ?CalculatePitchBlend@CBasePlayer@@QAEXXZ 10047130 f   player.obj
 0001:000461b0       ?CalculateYawBlend@CBasePlayer@@QAEXXZ 100471b0 f   player.obj
 0001:000462a0       ?CanPlayerBuy@CBasePlayer@@QAE_N_N@Z 100472a0 f   player.obj
 0001:00046440       ?CanSwitchObserverModes@CBasePlayer@@QAEHXZ 10047440 f   player.obj
 0001:00046450       ?CheatImpulseCommands@CBasePlayer@@QAEXH@Z 10047450 f   player.obj
 0001:00046af0       ?CheckPowerups@CBasePlayer@@QAEXPAUentvars_s@@@Z 10047af0 f   player.obj
 0001:00046b20       ?CheckSuitUpdate@CBasePlayer@@QAEXXZ 10047b20 f   player.obj
 0001:00046c50       ?CheckTimeBasedDamage@CBasePlayer@@QAEXXZ 10047c50 f   player.obj
 0001:00046dd0       ?ClearAutoBuyData@CBasePlayer@@QAEXXZ 10047dd0 f   player.obj
 0001:00046de0       ?ClientCommand@CBasePlayer@@QAEXPBD000@Z 10047de0 f   player.obj
 0001:00046e30       ?DeathSound@CBasePlayer@@QAEXXZ 10047e30 f   player.obj
 0001:00046ef0       ?Disappear@CBasePlayer@@QAEXXZ 10047ef0 f   player.obj
 0001:000471b0       ?DrawnShiled@CBasePlayer@@QAEXXZ 100481b0 f   player.obj
 0001:000471e0       ?DropPlayerItem@CBasePlayer@@QAEXPBD@Z 100481e0 f   player.obj
 0001:00047700       ?DropShield@CBasePlayer@@QAEX_N@Z 10048700 f   player.obj
 0001:000478d0       ?Duck@CBasePlayer@@UAEXXZ  100488d0 f   player.obj
 0001:000478f0       ?EnableControl@CBasePlayer@@QAEXH@Z 100488f0 f   player.obj
 0001:00047920       ?EntSelectSpawnPoint@@YAPAUedict_s@@PAVCBaseEntity@@@Z 10048920 f   player.obj
 0001:00047b50       ?EnterEscapeZone@CBasePlayer@@QAEXXZ 10048b50 f   player.obj
 0001:00047be0       ?EnterVIPSafetyZone@CBasePlayer@@QAEXXZ 10048be0 f   player.obj
 0001:00047ca0       ?FBecomeProne@CBasePlayer@@UAEHXZ 10048ca0 f   player.obj
 0001:00047cb0       ?FNullEnt@@YAHPAVCBaseEntity@@@Z 10048cb0 f i player.obj
 0001:00047ce0       ?FindEntityForward@@YAPAVCBaseEntity@@PAV1@@Z 10048ce0 f   player.obj
 0001:00047e10       ?FlashlightIsOn@CBasePlayer@@QAEHXZ 10048e10 f   player.obj
 0001:00047e20       ?FlashlightTurnOff@CBasePlayer@@QAEXXZ 10048e20 f   player.obj
 0001:00047eb0       ?FlashlightTurnOn@CBasePlayer@@QAEXXZ 10048eb0 f   player.obj
 0001:00047f60       ?ForceClientDllUpdate@CBasePlayer@@QAEXXZ 10048f60 f   player.obj
 0001:00047fb0       ?GetAmmoIndex@CBasePlayer@@SAHPBD@Z 10048fb0 f   player.obj
 0001:00048000       ?GetAutoBuyCommandInfo@CBasePlayer@@QAEPAUAutoBuyInfoStruct@@PBD@Z 10049000 f   player.obj
 0001:00048040       ?GetAutoaimVector@CBasePlayer@@UAE?AVVector@@M@Z 10049040 f   player.obj
 0001:00048340       ?GetCSModelName@@YAPBDH@Z  10049340 f   player.obj
 0001:00048590       ?GetCustomDecalFrames@CBasePlayer@@QAEHXZ 10049590 f   player.obj
 0001:000485a0       ?GetPlayerGaitsequence@@YAHPBUedict_s@@@Z 100495a0 f   player.obj
 0001:000485e0       ?GetPlayerPitch@@YAMPBUedict_s@@@Z 100495e0 f   player.obj
 0001:00048620       ?GetPlayerYaw@@YAMPBUedict_s@@@Z 10049620 f   player.obj
 0001:00048660       ?GetWeaponInfo@@YAPAUWeaponInfoStruct@@H@Z 10049660 f   player.obj
 0001:00048690       ?GetWeaponName@@YAPBDPAUentvars_s@@0@Z 10049690 f   player.obj
 0001:00048770       ?GiveAmmo@CBasePlayer@@UAEHHPADH@Z 10049770 f   player.obj
 0001:00048840       ?GiveDefaultItems@CBasePlayer@@QAEXXZ 10049840 f   player.obj
 0001:000488d0       ?GiveNamedItem@CBasePlayer@@QAEXPBD@Z 100498d0 f   player.obj
 0001:00048960       ?GiveShield@CBasePlayer@@QAEX_N@Z 10049960 f   player.obj
 0001:000489d0       ?HandleSignals@CBasePlayer@@QAEXXZ 100499d0 f   player.obj
 0001:00048e60       ?HasNamedPlayerItem@CBasePlayer@@QAEHPBD@Z 10049e60 f   player.obj
 0001:00048ef0       ?HasPlayerItem@CBasePlayer@@QAEHPAVCBasePlayerItem@@@Z 10049ef0 f   player.obj
 0001:00048f80       ?HasShield@CBasePlayer@@QAE_NXZ 10049f80 f   player.obj
 0001:00048f90       ?HasWeapons@CBasePlayer@@QAEHXZ 10049f90 f   player.obj
 0001:00048fb0       ?HintMessage@CBasePlayer@@QAE_NPBDHH@Z 10049fb0 f   player.obj
 0001:00049010       ?HostageUsed@CBasePlayer@@QAEXXZ 1004a010 f   player.obj
 0001:00049060       ?Illumination@CBasePlayer@@UAEHXZ 1004a060 f   player.obj
 0001:00049090       ?ImpulseCommands@CBasePlayer@@UAEXXZ 1004a090 f   player.obj
 0001:000492f0       ?InitRebuyData@CBasePlayer@@QAEXPBD@Z 1004a2f0 f   player.obj
 0001:00049380       ?InitStatusBar@CBasePlayer@@QAEXXZ 1004a380 f   player.obj
 0001:000493a0       ?IsArmored@CBasePlayer@@QAEHH@Z 1004a3a0 f   player.obj
 0001:000493f0       ?IsBombGuy@CBasePlayer@@QAEHXZ 1004a3f0 f   player.obj
 0001:00049410       ?IsHittingShield@CBasePlayer@@QAE_NABVVector@@PAUTraceResult@@@Z 1004a410 f   player.obj
 0001:00049450       ?IsObservingPlayer@CBasePlayer@@QAE_NPAV1@@Z 1004a450 f   player.obj
 0001:000494d0       ?IsProtectedByShield@CBasePlayer@@QAE_NXZ 1004a4d0 f   player.obj
 0001:000494f0       ?IsReloading@CBasePlayer@@QAE_NXZ 1004a4f0 f   player.obj
 0001:00049510       ?IsSpawnPointValid@@YAHPAVCBaseEntity@@0@Z 1004a510 f   player.obj
 0001:000495a0       ?IsThrowingGrenade@CBasePlayer@@QAE_NXZ 1004a5a0 f   player.obj
 0001:000495d0       ?ItemPostFrame@CBasePlayer@@QAEXXZ 1004a5d0 f   player.obj
 0001:00049650       ?ItemPreFrame@CBasePlayer@@QAEXXZ 1004a650 f   player.obj
 0001:00049680       ?JoiningThink@CBasePlayer@@QAEXXZ 1004a680 f   player.obj
 0001:00049a50       ?Jump@CBasePlayer@@UAEXXZ  1004aa50 f   player.obj
 0001:00049c10       ?KeyValue@CDeadHEV@@UAEXPAUKeyValueData_s@@@Z 1004ac10 f   player.obj
 0001:00049c80       ?KeyValue@CRevertSaved@@UAEXPAUKeyValueData_s@@@Z 1004ac80 f   player.obj
 0001:00049e00       ?Killed@CBasePlayer@@UAEXPAUentvars_s@@H@Z 1004ae00 f   player.obj
 0001:0004a870       ?LeaveEscapeZone@CBasePlayer@@QAEXXZ 1004b870 f   player.obj
 0001:0004a900       ?LeaveVIPSafetyZone@CBasePlayer@@QAEXXZ 1004b900 f   player.obj
 0001:0004a990       ?LinkUserMessages@@YAXXZ   1004b990 f   player.obj
 0001:0004af60       ?LoadThink@CRevertSaved@@QAEXXZ 1004bf60 f   player.obj
 0001:0004af90       ?LogAttack@@YAXPAVCBasePlayer@@0HHHHHPBD@Z 1004bf90 f   player.obj
 0001:0004b080       ?MakeVIP@CBasePlayer@@QAEXXZ 1004c080 f   player.obj
 0001:0004b150       ?MenuPrint@CBasePlayer@@QAEXPBD@Z 1004c150 f   player.obj
 0001:0004b230       ?MessageThink@CRevertSaved@@QAEXXZ 1004c230 f   player.obj
 0001:0004b290       ?MoveToNextIntroCamera@CBasePlayer@@QAEXXZ 1004c290 f   player.obj
 0001:0004b4b0       ?NumAsString@@YAPADH@Z     1004c4b0 f   player.obj
 0001:0004b500       ?PackDeadPlayerItems@CBasePlayer@@QAEXXZ 1004c500 f   player.obj
 0001:0004b610       ?Pain@CBasePlayer@@QAEXH_N@Z 1004c610 f   player.obj
 0001:0004b7a0       ?ParseAutoBuyString@CBasePlayer@@QAEXPBDAA_N1@Z 1004c7a0 f   player.obj
 0001:0004b880       ?PlayerDeathThink@CBasePlayer@@QAEXXZ 1004c880 f   player.obj
 0001:0004bb80       ?PlayerUse@CBasePlayer@@QAEXXZ 1004cb80 f   player.obj
 0001:0004bfb0       ?PostAutoBuyCommandProcessing@CBasePlayer@@QAEXPBUAutoBuyInfoStruct@@AA_N1@Z 1004cfb0 f   player.obj
 0001:0004c040       ?PostThink@CBasePlayer@@UAEXXZ 1004d040 f   player.obj
 0001:0004c420       ?PreThink@CBasePlayer@@UAEXXZ 1004d420 f   player.obj
 0001:0004cad0       ?Precache@CBasePlayer@@UAEXXZ 1004dad0 f   player.obj
 0001:0004cb70       ?Radio@CBasePlayer@@QAEXPBD0H_N@Z 1004db70 f   player.obj
 0001:0004cda0       ?Rebuy@CBasePlayer@@QAEXXZ 1004dda0 f   player.obj
 0001:0004cf10       ?RebuyArmor@CBasePlayer@@QAEXXZ 1004df10 f   player.obj
 0001:0004cf50       ?RebuyDefuser@CBasePlayer@@QAEXXZ 1004df50 f   player.obj
 0001:0004cf80       ?RebuyFlashbang@CBasePlayer@@QAEXXZ 1004df80 f   player.obj
 0001:0004cfd0       ?RebuyHEGrenade@CBasePlayer@@QAEXXZ 1004dfd0 f   player.obj
 0001:0004d020       ?RebuyNightVision@CBasePlayer@@QAEXXZ 1004e020 f   player.obj
 0001:0004d050       ?RebuyPrimaryAmmo@CBasePlayer@@QAEXXZ 1004e050 f   player.obj
 0001:0004d080       ?RebuyPrimaryWeapon@CBasePlayer@@QAEXXZ 1004e080 f   player.obj
 0001:0004d0c0       ?RebuySecondaryAmmo@CBasePlayer@@QAEXXZ 1004e0c0 f   player.obj
 0001:0004d0f0       ?RebuySecondaryWeapon@CBasePlayer@@QAEXXZ 1004e0f0 f   player.obj
 0001:0004d130       ?RebuySmokeGrenade@CBasePlayer@@QAEXXZ 1004e130 f   player.obj
 0001:0004d180       ?RemoveAllItems@CBasePlayer@@QAEXH@Z 1004e180 f   player.obj
 0001:0004d3a0       ?RemoveLevelText@CBasePlayer@@QAEXXZ 1004e3a0 f   player.obj
 0001:0004d3b0       ?RemovePlayerItem@CBasePlayer@@UAEHPAVCBasePlayerItem@@@Z 1004e3b0 f   player.obj
 0001:0004d480       ?RemoveShield@CBasePlayer@@QAEXXZ 1004e480 f   player.obj
 0001:0004d4c0       ?ResetAutoaim@CBasePlayer@@QAEXXZ 1004e4c0 f   player.obj
 0001:0004d540       ?ResetMaxSpeed@CBasePlayer@@UAEXXZ 1004e540 f   player.obj
 0001:0004d5e0       ?ResetMenu@CBasePlayer@@QAEXXZ 1004e5e0 f   player.obj
 0001:0004d630       ?ResetStamina@CBasePlayer@@QAEXXZ 1004e630 f   player.obj
 0001:0004d660       ?Restart@CBasePlayer@@UAEXXZ 1004e660 f   player.obj
 0001:0004d740       ?Restore@CBasePlayer@@UAEHAAVCRestore@@@Z 1004e740 f   player.obj
 0001:0004d8f0       ?Restore@CRevertSaved@@UAEHAAVCRestore@@@Z 1004e8f0 f   player.obj
 0001:0004d930       ?RoundRespawn@CBasePlayer@@UAEXXZ 1004e930 f   player.obj
 0001:0004d9f0       ?Save@CBasePlayer@@UAEHAAVCSave@@@Z 1004e9f0 f   player.obj
 0001:0004da30       ?Save@CRevertSaved@@UAEHAAVCSave@@@Z 1004ea30 f   player.obj
 0001:0004da70       ?SelectItem@CBasePlayer@@QAEXPBD@Z 1004ea70 f   player.obj
 0001:0004db90       ?SelectLastItem@CBasePlayer@@QAEXXZ 1004eb90 f   player.obj
 0001:0004dc80       ?SelectSpawnSpot@@YA_NPAVCBaseEntity@@PBDAAPAV1@@Z 1004ec80 f   player.obj
 0001:0004de40       ?SendAmmoUpdate@CBasePlayer@@QAEXXZ 1004ee40 f   player.obj
 0001:0004dec0       ?SendFOV@CBasePlayer@@QAEXH@Z 1004eec0 f   player.obj
 0001:0004df20       ?SendHostagePos@CBasePlayer@@QAEXXZ 1004ef20 f   player.obj
 0001:0004dfd0       ?SendItemStatus@@YAXPAVCBasePlayer@@@Z 1004efd0 f   player.obj
 0001:0004e030       ?SendWeatherInfo@CBasePlayer@@QAEXXZ 1004f030 f   player.obj
 0001:0004e0e0       ?SetAnimation@CBasePlayer@@QAEXW4PLAYER_ANIM@@@Z 1004f0e0 f   player.obj
 0001:0004efc0       ?SetBombIcon@CBasePlayer@@QAEXH@Z 1004ffc0 f   player.obj
 0001:0004f070       ?SetCantBePickedUpByUser@CWShield@@QAEXPAVCBaseEntity@@M@Z 10050070 f   player.obj
 0001:0004f0a0       ?SetCustomDecalFrames@CBasePlayer@@QAEXH@Z 100500a0 f   player.obj
 0001:0004f0c0       ?SetNewPlayerModel@CBasePlayer@@QAEXPBD@Z 100500c0 f   player.obj
 0001:0004f0f0       ?SetObserverAutoDirector@CBasePlayer@@QAEX_N@Z 100500f0 f   player.obj
 0001:0004f100       ?SetPlayerModel@CBasePlayer@@QAEXH@Z 10050100 f   player.obj
 0001:0004f210       ?SetPrefsFromUserinfo@CBasePlayer@@QAEXPAD@Z 10050210 f   player.obj
 0001:0004f350       ?SetProgressBarTime2@CBasePlayer@@QAEXHM@Z 10050350 f   player.obj
 0001:0004f4c0       ?SetProgressBarTime@CBasePlayer@@QAEXH@Z 100504c0 f   player.obj
 0001:0004f5e0       ?SetScoreAttrib@CBasePlayer@@QAEXPAV1@@Z 100505e0 f   player.obj
 0001:0004f680       ?SetScoreboardAttributes@CBasePlayer@@QAEXPAV1@@Z 10050680 f   player.obj
 0001:0004f700       ?SetSuitUpdate@CBasePlayer@@QAEXPADHH@Z 10050700 f   player.obj
 0001:0004f700       ?PlayerGotAmmo@CHalfLifeMultiplay@@UAEXPAVCBasePlayer@@PADH@Z 10050700 f   multiplay_gamerules.obj
 0001:0004f700       ?MakeIdealYaw@CBaseMonster@@QAEXVVector@@@Z 10050700 f   mpstubb.obj
 0001:0004f710       ?ShouldDoLargeFlinch@CBasePlayer@@QAEHHH@Z 10050710 f   player.obj
 0001:0004f780       ?ShouldExecuteAutoBuyCommand@CBasePlayer@@QAE_NPBUAutoBuyInfoStruct@@_N1@Z 10050780 f   player.obj
 0001:0004f7d0       ?Spawn@CBasePlayer@@UAEXXZ 100507d0 f   player.obj
 0001:00050340       ?Spawn@CBloodSplat@@QAEXPAUentvars_s@@@Z 10051340 f   player.obj
 0001:000503e0       ?Spawn@CDeadHEV@@UAEXXZ    100513e0 f   player.obj
 0001:000504b0       ?Spawn@CInfoIntermission@@UAEXXZ 100514b0 f   player.obj
 0001:00050520       ?Spawn@CSprayCan@@QAEXPAUentvars_s@@@Z 10051520 f   player.obj
 0001:000505f0       ?Spawn@CWShield@@UAEXXZ    100515f0 f   player.obj
 0001:00050640       ?SpawnClientSideCorpse@CBasePlayer@@QAEXXZ 10051640 f   player.obj
 0001:00050760       ?Spray@CBloodSplat@@QAEXXZ 10051760 f   player.obj
 0001:00050860       ?StartObserver@CBasePlayer@@QAEXVVector@@0@Z 10051860 f   player.obj
 0001:00050a90       ?StopReload@CBasePlayer@@QAEXXZ 10051a90 f   player.obj
 0001:00050ab0       ?StudioEstimateGait@CBasePlayer@@QAEXXZ 10051ab0 f   player.obj
 0001:00050d70       ?StudioProcessGait@CBasePlayer@@QAEXXZ 10051d70 f   player.obj
 0001:00050e80       ?SwitchTeam@CBasePlayer@@QAEXXZ 10051e80 f   player.obj
 0001:00051190       ?SwitchWeapon@CBasePlayer@@QAEHPAVCBasePlayerItem@@@Z 10052190 f   player.obj
 0001:00051220       ?SyncRoundTimer@CBasePlayer@@QAEXXZ 10052220 f   player.obj
 0001:000512a0       ?TabulateAmmo@CBasePlayer@@QAEXXZ 100522a0 f   player.obj
 0001:000513a0       ?TakeDamage@CBasePlayer@@UAEHPAUentvars_s@@0MH@Z 100523a0 f   player.obj
 0001:00052060       ?TakeHealth@CBasePlayer@@UAEHMH@Z 10053060 f   player.obj
 0001:00052080       ?TeamID@CBasePlayer@@UAEPBDXZ 10053080 f   player.obj
 0001:000520a0       ?Think@CInfoIntermission@@UAEXXZ 100530a0 f   player.obj
 0001:00052200       ?Think@CSprayCan@@UAEXXZ   10053200 f   player.obj
 0001:00052380       ?Touch@CWShield@@UAEXPAVCBaseEntity@@@Z 10053380 f   player.obj
 0001:00052490       ?TraceAttack@CBasePlayer@@UAEXPAUentvars_s@@MVVector@@PAUTraceResult@@H@Z 10053490 f   player.obj
 0001:00052980       ?TrainSpeed@@YAHHH@Z       10053980 f   player.obj
 0001:000529d0       ?UpdateClientData@CBasePlayer@@UAEXXZ 100539d0 f   player.obj
 0001:00053420       ?UpdateGeigerCounter@CBasePlayer@@QAEXXZ 10054420 f   player.obj
 0001:000534d0       ?UpdatePlayerSound@CBasePlayer@@QAEXXZ 100544d0 f   player.obj
 0001:000536a0       ?UpdateShieldCrosshair@CBasePlayer@@QAEX_N@Z 100546a0 f   player.obj
 0001:000536c0       ?UpdateStatusBar@CBasePlayer@@QAEXXZ 100546c0 f   player.obj
 0001:00053c40       ?Use@CRevertSaved@@UAEXPAVCBaseEntity@@0W4USE_TYPE@@M@Z 10054c40 f   player.obj
 0001:00053cb0       ?Use@CStripWeapons@@UAEXPAVCBaseEntity@@0W4USE_TYPE@@M@Z 10054cb0 f   player.obj
 0001:00053d10       ?VARS@@YAPAUentvars_s@@H@Z 10054d10 f i player.obj
 0001:00053d30       ?WaterMove@CBasePlayer@@QAEXXZ 10054d30 f   player.obj
 0001:000540e0       ?WeaponIDToAlias@@YAPBDH@Z 100550e0 f   player.obj
 0001:00054110       ?WriteSigonMessages@@YAXXZ 10055110 f   player.obj
 0001:000541c0       ?packPlayerItem@@YAXPAVCBasePlayer@@PAVCBasePlayerItem@@_N@Z 100551c0 f   player.obj
 0001:000542f0       _info_intermission         100552f0 f   player.obj
 0001:00054300       _monster_hevsuit_dead      10055300 f   player.obj
 0001:00054310       _player                    10055310 f   player.obj
 0001:00054320       _player_loadsaved          10055320 f   player.obj
 0001:00054330       _player_weaponstrip        10055330 f   player.obj
 0001:00054340       _weapon_shield             10055340 f   player.obj
 0001:00054350       ??$GetClassPtr@VCAmbientGeneric@@@@YAPAVCAmbientGeneric@@PAV0@@Z 10055350 f i sound.obj
 0001:000543b0       ??$GetClassPtr@VCEnvSound@@@@YAPAVCEnvSound@@PAV0@@Z 100553b0 f i sound.obj
 0001:00054410       ??$GetClassPtr@VCSpeaker@@@@YAPAVCSpeaker@@PAV0@@Z 10055410 f i sound.obj
 0001:00054470       ?EMIT_GROUPID_SUIT@@YAXPAUedict_s@@H@Z 10055470 f   sound.obj
 0001:000544f0       ?EMIT_SOUND_DYN@@YAXPAUedict_s@@HPBDMMHH@Z 100554f0 f   sound.obj
 0001:000545a0       ?EMIT_SOUND_SUIT@@YAXPAUedict_s@@PBD@Z 100555a0 f   sound.obj
 0001:00054620       ?FEnvSoundInRange@@YAHPAUentvars_s@@0PAM@Z 10055620 f   sound.obj
 0001:00054790       ?InitModulationParms@CAmbientGeneric@@QAEXXZ 10055790 f   sound.obj
 0001:000549d0       ?KeyValue@CAmbientGeneric@@UAEXPAUKeyValueData_s@@@Z 100559d0 f   sound.obj
 0001:00054f20       ?KeyValue@CEnvSound@@UAEXPAUKeyValueData_s@@@Z 10055f20 f   sound.obj
 0001:00054fd0       ?KeyValue@CSpeaker@@UAEXPAUKeyValueData_s@@@Z 10055fd0 f   sound.obj
 0001:00055040       ?Precache@CAmbientGeneric@@UAEXXZ 10056040 f   sound.obj
 0001:00055130       ?Precache@CSpeaker@@UAEXXZ 10056130 f   sound.obj
 0001:00055180       ?RampThink@CAmbientGeneric@@QAEXXZ 10056180 f   sound.obj
 0001:00055570       ?Restart@CAmbientGeneric@@UAEXXZ 10056570 f   sound.obj
 0001:00055780       ?Restore@CAmbientGeneric@@UAEHAAVCRestore@@@Z 10056780 f   sound.obj
 0001:000557c0       ?Restore@CEnvSound@@UAEHAAVCRestore@@@Z 100567c0 f   sound.obj
 0001:00055800       ?Restore@CSpeaker@@UAEHAAVCRestore@@@Z 10056800 f   sound.obj
 0001:00055840       ?SENTENCEG_GetIndex@@YAHPBD@Z 10056840 f   sound.obj
 0001:000558c0       ?SENTENCEG_Init@@YAXXZ     100568c0 f   sound.obj
 0001:00055bd0       ?SENTENCEG_Lookup@@YAHPBDPAD@Z 10056bd0 f   sound.obj
 0001:00055c70       ?SENTENCEG_PlayRndI@@YAHPAUedict_s@@HMMHH@Z 10056c70 f   sound.obj
 0001:00055ce0       ?SENTENCEG_PlayRndSz@@YAHPAUedict_s@@PBDMMHH@Z 10056ce0 f   sound.obj
 0001:00055d80       ?SENTENCEG_PlaySequentialSz@@YAHPAUedict_s@@PBDMMHHHH@Z 10056d80 f   sound.obj
 0001:00055e00       ?Save@CAmbientGeneric@@UAEHAAVCSave@@@Z 10056e00 f   sound.obj
 0001:00055e40       ?Save@CEnvSound@@UAEHAAVCSave@@@Z 10056e40 f   sound.obj
 0001:00055e80       ?Save@CSpeaker@@UAEHAAVCSave@@@Z 10056e80 f   sound.obj
 0001:00055ec0       ?Spawn@CAmbientGeneric@@UAEXXZ 10056ec0 f   sound.obj
 0001:00056000       ?Spawn@CEnvSound@@UAEXXZ   10057000 f   sound.obj
 0001:00056050       ?Spawn@CSpeaker@@UAEXXZ    10057050 f   sound.obj
 0001:00056140       ?SpeakerThink@CSpeaker@@QAEXXZ 10057140 f   sound.obj
 0001:00056350       ?TEXTURETYPE_Find@@YADPAD@Z 10057350 f   sound.obj
 0001:000563a0       ?TEXTURETYPE_Init@@YAXXZ   100573a0 f   sound.obj
 0001:000565c0       ?TEXTURETYPE_PlaySound@@YAMPAUTraceResult@@VVector@@1H@Z 100575c0 f   sound.obj
 0001:00056a80       ?Think@CEnvSound@@UAEXXZ   10057a80 f   sound.obj
 0001:00056c30       ?ToggleUse@CAmbientGeneric@@QAEXPAVCBaseEntity@@0W4USE_TYPE@@M@Z 10057c30 f   sound.obj
 0001:00056ed0       ?ToggleUse@CSpeaker@@QAEXPAVCBaseEntity@@0W4USE_TYPE@@M@Z 10057ed0 f   sound.obj
 0001:00056f40       ?USENTENCEG_InitLRU@@YAXPAEH@Z 10057f40 f   sound.obj
 0001:00056fc0       ?USENTENCEG_Pick@@YAHHPAD@Z 10057fc0 f   sound.obj
 0001:000570c0       ?USENTENCEG_PickSequential@@YAHHPADHH@Z 100580c0 f   sound.obj
 0001:00057230       _ambient_generic           10058230 f   sound.obj
 0001:00057240       _env_sound                 10058240 f   sound.obj
 0001:00057250       _speaker                   10058250 f   sound.obj
 0001:00057260       ??$GetClassPtr@VCSoundEnt@@@@YAPAVCSoundEnt@@PAV0@@Z 10058260 f i soundent.obj
 0001:000572f0       ?Clear@CSound@@QAEXXZ      100582f0 f   soundent.obj
 0001:00057330       ?ClientSoundIndex@CSoundEnt@@SAHPAUedict_s@@@Z 10058330 f   soundent.obj
 0001:00057350       ?FreeSound@CSoundEnt@@SAXHH@Z 10058350 f   soundent.obj
 0001:000573b0       ?IAllocSound@CSoundEnt@@QAEHXZ 100583b0 f   soundent.obj
 0001:00057400       ?ISoundsInList@CSoundEnt@@QAEHH@Z 10058400 f   soundent.obj
 0001:00057460       ?Initialize@CSoundEnt@@QAEXXZ 10058460 f   soundent.obj
 0001:00057550       ?InsertSound@CSoundEnt@@SAXHABVVector@@HM@Z 10058550 f   soundent.obj
 0001:000575e0       ?ObjectCaps@CPlatTrigger@@UAEHXZ 100585e0 f i plats.obj
 0001:000575e0       ?ObjectCaps@CCorpse@@UAEHXZ 100585e0 f i world.obj
 0001:000575e0       ?ObjectCaps@CSoundEnt@@UAEHXZ 100585e0 f i soundent.obj
 0001:000575e0       ?ObjectCaps@CGib@@UAEHXZ   100585e0 f i combat.obj
 0001:000575e0       ?ObjectCaps@CSprayCan@@UAEHXZ 100585e0 f i player.obj
 0001:000575e0       ?ObjectCaps@CShower@@UAEHXZ 100585e0 f i explode.obj
 0001:000575f0       ?Reset@CSound@@QAEXXZ      100585f0 f   soundent.obj
 0001:00057620       ?SoundPointerForIndex@CSoundEnt@@SAPAVCSound@@H@Z 10058620 f   soundent.obj
 0001:00057670       ?Spawn@CSoundEnt@@UAEXXZ   10058670 f   soundent.obj
 0001:000576b0       ?Think@CSoundEnt@@UAEXXZ   100586b0 f   soundent.obj
 0001:00057790       _soundent                  10058790 f   soundent.obj
 0001:000577a0       ?SpectatorConnect@CBaseSpectator@@QAEXXZ 100587a0 f   spectator.obj
 0001:000577d0       ?SpectatorImpulseCommand@CBaseSpectator@@AAEXXZ 100587d0 f   spectator.obj
 0001:000578d0       ?SpectatorThink@CBaseSpectator@@QAEXXZ 100588d0 f   spectator.obj
 0001:00057920       ??$GetClassPtr@VCBaseDMStart@@@@YAPAVCBaseDMStart@@PAV0@@Z 10058920 f i subs.obj
 0001:00057980       ??$GetClassPtr@VCBaseDelay@@@@YAPAVCBaseDelay@@PAV0@@Z 10058980 f i subs.obj
 0001:000579e0       ??$GetClassPtr@VCNullEntity@@@@YAPAVCNullEntity@@PAV0@@Z 100589e0 f i subs.obj
 0001:00057a40       ?AngularMove@CBaseToggle@@QAEXVVector@@M@Z 10058a40 f   subs.obj
 0001:00057b50       ?AngularMoveDone@CBaseToggle@@QAEXXZ 10058b50 f   subs.obj
 0001:00057bb0       ?AxisDelta@CBaseToggle@@SAMHABVVector@@0@Z 10058bb0 f   subs.obj
 0001:00057bf0       ?AxisDir@CBaseToggle@@SAXPAUentvars_s@@@Z 10058bf0 f   subs.obj
 0001:00057c70       ?DelayThink@CBaseDelay@@QAEXXZ 10058c70 f   subs.obj
 0001:00057cb0       ?FireTargets@@YAXPBDPAVCBaseEntity@@1W4USE_TYPE@@M@Z 10058cb0 f   subs.obj
 0001:00057d60       ?IsTriggered@CBaseDMStart@@UAEHPAVCBaseEntity@@@Z 10058d60 f   subs.obj
 0001:00057d80       ?KeyValue@CBaseDMStart@@UAEXPAUKeyValueData_s@@@Z 10058d80 f   subs.obj
 0001:00057df0       ?KeyValue@CBaseDelay@@UAEXPAUKeyValueData_s@@@Z 10058df0 f   subs.obj
 0001:00057eb0       ?KeyValue@CBaseToggle@@UAEXPAUKeyValueData_s@@@Z 10058eb0 f   subs.obj
 0001:00057ff0       ?LinearMove@CBaseToggle@@QAEXVVector@@M@Z 10058ff0 f   subs.obj
 0001:00058100       ?LinearMoveDone@CBaseToggle@@QAEXXZ 10059100 f   subs.obj
 0001:00058150       ?Restore@CBaseDelay@@UAEHAAVCRestore@@@Z 10059150 f   subs.obj
 0001:00058190       ?Restore@CBaseToggle@@UAEHAAVCRestore@@@Z 10059190 f   subs.obj
 0001:000581d0       ?SUB_Remove@CBaseEntity@@QAEXXZ 100591d0 f   subs.obj
 0001:00058220       ?SUB_UseTargets@CBaseDelay@@QAEXPAVCBaseEntity@@W4USE_TYPE@@M@Z 10059220 f   subs.obj
 0001:00058440       ?SUB_UseTargets@CBaseEntity@@QAEXPAV1@W4USE_TYPE@@M@Z 10059440 f   subs.obj
 0001:00058480       ?Save@CBaseDelay@@UAEHAAVCSave@@@Z 10059480 f   subs.obj
 0001:000584c0       ?Save@CBaseToggle@@UAEHAAVCSave@@@Z 100594c0 f   subs.obj
 0001:00058500       ?SetMovedir@@YAXPAUentvars_s@@@Z 10059500 f   subs.obj
 0001:000585d0       ?Spawn@CNullEntity@@UAEXXZ 100595d0 f   subs.obj
 0001:000585e0       ?Spawn@CPointEntity@@UAEXXZ 100595e0 f   subs.obj
 0001:000585e0       ?Spawn@CRenderFxManager@@UAEXXZ 100595e0 f   triggers.obj
 0001:000585f0       ?UpdateOnRemove@CBaseEntity@@QAEXXZ 100595f0 f   subs.obj
 0001:00058650       _DelayedUse                10059650 f   subs.obj
 0001:00058660       _info_null                 10059660 f   subs.obj
 0001:00058670       _info_player_deathmatch    10059670 f   subs.obj
 0001:00058670       _info_vip_start            10059670 f   subs.obj
 0001:00058680       ??0CHalfLifeTraining@@QAE@XZ 10059680 f   training_gamerules.obj
 0001:000586d0       ??1CHalfLifeMultiplay@@QAE@XZ 100596d0 f i training_gamerules.obj
 0001:000586e0       ?CheckWinConditions@CHalfLifeTraining@@UAEXXZ 100596e0 f   training_gamerules.obj
 0001:00058980       ?GetPlayerSpawnSpot@CHalfLifeTraining@@UAEPAUedict_s@@PAVCBasePlayer@@@Z 10059980 f   training_gamerules.obj
 0001:00058a90       ?HostageDied@CHalfLifeTraining@@SAXXZ 10059a90 f   training_gamerules.obj
 0001:00058ac0       ?ObjectCaps@CTriggerCamera@@UAEHXZ 10059ac0 f   triggers.obj
 0001:00058ac0       ?CanDrop@CKnife@@UAEHXZ    10059ac0 f   wpn_knife.obj
 0001:00058ac0       ?ObjectCaps@CBaseTrigger@@UAEHXZ 10059ac0 f   triggers.obj
 0001:00058ac0       ?CanDrop@CHEGrenade@@UAEHXZ 10059ac0 f   wpn_hegrenade.obj
 0001:00058ac0       ?IsDeathmatch@CHalfLifeTraining@@UAEHXZ 10059ac0 f   training_gamerules.obj
 0001:00058ac0       ?ObjectCaps@CFuncRotating@@UAEHXZ 10059ac0 f   bmodels.obj
 0001:00058ac0       ?AllowAutoTargetCrosshair@CHalfLifeMultiplay@@UAEHXZ 10059ac0 f   multiplay_gamerules.obj
 0001:00058ac0       ?ObjectCaps@CFuncTank@@UAEHXZ 10059ac0 f   func_tank.obj
 0001:00058ac0       ?IsMultiplayer@CHalfLifeTraining@@UAEHXZ 10059ac0 f   training_gamerules.obj
 0001:00058ac0       ?ShouldWeaponIdle@CBasePlayerWeapon@@UAEHXZ 10059ac0 f   h_cycler.obj
 0001:00058ac0       ?ObjectCaps@CFuncIllusionary@@UAEHXZ 10059ac0 f   bmodels.obj
 0001:00058ac0       ?Classify@CBaseEntity@@UAEHXZ 10059ac0 f   airtank.obj
 0001:00058ac0       ?IsTeamplay@CGameRules@@UAEHXZ 10059ac0 f   multiplay_gamerules.obj
 0001:00058ac0       ?IsAlive@CCycler@@UAEHXZ   10059ac0 f   h_cycler.obj
 0001:00058ac0       ?IsPlayer@CBaseEntity@@UAEHXZ 10059ac0 f   airtank.obj
 0001:00058ac0       ?AllocNodes@CGraph@@QAEHXZ 10059ac0 f   mpstubb.obj
 0001:00058ac0       ?CanDrop@CFlashbang@@UAEHXZ 10059ac0 f   wpn_flashbang.obj
 0001:00058ac0       ?ObjectCaps@CTriggerRelay@@UAEHXZ 10059ac0 f   triggers.obj
 0001:00058ac0       ?PlayTextureSounds@CHalfLifeMultiplay@@UAEHXZ 10059ac0 f   multiplay_gamerules.obj
 0001:00058ac0       ?ShouldFadeOnDeath@CBaseMonster@@UAEHXZ 10059ac0 f   mpstubb.obj
 0001:00058ac0       ?ShouldFadeOnDeath@CBasePlayer@@UAEHXZ 10059ac0 f   client.obj
 0001:00058ac0       ?MyMonsterPointer@CBaseEntity@@UAEPAVCBaseMonster@@XZ 10059ac0 f   airtank.obj
 0001:00058ac0       ?ObjectCaps@CSpeaker@@UAEHXZ 10059ac0 f   sound.obj
 0001:00058ac0       ?MySquadMonsterPointer@CBaseEntity@@UAEPAVCSquadMonster@@XZ 10059ac0 f   airtank.obj
 0001:00058ac0       ?FSetGraphPointers@CGraph@@QAEHXZ 10059ac0 f   mpstubb.obj
 0001:00058ac0       ?ObjectCaps@CFuncVehicleControls@@UAEHXZ 10059ac0 f   vehicle.obj
 0001:00058ac0       ?FCheckAITrigger@CBaseMonster@@QAEHXZ 10059ac0 f   mpstubb.obj
 0001:00058ac0       ?FBecomeProne@CBaseEntity@@UAEHXZ 10059ac0 f   airtank.obj
 0001:00058ac0       ?ObjectCaps@CAmbientGeneric@@UAEHXZ 10059ac0 f   sound.obj
 0001:00058ac0       ?ObjectCaps@CFuncWall@@UAEHXZ 10059ac0 f   bmodels.obj
 0001:00058ac0       ?ObjectCaps@CFuncMortarField@@UAEHXZ 10059ac0 f   mortar.obj
 0001:00058ac0       ?ObjectCaps@CBaseGrenCatch@@UAEHXZ 10059ac0 f   triggers.obj
 0001:00058ac0       ?IsNetClient@CBaseEntity@@UAEHXZ 10059ac0 f   airtank.obj
 0001:00058ac0       ?ObjectCaps@CBasePlayer@@UAEHXZ 10059ac0 f   client.obj
 0001:00058ac0       ?ObjectCaps@CPendulum@@UAEHXZ 10059ac0 f   bmodels.obj
 0001:00058ac0       ?GetToggleState@CBaseEntity@@UAEHXZ 10059ac0 f   airtank.obj
 0001:00058ac0       ?ObjectCaps@CTriggerChangeTarget@@UAEHXZ 10059ac0 f   triggers.obj
 0001:00058ac0       ?IsBot@CBasePlayer@@UAEHXZ 10059ac0 f   client.obj
 0001:00058ac0       ?ObjectCaps@CAutoTrigger@@UAEHXZ 10059ac0 f   triggers.obj
 0001:00058ac0       ?CanDrop@CSmokeGrenade@@UAEHXZ 10059ac0 f   wpn_smokegrenade.obj
 0001:00058ac0       ?IsSneaking@CBaseEntity@@UAEHXZ 10059ac0 f   airtank.obj
 0001:00058ac0       ?ObjectCaps@CMultiManager@@UAEHXZ 10059ac0 f   triggers.obj
 0001:00058ac0       ?ObjectCaps@CFuncTrainControls@@UAEHXZ 10059ac0 f   plats.obj
 0001:00058ac0       ?ObjectCaps@CBubbling@@UAEHXZ 10059ac0 f   effects.obj
 0001:00058ac0       ?ObjectCaps@CBasePlatTrain@@UAEHXZ 10059ac0 f   plats.obj
 0001:00058ac0       ?ObjectCaps@CFrictionModifier@@UAEHXZ 10059ac0 f   triggers.obj
 0001:00058ac0       ?ObjectCaps@CPointEntity@@UAEHXZ 10059ac0 f   buttons.obj
 0001:00058ac0       ?Respawn@CBaseEntity@@UAEPAV1@XZ 10059ac0 f   airtank.obj
 0001:00058ac0       ?UseDecrement@CBasePlayerWeapon@@UAEHXZ 10059ac0 f   h_cycler.obj
 0001:00058ac0       ?ObjectCaps@CBreakable@@UAEHXZ 10059ac0 f   func_break.obj
 0001:00058ac0       ?ObjectCaps@CGunTarget@@UAEHXZ 10059ac0 f   plats.obj
 0001:00058ac0       ?ObjectCaps@CMomentaryDoor@@UAEHXZ 10059ac0 f   doors.obj
 0001:00058ad0       ?ItemShouldRespawn@CHalfLifeTraining@@UAEHPAVCItem@@@Z 10059ad0 f   training_gamerules.obj
 0001:00058ae0       ?PlayerCanBuy@CHalfLifeTraining@@SA_NPAVCBasePlayer@@@Z 10059ae0 f   training_gamerules.obj
 0001:00058af0       ?PlayerKilled@CHalfLifeTraining@@UAEXPAVCBasePlayer@@PAUentvars_s@@1@Z 10059af0 f   training_gamerules.obj
 0001:00058b30       ?PlayerSpawn@CHalfLifeTraining@@UAEXPAVCBasePlayer@@@Z 10059b30 f   training_gamerules.obj
 0001:00058c10       ?PlayerThink@CHalfLifeTraining@@UAEXPAVCBasePlayer@@@Z 10059c10 f   training_gamerules.obj
 0001:00059000       ??$GetClassPtr@VCAutoTrigger@@@@YAPAVCAutoTrigger@@PAV0@@Z 1005a000 f i triggers.obj
 0001:00059060       ??$GetClassPtr@VCBaseGrenCatch@@@@YAPAVCBaseGrenCatch@@PAV0@@Z 1005a060 f i triggers.obj
 0001:000590c0       ??$GetClassPtr@VCBaseTrigger@@@@YAPAVCBaseTrigger@@PAV0@@Z 1005a0c0 f i triggers.obj
 0001:00059130       ??$GetClassPtr@VCBombTarget@@@@YAPAVCBombTarget@@PAV0@@Z 1005a130 f i triggers.obj
 0001:000591a0       ??$GetClassPtr@VCBuyZone@@@@YAPAVCBuyZone@@PAV0@@Z 1005a1a0 f i triggers.obj
 0001:00059210       ??$GetClassPtr@VCChangeLevel@@@@YAPAVCChangeLevel@@PAV0@@Z 1005a210 f i triggers.obj
 0001:00059280       ??$GetClassPtr@VCClientFog@@@@YAPAVCClientFog@@PAV0@@Z 1005a280 f i triggers.obj
 0001:000592e0       ??$GetClassPtr@VCEscapeZone@@@@YAPAVCEscapeZone@@PAV0@@Z 1005a2e0 f i triggers.obj
 0001:00059350       ??$GetClassPtr@VCFireAndDie@@@@YAPAVCFireAndDie@@PAV0@@Z 1005a350 f i triggers.obj
 0001:000593b0       ??$GetClassPtr@VCFrictionModifier@@@@YAPAVCFrictionModifier@@PAV0@@Z 1005a3b0 f i triggers.obj
 0001:00059410       ??$GetClassPtr@VCFuncWeaponCheck@@@@YAPAVCFuncWeaponCheck@@PAV0@@Z 1005a410 f i triggers.obj
 0001:00059470       ??$GetClassPtr@VCHostageRescue@@@@YAPAVCHostageRescue@@PAV0@@Z 1005a470 f i triggers.obj
 0001:000594e0       ??$GetClassPtr@VCLadder@@@@YAPAVCLadder@@PAV0@@Z 1005a4e0 f i triggers.obj
 0001:00059550       ??$GetClassPtr@VCMultiManager@@@@YAPAVCMultiManager@@PAV0@@Z 1005a550 f i triggers.obj
 0001:000595c0       ??$GetClassPtr@VCRenderFxManager@@@@YAPAVCRenderFxManager@@PAV0@@Z 1005a5c0 f i triggers.obj
 0001:00059620       ??$GetClassPtr@VCTargetCDAudio@@@@YAPAVCTargetCDAudio@@PAV0@@Z 1005a620 f i triggers.obj
 0001:00059680       ??$GetClassPtr@VCTriggerCDAudio@@@@YAPAVCTriggerCDAudio@@PAV0@@Z 1005a680 f i triggers.obj
 0001:000596f0       ??$GetClassPtr@VCTriggerCamera@@@@YAPAVCTriggerCamera@@PAV0@@Z 1005a6f0 f i triggers.obj
 0001:00059750       ??$GetClassPtr@VCTriggerChangeTarget@@@@YAPAVCTriggerChangeTarget@@PAV0@@Z 1005a750 f i triggers.obj
 0001:000597b0       ??$GetClassPtr@VCTriggerCounter@@@@YAPAVCTriggerCounter@@PAV0@@Z 1005a7b0 f i triggers.obj
 0001:00059820       ??$GetClassPtr@VCTriggerEndSection@@@@YAPAVCTriggerEndSection@@PAV0@@Z 1005a820 f i triggers.obj
 0001:00059890       ??$GetClassPtr@VCTriggerGravity@@@@YAPAVCTriggerGravity@@PAV0@@Z 1005a890 f i triggers.obj
 0001:00059900       ??$GetClassPtr@VCTriggerHurt@@@@YAPAVCTriggerHurt@@PAV0@@Z 1005a900 f i triggers.obj
 0001:00059970       ??$GetClassPtr@VCTriggerMonsterJump@@@@YAPAVCTriggerMonsterJump@@PAV0@@Z 1005a970 f i triggers.obj
 0001:000599e0       ??$GetClassPtr@VCTriggerMultiple@@@@YAPAVCTriggerMultiple@@PAV0@@Z 1005a9e0 f i triggers.obj
 0001:00059a50       ??$GetClassPtr@VCTriggerOnce@@@@YAPAVCTriggerOnce@@PAV0@@Z 1005aa50 f i triggers.obj
 0001:00059ac0       ??$GetClassPtr@VCTriggerPush@@@@YAPAVCTriggerPush@@PAV0@@Z 1005aac0 f i triggers.obj
 0001:00059b30       ??$GetClassPtr@VCTriggerRelay@@@@YAPAVCTriggerRelay@@PAV0@@Z 1005ab30 f i triggers.obj
 0001:00059b90       ??$GetClassPtr@VCTriggerSave@@@@YAPAVCTriggerSave@@PAV0@@Z 1005ab90 f i triggers.obj
 0001:00059c00       ??$GetClassPtr@VCTriggerTeleport@@@@YAPAVCTriggerTeleport@@PAV0@@Z 1005ac00 f i triggers.obj
 0001:00059c70       ??$GetClassPtr@VCTriggerVolume@@@@YAPAVCTriggerVolume@@PAV0@@Z 1005ac70 f i triggers.obj
 0001:00059cd0       ??$GetClassPtr@VCVIP_SafetyZone@@@@YAPAVCVIP_SafetyZone@@PAV0@@Z 1005acd0 f i triggers.obj
 0001:00059d40       ??$GetClassPtr@VCWeather@@@@YAPAVCWeather@@PAV0@@Z 1005ad40 f i triggers.obj
 0001:00059db0       ?ActivateMultiTrigger@CBaseTrigger@@QAEXPAVCBaseEntity@@@Z 1005adb0 f   triggers.obj
 0001:00059f70       ?AddTransitionToList@CChangeLevel@@SAHPAULEVELLIST@@HPBD1PAUedict_s@@@Z 1005af70 f   triggers.obj
 0001:0005a060       ?BombTargetTouch@CBombTarget@@QAEXPAVCBaseEntity@@@Z 1005b060 f   triggers.obj
 0001:0005a0a0       ?BombTargetUse@CBombTarget@@QAEXPAVCBaseEntity@@0W4USE_TYPE@@M@Z 1005b0a0 f   triggers.obj
 0001:0005a0c0       ?BuildChangeList@@YAHPAULEVELLIST@@H@Z 1005b0c0 f   triggers.obj
 0001:0005a0d0       ?BuyTouch@CBuyZone@@QAEXPAVCBaseEntity@@@Z 1005b0d0 f   triggers.obj
 0001:0005a110       ?ChangeFriction@CFrictionModifier@@QAEXPAVCBaseEntity@@@Z 1005b110 f   triggers.obj
 0001:0005a140       ?ChangeLevelNow@CChangeLevel@@QAEXPAVCBaseEntity@@@Z 1005b140 f   triggers.obj
 0001:0005a310       ?ChangeList@CChangeLevel@@SAHPAULEVELLIST@@H@Z 1005b310 f   triggers.obj
 0001:0005a5a0       ?Clone@CMultiManager@@AAEPAV1@XZ 1005b5a0 f   triggers.obj
 0001:0005a670       ?CounterUse@CBaseTrigger@@QAEXPAVCBaseEntity@@0W4USE_TYPE@@M@Z 1005b670 f   triggers.obj
 0001:0005a7b0       ?EndSectionTouch@CTriggerEndSection@@QAEXPAVCBaseEntity@@@Z 1005b7b0 f   triggers.obj
 0001:0005a800       ?EndSectionUse@CTriggerEndSection@@QAEXPAVCBaseEntity@@0W4USE_TYPE@@M@Z 1005b800 f   triggers.obj
 0001:0005a860       ?EscapeTouch@CEscapeZone@@QAEXPAVCBaseEntity@@@Z 1005b860 f   triggers.obj
 0001:0005a960       ?ExecuteChangeLevel@CChangeLevel@@QAEXXZ 1005b960 f   triggers.obj
 0001:0005a9a0       ?FindLandmark@CChangeLevel@@SAPAUedict_s@@PBD@Z 1005b9a0 f   triggers.obj
 0001:0005aa40       ?FollowTarget@CTriggerCamera@@QAEXXZ 1005ba40 f   triggers.obj
 0001:0005ad30       ?GravityTouch@CTriggerGravity@@QAEXPAVCBaseEntity@@@Z 1005bd30 f   triggers.obj
 0001:0005ad60       ?HasTarget@CMultiManager@@UAEHH@Z 1005bd60 f   triggers.obj
 0001:0005adf0       ?HostageRescueTouch@CHostageRescue@@QAEXPAVCBaseEntity@@@Z 1005bdf0 f   triggers.obj
 0001:0005ae60       ?HurtTouch@CBaseTrigger@@QAEXPAVCBaseEntity@@@Z 1005be60 f   triggers.obj
 0001:0005b070       ?InTransitionVolume@CChangeLevel@@SAHPAVCBaseEntity@@PAD@Z 1005c070 f   triggers.obj
 0001:0005b170       ?InitTrigger@CBaseTrigger@@QAEXXZ 1005c170 f   triggers.obj
 0001:0005b230       ?KeyValue@CAutoTrigger@@UAEXPAUKeyValueData_s@@@Z 1005c230 f   triggers.obj
 0001:0005b330       ?KeyValue@CBaseGrenCatch@@UAEXPAUKeyValueData_s@@@Z 1005c330 f   triggers.obj
 0001:0005b4e0       ?KeyValue@CBaseTrigger@@UAEXPAUKeyValueData_s@@@Z 1005c4e0 f   triggers.obj
 0001:0005b600       ?KeyValue@CChangeLevel@@UAEXPAUKeyValueData_s@@@Z 1005c600 f   triggers.obj
 0001:0005b7a0       ?KeyValue@CClientFog@@UAEXPAUKeyValueData_s@@@Z 1005c7a0 f   triggers.obj
 0001:0005b830       ?KeyValue@CFrictionModifier@@UAEXPAUKeyValueData_s@@@Z 1005c830 f   triggers.obj
 0001:0005b8a0       ?KeyValue@CFuncWeaponCheck@@UAEXPAUKeyValueData_s@@@Z 1005c8a0 f   triggers.obj
 0001:0005ba70       ?KeyValue@CLadder@@UAEXPAUKeyValueData_s@@@Z 1005ca70 f   triggers.obj
 0001:0005ba70       ?KeyValue@CTriggerPush@@UAEXPAUKeyValueData_s@@@Z 1005ca70 f   triggers.obj
 0001:0005ba80       ?KeyValue@CMultiManager@@UAEXPAUKeyValueData_s@@@Z 1005ca80 f   triggers.obj
 0001:0005bb50       ?KeyValue@CTargetCDAudio@@UAEXPAUKeyValueData_s@@@Z 1005cb50 f   triggers.obj
 0001:0005bbd0       ?KeyValue@CTriggerCamera@@UAEXPAUKeyValueData_s@@@Z 1005cbd0 f   triggers.obj
 0001:0005bd10       ?KeyValue@CTriggerChangeTarget@@UAEXPAUKeyValueData_s@@@Z 1005cd10 f   triggers.obj
 0001:0005bd80       ?KeyValue@CTriggerEndSection@@UAEXPAUKeyValueData_s@@@Z 1005cd80 f   triggers.obj
 0001:0005bdf0       ?KeyValue@CTriggerRelay@@UAEXPAUKeyValueData_s@@@Z 1005cdf0 f   triggers.obj
 0001:0005bea0       ?ManagerThink@CMultiManager@@QAEXXZ 1005cea0 f   triggers.obj
 0001:0005bf90       ?ManagerUse@CMultiManager@@QAEXPAVCBaseEntity@@0W4USE_TYPE@@M@Z 1005cf90 f   triggers.obj
 0001:0005c010       ?Move@CTriggerCamera@@QAEXXZ 1005d010 f   triggers.obj
 0001:0005c310       ?MultiTouch@CBaseTrigger@@QAEXPAVCBaseEntity@@@Z 1005d310 f   triggers.obj
 0001:0005c3a0       ?MultiWaitOver@CBaseTrigger@@QAEXXZ 1005d3a0 f   triggers.obj
 0001:0005c3b0       ?Play@CTargetCDAudio@@QAEXXZ 1005d3b0 f   triggers.obj
 0001:0005c3d0       ?PlayCDTrack@@YAXH@Z       1005d3d0 f   triggers.obj
 0001:0005c450       ?PlayTrack@CTriggerCDAudio@@QAEXXZ 1005d450 f   triggers.obj
 0001:0005c480       ?Precache@CAutoTrigger@@UAEXXZ 1005d480 f   triggers.obj
 0001:0005c4b0       ?Precache@CFireAndDie@@UAEXXZ 1005d4b0 f   triggers.obj
 0001:0005c4d0       ?Precache@CLadder@@UAEXXZ  1005d4d0 f   triggers.obj
 0001:0005c540       ?RadiationThink@CTriggerHurt@@QAEXXZ 1005d540 f   triggers.obj
 0001:0005c7b0       ?Restart@CMultiManager@@UAEXXZ 1005d7b0 f   triggers.obj
 0001:0005c880       ?Restore@CAutoTrigger@@UAEHAAVCRestore@@@Z 1005d880 f   triggers.obj
 0001:0005c8c0       ?Restore@CBaseGrenCatch@@UAEHAAVCRestore@@@Z 1005d8c0 f   triggers.obj
 0001:0005c900       ?Restore@CChangeLevel@@UAEHAAVCRestore@@@Z 1005d900 f   triggers.obj
 0001:0005c940       ?Restore@CFrictionModifier@@UAEHAAVCRestore@@@Z 1005d940 f   triggers.obj
 0001:0005c980       ?Restore@CFuncWeaponCheck@@UAEHAAVCRestore@@@Z 1005d980 f   triggers.obj
 0001:0005c9c0       ?Restore@CMultiManager@@UAEHAAVCRestore@@@Z 1005d9c0 f   triggers.obj
 0001:0005ca00       ?Restore@CTriggerCamera@@UAEHAAVCRestore@@@Z 1005da00 f   triggers.obj
 0001:0005ca40       ?Restore@CTriggerChangeTarget@@UAEHAAVCRestore@@@Z 1005da40 f   triggers.obj
 0001:0005ca80       ?Restore@CTriggerRelay@@UAEHAAVCRestore@@@Z 1005da80 f   triggers.obj
 0001:0005cac0       ?Save@CAutoTrigger@@UAEHAAVCSave@@@Z 1005dac0 f   triggers.obj
 0001:0005cb00       ?Save@CBaseGrenCatch@@UAEHAAVCSave@@@Z 1005db00 f   triggers.obj
 0001:0005cb40       ?Save@CChangeLevel@@UAEHAAVCSave@@@Z 1005db40 f   triggers.obj
 0001:0005cb80       ?Save@CFrictionModifier@@UAEHAAVCSave@@@Z 1005db80 f   triggers.obj
 0001:0005cbc0       ?Save@CFuncWeaponCheck@@UAEHAAVCSave@@@Z 1005dbc0 f   triggers.obj
 0001:0005cc00       ?Save@CMultiManager@@UAEHAAVCSave@@@Z 1005dc00 f   triggers.obj
 0001:0005cc40       ?Save@CTriggerCamera@@UAEHAAVCSave@@@Z 1005dc40 f   triggers.obj
 0001:0005cc80       ?Save@CTriggerChangeTarget@@UAEHAAVCSave@@@Z 1005dc80 f   triggers.obj
 0001:0005ccc0       ?Save@CTriggerRelay@@UAEHAAVCSave@@@Z 1005dcc0 f   triggers.obj
 0001:0005cd00       ?SaveTouch@CTriggerSave@@QAEXPAVCBaseEntity@@@Z 1005dd00 f   triggers.obj
 0001:0005cd50       ?Spawn@CTestEffect@@UAEXXZ 1005dd50 f   effects.obj
 0001:0005cd50       ?Spawn@CAutoTrigger@@UAEXXZ 1005dd50 f   triggers.obj
 0001:0005cd60       ?Spawn@CBaseGrenCatch@@UAEXXZ 1005dd60 f   triggers.obj
 0001:0005cde0       ?Spawn@CBombTarget@@UAEXXZ 1005dde0 f   triggers.obj
 0001:0005ce00       ?Spawn@CBuyZone@@UAEXXZ    1005de00 f   triggers.obj
 0001:0005ce50       ?Spawn@CChangeLevel@@UAEXXZ 1005de50 f   triggers.obj
 0001:0005cf20       ?Spawn@CClientFog@@UAEXXZ  1005df20 f   triggers.obj
 0001:0005cf60       ?Spawn@CEscapeZone@@UAEXXZ 1005df60 f   triggers.obj
 0001:0005cf80       ?Spawn@CFireAndDie@@UAEXXZ 1005df80 f   triggers.obj
 0001:0005cfe0       ?Spawn@CFrictionModifier@@UAEXXZ 1005dfe0 f   triggers.obj
 0001:0005d030       ?Spawn@CFuncWeaponCheck@@UAEXXZ 1005e030 f   triggers.obj
 0001:0005d090       ?Spawn@CHostageRescue@@UAEXXZ 1005e090 f   triggers.obj
 0001:0005d0b0       ?Spawn@CLadder@@UAEXXZ     1005e0b0 f   triggers.obj
 0001:0005d0f0       ?Spawn@CMultiManager@@UAEXXZ 1005e0f0 f   triggers.obj
 0001:0005d170       ?Spawn@CTargetCDAudio@@UAEXXZ 1005e170 f   triggers.obj
 0001:0005d1c0       ?Spawn@CWeather@@UAEXXZ    1005e1c0 f   triggers.obj
 0001:0005d1c0       ?Spawn@CTriggerCDAudio@@UAEXXZ 1005e1c0 f   triggers.obj
 0001:0005d1d0       ?Spawn@CTriggerCamera@@UAEXXZ 1005e1d0 f   triggers.obj
 0001:0005d250       ?Spawn@CTriggerCounter@@UAEXXZ 1005e250 f   triggers.obj
 0001:0005d280       ?Spawn@CTriggerEndSection@@UAEXXZ 1005e280 f   triggers.obj
 0001:0005d2d0       ?Spawn@CTriggerGravity@@UAEXXZ 1005e2d0 f   triggers.obj
 0001:0005d2f0       ?Spawn@CTriggerHurt@@UAEXXZ 1005e2f0 f   triggers.obj
 0001:0005d390       ?Spawn@CTriggerMonsterJump@@UAEXXZ 1005e390 f   triggers.obj
 0001:0005d400       ?Spawn@CTriggerMultiple@@UAEXXZ 1005e400 f   triggers.obj
 0001:0005d430       ?Spawn@CTriggerOnce@@UAEXXZ 1005e430 f   triggers.obj
 0001:0005d440       ?Spawn@CTriggerPush@@UAEXXZ 1005e440 f   triggers.obj
 0001:0005d4e0       ?Spawn@CTriggerSave@@UAEXXZ 1005e4e0 f   triggers.obj
 0001:0005d520       ?Spawn@CTriggerTeleport@@UAEXXZ 1005e520 f   triggers.obj
 0001:0005d540       ?Spawn@CTriggerVolume@@UAEXXZ 1005e540 f   triggers.obj
 0001:0005d5a0       ?Spawn@CVIP_SafetyZone@@UAEXXZ 1005e5a0 f   triggers.obj
 0001:0005d5c0       ?TeleportTouch@CBaseTrigger@@QAEXPAVCBaseEntity@@@Z 1005e5c0 f   triggers.obj
 0001:0005d760       ?Think@CAutoTrigger@@UAEXXZ 1005e760 f   triggers.obj
 0001:0005d7b0       ?Think@CBaseGrenCatch@@UAEXXZ 1005e7b0 f   triggers.obj
 0001:0005dab0       ?Think@CFireAndDie@@UAEXXZ 1005eab0 f   triggers.obj
 0001:0005dad0       ?Think@CTargetCDAudio@@UAEXXZ 1005ead0 f   triggers.obj
 0001:0005db80       ?Think@CTriggerMonsterJump@@UAEXXZ 1005eb80 f   triggers.obj
 0001:0005dbb0       ?ToggleUse@CBaseTrigger@@QAEXPAVCBaseEntity@@0W4USE_TYPE@@M@Z 1005ebb0 f   triggers.obj
 0001:0005dc10       ?Touch@CBaseGrenCatch@@UAEXPAVCBaseEntity@@@Z 1005ec10 f   triggers.obj
 0001:0005dc50       ?Touch@CFuncWeaponCheck@@UAEXPAVCBaseEntity@@@Z 1005ec50 f   triggers.obj
 0001:0005ddb0       ?Touch@CTriggerCDAudio@@UAEXPAVCBaseEntity@@@Z 1005edb0 f   triggers.obj
 0001:0005dde0       ?Touch@CTriggerMonsterJump@@UAEXPAVCBaseEntity@@@Z 1005ede0 f   triggers.obj
 0001:0005de80       ?Touch@CTriggerPush@@UAEXPAVCBaseEntity@@@Z 1005ee80 f   triggers.obj
 0001:0005dfe0       ?TouchChangeLevel@CChangeLevel@@QAEXPAVCBaseEntity@@@Z 1005efe0 f   triggers.obj
 0001:0005e040       ?Use@CRenderFxManager@@UAEXPAVCBaseEntity@@0W4USE_TYPE@@M@Z 1005f040 f   triggers.obj
 0001:0005e120       ?Use@CTargetCDAudio@@UAEXPAVCBaseEntity@@0W4USE_TYPE@@M@Z 1005f120 f   triggers.obj
 0001:0005e130       ?Use@CTriggerCDAudio@@UAEXPAVCBaseEntity@@0W4USE_TYPE@@M@Z 1005f130 f   triggers.obj
 0001:0005e140       ?Use@CTriggerCamera@@UAEXPAVCBaseEntity@@0W4USE_TYPE@@M@Z 1005f140 f   triggers.obj
 0001:0005e470       ?Use@CTriggerChangeTarget@@UAEXPAVCBaseEntity@@0W4USE_TYPE@@M@Z 1005f470 f   triggers.obj
 0001:0005e4c0       ?Use@CTriggerRelay@@UAEXPAVCBaseEntity@@0W4USE_TYPE@@M@Z 1005f4c0 f   triggers.obj
 0001:0005e4f0       ?UseChangeLevel@CChangeLevel@@QAEXPAVCBaseEntity@@0W4USE_TYPE@@M@Z 1005f4f0 f   triggers.obj
 0001:0005e500       ?VIP_SafetyTouch@CVIP_SafetyZone@@QAEXPAVCBaseEntity@@@Z 1005f500 f   triggers.obj
 0001:0005e590       _env_fog                   1005f590 f   triggers.obj
 0001:0005e5a0       _env_render                1005f5a0 f   triggers.obj
 0001:0005e5b0       _env_rain                  1005f5b0 f   triggers.obj
 0001:0005e5b0       _func_rain                 1005f5b0 f   triggers.obj
 0001:0005e5b0       _env_snow                  1005f5b0 f   triggers.obj
 0001:0005e5b0       _func_snow                 1005f5b0 f   triggers.obj
 0001:0005e5c0       _fireanddie                1005f5c0 f   triggers.obj
 0001:0005e5d0       _func_bomb_target          1005f5d0 f   triggers.obj
 0001:0005e5e0       _func_buyzone              1005f5e0 f   triggers.obj
 0001:0005e5f0       _func_escapezone           1005f5f0 f   triggers.obj
 0001:0005e600       _func_friction             1005f600 f   triggers.obj
 0001:0005e610       _func_grencatch            1005f610 f   triggers.obj
 0001:0005e620       _func_hostage_rescue       1005f620 f   triggers.obj
 0001:0005e630       _func_ladder               1005f630 f   triggers.obj
 0001:0005e640       _func_vip_safetyzone       1005f640 f   triggers.obj
 0001:0005e650       _func_weaponcheck          1005f650 f   triggers.obj
 0001:0005e660       _info_target               1005f660 f   effects.obj
 0001:0005e660       _info_bomb_target          1005f660 f   subs.obj
 0001:0005e660       _info_player_start         1005f660 f   subs.obj
 0001:0005e660       _info_landmark             1005f660 f   subs.obj
 0001:0005e660       _info_hostage_rescue       1005f660 f   subs.obj
 0001:0005e660       _info_teleport_destination 1005f660 f   triggers.obj
 0001:0005e670       _multi_manager             1005f670 f   triggers.obj
 0001:0005e680       _target_cdaudio            1005f680 f   triggers.obj
 0001:0005e690       _trigger                   1005f690 f   triggers.obj
 0001:0005e6a0       _trigger_auto              1005f6a0 f   triggers.obj
 0001:0005e6b0       _trigger_autosave          1005f6b0 f   triggers.obj
 0001:0005e6c0       _trigger_camera            1005f6c0 f   triggers.obj
 0001:0005e6d0       _trigger_cdaudio           1005f6d0 f   triggers.obj
 0001:0005e6e0       _trigger_changelevel       1005f6e0 f   triggers.obj
 0001:0005e6f0       _trigger_changetarget      1005f6f0 f   triggers.obj
 0001:0005e700       _trigger_counter           1005f700 f   triggers.obj
 0001:0005e710       _trigger_endsection        1005f710 f   triggers.obj
 0001:0005e720       _trigger_gravity           1005f720 f   triggers.obj
 0001:0005e730       _trigger_hurt              1005f730 f   triggers.obj
 0001:0005e740       _trigger_monsterjump       1005f740 f   triggers.obj
 0001:0005e750       _trigger_multiple          1005f750 f   triggers.obj
 0001:0005e760       _trigger_once              1005f760 f   triggers.obj
 0001:0005e770       _trigger_push              1005f770 f   triggers.obj
 0001:0005e780       _trigger_relay             1005f780 f   triggers.obj
 0001:0005e790       _trigger_teleport          1005f790 f   triggers.obj
 0001:0005e7a0       _trigger_transition        1005f7a0 f   triggers.obj
 0001:0005e7b0       ??0CSaveRestoreBuffer@@QAE@PAUsaverestore_s@@@Z 1005f7b0 f   util.obj
 0001:0005e7d0       ??1CSaveRestoreBuffer@@UAE@XZ 1005f7d0 f   util.obj
 0001:0005e7e0       ?BufferData@CSave@@AAEXPBDH@Z 1005f7e0 f   util.obj
 0001:0005e840       ?BufferField@CSave@@AAEXPBDH0@Z 1005f840 f   util.obj
 0001:0005e870       ?BufferHeader@CSave@@AAEXPBDH@Z 1005f870 f   util.obj
 0001:0005e8c0       ?BufferPointer@CRestore@@AAEPADXZ 1005f8c0 f   util.obj
 0001:0005e8d0       ?BufferReadBytes@CRestore@@AAEXPADH@Z 1005f8d0 f   util.obj
 0001:0005e940       ?BufferReadHeader@CRestore@@AAEXPAUHEADER@@@Z 1005f940 f   util.obj
 0001:0005e980       ?BufferRewind@CSaveRestoreBuffer@@IAEXH@Z 1005f980 f   util.obj
 0001:0005e9b0       ?BufferSkipBytes@CRestore@@AAEXH@Z 1005f9b0 f   util.obj
 0001:0005e9d0       ?ClientPrint@@YAXPAUentvars_s@@HPBD1111@Z 1005f9d0 f   util.obj
 0001:0005ea50       ?DataEmpty@CSave@@AAEHPBDH@Z 1005fa50 f   util.obj
 0001:0005ea80       ?EntityFlagsSet@CSaveRestoreBuffer@@QAEHHH@Z 1005fa80 f   util.obj
 0001:0005eac0       ?EntityFromIndex@CSaveRestoreBuffer@@QAEPAUedict_s@@H@Z 1005fac0 f   util.obj
 0001:0005eb10       ?EntityIndex@CSaveRestoreBuffer@@QAEHH@Z 1005fb10 f   util.obj
 0001:0005eb30       ?EntityIndex@CSaveRestoreBuffer@@QAEHPAUedict_s@@@Z 1005fb30 f   util.obj
 0001:0005eb80       ?EntityIndex@CSaveRestoreBuffer@@QAEHPAUentvars_s@@@Z 1005fb80 f   util.obj
 0001:0005eba0       ?EntityIndex@CSaveRestoreBuffer@@QAEHPAVCBaseEntity@@@Z 1005fba0 f   util.obj
 0001:0005ebc0       ?EntvarsKeyvalue@@YAXPAUentvars_s@@PAUKeyValueData_s@@@Z 1005fbc0 f   util.obj
 0001:0005ed40       ?HashString@CSaveRestoreBuffer@@IAEIPBD@Z 1005fd40 f   util.obj
 0001:0005ed70       ?ReadEntVars@CRestore@@QAEHPBDPAUentvars_s@@@Z 1005fd70 f   util.obj
 0001:0005ed90       ?ReadField@CRestore@@QAEHPAXPAUTYPEDESCRIPTION@@HHHPAD0@Z 1005fd90 f   util.obj
 0001:0005f0f0       ?ReadFields@CRestore@@QAEHPBDPAXPAUTYPEDESCRIPTION@@H@Z 100600f0 f   util.obj
 0001:0005f1e0       ?ReadInt@CRestore@@QAEHXZ  100601e0 f   util.obj
 0001:0005f200       ?ReadShort@CRestore@@QAEFXZ 10060200 f   util.obj
 0001:0005f220       ?TokenHash@CSaveRestoreBuffer@@QAEGPBD@Z 10060220 f   util.obj
 0001:0005f2e0       ?UTIL_AngleDistance@@YAMMM@Z 100602e0 f   util.obj
 0001:0005f330       ?UTIL_AngleMod@@YAMM@Z     10060330 f   util.obj
 0001:0005f3b0       ?UTIL_Approach@@YAMMMM@Z   100603b0 f   util.obj
 0001:0005f410       ?UTIL_ApproachAngle@@YAMMMM@Z 10060410 f   util.obj
 0001:0005f4d0       ?UTIL_BloodDecalTrace@@YAXPAUTraceResult@@H@Z 100604d0 f   util.obj
 0001:0005f520       ?UTIL_BloodDrips@@YAXABVVector@@0HH@Z 10060520 f   util.obj
 0001:0005f630       ?UTIL_BloodStream@@YAXABVVector@@0HH@Z 10060630 f   util.obj
 0001:0005f710       ?UTIL_BubbleTrail@@YAXVVector@@0H@Z 10060710 f   util.obj
 0001:0005f880       ?UTIL_Bubbles@@YAXVVector@@0H@Z 10060880 f   util.obj
 0001:0005f9c0       ?UTIL_ClampVectorToBox@@YA?AVVector@@ABV1@0@Z 100609c0 f   util.obj
 0001:0005fb10       ?UTIL_ClientPrintAll@@YAXHPBD0000@Z 10060b10 f   util.obj
 0001:0005fb90       ?UTIL_DecalTrace@@YAXPAUTraceResult@@H@Z 10060b90 f   util.obj
 0001:0005fcc0       ?UTIL_EmitAmbientSound@@YAXPAUedict_s@@ABVVector@@PBDMMHH@Z 10060cc0 f   util.obj
 0001:0005fd40       ?UTIL_EntitiesInBox@@YAHPAPAVCBaseEntity@@HABVVector@@1H@Z 10060d40 f   util.obj
 0001:0005fe20       ?UTIL_FindEntityByClassname@@YAPAVCBaseEntity@@PAV1@PBD@Z 10060e20 f   util.obj
 0001:0005fe40       ?UTIL_FindEntityByString@@YAPAVCBaseEntity@@PAV1@PBD1@Z 10060e40 f   util.obj
 0001:0005ffa0       ?UTIL_FindEntityByString_Old@@YAPAVCBaseEntity@@PAV1@PBD1@Z 10060fa0 f   util.obj
 0001:0005fff0       ?UTIL_FindEntityByTargetname@@YAPAVCBaseEntity@@PAV1@PBD@Z 10060ff0 f   util.obj
 0001:00060010       ?UTIL_FindEntityInSphere@@YAPAVCBaseEntity@@PAV1@ABVVector@@M@Z 10061010 f   util.obj
 0001:00060060       ?UTIL_GetPlayerGaitYaw@@YAMH@Z 10061060 f   util.obj
 0001:000600b0       ?UTIL_HudMessage@@YAXPAVCBaseEntity@@ABUhudtextparms_s@@PBD@Z 100610b0 f   util.obj
 0001:000602b0       ?UTIL_HudMessageAll@@YAXABUhudtextparms_s@@PBD@Z 100612b0 f   util.obj
 0001:00060300       ?UTIL_HumansInGame@@YAH_N@Z 10061300 f   util.obj
 0001:000603e0       ?UTIL_IsMasterTriggered@@YAHHPAVCBaseEntity@@@Z 100613e0 f   util.obj
 0001:00060460       ?UTIL_LogPrintf@@YAXPADZZ  10061460 f   util.obj
 0001:000604a0       ?UTIL_MakeAimVectors@@YAXABVVector@@@Z 100614a0 f   util.obj
 0001:000604e0       ?UTIL_MakeInvVectors@@YAXABVVector@@PAUglobalvars_t@@@Z 100614e0 f   util.obj
 0001:00060560       ?UTIL_MakeVectors@@YAXABVVector@@@Z 10061560 f   util.obj
 0001:00060570       ?UTIL_PlayerByIndex@@YAPAVCBaseEntity@@H@Z 10061570 f   util.obj
 0001:000605b0       ?UTIL_PlayerDecalTrace@@YAXPAUTraceResult@@HHH@Z 100615b0 f   util.obj
 0001:00060670       ?UTIL_PointContents@@YAHABVVector@@@Z 10061670 f   util.obj
 0001:00060680       ?UTIL_PrecacheOther@@YAXPBD@Z 10061680 f   util.obj
 0001:00060700       ?UTIL_RandomBloodVector@@YA?AVVector@@XZ 10061700 f   util.obj
 0001:00060770       ?UTIL_Remove@@YAXPAVCBaseEntity@@@Z 10061770 f   util.obj
 0001:000607a0       ?UTIL_Ricochet@@YAXABVVector@@M@Z 100617a0 f   util.obj
 0001:00060820       ?UTIL_ScreenFade@@YAXPAVCBaseEntity@@ABVVector@@MMHH@Z 10061820 f   util.obj
 0001:00060870       ?UTIL_ScreenFadeAll@@YAXABVVector@@MMHH@Z 10061870 f   util.obj
 0001:000608e0       ?UTIL_ScreenFadeBuild@@YAXAAUScreenFade@@ABVVector@@MMHH@Z 100618e0 f   util.obj
 0001:00060950       ?UTIL_ScreenFadeWrite@@YAXABUScreenFade@@PAVCBaseEntity@@@Z 10061950 f   util.obj
 0001:000609f0       ?UTIL_ScreenShake@@YAXABVVector@@MMMM@Z 100619f0 f   util.obj
 0001:00060b60       ?UTIL_SetGroupTrace@@YAXHH@Z 10061b60 f   util.obj
 0001:00060b90       ?UTIL_SetOrigin@@YAXPAUentvars_s@@ABVVector@@@Z 10061b90 f   util.obj
 0001:00060bb0       ?UTIL_SetSize@@YAXPAUentvars_s@@ABVVector@@1@Z 10061bb0 f   util.obj
 0001:00060bd0       ?UTIL_SharedRandomFloat@@YAMIMM@Z 10061bd0 f   util.obj
 0001:00060c50       ?UTIL_SharedRandomLong@@YAHIHH@Z 10061c50 f   util.obj
 0001:00060c90       ?UTIL_ShouldShowBlood@@YAHH@Z 10061c90 f   util.obj
 0001:00060cf0       ?UTIL_ShowMessage@@YAXPBDPAVCBaseEntity@@@Z 10061cf0 f   util.obj
 0001:00060d40       ?UTIL_ShowMessageAll@@YAXPBD@Z 10061d40 f   util.obj
 0001:00060d90       ?UTIL_ShowMessageArgs@@YAXPBDPAVCBaseEntity@@PAV?$CUtlVector@PAD@@_N@Z 10061d90 f   util.obj
 0001:00060e50       ?UTIL_Sparks@@YAXABVVector@@@Z 10061e50 f   util.obj
 0001:00060eb0       ?UTIL_StringToIntArray@@YAXPAHHPBD@Z 10061eb0 f   util.obj
 0001:00060f30       ?UTIL_StringToVector@@YAXPAMPBD@Z 10061f30 f   util.obj
 0001:00060fc0       ?UTIL_StripToken@@YAXPBDPAD@Z 10061fc0 f   util.obj
 0001:00061000       ?UTIL_TeamsMatch@@YAHPBD0@Z 10062000 f   util.obj
 0001:00061040       ?UTIL_TextureHit@@YADPAUTraceResult@@VVector@@1@Z 10062040 f   util.obj
 0001:00061140       ?UTIL_TraceHull@@YAXABVVector@@0W4IGNORE_MONSTERS@@HPAUedict_s@@PAUTraceResult@@@Z 10062140 f   util.obj
 0001:00061160       ?UTIL_TraceLine@@YAXABVVector@@0W4IGNORE_MONSTERS@@PAUedict_s@@PAUTraceResult@@@Z 10062160 f   util.obj
 0001:00061180       ?UTIL_TraceLine@@YAXABVVector@@0W4IGNORE_MONSTERS@@W4IGNORE_GLASS@@PAUedict_s@@PAUTraceResult@@@Z 10062180 f   util.obj
 0001:000611c0       ?UTIL_TraceModel@@YAXABVVector@@0HPAUedict_s@@PAUTraceResult@@@Z 100621c0 f   util.obj
 0001:000611d0       ?UTIL_UnsetGroupTrace@@YAXXZ 100621d0 f   util.obj
 0001:00061200       ?UTIL_VarArgs@@YAPADPADZZ  10062200 f   util.obj
 0001:00061230       ?UTIL_VecToAngles@@YA?AVVector@@ABV1@@Z 10062230 f   util.obj
 0001:00061270       ?UTIL_VecToYaw@@YAMABVVector@@@Z 10062270 f   util.obj
 0001:00061280       ?UTIL_WaterLevel@@YAMABVVector@@MM@Z 10062280 f   util.obj
 0001:00061360       ?UTIL_WeaponTimeBase@@YAMXZ 10062360 f   util.obj
 0001:00061360       ?GetDelay@CBaseEntity@@UAEMXZ 10062360 f   airtank.obj
 0001:00061370       ?UTIL_dtos1@@YAPADH@Z      10062370 f   util.obj
 0001:00061390       ?UTIL_dtos2@@YAPADH@Z      10062390 f   util.obj
 0001:000613b0       ?U_Random@@YAIXZ           100623b0 f   util.obj
 0001:000613e0       ?U_Srand@@YAXI@Z           100623e0 f   util.obj
 0001:00061400       ?WriteData@CSave@@QAEXPBDH0@Z 10062400 f   util.obj
 0001:00061410       ?WriteEntVars@CSave@@QAEHPBDPAUentvars_s@@@Z 10062410 f   util.obj
 0001:00061430       ?WriteFields@CSave@@QAEHPBDPAXPAUTYPEDESCRIPTION@@H@Z 10062430 f   util.obj
 0001:000616f0       ?WriteInt@CSave@@QAEXPBDPBHH@Z 100626f0 f   util.obj
 0001:000616f0       ?WriteFloat@CSave@@QAEXPBDPBMH@Z 100626f0 f   util.obj
 0001:00061710       ?WriteFunction@CSave@@QAEXPBDPBHH@Z 10062710 f   util.obj
 0001:00061770       ?WritePositionVector@CSave@@QAEXPBDPBMH@Z 10062770 f   util.obj
 0001:00061820       ?WriteString@CSave@@QAEXPBDPBHH@Z 10062820 f   util.obj
 0001:000618c0       ?WriteTime@CSave@@QAEXPBDPBMH@Z 100628c0 f   util.obj
 0001:00061920       ?WriteVector@CSave@@QAEXPBDPBMH@Z 10062920 f   util.obj
 0001:00061950       ??$GetClassPtr@VCFuncVehicle@@@@YAPAVCFuncVehicle@@PAV0@@Z 10062950 f i vehicle.obj
 0001:00061ae0       ??$GetClassPtr@VCFuncVehicleControls@@@@YAPAVCFuncVehicleControls@@PAV0@@Z 10062ae0 f i vehicle.obj
 0001:00061b40       ?Blocked@CFuncVehicle@@UAEXPAVCBaseEntity@@@Z 10062b40 f   vehicle.obj
 0001:00061e40       ?CheckTurning@CFuncVehicle@@QAEXXZ 10062e40 f   vehicle.obj
 0001:00062280       ?Classify@CFuncVehicle@@UAEHXZ 10063280 f   vehicle.obj
 0001:00062290       ?CollisionDetection@CFuncVehicle@@QAEXXZ 10063290 f   vehicle.obj
 0001:00062990       ?DeadEnd@CFuncVehicle@@QAEXXZ 10063990 f   vehicle.obj
 0001:00062ab0       ?Find@CFuncVehicle@@QAEXXZ 10063ab0 f   vehicle.obj
 0001:00062cb0       ?Find@CFuncVehicleControls@@QAEXXZ 10063cb0 f   vehicle.obj
 0001:00062de0       ?Instance@CFuncVehicle@@SAPAV1@PAUedict_s@@@Z 10063de0 f   vehicle.obj
 0001:00062e40       ?KeyValue@CFuncVehicle@@UAEXPAUKeyValueData_s@@@Z 10063e40 f   vehicle.obj
 0001:00063090       ?NearestPath@CFuncVehicle@@QAEXXZ 10064090 f   vehicle.obj
 0001:00063320       ?Next@CFuncVehicle@@QAEXXZ 10064320 f   vehicle.obj
 0001:00063c70       ?ObjectCaps@CFuncVehicle@@UAEHXZ 10064c70 f i vehicle.obj
 0001:00063c70       ?ObjectCaps@CFuncTrackTrain@@UAEHXZ 10064c70 f i plats.obj
 0001:00063c80       ?OnControls@CFuncVehicle@@UAEHPAUentvars_s@@@Z 10064c80 f   vehicle.obj
 0001:00063db0       ?OverrideReset@CFuncVehicle@@UAEXXZ 10064db0 f   vehicle.obj
 0001:00063df0       ?Precache@CFuncVehicle@@UAEXXZ 10064df0 f   vehicle.obj
 0001:00063f00       ?Restart@CFuncVehicle@@UAEXXZ 10064f00 f   vehicle.obj
 0001:00064000       ?Restore@CFuncVehicle@@UAEHAAVCRestore@@@Z 10065000 f   vehicle.obj
 0001:00064040       ?Save@CFuncVehicle@@UAEHAAVCSave@@@Z 10065040 f   vehicle.obj
 0001:00064080       ?SetControls@CFuncVehicle@@QAEXPAUentvars_s@@@Z 10065080 f   vehicle.obj
 0001:00064130       ?Spawn@CFuncVehicle@@UAEXXZ 10065130 f   vehicle.obj
 0001:00064330       ?Spawn@CFuncVehicleControls@@UAEXXZ 10065330 f   vehicle.obj
 0001:000643b0       ?StopSound@CFuncVehicle@@QAEXXZ 100653b0 f   vehicle.obj
 0001:00064430       ?TerrainFollowing@CFuncVehicle@@QAEXXZ 10065430 f   vehicle.obj
 0001:00064530       ?UpdateSound@CFuncVehicle@@QAEXXZ 10065530 f   vehicle.obj
 0001:000646c0       ?Use@CFuncVehicle@@UAEXPAVCBaseEntity@@0W4USE_TYPE@@M@Z 100656c0 f   vehicle.obj
 0001:00064cf0       _func_vehicle              10065cf0 f   vehicle.obj
 0001:00064d00       _func_vehiclecontrols      10065d00 f   vehicle.obj
 0001:00064d10       ??$GetClassPtr@VCArmoury@@@@YAPAVCArmoury@@PAV0@@Z 10065d10 f i weapons.obj
 0001:00064d70       ??$GetClassPtr@VCWeaponBox@@@@YAPAVCWeaponBox@@PAV0@@Z 10065d70 f i weapons.obj
 0001:00064dd0       ?AddAmmoNameToAmmoRegistry@@YAXPBD@Z 10065dd0 f   weapons.obj
 0001:00064e30       ?AddDuplicate@CBasePlayerWeapon@@UAEHPAVCBasePlayerItem@@@Z 10065e30 f   weapons.obj
 0001:00064e50       ?AddMultiDamage@@YAXPAUentvars_s@@PAVCBaseEntity@@MH@Z 10065e50 f   weapons.obj
 0001:00064eb0       ?AddPrimaryAmmo@CBasePlayerWeapon@@QAEHHPADHH@Z 10065eb0 f   weapons.obj
 0001:00064f70       ?AddSecondaryAmmo@CBasePlayerWeapon@@QAEHHPADH@Z 10065f70 f   weapons.obj
 0001:00064fe0       ?AddToPlayer@CBasePlayerItem@@UAEHPAVCBasePlayer@@@Z 10065fe0 f   weapons.obj
 0001:00065000       ?AddToPlayer@CBasePlayerWeapon@@UAEHPAVCBasePlayer@@@Z 10066000 f   weapons.obj
 0001:000650c0       ?ApplyMultiDamage@@YAXPAUentvars_s@@0@Z 100660c0 f   weapons.obj
 0001:000650f0       ?ArmouryTouch@CArmoury@@QAEXPAVCBaseEntity@@@Z 100660f0 f   weapons.obj
 0001:00065460       ?AttachToPlayer@CBasePlayerItem@@UAEXPAVCBasePlayer@@@Z 10066460 f   weapons.obj
 0001:00065500       ?AttemptToMaterialize@CBasePlayerItem@@QAEXXZ 10066500 f   weapons.obj
 0001:00065560       ?CheckRespawn@CBasePlayerItem@@QAEXXZ 10066560 f   weapons.obj
 0001:00065570       ?ClearMultiDamage@@YAXXZ   10066570 f   weapons.obj
 0001:00065590       ?DefaultDeploy@CBasePlayerWeapon@@QAEHPAD0H0H@Z 10066590 f   weapons.obj
 0001:000656c0       ?DefaultReload@CBasePlayerWeapon@@QAEHHHMH@Z 100666c0 f   weapons.obj
 0001:00065780       ?DefaultTouch@CBasePlayerAmmo@@QAEXPAVCBaseEntity@@@Z 10066780 f   weapons.obj
 0001:00065810       ?DefaultTouch@CBasePlayerItem@@QAEXPAVCBaseEntity@@@Z 10066810 f   weapons.obj
 0001:000658e0       ?DestroyItem@CBasePlayerItem@@QAEXXZ 100668e0 f   weapons.obj
 0001:00065900       ?EjectBrass@@YAXABVVector@@00MHHH@Z 10066900 f   weapons.obj
 0001:000659f0       ?EjectBrassLate@CBasePlayerWeapon@@QAEXXZ 100669f0 f   weapons.obj
 0001:00065c60       ?ExtractAmmo@CBasePlayerWeapon@@UAEHPAV1@@Z 10066c60 f   weapons.obj
 0001:00065cd0       ?ExtractClipAmmo@CBasePlayerWeapon@@UAEHPAV1@@Z 10066cd0 f   weapons.obj
 0001:00065d10       ?FallInit@CBasePlayerItem@@QAEXXZ 10066d10 f   weapons.obj
 0001:00065dc0       ?FallThink@CBasePlayerItem@@QAEXXZ 10066dc0 f   weapons.obj
 0001:00065e70       ?FireRemaining@CBasePlayerWeapon@@QAEXAAHAAMH@Z 10066e70 f   weapons.obj
 0001:00066170       ?GiveAmmo@CWeaponBox@@QAEHHPADHPAH@Z 10067170 f   weapons.obj
 0001:00066260       ?HasSecondaryAttack@CBasePlayerWeapon@@QAE_NXZ 10067260 f   weapons.obj
 0001:000662d0       ?HasWeapon@CWeaponBox@@QAEHPAVCBasePlayerItem@@@Z 100672d0 f   weapons.obj
 0001:00066360       ?Holster@CBasePlayerWeapon@@UAEXH@Z 10067360 f   weapons.obj
 0001:000663a0       ?IsUseable@CBasePlayerWeapon@@UAEHXZ 100673a0 f   weapons.obj
 0001:000663f0       ?ItemPostFrame@CBasePlayerWeapon@@UAEXXZ 100673f0 f   weapons.obj
 0001:00066980       ?KeyValue@CArmoury@@UAEXPAUKeyValueData_s@@@Z 10067980 f   weapons.obj
 0001:00066a40       ?KeyValue@CWeaponBox@@UAEXPAUKeyValueData_s@@@Z 10067a40 f   weapons.obj
 0001:00066aa0       ?KickBack@CBasePlayerWeapon@@QAEXMMMMMMH@Z 10067aa0 f   weapons.obj
 0001:00066ba0       ?Kill@CBasePlayerItem@@UAEXXZ 10067ba0 f   weapons.obj
 0001:00066ba0       ?Drop@CBasePlayerItem@@UAEXXZ 10067ba0 f   weapons.obj
 0001:00066be0       ?Kill@CWeaponBox@@QAEXXZ   10067be0 f   weapons.obj
 0001:00066c50       ?Materialize@CBasePlayerAmmo@@QAEXXZ 10067c50 f   weapons.obj
 0001:00066cb0       ?Materialize@CBasePlayerItem@@QAEXXZ 10067cb0 f   weapons.obj
 0001:00066d80       ?MaxAmmoCarry@@YAHH@Z      10067d80 f   weapons.obj
 0001:00066e60       ?PackAmmo@CWeaponBox@@QAEHHH@Z 10067e60 f   weapons.obj
 0001:00066ec0       ?PackWeapon@CWeaponBox@@QAEHPAVCBasePlayerItem@@@Z 10067ec0 f   weapons.obj
 0001:00066fd0       ?PlayEmptySound@CBasePlayerWeapon@@UAEHXZ 10067fd0 f   weapons.obj
 0001:00067060       ?Precache@CArmoury@@UAEXXZ 10068060 f   weapons.obj
 0001:000671f0       ?Precache@CWeaponBox@@UAEXXZ 100681f0 f   weapons.obj
 0001:00067200       ?PrimaryAmmoIndex@CBasePlayerWeapon@@UAEHXZ 10068200 f   weapons.obj
 0001:00067210       ?ReloadSound@CBasePlayerWeapon@@QAEXXZ 10068210 f   weapons.obj
 0001:000673f0       ?ResetEmptySound@CBasePlayerWeapon@@UAEXXZ 100683f0 f   weapons.obj
 0001:00067400       ?ResetPlayerShieldAnim@CBasePlayerWeapon@@QAEXXZ 10068400 f   weapons.obj
 0001:00067440       ?Respawn@CBasePlayerAmmo@@UAEPAVCBaseEntity@@XZ 10068440 f   weapons.obj
 0001:000674b0       ?Respawn@CBasePlayerItem@@UAEPAVCBaseEntity@@XZ 100684b0 f   weapons.obj
 0001:00067580       ?Restart@CArmoury@@UAEXXZ  10068580 f   weapons.obj
 0001:00067710       ?Restore@CBasePlayerItem@@UAEHAAVCRestore@@@Z 10068710 f   weapons.obj
 0001:00067750       ?Restore@CBasePlayerWeapon@@UAEHAAVCRestore@@@Z 10068750 f   weapons.obj
 0001:00067790       ?Restore@CWeaponBox@@UAEHAAVCRestore@@@Z 10068790 f   weapons.obj
 0001:000677d0       ?RetireWeapon@CBasePlayerWeapon@@UAEXXZ 100687d0 f   weapons.obj
 0001:00067810       ?Save@CBasePlayerItem@@UAEHAAVCSave@@@Z 10068810 f   weapons.obj
 0001:00067850       ?Save@CBasePlayerWeapon@@UAEHAAVCSave@@@Z 10068850 f   weapons.obj
 0001:00067890       ?Save@CWeaponBox@@UAEHAAVCSave@@@Z 10068890 f   weapons.obj
 0001:000678d0       ?SendWeaponAnim@CBasePlayerWeapon@@UAEXHH@Z 100688d0 f   weapons.obj
 0001:00067950       ?SetObjectCollisionBox@CBasePlayerItem@@UAEXXZ 10068950 f   weapons.obj
 0001:000679e0       ?SetObjectCollisionBox@CWeaponBox@@UAEXXZ 100689e0 f   weapons.obj
 0001:00067a70       ?SetPlayerShieldAnim@CBasePlayerWeapon@@QAEXXZ 10068a70 f   weapons.obj
 0001:00067ae0       ?ShieldSecondaryFire@CBasePlayerWeapon@@QAE_NHH@Z 10068ae0 f   weapons.obj
 0001:00067c30       ?Spawn@CArmoury@@UAEXXZ    10068c30 f   weapons.obj
 0001:00067df0       ?Spawn@CBasePlayerAmmo@@UAEXXZ 10068df0 f   weapons.obj
 0001:00067ea0       ?Spawn@CWeaponBox@@UAEXXZ  10068ea0 f   weapons.obj
 0001:00067ef0       ?SpawnBlood@@YAXVVector@@HM@Z 10068ef0 f   weapons.obj
 0001:00067f10       ?Touch@CWeaponBox@@UAEXPAVCBaseEntity@@@Z 10068f10 f   weapons.obj
 0001:000683e0       ?UTIL_PrecacheOtherWeapon@@YAXPBD@Z 100693e0 f   weapons.obj
 0001:000684f0       ?UpdateClientData@CBasePlayerWeapon@@UAEHPAVCBasePlayer@@@Z 100694f0 f   weapons.obj
 0001:000685f0       ?W_Precache@@YAXXZ         100695f0 f   weapons.obj
 0001:000689c0       _armoury_entity            100699c0 f   weapons.obj
 0001:000689d0       _weaponbox                 100699d0 f   weapons.obj
 0001:000689e0       ??$GetClassPtr@VCCorpse@@@@YAPAVCCorpse@@PAV0@@Z 100699e0 f i world.obj
 0001:00068a40       ??$GetClassPtr@VCDecal@@@@YAPAVCDecal@@PAV0@@Z 10069a40 f i world.obj
 0001:00068aa0       ??$GetClassPtr@VCWorld@@@@YAPAVCWorld@@PAV0@@Z 10069aa0 f i world.obj
 0001:00068b00       ??0CGlobalState@@QAE@XZ    10069b00 f   world.obj
 0001:00068b10       ?ClearBodyQue@@YAXXZ       10069b10 f   world.obj
 0001:00068b60       ?ClearStates@CGlobalState@@QAEXXZ 10069b60 f   world.obj
 0001:00068b90       ?DumpGlobals@CGlobalState@@QAEXXZ 10069b90 f   world.obj
 0001:00068be0       ?EntityAdd@CGlobalState@@QAEXHHW4GLOBALESTATE@@@Z 10069be0 f   world.obj
 0001:00068c50       ?EntityFromTable@CGlobalState@@QAEPBUglobalentity_s@@H@Z 10069c50 f   world.obj
 0001:00068c60       ?EntityGetState@CGlobalState@@QAE?AW4GLOBALESTATE@@H@Z 10069c60 f   world.obj
 0001:00068c80       ?EntitySetState@CGlobalState@@QAEXHW4GLOBALESTATE@@@Z 10069c80 f   world.obj
 0001:00068ca0       ?EntityUpdate@CGlobalState@@QAEXHH@Z 10069ca0 f   world.obj
 0001:00068ce0       ?Find@CGlobalState@@AAEPAUglobalentity_s@@H@Z 10069ce0 f   world.obj
 0001:00068dc0       ?KeyValue@CDecal@@UAEXPAUKeyValueData_s@@@Z 10069dc0 f   world.obj
 0001:00068e50       ?KeyValue@CWorld@@UAEXPAUKeyValueData_s@@@Z 10069e50 f   world.obj
 0001:00069210       ?Precache@CWorld@@UAEXXZ   1006a210 f   world.obj
 0001:00069640       ?Reset@CGlobalState@@QAEXXZ 1006a640 f   world.obj
 0001:00069650       ?ResetGlobalState@@YAXXZ   1006a650 f   world.obj
 0001:00069670       ?Restore@CGlobalState@@QAEHAAVCRestore@@@Z 1006a670 f   world.obj
 0001:00069720       ?RestoreGlobalState@@YAXPAUsaverestore_s@@@Z 1006a720 f   world.obj
 0001:00069790       ?Save@CGlobalState@@QAEHAAVCSave@@@Z 1006a790 f   world.obj
 0001:00069800       ?SaveGlobalState@@YAXPAUsaverestore_s@@@Z 1006a800 f   world.obj
 0001:00069860       ?Spawn@CDecal@@UAEXXZ      1006a860 f   world.obj
 0001:000698d0       ?Spawn@CWorld@@UAEXXZ      1006a8d0 f   world.obj
 0001:000699e0       ?StaticDecal@CDecal@@QAEXXZ 1006a9e0 f   world.obj
 0001:00069ae0       ?TriggerDecal@CDecal@@QAEXPAVCBaseEntity@@0W4USE_TYPE@@M@Z 1006aae0 f   world.obj
 0001:00069c60       _bodyque                   1006ac60 f   world.obj
 0001:00069c70       _infodecal                 1006ac70 f   world.obj
 0001:00069c80       _worldspawn                1006ac80 f   world.obj
 0001:00069c90       ??$GetClassPtr@VCAK47@@@@YAPAVCAK47@@PAV0@@Z 1006ac90 f i wpn_ak47.obj
 0001:00069d10       ?AK47Fire@CAK47@@AAEXMMH@Z 1006ad10 f   wpn_ak47.obj
 0001:0006a130       ?Deploy@CAK47@@UAEHXZ      1006b130 f   wpn_ak47.obj
 0001:0006a180       ?GetItemInfo@CAK47@@UAEHPAUItemInfo@@@Z 1006b180 f   wpn_ak47.obj
 0001:0006a200       ?GetMaxSpeed@CAK47@@UAEMXZ 1006b200 f i wpn_ak47.obj
 0001:0006a210       ?Precache@CAK47@@UAEXXZ    1006b210 f   wpn_ak47.obj
 0001:0006a290       ?PrimaryAttack@CAK47@@UAEXXZ 1006b290 f   wpn_ak47.obj
 0001:0006a350       ?Reload@CAK47@@UAEXXZ      1006b350 f   wpn_ak47.obj
 0001:0006a3a0       ?Spawn@CAK47@@UAEXXZ       1006b3a0 f   wpn_ak47.obj
 0001:0006a410       _weapon_ak47               1006b410 f   wpn_ak47.obj
 0001:0006a420       ??$GetClassPtr@VCAUG@@@@YAPAVCAUG@@PAV0@@Z 1006b420 f i wpn_aug.obj
 0001:0006a4a0       ?AUGFire@CAUG@@QAEXMMH@Z   1006b4a0 f   wpn_aug.obj
 0001:0006a8b0       ?Deploy@CAUG@@UAEHXZ       1006b8b0 f   wpn_aug.obj
 0001:0006a900       ?GetItemInfo@CAUG@@UAEHPAUItemInfo@@@Z 1006b900 f   wpn_aug.obj
 0001:0006a980       ?Precache@CAUG@@UAEXXZ     1006b980 f   wpn_aug.obj
 0001:0006aa10       ?PrimaryAttack@CAUG@@UAEXXZ 1006ba10 f   wpn_aug.obj
 0001:0006ab20       ?Reload@CAUG@@UAEXXZ       1006bb20 f   wpn_aug.obj
 0001:0006ab90       ?Spawn@CAUG@@UAEXXZ        1006bb90 f   wpn_aug.obj
 0001:0006ac00       _weapon_aug                1006bc00 f   wpn_aug.obj
 0001:0006ac10       ??$GetClassPtr@VCAWP@@@@YAPAVCAWP@@PAV0@@Z 1006bc10 f i wpn_awp.obj
 0001:0006ac90       ?AWPFire@CAWP@@AAEXMMH@Z   1006bc90 f   wpn_awp.obj
 0001:0006af60       ?Deploy@CAWP@@UAEHXZ       1006bf60 f   wpn_awp.obj
 0001:0006afe0       ?GetItemInfo@CAWP@@UAEHPAUItemInfo@@@Z 1006bfe0 f   wpn_awp.obj
 0001:0006b060       ?Precache@CAWP@@UAEXXZ     1006c060 f   wpn_awp.obj
 0001:0006b110       ?PrimaryAttack@CAWP@@UAEXXZ 1006c110 f   wpn_awp.obj
 0001:0006b1f0       ?Reload@CAWP@@UAEXXZ       1006c1f0 f   wpn_awp.obj
 0001:0006b270       ?SecondaryAttack@CAWP@@UAEXXZ 1006c270 f   wpn_awp.obj
 0001:0006b340       ?Spawn@CAWP@@UAEXXZ        1006c340 f   wpn_awp.obj
 0001:0006b390       ?WeaponIdle@CSCOUT@@UAEXXZ 1006c390 f   wpn_scout.obj
 0001:0006b390       ?WeaponIdle@CAWP@@UAEXXZ   1006c390 f   wpn_awp.obj
 0001:0006b390       ?WeaponIdle@CG3SG1@@UAEXXZ 1006c390 f   wpn_g3sg1.obj
 0001:0006b390       ?WeaponIdle@CSG550@@UAEXXZ 1006c390 f   wpn_sg550.obj
 0001:0006b410       _weapon_awp                1006c410 f   wpn_awp.obj
 0001:0006b420       ??$GetClassPtr@VCC4@@@@YAPAVCC4@@PAV0@@Z 1006c420 f i wpn_c4.obj
 0001:0006b4a0       ?Deploy@CC4@@UAEHXZ        1006c4a0 f   wpn_c4.obj
 0001:0006b520       ?GetItemInfo@CC4@@UAEHPAUItemInfo@@@Z 1006c520 f   wpn_c4.obj
 0001:0006b5a0       ?Holster@CC4@@UAEXH@Z      1006c5a0 f   wpn_c4.obj
 0001:0006b620       ?KeyValue@CC4@@UAEXPAUKeyValueData_s@@@Z 1006c620 f   wpn_c4.obj
 0001:0006b740       ?Precache@CC4@@UAEXXZ      1006c740 f   wpn_c4.obj
 0001:0006b770       ?PrimaryAttack@CC4@@UAEXXZ 1006c770 f   wpn_c4.obj
 0001:0006bc80       ?Spawn@CC4@@UAEXXZ         1006cc80 f   wpn_c4.obj
 0001:0006bd60       ?Use@CC4@@UAEXPAVCBaseEntity@@0W4USE_TYPE@@M@Z 1006cd60 f   wpn_c4.obj
 0001:0006bee0       ?WeaponIdle@CC4@@UAEXXZ    1006cee0 f   wpn_c4.obj
 0001:0006bfd0       ?iItemSlot@CC4@@UAEHXZ     1006cfd0 f i wpn_c4.obj
 0001:0006bfe0       _weapon_c4                 1006cfe0 f   wpn_c4.obj
 0001:0006bff0       ??$GetClassPtr@VCDEAGLE@@@@YAPAVCDEAGLE@@PAV0@@Z 1006cff0 f i wpn_deagle.obj
 0001:0006c070       ?DEAGLEFire@CDEAGLE@@AAEXMMH@Z 1006d070 f   wpn_deagle.obj
 0001:0006c3c0       ?Deploy@CDEAGLE@@UAEHXZ    1006d3c0 f   wpn_deagle.obj
 0001:0006c450       ?GetItemInfo@CDEAGLE@@UAEHPAUItemInfo@@@Z 1006d450 f   wpn_deagle.obj
 0001:0006c4d0       ?Precache@CDEAGLE@@UAEXXZ  1006d4d0 f   wpn_deagle.obj
 0001:0006c560       ?PrimaryAttack@CDEAGLE@@UAEXXZ 1006d560 f   wpn_deagle.obj
 0001:0006c630       ?Reload@CDEAGLE@@UAEXXZ    1006d630 f   wpn_deagle.obj
 0001:0006c670       ?Spawn@CDEAGLE@@UAEXXZ     1006d670 f   wpn_deagle.obj
 0001:0006c6e0       ?WeaponIdle@CDEAGLE@@UAEXXZ 1006d6e0 f   wpn_deagle.obj
 0001:0006c760       _weapon_deagle             1006d760 f   wpn_deagle.obj
 0001:0006c770       ??$GetClassPtr@VCELITE@@@@YAPAVCELITE@@PAV0@@Z 1006d770 f i wpn_elite.obj
 0001:0006c7f0       ?Deploy@CELITE@@UAEHXZ     1006d7f0 f   wpn_elite.obj
 0001:0006c840       ?ELITEFire@CELITE@@AAEXMMH@Z 1006d840 f   wpn_elite.obj
 0001:0006cce0       ?GetItemInfo@CELITE@@UAEHPAUItemInfo@@@Z 1006dce0 f   wpn_elite.obj
 0001:0006cd60       ?Precache@CELITE@@UAEXXZ   1006dd60 f   wpn_elite.obj
 0001:0006ce10       ?PrimaryAttack@CELITE@@UAEXXZ 1006de10 f   wpn_elite.obj
 0001:0006cee0       ?Reload@CELITE@@UAEXXZ     1006dee0 f   wpn_elite.obj
 0001:0006cf20       ?Spawn@CELITE@@UAEXXZ      1006df20 f   wpn_elite.obj
 0001:0006cf80       ?WeaponIdle@CELITE@@UAEXXZ 1006df80 f   wpn_elite.obj
 0001:0006d030       _weapon_elite              1006e030 f   wpn_elite.obj
 0001:0006d040       ??$GetClassPtr@VCFamas@@@@YAPAVCFamas@@PAV0@@Z 1006e040 f i wpn_famas.obj
 0001:0006d0c0       ?Deploy@CFamas@@UAEHXZ     1006e0c0 f   wpn_famas.obj
 0001:0006d120       ?FamasFire@CFamas@@AAEXMMHH@Z 1006e120 f   wpn_famas.obj
 0001:0006d5a0       ?GetItemInfo@CFamas@@UAEHPAUItemInfo@@@Z 1006e5a0 f   wpn_famas.obj
 0001:0006d620       ?Precache@CFamas@@UAEXXZ   1006e620 f   wpn_famas.obj
 0001:0006d6c0       ?PrimaryAttack@CFamas@@UAEXXZ 1006e6c0 f   wpn_famas.obj
 0001:0006d7b0       ?Reload@CFamas@@UAEXXZ     1006e7b0 f   wpn_famas.obj
 0001:0006d820       ?SecondaryAttack@CFamas@@UAEXXZ 1006e820 f   wpn_famas.obj
 0001:0006d8a0       ?Spawn@CFamas@@UAEXXZ      1006e8a0 f   wpn_famas.obj
 0001:0006d910       _weapon_famas              1006e910 f   wpn_famas.obj
 0001:0006d920       ??$GetClassPtr@VCFiveSeven@@@@YAPAVCFiveSeven@@PAV0@@Z 1006e920 f i wpn_fiveseven.obj
 0001:0006d9a0       ?Deploy@CFiveSeven@@UAEHXZ 1006e9a0 f   wpn_fiveseven.obj
 0001:0006da30       ?FiveSevenFire@CFiveSeven@@AAEXMMH@Z 1006ea30 f   wpn_fiveseven.obj
 0001:0006dd40       ?GetItemInfo@CFiveSeven@@UAEHPAUItemInfo@@@Z 1006ed40 f   wpn_fiveseven.obj
 0001:0006ddc0       ?Precache@CFiveSeven@@UAEXXZ 1006edc0 f   wpn_fiveseven.obj
 0001:0006de50       ?PrimaryAttack@CFiveSeven@@UAEXXZ 1006ee50 f   wpn_fiveseven.obj
 0001:0006df20       ?Reload@CFiveSeven@@UAEXXZ 1006ef20 f   wpn_fiveseven.obj
 0001:0006df60       ?Spawn@CFiveSeven@@UAEXXZ  1006ef60 f   wpn_fiveseven.obj
 0001:0006dfd0       ?WeaponIdle@CP228@@UAEXXZ  1006efd0 f   wpn_p228.obj
 0001:0006dfd0       ?WeaponIdle@CFiveSeven@@UAEXXZ 1006efd0 f   wpn_fiveseven.obj
 0001:0006e0a0       _weapon_fiveseven          1006f0a0 f   wpn_fiveseven.obj
 0001:0006e0b0       ??$GetClassPtr@VCFlashbang@@@@YAPAVCFlashbang@@PAV0@@Z 1006f0b0 f i wpn_flashbang.obj
 0001:0006e130       ?Deploy@CFlashbang@@UAEHXZ 1006f130 f   wpn_flashbang.obj
 0001:0006e1c0       ?GetItemInfo@CFlashbang@@UAEHPAUItemInfo@@@Z 1006f1c0 f   wpn_flashbang.obj
 0001:0006e240       ?Holster@CFlashbang@@UAEXH@Z 1006f240 f   wpn_flashbang.obj
 0001:0006e2b0       ?Precache@CFlashbang@@UAEXXZ 1006f2b0 f   wpn_flashbang.obj
 0001:0006e2f0       ?ResetPlayerShieldAnim@CFlashbang@@QAEXXZ 1006f2f0 f   wpn_flashbang.obj
 0001:0006e2f0       ?ResetPlayerShieldAnim@CHEGrenade@@QAEXXZ 1006f2f0 f   wpn_hegrenade.obj
 0001:0006e2f0       ?ResetPlayerShieldAnim@CSmokeGrenade@@QAEXXZ 1006f2f0 f   wpn_smokegrenade.obj
 0001:0006e340       ?Spawn@CFlashbang@@UAEXXZ  1006f340 f   wpn_flashbang.obj
 0001:0006e3c0       ?WeaponIdle@CFlashbang@@UAEXXZ 1006f3c0 f   wpn_flashbang.obj
 0001:0006e780       _weapon_flashbang          1006f780 f   wpn_flashbang.obj
 0001:0006e790       ??$GetClassPtr@VCG3SG1@@@@YAPAVCG3SG1@@PAV0@@Z 1006f790 f i wpn_g3sg1.obj
 0001:0006e810       ?Deploy@CG3SG1@@UAEHXZ     1006f810 f   wpn_g3sg1.obj
 0001:0006e850       ?G3SG1Fire@CG3SG1@@AAEXMMH@Z 1006f850 f   wpn_g3sg1.obj
 0001:0006ebb0       ?GetItemInfo@CG3SG1@@UAEHPAUItemInfo@@@Z 1006fbb0 f   wpn_g3sg1.obj
 0001:0006ec30       ?Precache@CG3SG1@@UAEXXZ   1006fc30 f   wpn_g3sg1.obj
 0001:0006ecb0       ?PrimaryAttack@CG3SG1@@UAEXXZ 1006fcb0 f   wpn_g3sg1.obj
 0001:0006ed70       ?Reload@CG3SG1@@UAEXXZ     1006fd70 f   wpn_g3sg1.obj
 0001:0006ee00       ?Spawn@CG3SG1@@UAEXXZ      1006fe00 f   wpn_g3sg1.obj
 0001:0006ee50       _weapon_g3sg1              1006fe50 f   wpn_g3sg1.obj
 0001:0006ee60       ??$GetClassPtr@VCGalil@@@@YAPAVCGalil@@PAV0@@Z 1006fe60 f i wpn_galil.obj
 0001:0006eee0       ?Deploy@CGalil@@UAEHXZ     1006fee0 f   wpn_galil.obj
 0001:0006ef30       ?GalilFire@CGalil@@AAEXMMH@Z 1006ff30 f   wpn_galil.obj
 0001:0006f340       ?GetItemInfo@CGalil@@UAEHPAUItemInfo@@@Z 10070340 f   wpn_galil.obj
 0001:0006f3c0       ?Precache@CGalil@@UAEXXZ   100703c0 f   wpn_galil.obj
 0001:0006f440       ?PrimaryAttack@CGalil@@UAEXXZ 10070440 f   wpn_galil.obj
 0001:0006f520       ?Reload@CGalil@@UAEXXZ     10070520 f   wpn_galil.obj
 0001:0006f570       ?Spawn@CGalil@@UAEXXZ      10070570 f   wpn_galil.obj
 0001:0006f5c0       _weapon_galil              100705c0 f   wpn_galil.obj
 0001:0006f5d0       ??$GetClassPtr@VCGLOCK18@@@@YAPAVCGLOCK18@@PAV0@@Z 100705d0 f i wpn_glock18.obj
 0001:0006f650       ?Deploy@CGLOCK18@@UAEHXZ   10070650 f   wpn_glock18.obj
 0001:0006f710       ?GLOCK18Fire@CGLOCK18@@AAEXMMH@Z 10070710 f   wpn_glock18.obj
 0001:0006fa80       ?GetItemInfo@CGLOCK18@@UAEHPAUItemInfo@@@Z 10070a80 f   wpn_glock18.obj
 0001:0006fb00       ?Precache@CGLOCK18@@UAEXXZ 10070b00 f   wpn_glock18.obj
 0001:0006fbc0       ?PrimaryAttack@CGLOCK18@@UAEXXZ 10070bc0 f   wpn_glock18.obj
 0001:0006fd90       ?Reload@CGLOCK18@@UAEXXZ   10070d90 f   wpn_glock18.obj
 0001:0006fe00       ?SecondaryAttack@CGLOCK18@@UAEXXZ 10070e00 f   wpn_glock18.obj
 0001:0006fe80       ?Spawn@CGLOCK18@@UAEXXZ    10070e80 f   wpn_glock18.obj
 0001:0006ff00       ?WeaponIdle@CGLOCK18@@UAEXXZ 10070f00 f   wpn_glock18.obj
 0001:00070080       _weapon_glock18            10071080 f   wpn_glock18.obj
 0001:00070090       ??$GetClassPtr@VCHEGrenade@@@@YAPAVCHEGrenade@@PAV0@@Z 10071090 f i wpn_hegrenade.obj
 0001:00070110       ?CanDeploy@CHEGrenade@@UAEHXZ 10071110 f   wpn_hegrenade.obj
 0001:00070110       ?CanDeploy@CFlashbang@@UAEHXZ 10071110 f   wpn_flashbang.obj
 0001:00070110       ?CanDeploy@CSmokeGrenade@@UAEHXZ 10071110 f   wpn_smokegrenade.obj
 0001:00070130       ?CanHolster@CHEGrenade@@UAEHXZ 10071130 f   wpn_hegrenade.obj
 0001:00070150       ?Deploy@CHEGrenade@@UAEHXZ 10071150 f   wpn_hegrenade.obj
 0001:000701e0       ?GetItemInfo@CHEGrenade@@UAEHPAUItemInfo@@@Z 100711e0 f   wpn_hegrenade.obj
 0001:00070260       ?Holster@CHEGrenade@@UAEXH@Z 10071260 f   wpn_hegrenade.obj
 0001:000702d0       ?Precache@CHEGrenade@@UAEXXZ 100712d0 f   wpn_hegrenade.obj
 0001:00070330       ?PrimaryAttack@CHEGrenade@@UAEXXZ 10071330 f   wpn_hegrenade.obj
 0001:00070330       ?PrimaryAttack@CFlashbang@@UAEXXZ 10071330 f   wpn_flashbang.obj
 0001:00070330       ?PrimaryAttack@CSmokeGrenade@@UAEXXZ 10071330 f   wpn_smokegrenade.obj
 0001:000703b0       ?SetPlayerShieldAnim@CSmokeGrenade@@QAEXXZ 100713b0 f   wpn_smokegrenade.obj
 0001:000703b0       ?SetPlayerShieldAnim@CHEGrenade@@QAEXXZ 100713b0 f   wpn_hegrenade.obj
 0001:000703b0       ?SetPlayerShieldAnim@CFlashbang@@QAEXXZ 100713b0 f   wpn_flashbang.obj
 0001:00070420       ?Spawn@CHEGrenade@@UAEXXZ  10071420 f   wpn_hegrenade.obj
 0001:00070480       ?WeaponIdle@CHEGrenade@@UAEXXZ 10071480 f   wpn_hegrenade.obj
 0001:00070880       _weapon_hegrenade          10071880 f   wpn_hegrenade.obj
 0001:00070890       ??$GetClassPtr@VCKnife@@@@YAPAVCKnife@@PAV0@@Z 10071890 f i wpn_knife.obj
 0001:00070950       ?Deploy@CKnife@@UAEHXZ     10071950 f   wpn_knife.obj
 0001:00070a10       ?FindHullIntersection@@YAXABVVector@@AAUTraceResult@@PAM2PAUedict_s@@@Z 10071a10 f   wpn_knife.obj
 0001:00070c70       ?GetItemInfo@CKnife@@UAEHPAUItemInfo@@@Z 10071c70 f   wpn_knife.obj
 0001:00070ce0       ?Holster@CWeaponCycler@@UAEXH@Z 10071ce0 f   h_cycler.obj
 0001:00070ce0       ?Holster@CKnife@@UAEXH@Z   10071ce0 f   wpn_knife.obj
 0001:00070d10       ?Precache@CKnife@@UAEXXZ   10071d10 f   wpn_knife.obj
 0001:00070db0       ?PrimaryAttack@CKnife@@UAEXXZ 10071db0 f   wpn_knife.obj
 0001:00070dc0       ?SecondaryAttack@CKnife@@UAEXXZ 10071dc0 f   wpn_knife.obj
 0001:00070e00       ?SetPlayerShieldAnim@CKnife@@QAEXXZ 10071e00 f   wpn_knife.obj
 0001:00070e70       ?ShieldSecondaryFire@CKnife@@QAE_NHH@Z 10071e70 f   wpn_knife.obj
 0001:00070fb0       ?Smack@CKnife@@QAEXXZ      10071fb0 f   wpn_knife.obj
 0001:00070fd0       ?Spawn@CKnife@@UAEXXZ      10071fd0 f   wpn_knife.obj
 0001:00071020       ?Stab@CKnife@@QAEHH@Z      10072020 f   wpn_knife.obj
 0001:00071650       ?Swing@CKnife@@QAEHH@Z     10072650 f   wpn_knife.obj
 0001:00071d50       ?SwingAgain@CKnife@@QAEXXZ 10072d50 f   wpn_knife.obj
 0001:00071d60       ?WeaponIdle@CKnife@@UAEXXZ 10072d60 f   wpn_knife.obj
 0001:00071df0       _weapon_knife              10072df0 f   wpn_knife.obj
 0001:00071e00       ??$GetClassPtr@VCM249@@@@YAPAVCM249@@PAV0@@Z 10072e00 f i wpn_m249.obj
 0001:00071e80       ?Deploy@CM249@@UAEHXZ      10072e80 f   wpn_m249.obj
 0001:00071ed0       ?GetItemInfo@CM249@@UAEHPAUItemInfo@@@Z 10072ed0 f   wpn_m249.obj
 0001:00071f50       ?GetMaxSpeed@CM249@@UAEMXZ 10072f50 f i wpn_m249.obj
 0001:00071f60       ?M249Fire@CM249@@AAEXMMH@Z 10072f60 f   wpn_m249.obj
 0001:00072380       ?Precache@CM249@@UAEXXZ    10073380 f   wpn_m249.obj
 0001:00072410       ?PrimaryAttack@CM249@@UAEXXZ 10073410 f   wpn_m249.obj
 0001:000724c0       ?Reload@CM249@@UAEXXZ      100734c0 f   wpn_m249.obj
 0001:00072510       ?Spawn@CM249@@UAEXXZ       10073510 f   wpn_m249.obj
 0001:00072580       _weapon_m249               10073580 f   wpn_m249.obj
 0001:00072590       ??$GetClassPtr@VCM3@@@@YAPAVCM3@@PAV0@@Z 10073590 f i wpn_m3.obj
 0001:00072610       ?Deploy@CM3@@UAEHXZ        10073610 f   wpn_m3.obj
 0001:00072640       ?GetItemInfo@CM3@@UAEHPAUItemInfo@@@Z 10073640 f   wpn_m3.obj
 0001:000726c0       ?GetMaxSpeed@CM3@@UAEMXZ   100736c0 f i wpn_m3.obj
 0001:000726c0       ?GetMaxSpeed@CM4A1@@UAEMXZ 100736c0 f i wpn_m4a1.obj
 0001:000726d0       ?Precache@CM3@@UAEXXZ      100736d0 f   wpn_m3.obj
 0001:00072750       ?PrimaryAttack@CM3@@UAEXXZ 10073750 f   wpn_m3.obj
 0001:00072a50       ?Reload@CM3@@UAEXXZ        10073a50 f   wpn_m3.obj
 0001:00072bd0       ?Spawn@CM3@@UAEXXZ         10073bd0 f   wpn_m3.obj
 0001:00072c20       ?WeaponIdle@CM3@@UAEXXZ    10073c20 f   wpn_m3.obj
 0001:00072d70       _weapon_m3                 10073d70 f   wpn_m3.obj
 0001:00072d80       ??$GetClassPtr@VCM4A1@@@@YAPAVCM4A1@@PAV0@@Z 10073d80 f i wpn_m4a1.obj
 0001:00072e00       ?Deploy@CM4A1@@UAEHXZ      10073e00 f   wpn_m4a1.obj
 0001:00072e90       ?GetItemInfo@CM4A1@@UAEHPAUItemInfo@@@Z 10073e90 f   wpn_m4a1.obj
 0001:00072f10       ?M4A1Fire@CM4A1@@AAEXMMH@Z 10073f10 f   wpn_m4a1.obj
 0001:000733e0       ?Precache@CM4A1@@UAEXXZ    100743e0 f   wpn_m4a1.obj
 0001:00073490       ?PrimaryAttack@CM4A1@@UAEXXZ 10074490 f   wpn_m4a1.obj
 0001:000735f0       ?Reload@CM4A1@@UAEXXZ      100745f0 f   wpn_m4a1.obj
 0001:00073660       ?SecondaryAttack@CM4A1@@UAEXXZ 10074660 f   wpn_m4a1.obj
 0001:00073700       ?Spawn@CM4A1@@UAEXXZ       10074700 f   wpn_m4a1.obj
 0001:00073770       ?WeaponIdle@CM4A1@@UAEXXZ  10074770 f   wpn_m4a1.obj
 0001:00073810       _weapon_m4a1               10074810 f   wpn_m4a1.obj
 0001:00073820       ??$GetClassPtr@VCMAC10@@@@YAPAVCMAC10@@PAV0@@Z 10074820 f i wpn_mac10.obj
 0001:000738a0       ?Deploy@CMAC10@@UAEHXZ     100748a0 f   wpn_mac10.obj
 0001:000738f0       ?GetItemInfo@CMAC10@@UAEHPAUItemInfo@@@Z 100748f0 f   wpn_mac10.obj
 0001:00073970       ?MAC10Fire@CMAC10@@AAEXMMH@Z 10074970 f   wpn_mac10.obj
 0001:00073d90       ?Precache@CMAC10@@UAEXXZ   10074d90 f   wpn_mac10.obj
 0001:00073e00       ?PrimaryAttack@CMAC10@@UAEXXZ 10074e00 f   wpn_mac10.obj
 0001:00073e60       ?Reload@CMAC10@@UAEXXZ     10074e60 f   wpn_mac10.obj
 0001:00073eb0       ?Spawn@CMAC10@@UAEXXZ      10074eb0 f   wpn_mac10.obj
 0001:00073f20       _weapon_mac10              10074f20 f   wpn_mac10.obj
 0001:00073f30       ??$GetClassPtr@VCMP5N@@@@YAPAVCMP5N@@PAV0@@Z 10074f30 f i wpn_mp5navy.obj
 0001:00073fb0       ?Deploy@CMP5N@@UAEHXZ      10074fb0 f   wpn_mp5navy.obj
 0001:00074000       ?GetItemInfo@CMP5N@@UAEHPAUItemInfo@@@Z 10075000 f   wpn_mp5navy.obj
 0001:00074080       ?MP5NFire@CMP5N@@AAEXMMH@Z 10075080 f   wpn_mp5navy.obj
 0001:00074490       ?Precache@CMP5N@@UAEXXZ    10075490 f   wpn_mp5navy.obj
 0001:00074510       ?PrimaryAttack@CMP5N@@UAEXXZ 10075510 f   wpn_mp5navy.obj
 0001:00074570       ?Reload@CMP5N@@UAEXXZ      10075570 f   wpn_mp5navy.obj
 0001:000745c0       ?Spawn@CMP5N@@UAEXXZ       100755c0 f   wpn_mp5navy.obj
 0001:00074630       _weapon_mp5navy            10075630 f   wpn_mp5navy.obj
 0001:00074640       ??$GetClassPtr@VCP228@@@@YAPAVCP228@@PAV0@@Z 10075640 f i wpn_p228.obj
 0001:000746c0       ?Deploy@CP228@@UAEHXZ      100756c0 f   wpn_p228.obj
 0001:00074750       ?GetItemInfo@CP228@@UAEHPAUItemInfo@@@Z 10075750 f   wpn_p228.obj
 0001:000747d0       ?GetMaxSpeed@CP228@@UAEMXZ 100757d0 f i wpn_p228.obj
 0001:000747d0       ?GetMaxSpeed@CDEAGLE@@UAEMXZ 100757d0 f i wpn_deagle.obj
 0001:000747d0       ?GetMaxSpeed@CHEGrenade@@UAEMXZ 100757d0 f i wpn_hegrenade.obj
 0001:000747d0       ?GetMaxSpeed@CFlashbang@@UAEMXZ 100757d0 f i wpn_flashbang.obj
 0001:000747d0       ?GetMaxSpeed@CGLOCK18@@UAEMXZ 100757d0 f i wpn_glock18.obj
 0001:000747d0       ?GetMaxSpeed@CFiveSeven@@UAEMXZ 100757d0 f i wpn_fiveseven.obj
 0001:000747d0       ?GetMaxSpeed@CSmokeGrenade@@UAEMXZ 100757d0 f i wpn_smokegrenade.obj
 0001:000747d0       ?GetMaxSpeed@CKnife@@UAEMXZ 100757d0 f i wpn_knife.obj
 0001:000747f0       ?P228Fire@CP228@@AAEXMMH@Z 100757f0 f   wpn_p228.obj
 0001:00074b40       ?Precache@CP228@@UAEXXZ    10075b40 f   wpn_p228.obj
 0001:00074bd0       ?PrimaryAttack@CP228@@UAEXXZ 10075bd0 f   wpn_p228.obj
 0001:00074ca0       ?Reload@CP228@@UAEXXZ      10075ca0 f   wpn_p228.obj
 0001:00074cf0       ?SecondaryAttack@CFiveSeven@@UAEXXZ 10075cf0 f   wpn_fiveseven.obj
 0001:00074cf0       ?SecondaryAttack@CDEAGLE@@UAEXXZ 10075cf0 f   wpn_deagle.obj
 0001:00074cf0       ?SecondaryAttack@CP228@@UAEXXZ 10075cf0 f   wpn_p228.obj
 0001:00074d00       ?Spawn@CP228@@UAEXXZ       10075d00 f   wpn_p228.obj
 0001:00074d70       _weapon_p228               10075d70 f   wpn_p228.obj
 0001:00074d80       ??$GetClassPtr@VCP90@@@@YAPAVCP90@@PAV0@@Z 10075d80 f i wpn_p90.obj
 0001:00074e00       ?Deploy@CP90@@UAEHXZ       10075e00 f   wpn_p90.obj
 0001:00074e50       ?GetItemInfo@CP90@@UAEHPAUItemInfo@@@Z 10075e50 f   wpn_p90.obj
 0001:00074ed0       ?GetMaxSpeed@CP90@@UAEMXZ  10075ed0 f i wpn_p90.obj
 0001:00074ee0       ?P90Fire@CP90@@AAEXMMH@Z   10075ee0 f   wpn_p90.obj
 0001:00075300       ?Precache@CP90@@UAEXXZ     10076300 f   wpn_p90.obj
 0001:00075380       ?PrimaryAttack@CP90@@UAEXXZ 10076380 f   wpn_p90.obj
 0001:00075420       ?Reload@CP90@@UAEXXZ       10076420 f   wpn_p90.obj
 0001:00075470       ?Spawn@CP90@@UAEXXZ        10076470 f   wpn_p90.obj
 0001:000754e0       _weapon_p90                100764e0 f   wpn_p90.obj
 0001:000754f0       ??$GetClassPtr@VCSCOUT@@@@YAPAVCSCOUT@@PAV0@@Z 100764f0 f i wpn_scout.obj
 0001:00075570       ?Deploy@CSCOUT@@UAEHXZ     10076570 f   wpn_scout.obj
 0001:000755f0       ?GetItemInfo@CSCOUT@@UAEHPAUItemInfo@@@Z 100765f0 f   wpn_scout.obj
 0001:00075670       ?GetMaxSpeed@CSCOUT@@UAEMXZ 10076670 f   wpn_scout.obj
 0001:00075690       ?Precache@CSCOUT@@UAEXXZ   10076690 f   wpn_scout.obj
 0001:00075710       ?PrimaryAttack@CSCOUT@@UAEXXZ 10076710 f   wpn_scout.obj
 0001:000757d0       ?Reload@CSCOUT@@UAEXXZ     100767d0 f   wpn_scout.obj
 0001:00075850       ?SCOUTFire@CSCOUT@@AAEXMMH@Z 10076850 f   wpn_scout.obj
 0001:00075b30       ?SecondaryAttack@CSCOUT@@UAEXXZ 10076b30 f   wpn_scout.obj
 0001:00075c00       ?Spawn@CSCOUT@@UAEXXZ      10076c00 f   wpn_scout.obj
 0001:00075c50       _weapon_scout              10076c50 f   wpn_scout.obj
 0001:00075c60       ??$GetClassPtr@VCSG550@@@@YAPAVCSG550@@PAV0@@Z 10076c60 f i wpn_sg550.obj
 0001:00075ce0       ?Deploy@CSG550@@UAEHXZ     10076ce0 f   wpn_sg550.obj
 0001:00075d20       ?GetItemInfo@CSG550@@UAEHPAUItemInfo@@@Z 10076d20 f   wpn_sg550.obj
 0001:00075da0       ?GetMaxSpeed@CAWP@@UAEMXZ  10076da0 f   wpn_awp.obj
 0001:00075da0       ?GetMaxSpeed@CSG550@@UAEMXZ 10076da0 f   wpn_sg550.obj
 0001:00075da0       ?GetMaxSpeed@CG3SG1@@UAEMXZ 10076da0 f   wpn_g3sg1.obj
 0001:00075dc0       ?Precache@CSG550@@UAEXXZ   10076dc0 f   wpn_sg550.obj
 0001:00075e40       ?PrimaryAttack@CSG550@@UAEXXZ 10076e40 f   wpn_sg550.obj
 0001:00075f20       ?Reload@CSG550@@UAEXXZ     10076f20 f   wpn_sg550.obj
 0001:00075fb0       ?SG550Fire@CSG550@@AAEXMMH@Z 10076fb0 f   wpn_sg550.obj
 0001:00076310       ?SecondaryAttack@CSG550@@UAEXXZ 10077310 f   wpn_sg550.obj
 0001:00076310       ?SecondaryAttack@CG3SG1@@UAEXXZ 10077310 f   wpn_g3sg1.obj
 0001:000763d0       ?Spawn@CSG550@@UAEXXZ      100773d0 f   wpn_sg550.obj
 0001:00076420       _weapon_sg550              10077420 f   wpn_sg550.obj
 0001:00076430       ??$GetClassPtr@VCSG552@@@@YAPAVCSG552@@PAV0@@Z 10077430 f i wpn_sg552.obj
 0001:000764b0       ?Deploy@CSG552@@UAEHXZ     100774b0 f   wpn_sg552.obj
 0001:00076500       ?GetItemInfo@CSG552@@UAEHPAUItemInfo@@@Z 10077500 f   wpn_sg552.obj
 0001:00076580       ?GetMaxSpeed@CSG552@@UAEMXZ 10077580 f   wpn_sg552.obj
 0001:000765a0       ?Precache@CSG552@@UAEXXZ   100775a0 f   wpn_sg552.obj
 0001:00076620       ?PrimaryAttack@CSG552@@UAEXXZ 10077620 f   wpn_sg552.obj
 0001:00076730       ?Reload@CSG552@@UAEXXZ     10077730 f   wpn_sg552.obj
 0001:000767a0       ?SG552Fire@CSG552@@QAEXMMH@Z 100777a0 f   wpn_sg552.obj
 0001:00076bc0       ?SecondaryAttack@CSG552@@UAEXXZ 10077bc0 f   wpn_sg552.obj
 0001:00076bc0       ?SecondaryAttack@CAUG@@UAEXXZ 10077bc0 f   wpn_aug.obj
 0001:00076c40       ?Spawn@CSG552@@UAEXXZ      10077c40 f   wpn_sg552.obj
 0001:00076cb0       _weapon_sg552              10077cb0 f   wpn_sg552.obj
 0001:00076cc0       ??$GetClassPtr@VCSmokeGrenade@@@@YAPAVCSmokeGrenade@@PAV0@@Z 10077cc0 f i wpn_smokegrenade.obj
 0001:00076d40       ?Deploy@CSmokeGrenade@@UAEHXZ 10077d40 f   wpn_smokegrenade.obj
 0001:00076dd0       ?GetItemInfo@CSmokeGrenade@@UAEHPAUItemInfo@@@Z 10077dd0 f   wpn_smokegrenade.obj
 0001:00076e50       ?Holster@CSmokeGrenade@@UAEXH@Z 10077e50 f   wpn_smokegrenade.obj
 0001:00076ec0       ?Precache@CSmokeGrenade@@UAEXXZ 10077ec0 f   wpn_smokegrenade.obj
 0001:00076f10       ?SecondaryAttack@CHEGrenade@@UAEXXZ 10077f10 f   wpn_hegrenade.obj
 0001:00076f10       ?SecondaryAttack@CSmokeGrenade@@UAEXXZ 10077f10 f   wpn_smokegrenade.obj
 0001:00076f10       ?SecondaryAttack@CFlashbang@@UAEXXZ 10077f10 f   wpn_flashbang.obj
 0001:00076f20       ?ShieldSecondaryFire@CSmokeGrenade@@QAE_NHH@Z 10077f20 f   wpn_smokegrenade.obj
 0001:00076f20       ?ShieldSecondaryFire@CFlashbang@@QAE_NHH@Z 10077f20 f   wpn_flashbang.obj
 0001:00076f20       ?ShieldSecondaryFire@CHEGrenade@@QAE_NHH@Z 10077f20 f   wpn_hegrenade.obj
 0001:00077080       ?Spawn@CSmokeGrenade@@UAEXXZ 10078080 f   wpn_smokegrenade.obj
 0001:00077100       ?WeaponIdle@CSmokeGrenade@@UAEXXZ 10078100 f   wpn_smokegrenade.obj
 0001:00077530       ?Classify@CDeadHEV@@UAEHXZ 10078530 f i player.obj
 0001:00077530       ?iItemSlot@CHEGrenade@@UAEHXZ 10078530 f i wpn_hegrenade.obj
 0001:00077530       ?iItemSlot@CSmokeGrenade@@UAEHXZ 10078530 f i wpn_smokegrenade.obj
 0001:00077530       ?iItemSlot@CFlashbang@@UAEHXZ 10078530 f i wpn_flashbang.obj
 0001:00077540       _weapon_smokegrenade       10078540 f   wpn_smokegrenade.obj
 0001:00077550       ??$GetClassPtr@VCTMP@@@@YAPAVCTMP@@PAV0@@Z 10078550 f i wpn_tmp.obj
 0001:000775d0       ?Deploy@CTMP@@UAEHXZ       100785d0 f   wpn_tmp.obj
 0001:00077630       ?GetItemInfo@CTMP@@UAEHPAUItemInfo@@@Z 10078630 f   wpn_tmp.obj
 0001:000776b0       ?GetMaxSpeed@CC4@@UAEMXZ   100786b0 f i wpn_c4.obj
 0001:000776b0       ?GetMaxSpeed@CUSP@@UAEMXZ  100786b0 f i wpn_usp.obj
 0001:000776b0       ?GetMaxSpeed@CELITE@@UAEMXZ 100786b0 f i wpn_elite.obj
 0001:000776b0       ?GetMaxSpeed@CMAC10@@UAEMXZ 100786b0 f i wpn_mac10.obj
 0001:000776b0       ?GetMaxSpeed@CTMP@@UAEMXZ  100786b0 f i wpn_tmp.obj
 0001:000776b0       ?GetMaxSpeed@CUMP45@@UAEMXZ 100786b0 f i wpn_ump45.obj
 0001:000776b0       ?GetMaxSpeed@CMP5N@@UAEMXZ 100786b0 f i wpn_mp5navy.obj
 0001:000776c0       ?Precache@CTMP@@UAEXXZ     100786c0 f   wpn_tmp.obj
 0001:00077720       ?PrimaryAttack@CTMP@@UAEXXZ 10078720 f   wpn_tmp.obj
 0001:00077780       ?Reload@CTMP@@UAEXXZ       10078780 f   wpn_tmp.obj
 0001:000777d0       ?Spawn@CTMP@@UAEXXZ        100787d0 f   wpn_tmp.obj
 0001:00077840       ?TMPFire@CTMP@@AAEXMMH@Z   10078840 f   wpn_tmp.obj
 0001:00077c50       _weapon_tmp                10078c50 f   wpn_tmp.obj
 0001:00077c60       ??$GetClassPtr@VCUMP45@@@@YAPAVCUMP45@@PAV0@@Z 10078c60 f i wpn_ump45.obj
 0001:00077ce0       ?Deploy@CUMP45@@UAEHXZ     10078ce0 f   wpn_ump45.obj
 0001:00077d30       ?GetItemInfo@CUMP45@@UAEHPAUItemInfo@@@Z 10078d30 f   wpn_ump45.obj
 0001:00077db0       ?Precache@CUMP45@@UAEXXZ   10078db0 f   wpn_ump45.obj
 0001:00077e20       ?PrimaryAttack@CUMP45@@UAEXXZ 10078e20 f   wpn_ump45.obj
 0001:00077e80       ?Reload@CUMP45@@UAEXXZ     10078e80 f   wpn_ump45.obj
 0001:00077ed0       ?Spawn@CUMP45@@UAEXXZ      10078ed0 f   wpn_ump45.obj
 0001:00077f40       ?UMP45Fire@CUMP45@@AAEXMMH@Z 10078f40 f   wpn_ump45.obj
 0001:00078350       ?WeaponIdle@CGalil@@UAEXXZ 10079350 f   wpn_galil.obj
 0001:00078350       ?WeaponIdle@CMAC10@@UAEXXZ 10079350 f   wpn_mac10.obj
 0001:00078350       ?WeaponIdle@CAK47@@UAEXXZ  10079350 f   wpn_ak47.obj
 0001:00078350       ?WeaponIdle@CAUG@@UAEXXZ   10079350 f   wpn_aug.obj
 0001:00078350       ?WeaponIdle@CUMP45@@UAEXXZ 10079350 f   wpn_ump45.obj
 0001:00078350       ?WeaponIdle@CP90@@UAEXXZ   10079350 f   wpn_p90.obj
 0001:00078350       ?WeaponIdle@CSG552@@UAEXXZ 10079350 f   wpn_sg552.obj
 0001:00078350       ?WeaponIdle@CFamas@@UAEXXZ 10079350 f   wpn_famas.obj
 0001:00078350       ?WeaponIdle@CTMP@@UAEXXZ   10079350 f   wpn_tmp.obj
 0001:00078350       ?WeaponIdle@CMP5N@@UAEXXZ  10079350 f   wpn_mp5navy.obj
 0001:00078350       ?WeaponIdle@CM249@@UAEXXZ  10079350 f   wpn_m249.obj
 0001:000783d0       _weapon_ump45              100793d0 f   wpn_ump45.obj
 0001:000783e0       ??$GetClassPtr@VCUSP@@@@YAPAVCUSP@@PAV0@@Z 100793e0 f i wpn_usp.obj
 0001:00078460       ?Deploy@CUSP@@UAEHXZ       10079460 f   wpn_usp.obj
 0001:00078500       ?GetItemInfo@CUSP@@UAEHPAUItemInfo@@@Z 10079500 f   wpn_usp.obj
 0001:00078580       ?Precache@CUSP@@UAEXXZ     10079580 f   wpn_usp.obj
 0001:00078640       ?PrimaryAttack@CUSP@@UAEXXZ 10079640 f   wpn_usp.obj
 0001:000787e0       ?Reload@CUSP@@UAEXXZ       100797e0 f   wpn_usp.obj
 0001:00078850       ?SecondaryAttack@CUSP@@UAEXXZ 10079850 f   wpn_usp.obj
 0001:00078910       ?Spawn@CUSP@@UAEXXZ        10079910 f   wpn_usp.obj
 0001:00078980       ?USPFire@CUSP@@AAEXMMH@Z   10079980 f   wpn_usp.obj
 0001:00078ca0       ?WeaponIdle@CUSP@@UAEXXZ   10079ca0 f   wpn_usp.obj
 0001:00078da0       ?iItemSlot@CGLOCK18@@UAEHXZ 10079da0 f i wpn_glock18.obj
 0001:00078da0       ?iItemSlot@CP228@@UAEHXZ   10079da0 f i wpn_p228.obj
 0001:00078da0       ?Classify@CBasePlayer@@UAEHXZ 10079da0 f i player.obj
 0001:00078da0       ?iItemSlot@CFiveSeven@@UAEHXZ 10079da0 f i wpn_fiveseven.obj
 0001:00078da0       ?iItemSlot@CUSP@@UAEHXZ    10079da0 f i wpn_usp.obj
 0001:00078da0       ?iItemSlot@CDEAGLE@@UAEHXZ 10079da0 f i wpn_deagle.obj
 0001:00078da0       ?ObjectCaps@CBaseEntity@@UAEHXZ 10079da0 f i airtank.obj
 0001:00078da0       ?iItemSlot@CELITE@@UAEHXZ  10079da0 f i wpn_elite.obj
 0001:00078db0       _weapon_usp                10079db0 f   wpn_usp.obj
 0001:00078dc0       ??$GetClassPtr@VCXM1014@@@@YAPAVCXM1014@@PAV0@@Z 10079dc0 f i wpn_xm1014.obj
 0001:00078e40       ?Deploy@CXM1014@@UAEHXZ    10079e40 f   wpn_xm1014.obj
 0001:00078e70       ?GetItemInfo@CXM1014@@UAEHPAUItemInfo@@@Z 10079e70 f   wpn_xm1014.obj
 0001:00078ef0       ?GetMaxSpeed@CAUG@@UAEMXZ  10079ef0 f i wpn_aug.obj
 0001:00078ef0       ?GetMaxSpeed@CGalil@@UAEMXZ 10079ef0 f i wpn_galil.obj
 0001:00078ef0       ?GetMaxSpeed@CXM1014@@UAEMXZ 10079ef0 f i wpn_xm1014.obj
 0001:00078ef0       ?GetMaxSpeed@CFamas@@UAEMXZ 10079ef0 f i wpn_famas.obj
 0001:00078f00       ?Precache@CXM1014@@UAEXXZ  10079f00 f   wpn_xm1014.obj
 0001:00078f70       ?PrimaryAttack@CXM1014@@UAEXXZ 10079f70 f   wpn_xm1014.obj
 0001:00079270       ?Reload@CXM1014@@UAEXXZ    1007a270 f   wpn_xm1014.obj
 0001:00079470       ?Spawn@CXM1014@@UAEXXZ     1007a470 f   wpn_xm1014.obj
 0001:000794b0       ?WeaponIdle@CXM1014@@UAEXXZ 1007a4b0 f   wpn_xm1014.obj
 0001:00079600       _weapon_xm1014             1007a600 f   wpn_xm1014.obj
 0001:00079605       ??3@YAXPAXI@Z              1007a605 f   LIBCMT:delete_scalar_size.obj
 0001:00079620       __chkstk                   1007a620 f   LIBCMT:chkstk.obj
 0001:00079620       __alloca_probe             1007a620 f   LIBCMT:chkstk.obj
 0001:0007964d       ??_Gtype_info@@UAEPAXI@Z   1007a64d f i LIBCMT:std_type_info_static.obj
 0001:0007964d       ??_Etype_info@@UAEPAXI@Z   1007a64d f i LIBCMT:std_type_info_static.obj
 0001:000796b4       ___scrt_acquire_startup_lock 1007a6b4 f   LIBCMT:utility.obj
 0001:000796e9       ___scrt_dllmain_after_initialize_c 1007a6e9 f   LIBCMT:utility.obj
 0001:00079714       ___scrt_dllmain_before_initialize_c 1007a714 f   LIBCMT:utility.obj
 0001:00079722       ___scrt_dllmain_crt_thread_attach 1007a722 f   LIBCMT:utility.obj
 0001:00079741       ___scrt_dllmain_crt_thread_detach 1007a741 f   LIBCMT:utility.obj
 0001:0007974e       ___scrt_dllmain_exception_filter 1007a74e f   LIBCMT:utility.obj
 0001:00079781       ___scrt_dllmain_uninitialize_c 1007a781 f   LIBCMT:utility.obj
 0001:000797a4       ___scrt_dllmain_uninitialize_critical 1007a7a4 f   LIBCMT:utility.obj
 0001:000797b1       ___scrt_initialize_crt     1007a7b1 f   LIBCMT:utility.obj
 0001:000797ea       ___scrt_initialize_onexit_tables 1007a7ea f   LIBCMT:utility.obj
 0001:00079894       ___scrt_is_nonwritable_in_current_image 1007a894 f   LIBCMT:utility.obj
 0001:0007991e       ___scrt_release_startup_lock 1007a91e f   LIBCMT:utility.obj
 0001:0007993b       ___scrt_uninitialize_crt   1007a93b f   LIBCMT:utility.obj
 0001:00079963       __onexit                   1007a963 f   LIBCMT:utility.obj
 0001:0007999e       _atexit                    1007a99e f   LIBCMT:utility.obj
 0001:000799b3       ??2@YAPAXI@Z               1007a9b3 f   LIBCMT:new_scalar.obj
 0001:000799f0       __ftol2_sse                1007a9f0 f   LIBCMT:_ftol2_.obj
 0001:000799f9       __ftol2_pentium4           1007a9f9 f   LIBCMT:_ftol2_.obj
 0001:00079a0c       __ftol2_sse_excpt          1007aa0c f   LIBCMT:_ftol2_.obj
 0001:00079a30       __ftol2                    1007aa30 f   LIBCMT:_ftol2_.obj
 0001:00079aa5       ??_U@YAPAXI@Z              1007aaa5 f   LIBCMT:new_array.obj
 0001:00079aae       ??_V@YAXPAX@Z              1007aaae f   LIBCMT:delete_array.obj
 0001:00079dad       __DllMainCRTStartup@12     1007adad f   LIBCMT:dll_dllmain.obj
 0001:00079dd0       ??3@YAXPAX@Z               1007add0 f   LIBCMT:delete_scalar.obj
 0001:00079dd5       ___isa_available_init      1007add5 f   LIBCMT:_cpu_disp_.obj
 0001:00079f74       __get_startup_argv_mode    1007af74 f   LIBCMT:argv_mode.obj
 0001:00079f78       ___scrt_is_ucrt_dll_in_use 1007af78 f   LIBCMT:ucrt_detection.obj
 0001:00079f84       ___scrt_fastfail           1007af84 f   LIBCMT:utility_desktop.obj
 0001:0007a0a0       __crt_debugger_hook        1007b0a0 f   LIBCMT:utility_desktop.obj
 0001:0007a0a8       @_guard_check_icall@4      1007b0a8 f i LIBCMT:checkcfg.obj
 0001:0007a0b0       __SEH_prolog4              1007b0b0 f   LIBCMT:_sehprolg4_.obj
 0001:0007a0f6       __SEH_epilog4              1007b0f6 f   LIBCMT:_sehprolg4_.obj
 0001:0007a10b       ??0bad_alloc@std@@QAE@ABV01@@Z 1007b10b f i LIBCMT:throw_bad_alloc.obj
 0001:0007a126       ??0bad_alloc@std@@QAE@XZ   1007b126 f i LIBCMT:throw_bad_alloc.obj
 0001:0007a13e       ??0bad_array_new_length@std@@QAE@ABV01@@Z 1007b13e f i LIBCMT:throw_bad_alloc.obj
 0001:0007a159       ??0bad_array_new_length@std@@QAE@XZ 1007b159 f i LIBCMT:throw_bad_alloc.obj
 0001:0007a171       ??0exception@std@@QAE@ABV01@@Z 1007b171 f i LIBCMT:throw_bad_alloc.obj
 0001:0007a19d       ??1bad_exception@std@@UAE@XZ 1007b19d f i libvcruntime:frame.obj
 0001:0007a19d       ??1bad_alloc@std@@UAE@XZ   1007b19d f i LIBCMT:throw_bad_alloc.obj
 0001:0007a19d       ??1bad_array_new_length@std@@UAE@XZ 1007b19d f i LIBCMT:throw_bad_alloc.obj
 0001:0007a1ae       ??_Gbad_exception@std@@UAEPAXI@Z 1007b1ae f i libvcruntime:frame.obj
 0001:0007a1ae       ??_Gexception@std@@UAEPAXI@Z 1007b1ae f i LIBCMT:throw_bad_alloc.obj
 0001:0007a1ae       ??_Gbad_array_new_length@std@@UAEPAXI@Z 1007b1ae f i LIBCMT:throw_bad_alloc.obj
 0001:0007a1ae       ??_Eexception@std@@UAEPAXI@Z 1007b1ae f i LIBCMT:throw_bad_alloc.obj
 0001:0007a1ae       ??_Ebad_alloc@std@@UAEPAXI@Z 1007b1ae f i LIBCMT:throw_bad_alloc.obj
 0001:0007a1ae       ??_Ebad_array_new_length@std@@UAEPAXI@Z 1007b1ae f i LIBCMT:throw_bad_alloc.obj
 0001:0007a1ae       ??_Ebad_exception@std@@UAEPAXI@Z 1007b1ae f i libvcruntime:frame.obj
 0001:0007a1ae       ??_Gbad_alloc@std@@UAEPAXI@Z 1007b1ae f i LIBCMT:throw_bad_alloc.obj
 0001:0007a1db       ?__scrt_throw_std_bad_alloc@@YAXXZ 1007b1db f   LIBCMT:throw_bad_alloc.obj
 0001:0007a1f8       ?__scrt_throw_std_bad_array_new_length@@YAXXZ 1007b1f8 f   LIBCMT:throw_bad_alloc.obj
 0001:0007a215       ?what@exception@std@@UBEPBDXZ 1007b215 f i LIBCMT:throw_bad_alloc.obj
 0001:0007a271       ___security_init_cookie    1007b271 f   LIBCMT:gs_support.obj
 0001:0007a2c4       ?__scrt_initialize_type_info@@YAXXZ 1007b2c4 f   LIBCMT:tncleanup.obj
 0001:0007a2d0       ?__scrt_uninitialize_type_info@@YAXXZ 1007b2d0 f   LIBCMT:tncleanup.obj
 0001:0007a2dc       ___scrt_initialize_default_local_stdio_options 1007b2dc f   LIBCMT:default_local_stdio_options.obj
 0001:0007a2f9       ___scrt_get_dyn_tls_init_callback 1007b2f9 f   LIBCMT:dyn_tls_init.obj
 0001:0007a2ff       __RTC_Initialize           1007b2ff f   LIBCMT:_initsect_.obj
 0001:0007a32a       __RTC_Terminate            1007b32a f   LIBCMT:_initsect_.obj
 0001:0007a355       @__security_check_cookie@4 1007b355 f   LIBCMT:_secchk_.obj
 0001:0007a366       ___raise_securityfailure   1007b366 f   LIBCMT:gs_report.obj
 0001:0007a38e       ___report_gsfailure        1007b38e f   LIBCMT:gs_report.obj
 0001:0007a490       _memset                    1007b490 f   libvcruntime:memset.obj
 0001:0007a5f0       _memmove                   1007b5f0 f   libvcruntime:memmove.obj
 0001:0007ab64       ?_CallCatchBlock2@@YAPAXPAUEHRegistrationNode@@PBU_s_FuncInfo@@PAXHK@Z 1007bb64 f   libvcruntime:trnsctrl.obj
 0001:0007abc4       ?_CallSETranslator@@YAHPAUEHExceptionRecord@@PAUEHRegistrationNode@@PAX2PBU_s_FuncInfo@@H1@Z 1007bbc4 f   libvcruntime:trnsctrl.obj
 0001:0007aca1       ?_GetRangeOfTrysToCheck@@YAPBU_s_TryBlockMapEntry@@PBU_s_FuncInfo@@HHPAI1@Z 1007bca1 f   libvcruntime:trnsctrl.obj
 0001:0007ad19       ?_JumpToContinuation@@YGXPAXPAUEHRegistrationNode@@@Z 1007bd19 f   libvcruntime:trnsctrl.obj
 0001:0007ad4b       ?_UnwindNestedFrames@@YGXPAUEHRegistrationNode@@PAUEHExceptionRecord@@@Z 1007bd4b f   libvcruntime:trnsctrl.obj
 0001:0007ada0       __CatchGuardHandler        1007bda0 f   libvcruntime:trnsctrl.obj
 0001:0007add1       __CreateFrameInfo          1007bdd1 f   libvcruntime:trnsctrl.obj
 0001:0007adf5       __FindAndUnlinkFrame       1007bdf5 f   libvcruntime:trnsctrl.obj
 0001:0007ae3f       __TranslatorGuardHandler   1007be3f f   libvcruntime:trnsctrl.obj
 0001:0007aede       ___CxxFrameHandler3        1007bede f   libvcruntime:trnsctrl.obj
 0001:0007af20       _strstr                    1007bf20 f   libvcruntime:strstr.obj
 0001:0007b183       __get_purecall_handler     1007c183 f   libvcruntime:purevirt.obj
 0001:0007b198       __purecall                 1007c198 f   libvcruntime:purevirt.obj
 0001:0007b1c0       _memcpy                    1007c1c0 f   libvcruntime:memcpy.obj
 0001:0007b734       ___vcrt_initialize         1007c734 f   libvcruntime:initialization.obj
 0001:0007b75d       ___vcrt_thread_attach      1007c75d f   libvcruntime:initialization.obj
 0001:0007b768       ___vcrt_thread_detach      1007c768 f   libvcruntime:initialization.obj
 0001:0007b773       ___vcrt_uninitialize       1007c773 f   libvcruntime:initialization.obj
 0001:0007b792       ___vcrt_uninitialize_critical 1007c792 f   libvcruntime:initialization.obj
 0001:0007b7e0       __except_handler4          1007c7e0 f   libvcruntime:_chandler4_.obj
 0001:0007b946       ___std_exception_copy      1007c946 f   libvcruntime:std_exception.obj
 0001:0007b9a9       ___std_exception_destroy   1007c9a9 f   libvcruntime:std_exception.obj
 0001:0007b9c8       __CxxThrowException@8      1007c9c8 f   libvcruntime:throw.obj
 0001:0007ba36       ___std_type_info_compare   1007ca36 f   libvcruntime:std_type_info.obj
 0001:0007ba72       ___std_type_info_destroy_list 1007ca72 f   libvcruntime:std_type_info.obj
 0001:0007ba95       ___vcrt_freefls@4          1007ca95 f   libvcruntime:per_thread_data.obj
 0001:0007bab1       ___vcrt_freeptd            1007cab1 f   libvcruntime:per_thread_data.obj
 0001:0007bae7       ___vcrt_getptd             1007cae7 f   libvcruntime:per_thread_data.obj
 0001:0007baf5       ___vcrt_getptd_noexit      1007caf5 f   libvcruntime:per_thread_data.obj
 0001:0007bb87       ___vcrt_initialize_ptd     1007cb87 f   libvcruntime:per_thread_data.obj
 0001:0007bbba       ___vcrt_uninitialize_ptd   1007cbba f   libvcruntime:per_thread_data.obj
 0001:0007bbe0       __CallSettingFrame@12      1007cbe0 f   libvcruntime:lowhelpr.obj
 0001:0007bc07       __NLG_Return               1007cc07     libvcruntime:lowhelpr.obj
 0001:0007bc2c       ??0bad_exception@std@@QAE@ABV01@@Z 1007cc2c f i libvcruntime:frame.obj
 0001:0007bc47       ??0bad_exception@std@@QAE@XZ 1007cc47 f i libvcruntime:frame.obj
 0001:0007bc5f       ??8type_info@@QBE_NABV0@@Z 1007cc5f f i libvcruntime:frame.obj
 0001:0007c476       ?_CallMemberFunction1@@YGXQAX00@Z 1007d476 f i libvcruntime:frame.obj
 0001:0007c486       ?_CallMemberFunction2@@YGXQAX00H@Z 1007d486 f i libvcruntime:frame.obj
 0001:0007c499       ___BuildCatchObject        1007d499 f   libvcruntime:frame.obj
 0001:0007c528       ___BuildCatchObjectHelper  1007d528 f   libvcruntime:frame.obj
 0001:0007c656       ___FrameUnwindToState      1007d656 f   libvcruntime:frame.obj
 0001:0007c71e       ___InternalCxxFrameHandler 1007d71e f   libvcruntime:frame.obj
 0001:0007c81a       ___TypeMatch               1007d81a f   libvcruntime:frame.obj
 0001:0007c8a8       ___except_validate_context_record 1007d8a8 f   libvcruntime:jbcxrval.obj
 0001:0007c8d8       ___except_validate_jump_buffer 1007d8d8 f   libvcruntime:jbcxrval.obj
 0001:0007c910       _strchr                    1007d910 f   libvcruntime:strchr.obj
 0001:0007c97e       ___from_strstr_to_strchr   1007d97e     libvcruntime:strchr.obj
 0001:0007ca3b       ___vcrt_initialize_pure_virtual_call_handler 1007da3b f   libvcruntime:purevirt_data.obj
 0001:0007ca58       ___vcrt_initialize_locks   1007da58 f   libvcruntime:locks.obj
 0001:0007ca94       ___vcrt_uninitialize_locks 1007da94 f   libvcruntime:locks.obj
 0001:0007cac3       ??$__crt_fast_encode_pointer@PAX@@YAPAXQAX@Z 1007dac3 f i libvcruntime:winapi_downlevel.obj
 0001:0007cac3       ??$__crt_fast_encode_pointer@PAP6AXXZ@@YAPAP6AXXZQAP6AXXZ@Z 1007dac3 f i LIBCMT:utility.obj
 0001:0007cc26       ___vcrt_FlsAlloc           1007dc26 f   libvcruntime:winapi_downlevel.obj
 0001:0007cc60       ___vcrt_FlsFree            1007dc60 f   libvcruntime:winapi_downlevel.obj
 0001:0007cc9a       ___vcrt_FlsGetValue        1007dc9a f   libvcruntime:winapi_downlevel.obj
 0001:0007ccd4       ___vcrt_FlsSetValue        1007dcd4 f   libvcruntime:winapi_downlevel.obj
 0001:0007cd11       ___vcrt_InitializeCriticalSectionEx 1007dd11 f   libvcruntime:winapi_downlevel.obj
 0001:0007cd57       ___vcrt_initialize_winapi_thunks 1007dd57 f   libvcruntime:winapi_downlevel.obj
 0001:0007cd91       ___vcrt_uninitialize_winapi_thunks 1007dd91 f   libvcruntime:winapi_downlevel.obj
 0001:0007cdd0       __local_unwind4            1007ddd0 f   libvcruntime:_exsup4_.obj
 0001:0007cea8       __seh_longjmp_unwind4@4    1007dea8 f   libvcruntime:_exsup4_.obj
 0001:0007ced0       @_EH4_CallFilterFunc@8     1007ded0 f   libvcruntime:_exsup4_.obj
 0001:0007cee8       @_EH4_TransferToHandler@8  1007dee8 f   libvcruntime:_exsup4_.obj
 0001:0007cf04       @_EH4_GlobalUnwind2@8      1007df04 f   libvcruntime:_exsup4_.obj
 0001:0007cf20       @_EH4_LocalUnwind@16       1007df20 f   libvcruntime:_exsup4_.obj
 0001:0007cf40       __global_unwind2           1007df40 f   libvcruntime:_exsup_.obj
 0001:0007cfa6       __local_unwind2            1007dfa6 f   libvcruntime:_exsup_.obj
 0001:0007d02a       __abnormal_termination     1007e02a f   libvcruntime:_exsup_.obj
 0001:0007d050       __NLG_Notify1              1007e050 f   libvcruntime:_exsup_.obj
 0001:0007d05c       __NLG_Notify               1007e05c f   libvcruntime:_exsup_.obj
 0001:0007d073       __NLG_Dispatch2            1007e073     libvcruntime:_exsup_.obj
 0001:0007d073       __NLG_Dispatch             1007e073     libvcruntime:_exsup_.obj
 0001:0007d07b       __NLG_Call                 1007e07b f   libvcruntime:_exsup_.obj
 0001:0007d07d       __NLG_Return2              1007e07d     libvcruntime:_exsup_.obj
 0001:0007d07e       _unexpected                1007e07e f   libvcruntime:unexpected.obj
 0001:0007d09a       ___DestructExceptionObject 1007e09a f   libvcruntime:ehhelpers.obj
 0001:0007d12e       ?_CallMemberFunction0@@YGXQAX0@Z 1007e12e f i libvcruntime:ehhelpers.obj
 0001:0007d13b       __IsExceptionObjectToBeDestroyed 1007e13b f   libvcruntime:ehhelpers.obj
 0001:0007d161       ___AdjustPointer           1007e161 f   libvcruntime:ehhelpers.obj
 0001:0007d186       ___FrameUnwindFilter       1007e186 f   libvcruntime:ehhelpers.obj
 0001:0007d347       ??$count@D@formatting_buffer@__crt_stdio_output@@QBEIXZ 1007e347 f i libucrt:output.obj
 0001:0007d35f       ??$ensure_buffer_is_big_enough@D@formatting_buffer@__crt_stdio_output@@QAE_NI@Z 1007e35f f i libucrt:output.obj
 0001:0007d3e5       ??$is_wide_character_specifier@D@__crt_stdio_output@@YA_N_KDW4length_modifier@0@@Z 1007e3e5 f i libucrt:output.obj
 0001:0007d425       ??$scratch_data@D@formatting_buffer@__crt_stdio_output@@QAEPADXZ 1007e425 f i libucrt:output.obj
 0001:0007d443       ??$type_case_integer_parse_into_buffer@I@?$output_processor@DV?$string_output_adapter@D@__crt_stdio_output@@V?$standard_base@DV?$string_output_adapter@D@__crt_stdio_output@@@2@@__crt_stdio_output@@AAEXII_N@Z 1007e443 f i libucrt:output.obj
 0001:0007d4b8       ??$type_case_integer_parse_into_buffer@_K@?$output_processor@DV?$string_output_adapter@D@__crt_stdio_output@@V?$standard_base@DV?$string_output_adapter@D@__crt_stdio_output@@@2@@__crt_stdio_output@@AAEX_KI_N@Z 1007e4b8 f i libucrt:output.obj
 0001:0007d540       ??$write_multiple_characters@V?$string_output_adapter@D@__crt_stdio_output@@D@__crt_stdio_output@@YAXABV?$string_output_adapter@D@0@DHQAH@Z 1007e540 f i libucrt:output.obj
 0001:0007d56c       ??0?$common_data@D@__crt_stdio_output@@IAE@XZ 1007e56c f i libucrt:output.obj
 0001:0007d5b3       ??0?$output_adapter_data@DV?$string_output_adapter@D@__crt_stdio_output@@@__crt_stdio_output@@IAE@ABV?$string_output_adapter@D@1@_KQBDQAU__crt_locale_pointers@@QAD@Z 1007e5b3 f i libucrt:output.obj
 0001:0007d5ef       ??0?$output_processor@DV?$string_output_adapter@D@__crt_stdio_output@@V?$standard_base@DV?$string_output_adapter@D@__crt_stdio_output@@@2@@__crt_stdio_output@@QAE@ABV?$string_output_adapter@D@1@_KQBDQAU__crt_locale_pointers@@QAD@Z 1007e5ef f i libucrt:output.obj
 0001:0007d624       ??0_LocaleUpdate@@QAE@QAU__crt_locale_pointers@@@Z 1007e624 f i libucrt:output.obj
 0001:0007d6a7       ??1formatting_buffer@__crt_stdio_output@@QAE@XZ 1007e6a7 f i libucrt:output.obj
 0001:0007d6c1       ??4?$__crt_unique_heap_ptr@DU__crt_internal_free_policy@@@@QAEAAV0@$$QAV0@@Z 1007e6c1 f i libucrt:output.obj
 0001:0007d6e5       ?crop_zeroes@__crt_stdio_output@@YAXPADQAU__crt_locale_pointers@@@Z 1007e6e5 f i libucrt:output.obj
 0001:0007d73c       ?find_next_state@?$output_processor@DV?$string_output_adapter@D@__crt_stdio_output@@V?$standard_base@DV?$string_output_adapter@D@__crt_stdio_output@@@2@@__crt_stdio_output@@ABE?AW4state@2@DW432@@Z 1007e73c f i libucrt:output.obj
 0001:0007d76e       ?force_decimal_point@__crt_stdio_output@@YAXPADQAU__crt_locale_pointers@@@Z 1007e76e f i libucrt:output.obj
 0001:0007d7ca       ?parse_int_from_format_string@?$output_processor@DV?$string_output_adapter@D@__crt_stdio_output@@V?$standard_base@DV?$string_output_adapter@D@__crt_stdio_output@@@2@@__crt_stdio_output@@AAE_NQAH@Z 1007e7ca f i libucrt:output.obj
 0001:0007d826       ?process@?$output_processor@DV?$string_output_adapter@D@__crt_stdio_output@@V?$standard_base@DV?$string_output_adapter@D@__crt_stdio_output@@@2@@__crt_stdio_output@@QAEHXZ 1007e826 f i libucrt:output.obj
 0001:0007d942       ?state_case_flag@?$output_processor@DV?$string_output_adapter@D@__crt_stdio_output@@V?$standard_base@DV?$string_output_adapter@D@__crt_stdio_output@@@2@@__crt_stdio_output@@AAE_NXZ 1007e942 f i libucrt:output.obj
 0001:0007d97f       ?state_case_normal@?$output_processor@DV?$string_output_adapter@D@__crt_stdio_output@@V?$standard_base@DV?$string_output_adapter@D@__crt_stdio_output@@@2@@__crt_stdio_output@@AAE_NXZ 1007e97f f i libucrt:output.obj
 0001:0007d99e       ?state_case_normal_common@?$output_processor@DV?$string_output_adapter@D@__crt_stdio_output@@V?$standard_base@DV?$string_output_adapter@D@__crt_stdio_output@@@2@@__crt_stdio_output@@AAE_NXZ 1007e99e f i libucrt:output.obj
 0001:0007d9c8       ?state_case_normal_tchar@?$output_processor@DV?$string_output_adapter@D@__crt_stdio_output@@V?$standard_base@DV?$string_output_adapter@D@__crt_stdio_output@@@2@@__crt_stdio_output@@AAE_ND@Z 1007e9c8 f i libucrt:output.obj
 0001:0007da29       ?state_case_precision@?$output_processor@DV?$string_output_adapter@D@__crt_stdio_output@@V?$standard_base@DV?$string_output_adapter@D@__crt_stdio_output@@@2@@__crt_stdio_output@@AAE_NXZ 1007ea29 f i libucrt:output.obj
 0001:0007da51       ?state_case_size@?$output_processor@DV?$string_output_adapter@D@__crt_stdio_output@@V?$standard_base@DV?$string_output_adapter@D@__crt_stdio_output@@@2@@__crt_stdio_output@@AAE_NXZ 1007ea51 f i libucrt:output.obj
 0001:0007dbba       ?state_case_type@?$output_processor@DV?$string_output_adapter@D@__crt_stdio_output@@V?$standard_base@DV?$string_output_adapter@D@__crt_stdio_output@@@2@@__crt_stdio_output@@AAE_NXZ 1007ebba f i libucrt:output.obj
 0001:0007dde9       ?state_case_width@?$output_processor@DV?$string_output_adapter@D@__crt_stdio_output@@V?$standard_base@DV?$string_output_adapter@D@__crt_stdio_output@@@2@@__crt_stdio_output@@AAE_NXZ 1007ede9 f i libucrt:output.obj
 0001:0007de14       ?to_integer_size@__crt_stdio_output@@YAIW4length_modifier@1@@Z 1007ee14 f i libucrt:output.obj
 0001:0007de70       ?type_case_Z@?$output_processor@DV?$string_output_adapter@D@__crt_stdio_output@@V?$standard_base@DV?$string_output_adapter@D@__crt_stdio_output@@@2@@__crt_stdio_output@@AAE_NXZ 1007ee70 f i libucrt:output.obj
 0001:0007ded3       ?type_case_a@?$output_processor@DV?$string_output_adapter@D@__crt_stdio_output@@V?$standard_base@DV?$string_output_adapter@D@__crt_stdio_output@@@2@@__crt_stdio_output@@AAE_NXZ 1007eed3 f i libucrt:output.obj
 0001:0007e02d       ?type_case_c_tchar@?$output_processor@DV?$string_output_adapter@D@__crt_stdio_output@@V?$standard_base@DV?$string_output_adapter@D@__crt_stdio_output@@@2@@__crt_stdio_output@@AAE_ND@Z 1007f02d f i libucrt:output.obj
 0001:0007e0bd       ?type_case_integer@?$output_processor@DV?$string_output_adapter@D@__crt_stdio_output@@V?$standard_base@DV?$string_output_adapter@D@__crt_stdio_output@@@2@@__crt_stdio_output@@AAE_NI_N@Z 1007f0bd f i libucrt:output.obj
 0001:0007e207       ?type_case_n@?$output_processor@DV?$string_output_adapter@D@__crt_stdio_output@@V?$standard_base@DV?$string_output_adapter@D@__crt_stdio_output@@@2@@__crt_stdio_output@@AAE_NXZ 1007f207 f i libucrt:output.obj
 0001:0007e27b       ?type_case_o@?$output_processor@DV?$string_output_adapter@D@__crt_stdio_output@@V?$standard_base@DV?$string_output_adapter@D@__crt_stdio_output@@@2@@__crt_stdio_output@@AAE_NXZ 1007f27b f i libucrt:output.obj
 0001:0007e29a       ?type_case_p@?$output_processor@DV?$string_output_adapter@D@__crt_stdio_output@@V?$standard_base@DV?$string_output_adapter@D@__crt_stdio_output@@@2@@__crt_stdio_output@@AAE_NXZ 1007f29a f i libucrt:output.obj
 0001:0007e2b2       ?type_case_s@?$output_processor@DV?$string_output_adapter@D@__crt_stdio_output@@V?$standard_base@DV?$string_output_adapter@D@__crt_stdio_output@@@2@@__crt_stdio_output@@AAE_NXZ 1007f2b2 f i libucrt:output.obj
 0001:0007e325       ?write_character@?$string_output_adapter@D@__crt_stdio_output@@QBE_NDQAH@Z 1007f325 f i libucrt:output.obj
 0001:0007e367       ?write_stored_string_tchar@?$output_processor@DV?$string_output_adapter@D@__crt_stdio_output@@V?$standard_base@DV?$string_output_adapter@D@__crt_stdio_output@@@2@@__crt_stdio_output@@AAE_ND@Z 1007f367 f i libucrt:output.obj
 0001:0007e40e       ?write_string@?$string_output_adapter@D@__crt_stdio_output@@QBEXQBDHQAH1@Z 1007f40e f i libucrt:output.obj
 0001:0007e4a1       ___stdio_common_vsprintf   1007f4a1 f   libucrt:output.obj
 0001:0007e4c5       ??$assemble_floating_point_ind@N@__crt_strtox@@YAXAAN@Z 1007f4c5 f i libucrt:input.obj
 0001:0007e4f4       ??$assemble_floating_point_infinity@N@__crt_strtox@@YAX_NAAN@Z 1007f4f4 f i libucrt:input.obj
 0001:0007e533       ??$assemble_floating_point_qnan@N@__crt_strtox@@YAX_NAAN@Z 1007f533 f i libucrt:input.obj
 0001:0007e572       ??$assemble_floating_point_snan@N@__crt_strtox@@YAX_NAAN@Z 1007f572 f i libucrt:input.obj
 0001:0007e5b6       ??$assemble_floating_point_value_t@M@__crt_strtox@@YA?AW4SLD_STATUS@@_NH_KAAM@Z 1007f5b6 f i libucrt:input.obj
 0001:0007e5e6       ??$assemble_floating_point_value_t@N@__crt_strtox@@YA?AW4SLD_STATUS@@_NH_KAAN@Z 1007f5e6 f i libucrt:input.obj
 0001:0007e645       ??$assemble_floating_point_zero@N@__crt_strtox@@YAX_NAAN@Z 1007f645 f i libucrt:input.obj
 0001:0007e743       ??$convert_decimal_string_to_floating_type@M@__crt_strtox@@YA?AW4SLD_STATUS@@ABUfloating_point_string@0@AAM@Z 1007f743 f i libucrt:input.obj
 0001:0007e766       ??$convert_decimal_string_to_floating_type@N@__crt_strtox@@YA?AW4SLD_STATUS@@ABUfloating_point_string@0@AAN@Z 1007f766 f i libucrt:input.obj
 0001:0007e789       ??$convert_hexadecimal_string_to_floating_type@M@__crt_strtox@@YA?AW4SLD_STATUS@@ABUfloating_point_string@0@AAM@Z 1007f789 f i libucrt:input.obj
 0001:0007e7ac       ??$convert_hexadecimal_string_to_floating_type@N@__crt_strtox@@YA?AW4SLD_STATUS@@ABUfloating_point_string@0@AAN@Z 1007f7ac f i libucrt:input.obj
 0001:0007e7cf       ??$is_overflow_condition@_K@__crt_strtox@@YA_NI_K@Z 1007f7cf f i libucrt:input.obj
 0001:0007e812       ??$make_input_adapter_character_source@V?$string_input_adapter@D@__crt_stdio_input@@@__crt_strtox@@YA?AV?$input_adapter_character_source@V?$string_input_adapter@D@__crt_stdio_input@@@0@QAV?$string_input_adapter@D@__crt_stdio_input@@_KQA_N@Z 1007f812 f i libucrt:input.obj
 0001:0007e830       ??$parse_floating_point@V?$input_adapter_character_source@V?$string_input_adapter@D@__crt_stdio_input@@@__crt_strtox@@M@__crt_strtox@@YA?AW4SLD_STATUS@@QAU__crt_locale_pointers@@V?$input_adapter_character_source@V?$string_input_adapter@D@__crt_stdio_input@@@0@QAM@Z 1007f830 f i libucrt:input.obj
 0001:0007e8ab       ??$parse_floating_point@V?$input_adapter_character_source@V?$string_input_adapter@D@__crt_stdio_input@@@__crt_strtox@@N@__crt_strtox@@YA?AW4SLD_STATUS@@QAU__crt_locale_pointers@@V?$input_adapter_character_source@V?$string_input_adapter@D@__crt_stdio_input@@@0@QAN@Z 1007f8ab f i libucrt:input.obj
 0001:0007e926       ??$parse_floating_point_from_source@V?$input_adapter_character_source@V?$string_input_adapter@D@__crt_stdio_input@@@__crt_strtox@@@__crt_strtox@@YA?AW4floating_point_parse_result@0@QAU__crt_locale_pointers@@AAV?$input_adapter_character_source@V?$string_input_adapter@D@__crt_stdio_input@@@0@AAUfloating_point_string@0@@Z 1007f926 f i libucrt:input.obj
 0001:0007ed8d       ??$parse_floating_point_possible_infinity@DV?$input_adapter_character_source@V?$string_input_adapter@D@__crt_stdio_input@@@__crt_strtox@@_K@__crt_strtox@@YA?AW4floating_point_parse_result@0@AADAAV?$input_adapter_character_source@V?$string_input_adapter@D@__crt_stdio_input@@@0@_K@Z 1007fd8d f i libucrt:input.obj
 0001:0007ee4e       ??$parse_floating_point_possible_nan@DV?$input_adapter_character_source@V?$string_input_adapter@D@__crt_stdio_input@@@__crt_strtox@@_K@__crt_strtox@@YA?AW4floating_point_parse_result@0@AADAAV?$input_adapter_character_source@V?$string_input_adapter@D@__crt_stdio_input@@@0@_K@Z 1007fe4e f i libucrt:input.obj
 0001:0007ef60       ??$parse_floating_point_possible_nan_is_ind@DV?$input_adapter_character_source@V?$string_input_adapter@D@__crt_stdio_input@@@__crt_strtox@@@__crt_strtox@@YA_NAADAAV?$input_adapter_character_source@V?$string_input_adapter@D@__crt_stdio_input@@@0@@Z 1007ff60 f i libucrt:input.obj
 0001:0007ef9a       ??$parse_floating_point_possible_nan_is_snan@DV?$input_adapter_character_source@V?$string_input_adapter@D@__crt_stdio_input@@@__crt_strtox@@@__crt_strtox@@YA_NAADAAV?$input_adapter_character_source@V?$string_input_adapter@D@__crt_stdio_input@@@0@@Z 1007ff9a f i libucrt:input.obj
 0001:0007efd4       ??$parse_floating_point_write_result@M@__crt_strtox@@YA?AW4SLD_STATUS@@W4floating_point_parse_result@0@ABUfloating_point_string@0@QAM@Z 1007ffd4 f i libucrt:input.obj
 0001:0007f0e4       ??$parse_floating_point_write_result@N@__crt_strtox@@YA?AW4SLD_STATUS@@W4floating_point_parse_result@0@ABUfloating_point_string@0@QAN@Z 100800e4 f i libucrt:input.obj
 0001:0007f1e8       ??$parse_integer@_KV?$input_adapter_character_source@V?$string_input_adapter@D@__crt_stdio_input@@@__crt_strtox@@@__crt_strtox@@YA_KQAU__crt_locale_pointers@@V?$input_adapter_character_source@V?$string_input_adapter@D@__crt_stdio_input@@@0@H_N@Z 100801e8 f i libucrt:input.obj
 0001:0007f499       ??$process_floating_point_specifier_t@M@?$input_processor@DV?$string_input_adapter@D@__crt_stdio_input@@@__crt_stdio_input@@AAE_NXZ 10080499 f i libucrt:input.obj
 0001:0007f501       ??$process_floating_point_specifier_t@N@?$input_processor@DV?$string_input_adapter@D@__crt_stdio_input@@@__crt_stdio_input@@AAE_NXZ 10080501 f i libucrt:input.obj
 0001:0007f569       ??$process_string_specifier_tchar@D@?$input_processor@DV?$string_input_adapter@D@__crt_stdio_input@@@__crt_stdio_input@@AAE_NW4conversion_mode@1@D@Z 10080569 f i libucrt:input.obj
 0001:0007f6cb       ??$process_string_specifier_tchar@_W@?$input_processor@DV?$string_input_adapter@D@__crt_stdio_input@@@__crt_stdio_input@@AAE_NW4conversion_mode@1@_W@Z 100806cb f i libucrt:input.obj
 0001:0007f837       ??$skip_whitespace@Vstring_input_adapter@__crt_stdio_input@@D@__crt_stdio_input@@YAHAAV?$string_input_adapter@D@0@QAU__crt_locale_pointers@@@Z 10080837 f i libucrt:input.obj
 0001:0007f866       ??$write_floating_point@M@?$input_processor@DV?$string_input_adapter@D@__crt_stdio_input@@@__crt_stdio_input@@AAE_NABM@Z 10080866 f i libucrt:input.obj
 0001:0007f89d       ??$write_floating_point@N@?$input_processor@DV?$string_input_adapter@D@__crt_stdio_input@@@__crt_stdio_input@@AAE_NABN@Z 1008089d f i libucrt:input.obj
 0001:0007f8da       ??0?$format_string_parser@D@__crt_stdio_input@@QAE@_KQBE@Z 100808da f i libucrt:input.obj
 0001:0007f924       ??0?$input_adapter_character_source@V?$string_input_adapter@D@__crt_stdio_input@@@__crt_strtox@@QAE@QAV?$string_input_adapter@D@__crt_stdio_input@@_KQA_N@Z 10080924 f i libucrt:input.obj
 0001:0007f955       ??0?$input_processor@DV?$string_input_adapter@D@__crt_stdio_input@@@__crt_stdio_input@@QAE@ABV?$string_input_adapter@D@1@_KQBDQAU__crt_locale_pointers@@QAD@Z 10080955 f i libucrt:input.obj
 0001:0007f9c7       ?advance@?$format_string_parser@D@__crt_stdio_input@@QAE_NXZ 100809c7 f i libucrt:input.obj
 0001:0007fae7       ?as_double@floating_point_value@__crt_strtox@@QBEAANXZ 10080ae7 f i libucrt:input.obj
 0001:0007fb0c       ?as_float@floating_point_value@__crt_strtox@@QBEAAMXZ 10080b0c f i libucrt:input.obj
 0001:0007fb31       ?assemble_floating_point_infinity@__crt_strtox@@YAX_NABVfloating_point_value@1@@Z 10080b31 f i libucrt:input.obj
 0001:0007fb6b       ?assemble_floating_point_value@__crt_strtox@@YA?AW4SLD_STATUS@@_KH_N1ABVfloating_point_value@1@@Z 10080b6b f i libucrt:input.obj
 0001:0007feb7       ?assemble_floating_point_value_from_big_integer@__crt_strtox@@YA?AW4SLD_STATUS@@ABUbig_integer@1@I_N1ABVfloating_point_value@1@@Z 10080eb7 f i libucrt:input.obj
 0001:00080045       ?assemble_floating_point_zero@__crt_strtox@@YAX_NABVfloating_point_value@1@@Z 10081045 f i libucrt:input.obj
 0001:00080079       ?convert_decimal_string_to_floating_type_common@__crt_strtox@@YA?AW4SLD_STATUS@@ABUfloating_point_string@1@ABVfloating_point_value@1@@Z 10081079 f i libucrt:input.obj
 0001:00081e3c       ?convert_hexadecimal_string_to_floating_type_common@__crt_strtox@@YA?AW4SLD_STATUS@@ABUfloating_point_string@1@ABVfloating_point_value@1@@Z 10082e3c f i libucrt:input.obj
 0001:00081ee8       ?denormal_mantissa_mask@floating_point_value@__crt_strtox@@QBE_KXZ 10082ee8 f i libucrt:input.obj
 0001:00081f00       ?divide@__crt_strtox@@YA_KAAUbig_integer@1@ABU21@@Z 10082f00 f i libucrt:input.obj
 0001:000823ae       ?get@?$input_adapter_character_source@V?$string_input_adapter@D@__crt_stdio_input@@@__crt_strtox@@QAEDXZ 100833ae f i libucrt:input.obj
 0001:000823e8       ?get@?$string_input_adapter@D@__crt_stdio_input@@QAEHXZ 100833e8 f i libucrt:input.obj
 0001:000823fe       ?invert@?$scanset_buffer@E@__crt_stdio_input@@QAEXXZ 100833fe f i libucrt:input.obj
 0001:0008241c       ?is_character_allowed_in_string@?$input_processor@DV?$string_input_adapter@D@__crt_stdio_input@@@__crt_stdio_input@@ABE_NW4conversion_mode@2@H@Z 1008341c f i libucrt:input.obj
 0001:00082462       ?length@?$format_string_parser@D@__crt_stdio_input@@QBEIXZ 10083462 f i libucrt:input.obj
 0001:000824a3       ?normal_mantissa_mask@floating_point_value@__crt_strtox@@QBE_KXZ 100834a3 f i libucrt:input.obj
 0001:000824ba       ?process@?$input_processor@DV?$string_input_adapter@D@__crt_stdio_input@@@__crt_stdio_input@@QAEHXZ 100834ba f i libucrt:input.obj
 0001:0008253f       ?process_character_count_specifier@?$input_processor@DV?$string_input_adapter@D@__crt_stdio_input@@@__crt_stdio_input@@AAE_NXZ 1008353f f i libucrt:input.obj
 0001:00082559       ?process_conversion_specifier@?$input_processor@DV?$string_input_adapter@D@__crt_stdio_input@@@__crt_stdio_input@@AAE_NXZ 10083559 f i libucrt:input.obj
 0001:000825cd       ?process_floating_point_specifier@?$input_processor@DV?$string_input_adapter@D@__crt_stdio_input@@@__crt_stdio_input@@AAE_NXZ 100835cd f i libucrt:input.obj
 0001:000825fd       ?process_integer_specifier@?$input_processor@DV?$string_input_adapter@D@__crt_stdio_input@@@__crt_stdio_input@@AAE_NI_N@Z 100835fd f i libucrt:input.obj
 0001:00082663       ?process_literal_character@?$input_processor@DV?$string_input_adapter@D@__crt_stdio_input@@@__crt_stdio_input@@AAE_NXZ 10083663 f i libucrt:input.obj
 0001:00082699       ?process_literal_character_tchar@?$input_processor@DV?$string_input_adapter@D@__crt_stdio_input@@@__crt_stdio_input@@AAE_ND@Z 10083699 f i libucrt:input.obj
 0001:000826ef       ?process_state@?$input_processor@DV?$string_input_adapter@D@__crt_stdio_input@@@__crt_stdio_input@@AAE_NXZ 100836ef f i libucrt:input.obj
 0001:00082725       ?process_string_specifier@?$input_processor@DV?$string_input_adapter@D@__crt_stdio_input@@@__crt_stdio_input@@AAE_NW4conversion_mode@2@@Z 10083725 f i libucrt:input.obj
 0001:0008276d       ?process_whitespace@?$input_processor@DV?$string_input_adapter@D@__crt_stdio_input@@@__crt_stdio_input@@AAE_NXZ 1008376d f i libucrt:input.obj
 0001:0008278a       ?restore_state@?$input_adapter_character_source@V?$string_input_adapter@D@__crt_stdio_input@@@__crt_strtox@@QAE_N_K@Z 1008378a f i libucrt:input.obj
 0001:000827af       ?scan_conversion_specifier@?$format_string_parser@D@__crt_stdio_input@@AAE_NXZ 100837af f i libucrt:input.obj
 0001:0008291a       ?scan_optional_field_width@?$format_string_parser@D@__crt_stdio_input@@AAE_NXZ 1008391a f i libucrt:input.obj
 0001:000829b9       ?scan_optional_length_modifier@?$format_string_parser@D@__crt_stdio_input@@AAEXXZ 100839b9 f i libucrt:input.obj
 0001:00082ad9       ?scan_optional_literal_character_trail_bytes_tchar@?$format_string_parser@D@__crt_stdio_input@@AAE_ND@Z 10083ad9 f i libucrt:input.obj
 0001:00082b2e       ?scan_optional_wide_modifier@?$format_string_parser@D@__crt_stdio_input@@AAEXXZ 10083b2e f i libucrt:input.obj
 0001:00082b4c       ?scan_scanset_range@?$format_string_parser@D@__crt_stdio_input@@AAE_NXZ 10083b4c f i libucrt:input.obj
 0001:00082c53       ?set@?$scanset_buffer@E@__crt_stdio_input@@QAEXE@Z 10083c53 f i libucrt:input.obj
 0001:00082c7e       ?set_wide_for_c_s_or_scanset@?$format_string_parser@D@__crt_stdio_input@@AAEXXZ 10083c7e f i libucrt:input.obj
 0001:00082c9e       ?test@?$scanset_buffer@E@__crt_stdio_input@@QBE_NE@Z 10083c9e f i libucrt:input.obj
 0001:00082ccf       ?to_floating_point_length@__crt_stdio_input@@YAIW4length_modifier@1@@Z 10083ccf f i libucrt:input.obj
 0001:00082cf2       ?to_integer_length@__crt_stdio_input@@YAIW4length_modifier@1@@Z 10083cf2 f i libucrt:input.obj
 0001:00082d4a       ?unget@?$input_adapter_character_source@V?$string_input_adapter@D@__crt_stdio_input@@@__crt_strtox@@QAEXD@Z 10083d4a f i libucrt:input.obj
 0001:00082d8b       ?unget@?$string_input_adapter@D@__crt_stdio_input@@QAEXH@Z 10083d8b f i libucrt:input.obj
 0001:00082daa       ?validate@?$format_string_parser@D@__crt_stdio_input@@QBE_NXZ 10083daa f i libucrt:input.obj
 0001:00082dc6       ?validate@?$input_adapter_character_source@V?$string_input_adapter@D@__crt_stdio_input@@@__crt_strtox@@QBE_NXZ 10083dc6 f i libucrt:input.obj
 0001:00082de7       ?validate@?$string_input_adapter@D@__crt_stdio_input@@QAE_NXZ 10083de7 f i libucrt:input.obj
 0001:00082e09       ?write_character@?$input_processor@DV?$string_input_adapter@D@__crt_stdio_input@@@__crt_stdio_input@@AAE_NQA_WIAAPA_WAAID@Z 10083e09 f i libucrt:input.obj
 0001:00082e7a       ?write_integer@?$input_processor@DV?$string_input_adapter@D@__crt_stdio_input@@@__crt_stdio_input@@AAE_N_K_N@Z 10083e7a f i libucrt:input.obj
 0001:00082ef1       ___stdio_common_vsscanf    10083ef1 f   libucrt:input.obj
 0001:00082f15       __chvalidchk_l             10083f15 f i libucrt:input.obj
 0001:00082f3f       __ischartype_l             10083f3f f i libucrt:input.obj
 0001:00082f72       ??$is_overflow_condition@K@__crt_strtox@@YA_NIK@Z 10083f72 f i libucrt:atox.obj
 0001:00082fa5       ??$parse_integer@KV?$c_string_character_source@D@__crt_strtox@@@__crt_strtox@@YAKQAU__crt_locale_pointers@@V?$c_string_character_source@D@0@H_N@Z 10083fa5 f i libucrt:atox.obj
 0001:000831cd       ??$parse_integer@_KV?$c_string_character_source@D@__crt_strtox@@@__crt_strtox@@YA_KQAU__crt_locale_pointers@@V?$c_string_character_source@D@0@H_N@Z 100841cd f i libucrt:atox.obj
 0001:00083473       ?unget@?$c_string_character_source@D@__crt_strtox@@QAEXD@Z 10084473 f i libucrt:atox.obj
 0001:0008349b       ?validate@?$c_string_character_source@D@__crt_strtox@@QBE_NXZ 1008449b f i libucrt:atox.obj
 0001:0008349b       ?validate@?$string_output_adapter@D@__crt_stdio_output@@QBE_NXZ 1008449b f i libucrt:output.obj
 0001:000834b6       _atoi                      100844b6 f   libucrt:atox.obj
 0001:000834e0       _atan2                     100844e0 f   libucrt:87ctriga.obj
 0001:000834ea       __CIatan2                  100844ea f   libucrt:87ctriga.obj
 0001:00083500       __libm_sse2_acos_precise   10084500 f   libucrt:acos_sse2_precise.obj
 0001:00083a20       __libm_sse2_cos_precise    10084a20 f   libucrt:cos_sse2_precise.obj
 0001:00083be0       __libm_sse2_sin_precise    10084be0 f   libucrt:sin_sse2_precise.obj
 0001:00083db0       __libm_sse2_sqrt_precise   10084db0 f   libucrt:sqrt_sse2_precise.obj
 0001:00083eb0       __isalnum_l                10084eb0 f i libucrt:_ctype.obj
 0001:00083eeb       __isalpha_l                10084eeb f i libucrt:_ctype.obj
 0001:00083f26       __isdigit_l                10084f26 f i libucrt:_ctype.obj
 0001:00083f5e       __isspace_l                10084f5e f i libucrt:_ctype.obj
 0001:00083f96       _isalnum                   10084f96 f i libucrt:_ctype.obj
 0001:00083fc5       _isalpha                   10084fc5 f i libucrt:_ctype.obj
 0001:00083ff4       _isdigit                   10084ff4 f i libucrt:_ctype.obj
 0001:00084021       _isspace                   10085021 f i libucrt:_ctype.obj
 0001:0008431c       __tolower_l                1008531c f   libucrt:tolower_toupper.obj
 0001:00084336       __toupper_l                10085336 f   libucrt:tolower_toupper.obj
 0001:00084350       _tolower                   10085350 f   libucrt:tolower_toupper.obj
 0001:00084380       _toupper                   10085380 f   libucrt:tolower_toupper.obj
 0001:0008441b       ??$parse_floating_point@V?$c_string_character_source@D@__crt_strtox@@N@__crt_strtox@@YA?AW4SLD_STATUS@@QAU__crt_locale_pointers@@V?$c_string_character_source@D@0@QAN@Z 1008541b f i libucrt:atof.obj
 0001:00084491       ??$parse_floating_point_from_source@V?$c_string_character_source@D@__crt_strtox@@@__crt_strtox@@YA?AW4floating_point_parse_result@0@QAU__crt_locale_pointers@@AAV?$c_string_character_source@D@0@AAUfloating_point_string@0@@Z 10085491 f i libucrt:atof.obj
 0001:00084883       ??$parse_floating_point_possible_infinity@DV?$c_string_character_source@D@__crt_strtox@@PBD@__crt_strtox@@YA?AW4floating_point_parse_result@0@AADAAV?$c_string_character_source@D@0@PBD@Z 10085883 f i libucrt:atof.obj
 0001:00084930       ??$parse_floating_point_possible_nan@DV?$c_string_character_source@D@__crt_strtox@@PBD@__crt_strtox@@YA?AW4floating_point_parse_result@0@AADAAV?$c_string_character_source@D@0@PBD@Z 10085930 f i libucrt:atof.obj
 0001:00084a4b       ??$parse_floating_point_possible_nan_is_ind@DV?$c_string_character_source@D@__crt_strtox@@@__crt_strtox@@YA_NAADAAV?$c_string_character_source@D@0@@Z 10085a4b f i libucrt:atof.obj
 0001:00084a87       ??$parse_floating_point_possible_nan_is_snan@DV?$c_string_character_source@D@__crt_strtox@@@__crt_strtox@@YA_NAADAAV?$c_string_character_source@D@0@@Z 10085a87 f i libucrt:atof.obj
 0001:00084ae9       _atof                      10085ae9 f   libucrt:atof.obj
 0001:00084afc       _free                      10085afc f   libucrt:free.obj
 0001:00084b01       _malloc                    10085b01 f   libucrt:malloc.obj
 0001:00084b0c       _realloc                   10085b0c f   libucrt:realloc.obj
 0001:00084b20       _strncpy                   10085b20 f   libucrt:strncpy.obj
 0001:00084c50       __libm_sse2_pow_precise    10085c50 f   libucrt:pow_sse2_precise.obj
 0001:000857a0       _fmod                      100867a0 f   libucrt:87fmod.obj
 0001:000857aa       __CIfmod                   100867aa f   libucrt:87fmod.obj
 0001:000857d0       _strncmp                   100867d0 f   libucrt:strncmp.obj
 0001:00085850       __libm_sse2_tan_precise    10086850 f   libucrt:tan_sse2_precise.obj
 0001:00085ac0       _rand                      10086ac0 f   libucrt:rand.obj
 0001:00085af0       _strncat                   10086af0 f   libucrt:strncat.obj
 0001:00085c25       _calloc                    10086c25 f   libucrt:calloc.obj
 0001:00085c30       __seh_filter_dll           10086c30 f   libucrt:exception_filter.obj
 0001:00085c50       __seh_filter_exe           10086c50 f   libucrt:exception_filter.obj
 0001:00085fde       ___acrt_initialize_thread_local_exit_callback 10086fde f   libucrt:exit.obj
 0001:00085fed       __cexit                    10086fed f   libucrt:exit.obj
 0001:00085ffc       __exit                     10086ffc f   libucrt:exit.obj
 0001:00086012       __is_c_termination_complete 10087012 f   libucrt:exit.obj
 0001:000862b1       ___acrt_allocate_buffer_for_argv 100872b1 f   libucrt:argv_parsing.obj
 0001:00086306       __configure_narrow_argv    10087306 f   libucrt:argv_parsing.obj
 0001:0008646a       ??$uninitialize@A6AXAAPAPAD@Z@?$dual_state_global@PAPAD@__crt_state_management@@QAEXA6AXAAPAPAD@Z@Z 1008746a f i libucrt:environment_initialization.obj
 0001:0008646a       ??$uninitialize@A6AXAAPAPA_W@Z@?$dual_state_global@PAPA_W@__crt_state_management@@QAEXA6AXAAPAPA_W@Z@Z 1008746a f i libucrt:environment_initialization.obj
 0001:000864e0       ___dcrt_uninitialize_environments_nolock 100874e0 f   libucrt:environment_initialization.obj
 0001:00086517       __initialize_narrow_environment 10087517 f   libucrt:environment_initialization.obj
 0001:0008651c       ??$?RV<lambda_800076c951b434888f4765a74a194fcc>@@AAV<lambda_4e60a939b0d047cfe11ddc22648dfba9>@@V<lambda_6dbb1268764f43b569ce7b67e331d33a>@@@?$__crt_seh_guarded_call@H@@QAEH$$QAV<lambda_800076c951b434888f4765a74a194fcc>@@AAV<lambda_4e60a939b0d047cfe11ddc22648dfba9>@@$$QAV<lambda_6dbb1268764f43b569ce7b67e331d33a>@@@Z 1008751c f i libucrt:onexit.obj
 0001:0008656d       ??$?RV<lambda_995298e7d72eb4c2aab26c0585b3abe5>@@AAV<lambda_275893d493268fdec8709772e3fcec0e>@@V<lambda_293819299cbf9a7022e18b56a874bb5c>@@@?$__crt_seh_guarded_call@H@@QAEH$$QAV<lambda_995298e7d72eb4c2aab26c0585b3abe5>@@AAV<lambda_275893d493268fdec8709772e3fcec0e>@@$$QAV<lambda_293819299cbf9a7022e18b56a874bb5c>@@@Z 1008756d f i libucrt:onexit.obj
 0001:000865be       ??$__acrt_lock_and_call@V<lambda_275893d493268fdec8709772e3fcec0e>@@@@YAHW4__acrt_lock_id@@$$QAV<lambda_275893d493268fdec8709772e3fcec0e>@@@Z 100875be f i libucrt:onexit.obj
 0001:000865e6       ??$__acrt_lock_and_call@V<lambda_4e60a939b0d047cfe11ddc22648dfba9>@@@@YAHW4__acrt_lock_id@@$$QAV<lambda_4e60a939b0d047cfe11ddc22648dfba9>@@@Z 100875e6 f i libucrt:onexit.obj
 0001:0008660e       ??$__crt_fast_encode_pointer@P6AHXZ@@YAP6AHXZQ6AHXZ@Z 1008760e f i libucrt:onexit.obj
 0001:0008688e       __crt_atexit               1008788e f   libucrt:onexit.obj
 0001:000868a4       __execute_onexit_table     100878a4 f   libucrt:onexit.obj
 0001:000868c1       __initialize_onexit_table  100878c1 f   libucrt:onexit.obj
 0001:000868fe       __register_onexit_function 100878fe f   libucrt:onexit.obj
 0001:0008694e       ___acrt_uninitialize_command_line 1008794e f   libucrt:argv_data.obj
 0001:00086a16       ___acrt_initialize         10087a16 f   libucrt:initialization.obj
 0001:00086a28       ___acrt_thread_attach      10087a28 f   libucrt:initialization.obj
 0001:00086a33       ___acrt_thread_detach      10087a33 f   libucrt:initialization.obj
 0001:00086a3b       ___acrt_uninitialize       10087a3b f   libucrt:initialization.obj
 0001:00086a4d       ___acrt_uninitialize_critical 10087a4d f   libucrt:initialization.obj
 0001:00086a5f       ___acrt_initialize_new_handler 10087a5f f   libucrt:new_handler.obj
 0001:00086a73       __callnewh                 10087a73 f   libucrt:new_handler.obj
 0001:00086ab7       __query_new_handler        10087ab7 f   libucrt:new_handler.obj
 0001:00086b09       __initterm                 10087b09 f   libucrt:initterm.obj
 0001:00086b65       __initterm_e               10087b65 f   libucrt:initterm.obj
 0001:00086baa       _terminate                 10087baa f   libucrt:terminate.obj
 0001:00086be6       ___ascii_stricmp           10087be6 f   libucrt:stricmp.obj
 0001:00086c21       __stricmp                  10087c21 f   libucrt:stricmp.obj
 0001:00086c21       _stricmp                   10087c21 f   libucrt:stricmp.obj
 0001:00086c69       __stricmp_l                10087c69 f   libucrt:stricmp.obj
 0001:00086d03       _strnicmp                  10087d03 f   libucrt:strnicmp.obj
 0001:00086d03       __strnicmp                 10087d03 f   libucrt:strnicmp.obj
 0001:00086d6f       __strnicmp_l               10087d6f f   libucrt:strnicmp.obj
 0001:00086e26       __mkdir                    10087e26 f   libucrt:mkdir.obj
 0001:00086e26       _mkdir                     10087e26 f   libucrt:mkdir.obj
 0001:00086ee8       _itoa                      10087ee8 f   libucrt:xtoa.obj
 0001:00086ee8       __itoa                     10087ee8 f   libucrt:xtoa.obj
 0001:00086f1f       _access                    10087f1f f   libucrt:access.obj
 0001:00086f1f       __access                   10087f1f f   libucrt:access.obj
 0001:00086f37       __access_s                 10087f37 f   libucrt:access.obj
 0001:00086f8c       _abort                     10087f8c f   libucrt:abort.obj
 0001:00086fcf       _strcpy_s                  10087fcf f   libucrt:strcpy_s.obj
 0001:00087029       __free_base                10088029 f   libucrt:free_base.obj
 0001:00087063       __malloc_base              10088063 f   libucrt:malloc_base.obj
 0001:000870b1       __calloc_base              100880b1 f   libucrt:calloc_base.obj
 0001:0008710e       _wcsncmp                   1008810e f   libucrt:wcsncmp.obj
 0001:00087148       ___acrt_call_reportfault   10088148 f   libucrt:invalid_parameter.obj
 0001:00087283       ___acrt_initialize_invalid_parameter_handler 10088283 f   libucrt:invalid_parameter.obj
 0001:00087297       __invalid_parameter        10088297 f   libucrt:invalid_parameter.obj
 0001:00087312       __invalid_parameter_noinfo 10088312 f   libucrt:invalid_parameter.obj
 0001:00087322       __invoke_watson            10088322 f   libucrt:invalid_parameter.obj
 0001:00087355       ___acrt_errno_from_os_error 10088355 f   libucrt:errno.obj
 0001:00087398       ___acrt_errno_map_os_error 10088398 f   libucrt:errno.obj
 0001:000873bb       ___doserrno                100883bb f   libucrt:errno.obj
 0001:000873ce       __errno                    100883ce f   libucrt:errno.obj
 0001:000873e1       ??$make_c_string_character_source@DPAPAD@__crt_strtox@@YA?AV?$c_string_character_source@D@0@QBDQAPAD@Z 100883e1 f i libucrt:strtox.obj
 0001:000873e1       ??$make_c_string_character_source@D$$T@__crt_strtox@@YA?AV?$c_string_character_source@D@0@QBD$$T@Z 100883e1 f i libucrt:atox.obj
 0001:000873fc       _strtol                    100883fc f   libucrt:strtox.obj
 0001:00087428       _strtoull                  10088428 f   libucrt:strtox.obj
 0001:00087454       __mbtowc_l                 10088454 f   libucrt:mbtowc.obj
 0001:0008754e       _mbtowc                    1008854e f   libucrt:mbtowc.obj
 0001:00087568       __wctomb_s_l               10088568 f   libucrt:wctomb.obj
 0001:00087689       _wctomb_s                  10088689 f   libucrt:wctomb.obj
 0001:000876a6       _strnlen                   100886a6 f   libucrt:strnlen.obj
 0001:000877cd       _wcsnlen                   100887cd f   libucrt:strnlen.obj
 0001:00087984       ??$?RV<lambda_3518db117f0e7cdb002338c5d3c47b6c>@@AAV<lambda_b2ea41f6bbb362cd97d94c6828d90b61>@@V<lambda_abdedf541bb04549bc734292b4a045d4>@@@?$__crt_seh_guarded_call@X@@QAEX$$QAV<lambda_3518db117f0e7cdb002338c5d3c47b6c>@@AAV<lambda_b2ea41f6bbb362cd97d94c6828d90b61>@@$$QAV<lambda_abdedf541bb04549bc734292b4a045d4>@@@Z 10088984 f i libucrt:per_thread_data.obj
 0001:000879d4       ??$?RV<lambda_51b6e8b1eb166f2a3faf91f424b38130>@@AAV<lambda_6250bd4b2a391816dd638c3bf72b0bcb>@@V<lambda_0b5a4a3e68152e1d9b943535f5f47bed>@@@?$__crt_seh_guarded_call@X@@QAEX$$QAV<lambda_51b6e8b1eb166f2a3faf91f424b38130>@@AAV<lambda_6250bd4b2a391816dd638c3bf72b0bcb>@@$$QAV<lambda_0b5a4a3e68152e1d9b943535f5f47bed>@@@Z 100889d4 f i libucrt:per_thread_data.obj
 0001:00087a35       ??$?RV<lambda_5b71d36f03204c0beab531769a5b5694>@@AAV<lambda_be2b3da3f62db62e9dad5dc70221a656>@@V<lambda_8f9ce462984622f9bf76b59e2aaaf805>@@@?$__crt_seh_guarded_call@X@@QAEX$$QAV<lambda_5b71d36f03204c0beab531769a5b5694>@@AAV<lambda_be2b3da3f62db62e9dad5dc70221a656>@@$$QAV<lambda_8f9ce462984622f9bf76b59e2aaaf805>@@@Z 10088a35 f i libucrt:per_thread_data.obj
 0001:00087a80       ??$?RV<lambda_9df27f884b057bc3edfc946cb5b7cf47>@@AAV<lambda_e69574bed617af4e071282c136b37893>@@V<lambda_cc0d902bcbbeb830f749456577db4721>@@@?$__crt_seh_guarded_call@X@@QAEX$$QAV<lambda_9df27f884b057bc3edfc946cb5b7cf47>@@AAV<lambda_e69574bed617af4e071282c136b37893>@@$$QAV<lambda_cc0d902bcbbeb830f749456577db4721>@@@Z 10088a80 f i libucrt:per_thread_data.obj
 0001:00087ac8       ??$__acrt_lock_and_call@V<lambda_6250bd4b2a391816dd638c3bf72b0bcb>@@@@YAXW4__acrt_lock_id@@$$QAV<lambda_6250bd4b2a391816dd638c3bf72b0bcb>@@@Z 10088ac8 f i libucrt:per_thread_data.obj
 0001:00087af0       ??$__acrt_lock_and_call@V<lambda_b2ea41f6bbb362cd97d94c6828d90b61>@@@@YAXW4__acrt_lock_id@@$$QAV<lambda_b2ea41f6bbb362cd97d94c6828d90b61>@@@Z 10088af0 f i libucrt:per_thread_data.obj
 0001:00087b18       ??$__acrt_lock_and_call@V<lambda_be2b3da3f62db62e9dad5dc70221a656>@@@@YAXW4__acrt_lock_id@@$$QAV<lambda_be2b3da3f62db62e9dad5dc70221a656>@@@Z 10088b18 f i libucrt:per_thread_data.obj
 0001:00087b40       ??$__acrt_lock_and_call@V<lambda_e69574bed617af4e071282c136b37893>@@@@YAXW4__acrt_lock_id@@$$QAV<lambda_e69574bed617af4e071282c136b37893>@@@Z 10088b40 f i libucrt:per_thread_data.obj
 0001:00087cf6       ___acrt_freeptd            10088cf6 f   libucrt:per_thread_data.obj
 0001:00087d22       ___acrt_getptd             10088d22 f   libucrt:per_thread_data.obj
 0001:00087da6       ___acrt_getptd_noexit      10088da6 f   libucrt:per_thread_data.obj
 0001:00087e2b       ___acrt_initialize_ptd     10088e2b f   libucrt:per_thread_data.obj
 0001:00087e57       ___acrt_uninitialize_ptd   10088e57 f   libucrt:per_thread_data.obj
 0001:00087e71       ___acrt_update_locale_info 10088e71 f   libucrt:locale_update.obj
 0001:00087e9e       ___acrt_update_multibyte_info 10088e9e f   libucrt:locale_update.obj
 0001:00087ecb       ?__acrt_fp_classify@@YA?AW4__acrt_fp_class@@ABN@Z 10088ecb f i libucrt:cvt.obj
 0001:00087f37       ?__acrt_fp_is_negative@@YA_NABN@Z 10088f37 f i libucrt:cvt.obj
 0001:00088796       ___acrt_fp_format          10089796 f   libucrt:cvt.obj
 0001:000888e0       __fileno                   100898e0 f   libucrt:fileno.obj
 0001:00088906       ___acrt_initialize_stdio   10089906 f   libucrt:_file.obj
 0001:000889ce       ___acrt_uninitialize_stdio 100899ce f   libucrt:_file.obj
 0001:00088a1a       __lock_file                10089a1a f   libucrt:_file.obj
 0001:00088a2e       __unlock_file              10089a2e f   libucrt:_file.obj
 0001:00088a42       __get_printf_count_output  10089a42 f   libucrt:printf_count_output.obj
 0001:00088a57       ___acrt_set_locale_changed 10089a57 f   libucrt:wsetlocale.obj
 0001:00088a62       ___acrt_uninitialize_locale 10089a62 f   libucrt:wsetlocale.obj
 0001:00088c20       ___acrt_initialize_lowio   10089c20 f   libucrt:ioinit.obj
 0001:00088c76       ___acrt_uninitialize_lowio 10089c76 f   libucrt:ioinit.obj
 0001:00088ca2       ___pctype_func             10089ca2 f   libucrt:ctype.obj
 0001:00088cc8       __isctype_l                10089cc8 f   libucrt:isctype.obj
 0001:00088d9a       _fegetround                10089d9a f   libucrt:fegetround.obj
 0001:00088dcc       __fFATN2                   10089dcc     libucrt:87triga.obj
 0001:00088e1c       __rtpiby2                  10089e1c     libucrt:87triga.obj
 0001:00088e60       __cintrindisp2             10089e60 f   libucrt:87cdisp.obj
 0001:00088ea4       __cintrindisp1             10089ea4 f   libucrt:87cdisp.obj
 0001:00088ee7       __ctrandisp2               10089ee7 f   libucrt:87cdisp.obj
 0001:00089076       __ctrandisp1               1008a076 f   libucrt:87cdisp.obj
 0001:000890a9       __fload                    1008a0a9 f   libucrt:87cdisp.obj
 0001:000890e5       ___libm_error_support      1008a0e5 f   libucrt:libm_error.obj
 0001:00089300       _acos                      1008a300 f   libucrt:acos.obj
 0001:00089340       __CIacos                   1008a340 f   libucrt:acos.obj
 0001:0008937b       __CIacos_default           1008a37b f   libucrt:acos.obj
 0001:0008938f       __acos_default             1008a38f     libucrt:acos.obj
 0001:00089450       _cos                       1008a450 f   libucrt:cos.obj
 0001:00089490       __CIcos                    1008a490 f   libucrt:cos.obj
 0001:000894cb       __CIcos_default            1008a4cb f   libucrt:cos.obj
 0001:000894df       __cos_default              1008a4df     libucrt:cos.obj
 0001:00089580       _sin                       1008a580 f   libucrt:sin.obj
 0001:000895c0       __CIsin                    1008a5c0 f   libucrt:sin.obj
 0001:000895fb       __CIsin_default            1008a5fb f   libucrt:sin.obj
 0001:0008960f       __sin_default              1008a60f     libucrt:sin.obj
 0001:000896b0       __CIsqrt                   1008a6b0 f   libucrt:sqrt.obj
 0001:000896c4       _sqrt                      1008a6c4     libucrt:sqrt.obj
 0001:0008976a       __isleadbyte_l             1008a76a f i libucrt:_wctype.obj
 0001:000899c0       ___acrt_LCMapStringA       1008a9c0 f   libucrt:lcmapstringa.obj
 0001:00089a0b       __freea_crt                1008aa0b f i libucrt:lcmapstringa.obj
 0001:00089a2b       __realloc_base             1008aa2b f   libucrt:realloc_base.obj
 0001:00089aa0       _pow                       1008aaa0 f   libucrt:pow.obj
 0001:00089ae0       __CIpow                    1008aae0 f   libucrt:pow.obj
 0001:00089b1b       __CIpow_default            1008ab1b f   libucrt:pow.obj
 0001:00089b34       __pow_default              1008ab34     libucrt:pow.obj
 0001:00089d30       __trandisp1                1008ad30 f   libucrt:87disp.obj
 0001:00089d97       __trandisp2                1008ad97 f   libucrt:87disp.obj
 0001:00089e23       __rttospopde               1008ae23     libucrt:87disp.obj
 0001:00089e28       __rttospop                 1008ae28     libucrt:87disp.obj
 0001:00089e2a       __rtnospop                 1008ae2a     libucrt:87disp.obj
 0001:00089e2c       __rttosnpop                1008ae2c     libucrt:87disp.obj
 0001:00089e2d       __rtnospopde               1008ae2d     libucrt:87disp.obj
 0001:00089e34       __rtzeropop                1008ae34     libucrt:87disp.obj
 0001:00089e36       __rtzeronpop               1008ae36     libucrt:87disp.obj
 0001:00089e3b       __rtzerospop               1008ae3b     libucrt:87disp.obj
 0001:00089e48       __rtonepop                 1008ae48     libucrt:87disp.obj
 0001:00089e4a       __rtonenpop                1008ae4a     libucrt:87disp.obj
 0001:00089e4f       __tosnan1                  1008ae4f     libucrt:87disp.obj
 0001:00089e7a       __nosnan2                  1008ae7a     libucrt:87disp.obj
 0001:00089e7c       __tosnan2                  1008ae7c     libucrt:87disp.obj
 0001:00089ea4       __nan2                     1008aea4     libucrt:87disp.obj
 0001:00089ee3       __rtindfpop                1008aee3     libucrt:87disp.obj
 0001:00089ee5       __rtindfnpop               1008aee5     libucrt:87disp.obj
 0001:00089ef6       __rttosnpopde              1008aef6     libucrt:87disp.obj
 0001:00089f00       __rtatan2inf               1008af00     libucrt:87disp.obj
 0001:00089f1d       __rtchsifneg               1008af1d     libucrt:87disp.obj
 0001:00089f30       _tan                       1008af30 f   libucrt:tan.obj
 0001:00089f70       __CItan                    1008af70 f   libucrt:tan.obj
 0001:00089fab       __CItan_default            1008afab f   libucrt:tan.obj
 0001:00089fbf       __tan_default              1008afbf     libucrt:tan.obj
 0001:0008a056       ___acrt_initialize_locks   1008b056 f   libucrt:locks.obj
 0001:0008a097       ___acrt_lock               1008b097 f   libucrt:locks.obj
 0001:0008a0ae       ___acrt_uninitialize_locks 1008b0ae f   libucrt:locks.obj
 0001:0008a0df       ___acrt_unlock             1008b0df f   libucrt:locks.obj
 0001:0008a20d       ___acrt_AreFileApisANSI@0  1008b20d f   libucrt:winapi_thunks.obj
 0001:0008a25b       ___acrt_FlsAlloc@4         1008b25b f   libucrt:winapi_thunks.obj
 0001:0008a2b1       ___acrt_FlsFree@4          1008b2b1 f   libucrt:winapi_thunks.obj
 0001:0008a307       ___acrt_FlsGetValue@4      1008b307 f   libucrt:winapi_thunks.obj
 0001:0008a35d       ___acrt_FlsSetValue@8      1008b35d f   libucrt:winapi_thunks.obj
 0001:0008a3b6       ___acrt_InitializeCriticalSectionEx@12 1008b3b6 f   libucrt:winapi_thunks.obj
 0001:0008a418       ___acrt_LCMapStringEx@36   1008b418 f   libucrt:winapi_thunks.obj
 0001:0008a4a0       ___acrt_LocaleNameToLCID@8 1008b4a0 f   libucrt:winapi_thunks.obj
 0001:0008a4fc       ___acrt_initialize_winapi_thunks 1008b4fc f   libucrt:winapi_thunks.obj
 0001:0008a522       ___acrt_is_packaged_app    1008b522 f   libucrt:winapi_thunks.obj
 0001:0008a5a9       ___acrt_uninitialize_winapi_thunks 1008b5a9 f   libucrt:winapi_thunks.obj
 0001:0008a9a1       ??1?$argument_list@D@?A0xb0e4b824@@QAE@XZ 1008b9a1 f i libucrt:argv_wildcards.obj
 0001:0008a9c6       ?append@?$argument_list@D@?A0xb0e4b824@@QAEHQAD@Z 1008b9c6 f i libucrt:argv_wildcards.obj
 0001:0008a9fb       ?expand_if_necessary@?$argument_list@D@?A0xb0e4b824@@AAEHXZ 1008b9fb f i libucrt:argv_wildcards.obj
 0001:0008aa82       ___acrt_expand_narrow_argv_wildcards 1008ba82 f   libucrt:argv_wildcards.obj
 0001:0008aa8d       ??$?RV<lambda_978dc153c237d78434369da87b74ff60>@@AAV<lambda_ad1ced32f4ac17aa236e5ef05d6b3b7c>@@V<lambda_4a8533e2866a575feecb8298ce776b0d>@@@?$__crt_seh_guarded_call@X@@QAEX$$QAV<lambda_978dc153c237d78434369da87b74ff60>@@AAV<lambda_ad1ced32f4ac17aa236e5ef05d6b3b7c>@@$$QAV<lambda_4a8533e2866a575feecb8298ce776b0d>@@@Z 1008ba8d f i libucrt:mbctype.obj
 0001:0008aad0       ??$__acrt_lock_and_call@V<lambda_ad1ced32f4ac17aa236e5ef05d6b3b7c>@@@@YAXW4__acrt_lock_id@@$$QAV<lambda_ad1ced32f4ac17aa236e5ef05d6b3b7c>@@@Z 1008bad0 f i libucrt:mbctype.obj
 0001:0008af67       ___acrt_initialize_multibyte 1008bf67 f   libucrt:mbctype.obj
 0001:0008af85       ___acrt_update_thread_multibyte_data 1008bf85 f   libucrt:mbctype.obj
 0001:0008b027       __setmbcp_nolock           1008c027 f   libucrt:mbctype.obj
 0001:0008b2f2       __ismbblead                1008c2f2 f   libucrt:ismbbyte.obj
 0001:0008b30a       ___acrt_initialize_command_line 1008c30a f   libucrt:argv_data.obj
 0001:0008b35a       ___dcrt_get_narrow_environment_from_os 1008c35a f   libucrt:get_environment_from_os.obj
 0001:0008b3dd       __recalloc                 1008c3dd f   libucrt:recalloc.obj
 0001:0008b3e8       __recalloc_base            1008c3e8 f   libucrt:recalloc.obj
 0001:0008b455       ___acrt_initialize_heap    1008c455 f   libucrt:heap_handle.obj
 0001:0008b466       ___acrt_uninitialize_heap  1008c466 f   libucrt:heap_handle.obj
 0001:0008b470       ___acrt_execute_initializers 1008c470 f   libucrt:shared_initialization.obj
 0001:0008b4f3       ___acrt_execute_uninitializers 1008c4f3 f   libucrt:shared_initialization.obj
 0001:0008b540       ??$?RV<lambda_a048d3beccc847880fc8490e18b82769>@@AAV<lambda_ec61778202f4f5fc7e7711acc23c3bca>@@V<lambda_f7496a158712204296dd6628a163878e>@@@?$__crt_seh_guarded_call@P6AXH@Z@@QAEP6AXH@Z$$QAV<lambda_a048d3beccc847880fc8490e18b82769>@@AAV<lambda_ec61778202f4f5fc7e7711acc23c3bca>@@$$QAV<lambda_f7496a158712204296dd6628a163878e>@@@Z 1008c540 f i libucrt:signal.obj
 0001:0008b59a       ??$__acrt_lock_and_call@V<lambda_ec61778202f4f5fc7e7711acc23c3bca>@@@@YAP6AXH@ZW4__acrt_lock_id@@$$QAV<lambda_ec61778202f4f5fc7e7711acc23c3bca>@@@Z 1008c59a f i libucrt:signal.obj
 0001:0008b604       ?initialize@?$dual_state_global@P6AHPAU_exception@@@Z@__crt_state_management@@QAEXQ6AHPAU_exception@@@Z@Z 1008c604 f i libucrt:matherr.obj
 0001:0008b604       ?initialize@?$dual_state_global@P6AXPB_W00II@Z@__crt_state_management@@QAEXQ6AXPB_W00II@Z@Z 1008c604 f i libucrt:invalid_parameter.obj
 0001:0008b604       ?initialize@?$dual_state_global@PAPAD@__crt_state_management@@QAEXQAPAD@Z 1008c604 f i libucrt:environment_initialization.obj
 0001:0008b604       ?initialize@?$dual_state_global@PAU__crt_locale_data@@@__crt_state_management@@QAEXQAU__crt_locale_data@@@Z 1008c604 f i libucrt:initialization.obj
 0001:0008b604       ?initialize@?$dual_state_global@P6AXH@Z@__crt_state_management@@QAEXQ6AXH@Z@Z 1008c604 f i libucrt:signal.obj
 0001:0008b604       ?initialize@?$dual_state_global@P6AHI@Z@__crt_state_management@@QAEXQ6AHI@Z@Z 1008c604 f i libucrt:new_handler.obj
 0001:0008b65d       ___acrt_get_sigabrt_handler 1008c65d f   libucrt:signal.obj
 0001:0008b674       ___acrt_initialize_signal_handlers 1008c674 f   libucrt:signal.obj
 0001:0008b6af       ___fpecode                 1008c6af f   libucrt:signal.obj
 0001:0008b6b8       _raise                     1008c6b8 f   libucrt:signal.obj
 0001:0008b8c0       ___acrt_has_user_matherr   1008c8c0 f   libucrt:matherr.obj
 0001:0008b8d9       ___acrt_initialize_user_matherr 1008c8d9 f   libucrt:matherr.obj
 0001:0008b8ed       ___acrt_invoke_user_matherr 1008c8ed f   libucrt:matherr.obj
 0001:0008b940       ___ascii_strnicmp          1008c940 f   libucrt:_strnicm.obj
 0001:0008b9a1       ___acrt_copy_path_to_wide_string 1008c9a1 f   libucrt:string_utilities.obj
 0001:0008ba68       __wmkdir                   1008ca68 f   libucrt:wmkdir.obj
 0001:0008ba92       __waccess_s                1008ca92 f   libucrt:waccess.obj
 0001:0008bb52       __query_new_mode           1008cb52 f   libucrt:new_mode.obj
 0001:0008bb58       ___acrt_add_locale_ref     1008cb58 f   libucrt:locale_refcounting.obj
 0001:0008bbd5       ___acrt_free_locale        1008cbd5 f   libucrt:locale_refcounting.obj
 0001:0008bd1f       ___acrt_locale_add_lc_time_reference 1008cd1f f   libucrt:locale_refcounting.obj
 0001:0008bd48       ___acrt_locale_free_lc_time_if_unreferenced 1008cd48 f   libucrt:locale_refcounting.obj
 0001:0008bd78       ___acrt_locale_release_lc_time_reference 1008cd78 f   libucrt:locale_refcounting.obj
 0001:0008bda1       ___acrt_release_locale_ref 1008cda1 f   libucrt:locale_refcounting.obj
 0001:0008be22       ___acrt_update_thread_locale_data 1008ce22 f   libucrt:locale_refcounting.obj
 0001:0008be99       __updatetlocinfoEx_nolock  1008ce99 f   libucrt:locale_refcounting.obj
 0001:0008bee9       ___acrt_fp_strflt_to_string 1008cee9 f   libucrt:_fptostr.obj
 0001:0008bfa5       ??0scoped_fp_state_reset@?A0x48fbfdd4@@QAE@XZ 1008cfa5 f i libucrt:cfout.obj
 0001:0008bfcf       ___acrt_fltout             1008cfcf f   libucrt:cfout.obj
 0001:0008d36b       __fcloseall                1008e36b f   libucrt:closeall.obj
 0001:0008d40b       ___acrt_stdio_flush_nolock 1008e40b f   libucrt:fflush.obj
 0001:0008d471       __fflush_nolock            1008e471 f   libucrt:fflush.obj
 0001:0008d4b8       __flushall                 1008e4b8 f   libucrt:fflush.obj
 0001:0008d599       ___acrt_stdio_free_buffer_nolock 1008e599 f   libucrt:_freebuf.obj
 0001:0008d5d7       __isatty                   1008e5d7 f   libucrt:isatty.obj
 0001:0008d62d       ___acrt_locale_free_monetary 1008e62d f   libucrt:initmon.obj
 0001:0008d72b       ___acrt_locale_free_numeric 1008e72b f   libucrt:initnum.obj
 0001:0008d7d0       ___acrt_locale_free_time   1008e7d0 f   libucrt:inittime.obj
 0001:0008d8b4       ___acrt_GetStringTypeA     1008e8b4 f   libucrt:getstringtypea.obj
 0001:0008d9d1       ___acrt_lowio_create_handle_array 1008e9d1 f   libucrt:osfinfo.obj
 0001:0008da4b       ___acrt_lowio_destroy_handle_array 1008ea4b f   libucrt:osfinfo.obj
 0001:0008da80       ___acrt_lowio_ensure_fh_exists 1008ea80 f   libucrt:osfinfo.obj
 0001:0008db18       ___acrt_lowio_lock_fh      1008eb18 f   libucrt:osfinfo.obj
 0001:0008db3b       ___acrt_lowio_unlock_fh    1008eb3b f   libucrt:osfinfo.obj
 0001:0008db5e       __free_osfhnd              1008eb5e f   libucrt:osfinfo.obj
 0001:0008dbef       __get_osfhandle            1008ebef f   libucrt:osfinfo.obj
 0001:0008defc       __getfpcontrolword         1008eefc f   libucrt:_fenvutils.obj
 0001:0008df3f       __getfpstatusword          1008ef3f f   libucrt:_fenvutils.obj
 0001:0008dfe7       __setfpcontrolword         1008efe7 f   libucrt:_fenvutils.obj
 0001:0008e067       __setfpstatusword          1008f067 f   libucrt:_fenvutils.obj
 0001:0008e0e7       __87except                 1008f0e7 f   libucrt:87except.obj
 0001:0008e1f2       ___acrt_initialize_sse2    1008f1f2 f   libucrt:mathfcns.obj
 0001:0008e210       __CIacos_pentium4          1008f210 f   libucrt:acos_pentium4.obj
 0001:0008e228       __acos_pentium4            1008f228     libucrt:acos_pentium4.obj
 0001:0008e770       __startTwoArgErrorHandling 1008f770 f   libucrt:genexcep.obj
 0001:0008e787       __startOneArgErrorHandling 1008f787 f   libucrt:genexcep.obj
 0001:0008e7d0       __twoToTOS                 1008f7d0 f   libucrt:common.obj
 0001:0008e7e5       __load_CW                  1008f7e5 f   libucrt:common.obj
 0001:0008e7fc       __convertTOStoQNaN         1008f7fc f   libucrt:common.obj
 0001:0008e815       __fload_withFB             1008f815 f   libucrt:common.obj
 0001:0008e858       __checkTOS_withFB          1008f858 f   libucrt:common.obj
 0001:0008e86e       __fast_exit                1008f86e f   libucrt:common.obj
 0001:0008e87b       __math_exit                1008f87b f   libucrt:common.obj
 0001:0008e8a5       __check_overflow_exit      1008f8a5 f   libucrt:common.obj
 0001:0008e8b9       __check_range_exit         1008f8b9 f   libucrt:common.obj
 0001:0008e960       __CIcos_pentium4           1008f960 f   libucrt:cos_pentium4.obj
 0001:0008e978       __cos_pentium4             1008f978     libucrt:cos_pentium4.obj
 0001:0008eb10       __CIsin_pentium4           1008fb10 f   libucrt:sin_pentium4.obj
 0001:0008eb28       __sin_pentium4             1008fb28     libucrt:sin_pentium4.obj
 0001:0008ecd8       ___strncnt                 1008fcd8 f   libucrt:strncnt.obj
 0001:0008ed00       __CIpow_pentium4           1008fd00 f   libucrt:pow_pentium4.obj
 0001:0008ed19       __pow_pentium4             1008fd19     libucrt:pow_pentium4.obj
 0001:0008f831       __fFEXP                    10090831     libucrt:87tran.obj
 0001:0008f888       __rtinfpopse               10090888     libucrt:87tran.obj
 0001:0008f88a       __rtinfnpopse              1009088a     libucrt:87tran.obj
 0001:0008f89a       __fFLN                     1009089a     libucrt:87tran.obj
 0001:0008f94f       __rtinfpop                 1009094f     libucrt:87tran.obj
 0001:0008f951       __rtinfnpop                10090951     libucrt:87tran.obj
 0001:0008f96e       __ffexpm1                  1009096e     libucrt:87tran.obj
 0001:0008fa17       __d_inttype                10090a17 f   libucrt:powhlp.obj
 0001:0008fa81       __powhlp                   10090a81 f   libucrt:powhlp.obj
 0001:0008fbb0       __CItan_pentium4           10090bb0 f   libucrt:tan_pentium4.obj
 0001:0008fbc8       __tan_pentium4             10090bc8     libucrt:tan_pentium4.obj
 0001:0008fecc       ___acrt_DownlevelLocaleNameToLCID 10090ecc f   libucrt:lcidtoname_downlevel.obj
 0001:0008ffe0       _qsort                     10090fe0 f   libucrt:qsort.obj
 0001:0009042b       _strncpy_s                 1009142b f   libucrt:strncpy_s.obj
 0001:00090440       _strpbrk                   10091440 f   libucrt:strpbrk.obj
 0001:00090480       __mbsdec                   10091480 f   libucrt:mbsdec.obj
 0001:00090497       __mbsdec_l                 10091497 f   libucrt:mbsdec.obj
 0001:00090533       __msize                    10091533 f   libucrt:msize.obj
 0001:00090566       _fegetenv                  10091566 f   libucrt:fegetenv.obj
 0001:00090583       _fesetenv                  10091583 f   libucrt:fesetenv.obj
 0001:000905cc       _feholdexcept              100915cc f   libucrt:feholdexcept.obj
 0001:00090620       _log10                     10091620 f   libucrt:log10.obj
 0001:00090660       __CIlog10                  10091660 f   libucrt:log10.obj
 0001:0009069b       __CIlog10_default          1009169b f   libucrt:log10.obj
 0001:000906af       __log10_default            100916af     libucrt:log10.obj
 0001:00090770       _ceil                      10091770 f   libucrt:ceil_pentium4.obj
 0001:000907b0       __ceil_pentium4            100917b0 f   libucrt:ceil_pentium4.obj
 0001:00090e1d       __write                    10091e1d f   libucrt:write.obj
 0001:00090f08       __write_nolock             10091f08 f   libucrt:write.obj
 0001:00091192       __lseeki64_nolock          10092192 f   libucrt:lseek.obj
 0001:000911ad       __fclose_nolock            100921ad f   libucrt:fclose.obj
 0001:00091223       _fclose                    10092223 f   libucrt:fclose.obj
 0001:000912a3       ??$?RV<lambda_61cee617f5178ae960314fd4d05640a0>@@AAV<lambda_6978c1fb23f02e42e1d9e99668cc68aa>@@V<lambda_9cd88cf8ad10232537feb2133f08c833>@@@?$__crt_seh_guarded_call@H@@QAEH$$QAV<lambda_61cee617f5178ae960314fd4d05640a0>@@AAV<lambda_6978c1fb23f02e42e1d9e99668cc68aa>@@$$QAV<lambda_9cd88cf8ad10232537feb2133f08c833>@@@Z 100922a3 f i libucrt:commit.obj
 0001:0009133b       ??$__acrt_lowio_lock_fh_and_call@V<lambda_6978c1fb23f02e42e1d9e99668cc68aa>@@@@YAHH$$QAV<lambda_6978c1fb23f02e42e1d9e99668cc68aa>@@@Z 1009233b f i libucrt:commit.obj
 0001:00091363       __commit                   10092363 f   libucrt:commit.obj
 0001:000913d2       __query_app_type           100923d2 f   libucrt:report_runtime_error.obj
 0001:000913d8       __errcode                  100923d8 f   libucrt:fpexcept.obj
 0001:0009140c       __except1                  1009240c f   libucrt:fpexcept.obj
 0001:000914da       __handle_exc               100924da f   libucrt:fpexcept.obj
 0001:000916ba       __raise_exc                100926ba f   libucrt:fpexcept.obj
 0001:000916dd       __raise_exc_ex             100926dd f   libucrt:fpexcept.obj
 0001:000919ce       __set_errno_from_matherr   100929ce f   libucrt:fpexcept.obj
 0001:000919fd       __umatherr                 100929fd f   libucrt:fpexcept.obj
 0001:00091a9f       __clrfp                    10092a9f f   libucrt:fpctrl.obj
 0001:00091ab2       __ctrlfp                   10092ab2 f   libucrt:fpctrl.obj
 0001:00091ade       __set_statfp               10092ade f   libucrt:fpctrl.obj
 0001:00091b39       __statfp                   10092b39 f   libucrt:fpctrl.obj
 0001:00091b4b       __frnd                     10092b4b f   libucrt:frnd.obj
 0001:00091b61       __fpclass                  10092b61 f   libucrt:ieeemisc.obj
 0001:00091c05       __decomp                   10092c05 f   libucrt:util.obj
 0001:00091cd9       __set_exp                  10092cd9 f   libucrt:util.obj
 0001:00091d08       __sptype                   10092d08 f   libucrt:util.obj
 0001:00091d66       __clearfp                  10092d66 f   libucrt:ieee87.obj
 0001:00091e50       __CIlog10_pentium4         10092e50 f   libucrt:log10_pentium4.obj
 0001:00091e68       __log10_pentium4           10092e68     libucrt:log10_pentium4.obj
 0001:000920e0       __ceil_default             100930e0 f   libucrt:ceil.obj
 0001:00092199       __putwch_nolock            10093199 f   libucrt:putwch.obj
 0001:000921de       ??$?RV<lambda_123407a5e2ac06da108355a851863b7a>@@AAV<lambda_2fe9b910cf3cbf4a0ab98a02ba45b3ec>@@V<lambda_ae55bdf541ad94d75914d381c370e64d>@@@?$__crt_seh_guarded_call@H@@QAEH$$QAV<lambda_123407a5e2ac06da108355a851863b7a>@@AAV<lambda_2fe9b910cf3cbf4a0ab98a02ba45b3ec>@@$$QAV<lambda_ae55bdf541ad94d75914d381c370e64d>@@@Z 100931de f i libucrt:close.obj
 0001:00092260       ??$__acrt_lowio_lock_fh_and_call@V<lambda_2fe9b910cf3cbf4a0ab98a02ba45b3ec>@@@@YAHH$$QAV<lambda_2fe9b910cf3cbf4a0ab98a02ba45b3ec>@@@Z 10093260 f i libucrt:close.obj
 0001:00092288       __close                    10093288 f   libucrt:close.obj
 0001:00092307       __close_nolock             10093307 f   libucrt:close.obj
 0001:000923a3       ?__acrt_stdio_free_stream@@YAXV__crt_stdio_stream@@@Z 100933a3 f   libucrt:stream.obj
 0001:000923de       ___dcrt_lowio_initialize_console_output 100933de f   libucrt:initcon.obj
 0001:000923fd       ___dcrt_terminate_console_output 100933fd f   libucrt:initcon.obj
 0001:00092414       _IsProcessorFeaturePresent@4 10093414 f   kernel32:KERNEL32.dll
 0001:00092420       __FindPESection            10093420 f   LIBCMT:pesect.obj
 0001:00092470       __IsNonwritableInCurrentImage 10093470 f   LIBCMT:pesect.obj
 0001:00092530       __ValidateImageBase        10093530 f   LIBCMT:pesect.obj
 0001:00092561       __EH_prolog3_catch         10093561 f   LIBCMT:ehprolg3.obj
 0001:000925a0       __aulldvrm                 100935a0 f   LIBCMT:ulldvrm.obj
 0001:00092640       __allmul                   10093640 f   LIBCMT:llmul.obj
 0001:00092680       __allshl                   10093680 f   LIBCMT:llshl.obj
 0001:000926a0       __aullshr                  100936a0 f   LIBCMT:ullshr.obj
 0001:000926c0       __SEH_prolog4_GS           100936c0 f   LIBCMT:_sehprolg4gs_.obj
 0001:00092709       __SEH_epilog4_GS           10093709 f   LIBCMT:_sehprolg4gs_.obj
 0001:00092720       __alldvrm                  10093720 f   LIBCMT:lldvrm.obj
 0001:00092800       __alloca_probe_16          10093800 f   LIBCMT:alloca16.obj
 0001:00092816       __alloca_probe_8           10093816     LIBCMT:alloca16.obj
 0001:00092830       _strrchr                   10093830 f   libvcruntime:strrchr.obj
 0002:00000000       __imp__DebugBreak@0        10094000     kernel32:KERNEL32.dll
 0002:00000004       __imp__QueryPerformanceCounter@4 10094004     kernel32:KERNEL32.dll
 0002:00000008       __imp__QueryPerformanceFrequency@4 10094008     kernel32:KERNEL32.dll
 0002:0000000c       __imp__IsProcessorFeaturePresent@4 1009400c     kernel32:KERNEL32.dll
 0002:00000010       __imp__IsDebuggerPresent@0 10094010     kernel32:KERNEL32.dll
 0002:00000014       __imp__UnhandledExceptionFilter@4 10094014     kernel32:KERNEL32.dll
 0002:00000018       __imp__SetUnhandledExceptionFilter@4 10094018     kernel32:KERNEL32.dll
 0002:0000001c       __imp__GetStartupInfoW@4   1009401c     kernel32:KERNEL32.dll
 0002:00000020       __imp__GetModuleHandleW@4  10094020     kernel32:KERNEL32.dll
 0002:00000024       __imp__GetCurrentProcessId@0 10094024     kernel32:KERNEL32.dll
 0002:00000028       __imp__GetCurrentThreadId@0 10094028     kernel32:KERNEL32.dll
 0002:0000002c       __imp__GetSystemTimeAsFileTime@4 1009402c     kernel32:KERNEL32.dll
 0002:00000030       __imp__InitializeSListHead@4 10094030     kernel32:KERNEL32.dll
 0002:00000034       __imp__GetCurrentProcess@0 10094034     kernel32:KERNEL32.dll
 0002:00000038       __imp__TerminateProcess@8  10094038     kernel32:KERNEL32.dll
 0002:0000003c       __imp__RtlUnwind@16        1009403c     kernel32:KERNEL32.dll
 0002:00000040       __imp__RaiseException@16   10094040     kernel32:KERNEL32.dll
 0002:00000044       __imp__InterlockedFlushSList@4 10094044     kernel32:KERNEL32.dll
 0002:00000048       __imp__GetLastError@0      10094048     kernel32:KERNEL32.dll
 0002:0000004c       __imp__SetLastError@4      1009404c     kernel32:KERNEL32.dll
 0002:00000050       __imp__EncodePointer@4     10094050     kernel32:KERNEL32.dll
 0002:00000054       __imp__EnterCriticalSection@4 10094054     kernel32:KERNEL32.dll
 0002:00000058       __imp__LeaveCriticalSection@4 10094058     kernel32:KERNEL32.dll
 0002:0000005c       __imp__DeleteCriticalSection@4 1009405c     kernel32:KERNEL32.dll
 0002:00000060       __imp__InitializeCriticalSectionAndSpinCount@8 10094060     kernel32:KERNEL32.dll
 0002:00000064       __imp__TlsAlloc@0          10094064     kernel32:KERNEL32.dll
 0002:00000068       __imp__TlsGetValue@4       10094068     kernel32:KERNEL32.dll
 0002:0000006c       __imp__TlsSetValue@8       1009406c     kernel32:KERNEL32.dll
 0002:00000070       __imp__TlsFree@4           10094070     kernel32:KERNEL32.dll
 0002:00000074       __imp__FreeLibrary@4       10094074     kernel32:KERNEL32.dll
 0002:00000078       __imp__GetProcAddress@8    10094078     kernel32:KERNEL32.dll
 0002:0000007c       __imp__LoadLibraryExW@12   1009407c     kernel32:KERNEL32.dll
 0002:00000080       __imp__ExitProcess@4       10094080     kernel32:KERNEL32.dll
 0002:00000084       __imp__GetModuleHandleExW@12 10094084     kernel32:KERNEL32.dll
 0002:00000088       __imp__GetModuleFileNameA@12 10094088     kernel32:KERNEL32.dll
 0002:0000008c       __imp__MultiByteToWideChar@24 1009408c     kernel32:KERNEL32.dll
 0002:00000090       __imp__WideCharToMultiByte@32 10094090     kernel32:KERNEL32.dll
 0002:00000094       __imp__HeapFree@12         10094094     kernel32:KERNEL32.dll
 0002:00000098       __imp__HeapAlloc@12        10094098     kernel32:KERNEL32.dll
 0002:0000009c       __imp__GetACP@0            1009409c     kernel32:KERNEL32.dll
 0002:000000a0       __imp__GetStdHandle@4      100940a0     kernel32:KERNEL32.dll
 0002:000000a4       __imp__GetFileType@4       100940a4     kernel32:KERNEL32.dll
 0002:000000a8       __imp__GetStringTypeW@16   100940a8     kernel32:KERNEL32.dll
 0002:000000ac       __imp__DecodePointer@4     100940ac     kernel32:KERNEL32.dll
 0002:000000b0       __imp__HeapReAlloc@16      100940b0     kernel32:KERNEL32.dll
 0002:000000b4       __imp__LCMapStringW@24     100940b4     kernel32:KERNEL32.dll
 0002:000000b8       __imp__FindClose@4         100940b8     kernel32:KERNEL32.dll
 0002:000000bc       __imp__FindFirstFileExA@24 100940bc     kernel32:KERNEL32.dll
 0002:000000c0       __imp__FindNextFileA@8     100940c0     kernel32:KERNEL32.dll
 0002:000000c4       __imp__IsValidCodePage@4   100940c4     kernel32:KERNEL32.dll
 0002:000000c8       __imp__GetOEMCP@0          100940c8     kernel32:KERNEL32.dll
 0002:000000cc       __imp__GetCPInfo@8         100940cc     kernel32:KERNEL32.dll
 0002:000000d0       __imp__GetCommandLineA@0   100940d0     kernel32:KERNEL32.dll
 0002:000000d4       __imp__GetCommandLineW@0   100940d4     kernel32:KERNEL32.dll
 0002:000000d8       __imp__GetEnvironmentStringsW@0 100940d8     kernel32:KERNEL32.dll
 0002:000000dc       __imp__FreeEnvironmentStringsW@4 100940dc     kernel32:KERNEL32.dll
 0002:000000e0       __imp__GetProcessHeap@0    100940e0     kernel32:KERNEL32.dll
 0002:000000e4       __imp__CreateDirectoryW@8  100940e4     kernel32:KERNEL32.dll
 0002:000000e8       __imp__GetFileAttributesExW@12 100940e8     kernel32:KERNEL32.dll
 0002:000000ec       __imp__SetStdHandle@8      100940ec     kernel32:KERNEL32.dll
 0002:000000f0       __imp__HeapSize@12         100940f0     kernel32:KERNEL32.dll
 0002:000000f4       __imp__WriteFile@20        100940f4     kernel32:KERNEL32.dll
 0002:000000f8       __imp__GetConsoleCP@0      100940f8     kernel32:KERNEL32.dll
 0002:000000fc       __imp__GetConsoleMode@8    100940fc     kernel32:KERNEL32.dll
 0002:00000100       __imp__SetFilePointerEx@20 10094100     kernel32:KERNEL32.dll
 0002:00000104       __imp__FlushFileBuffers@4  10094104     kernel32:KERNEL32.dll
 0002:00000108       __imp__WriteConsoleW@20    10094108     kernel32:KERNEL32.dll
 0002:0000010c       __imp__CloseHandle@4       1009410c     kernel32:KERNEL32.dll
 0002:00000110       __imp__CreateFileW@28      10094110     kernel32:KERNEL32.dll
 0002:00000114       \177KERNEL32_NULL_THUNK_DATA 10094114     kernel32:KERNEL32.dll
 0002:00000118       ___guard_check_icall_fptr  10094118     LIBCMT:guard_support.obj
 0002:0000011c       ___xc_a                    1009411c     LIBCMT:initializers.obj
 0002:00000130       ___xc_z                    10094130     LIBCMT:initializers.obj
 0002:00000134       ___xi_a                    10094134     LIBCMT:initializers.obj
 0002:00000138       ___acrt_stdio_initializer  10094138     libucrt:stdio_initializer.obj
 0002:0000013c       ___acrt_multibyte_initializer 1009413c     libucrt:multibyte_initializer.obj
 0002:00000140       ___acrt_tran_sse2_initializer 10094140     libucrt:sse2_initializer.obj
 0002:00000144       ___xi_z                    10094144     LIBCMT:initializers.obj
 0002:00000148       ___xp_a                    10094148     LIBCMT:initializers.obj
 0002:0000014c       ___acrt_locale_terminator  1009414c     libucrt:locale_initializer.obj
 0002:00000150       ___dcrt_console_output_terminator 10094150     libucrt:console_output_initializer.obj
 0002:00000154       ___acrt_stdio_terminator   10094154     libucrt:stdio_initializer.obj
 0002:00000158       ___xp_z                    10094158     LIBCMT:initializers.obj
 0002:0000015c       ___xt_a                    1009415c     LIBCMT:initializers.obj
 0002:00000160       ___xt_z                    10094160     LIBCMT:initializers.obj
 0002:00000170       ??_C@_0BC@LANKOHBM@voice_serverdebug?$AA@ 10094170     voice_gamemgr.obj
 0002:00000184       ??_C@_01GBGANLPD@0?$AA@    10094184     voice_gamemgr.obj
 0002:00000188       ??_C@_0L@MCGJBOEN@sv_alltalk?$AA@ 10094188     voice_gamemgr.obj
 0002:00000198       ??_7CVoiceGameMgr@@6B@     10094198     voice_gamemgr.obj
 0002:0000019c       ??_C@_02DKCKIIND@?$CFs?$AA@ 1009419c     voice_gamemgr.obj
 0002:000001a0       ??_C@_0BG@KNOEPLBA@sprites?1voiceicon?4spr?$AA@ 100941a0     voice_gamemgr.obj
 0002:000001b8       ??_C@_09PFCBDEAJ@VoiceMask?$AA@ 100941b8     voice_gamemgr.obj
 0002:000001c4       ??_C@_08NJOGAELP@ReqState?$AA@ 100941c4     voice_gamemgr.obj
 0002:000001d0       ??_C@_0DP@EGNAHAKD@CVoiceGameMgr?3?3ClientCommand?3?5cm@ 100941d0     voice_gamemgr.obj
 0002:00000210       ??_C@_04GMALMFDL@vban?$AA@ 10094210     voice_gamemgr.obj
 0002:00000218       ??_C@_02NJNOFBBI@?$CFx?$AA@ 10094218     voice_gamemgr.obj
 0002:0000021c       ??_C@_0DD@LCOADNGA@CVoiceGameMgr?3?3ClientCommand?3?5vb@ 1009421c     voice_gamemgr.obj
 0002:00000250       ??_C@_0DC@JCNCJGAN@CVoiceGameMgr?3?3ClientCommand?3?5in@ 10094250     voice_gamemgr.obj
 0002:00000284       ??_C@_0L@PALLMNHH@VModEnable?$AA@ 10094284     voice_gamemgr.obj
 0002:00000290       ??_C@_0CP@GEFPDNOJ@CVoiceGameMgr?3?3ClientCommand?3?5VM@ 10094290     voice_gamemgr.obj
 0002:000002c0       __real@00000000            100942c0     voice_gamemgr.obj
 0002:000002c8       __real@3fd3333333333333    100942c8     voice_gamemgr.obj
 0002:000002d0       __real@40000000            100942d0     pm_debug.obj
 0002:000002d4       __real@43800000            100942d4     pm_debug.obj
 0002:000002d8       __real@3f800000            100942d8     pm_math.obj
 0002:000002e0       __real@3f91df46a2529d39    100942e0     pm_math.obj
 0002:000002e8       __real@400921fb54442d18    100942e8     pm_math.obj
 0002:000002f0       __real@4066800000000000    100942f0     pm_math.obj
 0002:000002f8       __real@4076800000000000    100942f8     pm_math.obj
 0002:00000300       __real@42b40000            10094300     pm_math.obj
 0002:00000304       __real@43340000            10094304     pm_math.obj
 0002:00000308       __real@43b40000            10094308     pm_math.obj
 0002:0000030c       __real@bf800000            1009430c     pm_math.obj
 0002:00000310       __real@c3340000            10094310     pm_math.obj
 0002:00000320       __xmm@80000000800000008000000080000000 10094320     pm_math.obj
 0002:00000330       ??_C@_0BE@CMDBNMCL@sound?1materials?4txt?$AA@ 10094330     pm_shared.obj
 0002:00000344       ??_C@_0BE@PDHCPK@player?1pl_step1?4wav?$AA@ 10094344     pm_shared.obj
 0002:00000358       ??_C@_0BE@ENDLNDPB@player?1pl_step3?4wav?$AA@ 10094358     pm_shared.obj
 0002:0000036c       ??_C@_0BE@IGGHAAFE@player?1pl_step2?4wav?$AA@ 1009436c     pm_shared.obj
 0002:00000380       ??_C@_0BE@FADOODEJ@player?1pl_step4?4wav?$AA@ 10094380     pm_shared.obj
 0002:00000394       ??_C@_0BF@PCNBHMKJ@player?1pl_metal1?4wav?$AA@ 10094394     pm_shared.obj
 0002:000003ac       ??_C@_0BF@LPBJNNKC@player?1pl_metal3?4wav?$AA@ 100943ac     pm_shared.obj
 0002:000003c4       ??_C@_0BF@HEEFAOAH@player?1pl_metal2?4wav?$AA@ 100943c4     pm_shared.obj
 0002:000003dc       ??_C@_0BF@KCBMONBK@player?1pl_metal4?4wav?$AA@ 100943dc     pm_shared.obj
 0002:000003f4       ??_C@_0BE@BKDPFBGM@player?1pl_dirt1?4wav?$AA@ 100943f4     pm_shared.obj
 0002:00000408       ??_C@_0BE@FHPHPAGH@player?1pl_dirt3?4wav?$AA@ 10094408     pm_shared.obj
 0002:0000041c       ??_C@_0BE@JMKLCDMC@player?1pl_dirt2?4wav?$AA@ 1009441c     pm_shared.obj
 0002:00000430       ??_C@_0BE@EKPCMANP@player?1pl_dirt4?4wav?$AA@ 10094430     pm_shared.obj
 0002:00000444       ??_C@_0BE@OANKNBLM@player?1pl_duct1?4wav?$AA@ 10094444     pm_shared.obj
 0002:00000458       ??_C@_0BE@KNBCHALH@player?1pl_duct3?4wav?$AA@ 10094458     pm_shared.obj
 0002:0000046c       ??_C@_0BE@GGEOKDBC@player?1pl_duct2?4wav?$AA@ 1009446c     pm_shared.obj
 0002:00000480       ??_C@_0BE@LABHEAAP@player?1pl_duct4?4wav?$AA@ 10094480     pm_shared.obj
 0002:00000494       ??_C@_0BF@JCJIMDBO@player?1pl_grate1?4wav?$AA@ 10094494     pm_shared.obj
 0002:000004ac       ??_C@_0BF@NPFAGCBF@player?1pl_grate3?4wav?$AA@ 100944ac     pm_shared.obj
 0002:000004c4       ??_C@_0BF@BEAMLBLA@player?1pl_grate2?4wav?$AA@ 100944c4     pm_shared.obj
 0002:000004dc       ??_C@_0BF@MCFFFCKN@player?1pl_grate4?4wav?$AA@ 100944dc     pm_shared.obj
 0002:000004f4       ??_C@_0BE@JFAJGEOH@player?1pl_tile1?4wav?$AA@ 100944f4     pm_shared.obj
 0002:00000508       ??_C@_0BE@NIMBMFOM@player?1pl_tile3?4wav?$AA@ 10094508     pm_shared.obj
 0002:0000051c       ??_C@_0BE@BDJNBGEJ@player?1pl_tile2?4wav?$AA@ 1009451c     pm_shared.obj
 0002:00000530       ??_C@_0BE@MFMEPFFE@player?1pl_tile4?4wav?$AA@ 10094530     pm_shared.obj
 0002:00000544       ??_C@_0BE@OJICGPB@player?1pl_tile5?4wav?$AA@ 10094544     pm_shared.obj
 0002:00000558       ??_C@_0BF@BGAAHGEH@player?1pl_slosh1?4wav?$AA@ 10094558     pm_shared.obj
 0002:00000570       ??_C@_0BF@FLMINHEM@player?1pl_slosh3?4wav?$AA@ 10094570     pm_shared.obj
 0002:00000588       ??_C@_0BF@JAJEAEOJ@player?1pl_slosh2?4wav?$AA@ 10094588     pm_shared.obj
 0002:000005a0       ??_C@_0BF@EGMNOHPE@player?1pl_slosh4?4wav?$AA@ 100945a0     pm_shared.obj
 0002:000005b8       ??_C@_0BE@BGADGGEJ@player?1pl_wade1?4wav?$AA@ 100945b8     pm_shared.obj
 0002:000005cc       ??_C@_0BE@FLMLMHEC@player?1pl_wade3?4wav?$AA@ 100945cc     pm_shared.obj
 0002:000005e0       ??_C@_0BE@JAJHBEOH@player?1pl_wade2?4wav?$AA@ 100945e0     pm_shared.obj
 0002:000005f4       ??_C@_0BE@EGMOPHPK@player?1pl_wade4?4wav?$AA@ 100945f4     pm_shared.obj
 0002:00000608       ??_C@_0BG@FBOMDLIH@player?1pl_ladder1?4wav?$AA@ 10094608     pm_shared.obj
 0002:00000620       ??_C@_0BG@BMCEJKIM@player?1pl_ladder3?4wav?$AA@ 10094620     pm_shared.obj
 0002:00000638       ??_C@_0BG@NHHIEJCJ@player?1pl_ladder2?4wav?$AA@ 10094638     pm_shared.obj
 0002:00000650       ??_C@_0BG@BCBKKDE@player?1pl_ladder4?4wav?$AA@ 10094650     pm_shared.obj
 0002:00000668       ??_C@_0BE@GNHKJIFD@player?1pl_snow1?4wav?$AA@ 10094668     pm_shared.obj
 0002:0000067c       ??_C@_0BE@CALCDJFI@player?1pl_snow3?4wav?$AA@ 1009467c     pm_shared.obj
 0002:00000690       ??_C@_0BE@OLOOOKPN@player?1pl_snow2?4wav?$AA@ 10094690     pm_shared.obj
 0002:000006a4       ??_C@_0BE@DNLHAJOA@player?1pl_snow4?4wav?$AA@ 100946a4     pm_shared.obj
 0002:000006b8       ??_C@_0CB@CNILIGKA@Too?5many?5entities?5were?5touched?$CB?6@ 100946b8     pm_shared.obj
 0002:000006dc       ??_C@_0BL@ODOJHMIN@PM?5?5Got?5a?5NaN?5velocity?5?$CFi?6?$AA@ 100946dc     pm_shared.obj
 0002:000006f8       ??_C@_0BM@IKDFNEMI@PM?5?5Got?5a?5NaN?5origin?5on?5?$CFi?6?$AA@ 100946f8     pm_shared.obj
 0002:00000714       ??_C@_0CD@BDBMHNGO@PM?5?5Got?5a?5velocity?5too?5high?5on?5?$CF@ 10094714     pm_shared.obj
 0002:00000738       ??_C@_0CC@OFBNMFAF@PM?5?5Got?5a?5velocity?5too?5low?5on?5?$CFi@ 10094738     pm_shared.obj
 0002:0000075c       ??_C@_0DC@MKOCNFCM@Bogus?5pmove?5player?5movetype?5?$CFi?5o@ 1009475c     pm_shared.obj
 0002:00000790       __real@3dcccccd            10094790     pm_shared.obj
 0002:00000794       __real@3e000000            10094794     pm_shared.obj
 0002:00000798       __real@3eb33333            10094798     pm_shared.obj
 0002:0000079c       __real@3f000000            1009479c     pm_shared.obj
 0002:000007a0       __real@3f0ccccd            100947a0     pm_shared.obj
 0002:000007a4       __real@3f266666            100947a4     pm_shared.obj
 0002:000007a8       __real@3f333333            100947a8     pm_shared.obj
 0002:000007b0       __real@3f50624dd2f1a9fc    100947b0     pm_shared.obj
 0002:000007b8       __real@3f59999a            100947b8     pm_shared.obj
 0002:000007c0       __real@3f847ae147ae147b    100947c0     pm_shared.obj
 0002:000007c8       __real@3f8a9fbe76c8b439    100947c8     pm_shared.obj
 0002:000007d0       __real@3f99999a            100947d0     pm_shared.obj
 0002:000007d8       __real@3fa999999999999a    100947d8     pm_shared.obj
 0002:000007e0       __real@3fb999999999999a    100947e0     pm_shared.obj
 0002:000007e8       __real@3fb99999a0000000    100947e8     pm_shared.obj
 0002:000007f0       __real@3fc0000000000000    100947f0     pm_shared.obj
 0002:000007f8       __real@3fd0000000000000    100947f8     pm_shared.obj
 0002:00000800       __real@3fd54fdf3b645a1d    10094800     pm_shared.obj
 0002:00000808       __real@3fd6666666666666    10094808     pm_shared.obj
 0002:00000810       __real@3fe0000000000000    10094810     pm_shared.obj
 0002:00000818       __real@3fe3333333333333    10094818     pm_shared.obj
 0002:00000820       __real@3fe6666666666666    10094820     pm_shared.obj
 0002:00000828       __real@3fe999999999999a    10094828     pm_shared.obj
 0002:00000830       __real@3feccccccccccccd    10094830     pm_shared.obj
 0002:00000838       __real@3ff0000000000000    10094838     pm_shared.obj
 0002:00000840       __real@3ff8000000000000    10094840     pm_shared.obj
 0002:00000848       __real@4000000000000000    10094848     pm_shared.obj
 0002:00000850       __real@4024000000000000    10094850     pm_shared.obj
 0002:00000858       __real@4032000000000000    10094858     pm_shared.obj
 0002:00000860       __real@4033000000000000    10094860     pm_shared.obj
 0002:00000868       __real@40400000            10094868     pm_shared.obj
 0002:00000870       __real@4049000000000000    10094870     pm_shared.obj
 0002:00000878       __real@4059000000000000    10094878     pm_shared.obj
 0002:00000880       __real@40800000            10094880     pm_shared.obj
 0002:00000888       __real@408db00000000000    10094888     pm_shared.obj
 0002:00000890       __real@408f400000000000    10094890     pm_shared.obj
 0002:00000898       __real@40f1940000000000    10094898     pm_shared.obj
 0002:000008a0       __real@41000000            100948a0     pm_shared.obj
 0002:000008a4       __real@41800000            100948a4     pm_shared.obj
 0002:000008a8       __real@41880000            100948a8     pm_shared.obj
 0002:000008ac       __real@41900000            100948ac     pm_shared.obj
 0002:000008b0       __real@41f00000            100948b0     pm_shared.obj
 0002:000008b4       __real@42080000            100948b4     pm_shared.obj
 0002:000008b8       __real@42700000            100948b8     pm_shared.obj
 0002:000008bc       __real@42800000            100948bc     pm_shared.obj
 0002:000008c0       __real@42900000            100948c0     pm_shared.obj
 0002:000008c4       __real@43160000            100948c4     pm_shared.obj
 0002:000008c8       __real@43480000            100948c8     pm_shared.obj
 0002:000008cc       __real@437a0000            100948cc     pm_shared.obj
 0002:000008d0       __real@43910000            100948d0     pm_shared.obj
 0002:000008d4       __real@43af0000            100948d4     pm_shared.obj
 0002:000008d8       __real@44110000            100948d8     pm_shared.obj
 0002:000008dc       __real@44610000            100948dc     pm_shared.obj
 0002:000008e0       __real@461c4000            100948e0     pm_shared.obj
 0002:000008e4       __real@be000000            100948e4     pm_shared.obj
 0002:000008e8       __real@bfb999999999999a    100948e8     pm_shared.obj
 0002:000008f0       __real@c0000000            100948f0     pm_shared.obj
 0002:000008f4       __real@c0c00000            100948f4     pm_shared.obj
 0002:000008f8       __real@c1000000            100948f8     pm_shared.obj
 0002:00000900       __xmm@7fffffffffffffff7fffffffffffffff 10094900     pm_shared.obj
 0002:00000910       ??_C@_07ENKCPKMK@m_state?$AA@ 10094910     airtank.obj
 0002:0000091c       ??_7CBaseEntity@@6B@       1009491c     airtank.obj
 0002:00000a04       ??_C@_00CNPNBAHC@?$AA@     10094a04     airtank.obj
 0002:00000a0c       ??_7CBaseDelay@@6B@        10094a0c     airtank.obj
 0002:00000af8       ??_7CBaseToggle@@6B@       10094af8     airtank.obj
 0002:00000be8       ??_7CBaseMonster@@6B@      10094be8     airtank.obj
 0002:00000d1c       ??_7CGrenade@@6B@          10094d1c     airtank.obj
 0002:00000e54       ??_7CAirtank@@6B@          10094e54     airtank.obj
 0002:00000f88       ??_C@_08IJCDBDD@CAirtank?$AA@ 10094f88     airtank.obj
 0002:00000f94       ??_C@_0BE@MLFJCIML@models?1w_oxygen?4mdl?$AA@ 10094f94     airtank.obj
 0002:00000fa8       ??_C@_0BF@KDFBMAIC@doors?1aliendoor3?4wav?$AA@ 10094fa8     airtank.obj
 0002:00000fc0       ??_C@_0BE@OOEMNENA@player?1pl_swim2?4wav?$AA@ 10094fc0     airtank.obj
 0002:00000fd4       __real@41400000            10094fd4     airtank.obj
 0002:00000fdc       ??_7C9MMAmmo@@6B@          10094fdc     ammo.obj
 0002:000010c8       ??_C@_0BF@DKFPPBMJ@models?1w_9mmclip?4mdl?$AA@ 100950c8     ammo.obj
 0002:000010e0       ??_C@_0BD@BADMCPNB@items?19mmclip1?4wav?$AA@ 100950e0     ammo.obj
 0002:000010f4       ??_C@_03MDMENKFB@9mm?$AA@  100950f4     ammo.obj
 0002:000010fc       ??_7CBuckShotAmmo@@6B@     100950fc     ammo.obj
 0002:000011e8       ??_C@_0BF@MHABFIPK@models?1w_shotbox?4mdl?$AA@ 100951e8     ammo.obj
 0002:00001200       ??_C@_08BPIGABHK@buckshot?$AA@ 10095200     ammo.obj
 0002:00001210       ??_7C556NatoAmmo@@6B@      10095210     ammo.obj
 0002:000012fc       ??_C@_07KKEMNCGA@556Nato?$AA@ 100952fc     ammo.obj
 0002:00001308       ??_7C556NatoBox@@6B@       10095308     ammo.obj
 0002:000013f4       ??_C@_0L@BBMDIOPJ@556NatoBox?$AA@ 100953f4     ammo.obj
 0002:00001404       ??_7C762NatoAmmo@@6B@      10095404     ammo.obj
 0002:000014f0       ??_C@_07ECBAINJG@762Nato?$AA@ 100954f0     ammo.obj
 0002:000014fc       ??_7C45ACPAmmo@@6B@        100954fc     ammo.obj
 0002:000015e8       ??_C@_05FOCDLAPI@45acp?$AA@ 100955e8     ammo.obj
 0002:000015f4       ??_7C50AEAmmo@@6B@         100955f4     ammo.obj
 0002:000016e0       ??_C@_04FMGBJLAC@50AE?$AA@ 100956e0     ammo.obj
 0002:000016ec       ??_7C338MagnumAmmo@@6B@    100956ec     ammo.obj
 0002:000017d8       ??_C@_09EKNDEGBH@338Magnum?$AA@ 100957d8     ammo.obj
 0002:000017e8       ??_7C57MMAmmo@@6B@         100957e8     ammo.obj
 0002:000018d4       ??_C@_04KNLMLCJF@57mm?$AA@ 100958d4     ammo.obj
 0002:000018e0       ??_7C357SIGAmmo@@6B@       100958e0     ammo.obj
 0002:000019cc       ??_C@_06KFGFKCAH@357SIG?$AA@ 100959cc     ammo.obj
 0002:000019d4       ??_C@_0O@MPOLIKOH@m_flFrameRate?$AA@ 100959d4     animating.obj
 0002:000019e4       ??_C@_0BA@OLEAHHHL@m_flGroundSpeed?$AA@ 100959e4     animating.obj
 0002:000019f4       ??_C@_0BD@JIAJFKIP@m_flLastEventCheck?$AA@ 100959f4     animating.obj
 0002:00001a08       ??_C@_0BE@KDJHCPPB@m_fSequenceFinished?$AA@ 10095a08     animating.obj
 0002:00001a1c       ??_C@_0BB@HNMLKOJD@m_fSequenceLoops?$AA@ 10095a1c     animating.obj
 0002:00001a30       ??_C@_0P@NDHCCNML@CBaseAnimating?$AA@ 10095a30     animating.obj
 0002:00001a40       ??_C@_0BN@NKJBKGKO@Gibbed?5monster?5is?5thinking?$CB?6?$AA@ 10095a40     animating.obj
 0002:00001a60       __real@3f70000000000000    10095a60     animating.obj
 0002:00001a68       __real@4070000000000000    10095a68     animating.obj
 0002:00001a70       __real@461c3c00            10095a70     animating.obj
 0002:00001a74       __real@c61c3c00            10095a74     animating.obj
 0002:00001a80       __xmm@80000000000000008000000000000000 10095a80     animating.obj
 0002:00001a90       ??_C@_08OIFEHECL@ACT_IDLE?$AA@ 10095a90     animation.obj
 0002:00001a9c       ??_C@_09LEMIJFFP@ACT_GUARD?$AA@ 10095a9c     animation.obj
 0002:00001aa8       ??_C@_08JONJIAHE@ACT_WALK?$AA@ 10095aa8     animation.obj
 0002:00001ab4       ??_C@_07ECNMNGAD@ACT_RUN?$AA@ 10095ab4     animation.obj
 0002:00001abc       ??_C@_07ILNDAKKC@ACT_FLY?$AA@ 10095abc     animation.obj
 0002:00001ac4       ??_C@_08EOLKELJK@ACT_SWIM?$AA@ 10095ac4     animation.obj
 0002:00001ad0       ??_C@_07LIIIHIIB@ACT_HOP?$AA@ 10095ad0     animation.obj
 0002:00001ad8       ??_C@_08KHGFOJHJ@ACT_LEAP?$AA@ 10095ad8     animation.obj
 0002:00001ae4       ??_C@_08IMBIKIIB@ACT_FALL?$AA@ 10095ae4     animation.obj
 0002:00001af0       ??_C@_08NPFOOEG@ACT_LAND?$AA@ 10095af0     animation.obj
 0002:00001afc       ??_C@_0BA@DABDFMJP@ACT_STRAFE_LEFT?$AA@ 10095afc     animation.obj
 0002:00001b0c       ??_C@_0BB@OPPLLGEC@ACT_STRAFE_RIGHT?$AA@ 10095b0c     animation.obj
 0002:00001b20       ??_C@_0O@BAMLJAA@ACT_ROLL_LEFT?$AA@ 10095b20     animation.obj
 0002:00001b30       ??_C@_0P@IPHKCHHC@ACT_ROLL_RIGHT?$AA@ 10095b30     animation.obj
 0002:00001b40       ??_C@_0O@MLFCDDJI@ACT_TURN_LEFT?$AA@ 10095b40     animation.obj
 0002:00001b50       ??_C@_0P@HBGEGCIO@ACT_TURN_RIGHT?$AA@ 10095b50     animation.obj
 0002:00001b60       ??_C@_0L@NCCMFAL@ACT_CROUCH?$AA@ 10095b60     animation.obj
 0002:00001b6c       ??_C@_0P@CMHNNDIB@ACT_CROUCHIDLE?$AA@ 10095b6c     animation.obj
 0002:00001b7c       ??_C@_09ENDKGHG@ACT_STAND?$AA@ 10095b7c     animation.obj
 0002:00001b88       ??_C@_07DIHCELMD@ACT_USE?$AA@ 10095b88     animation.obj
 0002:00001b90       ??_C@_0M@BOIDEBEJ@ACT_SIGNAL1?$AA@ 10095b90     animation.obj
 0002:00001b9c       ??_C@_0M@DFKOBCIK@ACT_SIGNAL2?$AA@ 10095b9c     animation.obj
 0002:00001ba8       ??_C@_0M@CMLFCDML@ACT_SIGNAL3?$AA@ 10095ba8     animation.obj
 0002:00001bb4       ??_C@_0L@MIGKGEDN@ACT_TWITCH?$AA@ 10095bb4     animation.obj
 0002:00001bc0       ??_C@_09HFIKFAAL@ACT_COWER?$AA@ 10095bc0     animation.obj
 0002:00001bcc       ??_C@_0BB@JIEFKIOI@ACT_SMALL_FLINCH?$AA@ 10095bcc     animation.obj
 0002:00001be0       ??_C@_0P@EDHMCL@ACT_BIG_FLINCH?$AA@ 10095be0     animation.obj
 0002:00001bf0       ??_C@_0BC@KDKLKAFP@ACT_RANGE_ATTACK1?$AA@ 10095bf0     animation.obj
 0002:00001c04       ??_C@_0BC@IIIGPDJM@ACT_RANGE_ATTACK2?$AA@ 10095c04     animation.obj
 0002:00001c18       ??_C@_0BC@OHGDGFAN@ACT_MELEE_ATTACK1?$AA@ 10095c18     animation.obj
 0002:00001c2c       ??_C@_0BC@MMEODGMO@ACT_MELEE_ATTACK2?$AA@ 10095c2c     animation.obj
 0002:00001c40       ??_C@_0L@FGNDGBL@ACT_RELOAD?$AA@ 10095c40     animation.obj
 0002:00001c4c       ??_C@_07COBCGLDE@ACT_ARM?$AA@ 10095c4c     animation.obj
 0002:00001c54       ??_C@_0L@LLGMIOJE@ACT_DISARM?$AA@ 10095c54     animation.obj
 0002:00001c60       ??_C@_07CEBAEIFC@ACT_EAT?$AA@ 10095c60     animation.obj
 0002:00001c68       ??_C@_0O@HBJAPHE@ACT_DIESIMPLE?$AA@ 10095c68     animation.obj
 0002:00001c78       ??_C@_0BA@OJODCDOD@ACT_DIEBACKWARD?$AA@ 10095c78     animation.obj
 0002:00001c88       ??_C@_0P@DPFCCNCI@ACT_DIEFORWARD?$AA@ 10095c88     animation.obj
 0002:00001c98       ??_C@_0P@FINNEBPN@ACT_DIEVIOLENT?$AA@ 10095c98     animation.obj
 0002:00001ca8       ??_C@_0BB@LPDAMAAB@ACT_BARNACLE_HIT?$AA@ 10095ca8     animation.obj
 0002:00001cbc       ??_C@_0BC@HDBOMGPD@ACT_BARNACLE_PULL?$AA@ 10095cbc     animation.obj
 0002:00001cd0       ??_C@_0BD@JADJAGOL@ACT_BARNACLE_CHOMP?$AA@ 10095cd0     animation.obj
 0002:00001ce4       ??_C@_0BC@FAMKFEPG@ACT_BARNACLE_CHEW?$AA@ 10095ce4     animation.obj
 0002:00001cf8       ??_C@_09PJNKNFNG@ACT_SLEEP?$AA@ 10095cf8     animation.obj
 0002:00001d04       ??_C@_0BC@HBACNNEA@ACT_INSPECT_FLOOR?$AA@ 10095d04     animation.obj
 0002:00001d18       ??_C@_0BB@LALMHCOJ@ACT_INSPECT_WALL?$AA@ 10095d18     animation.obj
 0002:00001d2c       ??_C@_0P@HGHPHAOP@ACT_IDLE_ANGRY?$AA@ 10095d2c     animation.obj
 0002:00001d3c       ??_C@_0O@FEPGGNKL@ACT_WALK_HURT?$AA@ 10095d3c     animation.obj
 0002:00001d4c       ??_C@_0N@NKCEEJPC@ACT_RUN_HURT?$AA@ 10095d4c     animation.obj
 0002:00001d5c       ??_C@_09KHPBMHKN@ACT_HOVER?$AA@ 10095d5c     animation.obj
 0002:00001d68       ??_C@_09BNDMKGMA@ACT_GLIDE?$AA@ 10095d68     animation.obj
 0002:00001d74       ??_C@_0N@FEDDCIDM@ACT_FLY_LEFT?$AA@ 10095d74     animation.obj
 0002:00001d84       ??_C@_0O@KAEAGEGE@ACT_FLY_RIGHT?$AA@ 10095d84     animation.obj
 0002:00001d94       ??_C@_0BB@IFICNGKN@ACT_DETECT_SCENT?$AA@ 10095d94     animation.obj
 0002:00001da8       ??_C@_09NHBCDCIA@ACT_SNIFF?$AA@ 10095da8     animation.obj
 0002:00001db4       ??_C@_08HPNLGPCP@ACT_BITE?$AA@ 10095db4     animation.obj
 0002:00001dc0       ??_C@_0BD@CINFGIEM@ACT_THREAT_DISPLAY?$AA@ 10095dc0     animation.obj
 0002:00001dd4       ??_C@_0BB@CJPGCDOM@ACT_FEAR_DISPLAY?$AA@ 10095dd4     animation.obj
 0002:00001de8       ??_C@_0M@HGBBGBAI@ACT_EXCITED?$AA@ 10095de8     animation.obj
 0002:00001df4       ??_C@_0BE@JHNONJJE@ACT_SPECIAL_ATTACK1?$AA@ 10095df4     animation.obj
 0002:00001e08       ??_C@_0BE@LMPDIKFH@ACT_SPECIAL_ATTACK2?$AA@ 10095e08     animation.obj
 0002:00001e1c       ??_C@_0BA@LLIKMEPM@ACT_COMBAT_IDLE?$AA@ 10095e1c     animation.obj
 0002:00001e2c       ??_C@_0BA@COMJHCCH@ACT_WALK_SCARED?$AA@ 10095e2c     animation.obj
 0002:00001e3c       ??_C@_0P@HJLDPODJ@ACT_RUN_SCARED?$AA@ 10095e3c     animation.obj
 0002:00001e4c       ??_C@_0BC@LGHHGBPL@ACT_VICTORY_DANCE?$AA@ 10095e4c     animation.obj
 0002:00001e60       ??_C@_0BB@FHECMOLG@ACT_DIE_HEADSHOT?$AA@ 10095e60     animation.obj
 0002:00001e74       ??_C@_0BC@FEIPJODO@ACT_DIE_CHESTSHOT?$AA@ 10095e74     animation.obj
 0002:00001e88       ??_C@_0BA@FCDJFNMA@ACT_DIE_GUTSHOT?$AA@ 10095e88     animation.obj
 0002:00001e98       ??_C@_0BB@CAOPOJCO@ACT_DIE_BACKSHOT?$AA@ 10095e98     animation.obj
 0002:00001eac       ??_C@_0BA@CDFAJLID@ACT_FLINCH_HEAD?$AA@ 10095eac     animation.obj
 0002:00001ebc       ??_C@_0BB@KOBJAMIB@ACT_FLINCH_CHEST?$AA@ 10095ebc     animation.obj
 0002:00001ed0       ??_C@_0BD@KEBLNHBF@ACT_FLINCH_STOMACH?$AA@ 10095ed0     animation.obj
 0002:00001ee4       ??_C@_0BD@OKEFPKNB@ACT_FLINCH_LEFTARM?$AA@ 10095ee4     animation.obj
 0002:00001ef8       ??_C@_0BE@KIPBNHMG@ACT_FLINCH_RIGHTARM?$AA@ 10095ef8     animation.obj
 0002:00001f0c       ??_C@_0BD@PLKJHPHD@ACT_FLINCH_LEFTLEG?$AA@ 10095f0c     animation.obj
 0002:00001f20       ??_C@_0BE@LJBNFCGE@ACT_FLINCH_RIGHTLEG?$AA@ 10095f20     animation.obj
 0002:00001f34       ??_C@_0L@GOJOKMHJ@ACT_FLINCH?$AA@ 10095f34     animation.obj
 0002:00001f40       ??_C@_0BB@GNGPHJOA@ACT_LARGE_FLINCH?$AA@ 10095f40     animation.obj
 0002:00001f54       ??_C@_0N@IOMJLBEP@ACT_HOLDBOMB?$AA@ 10095f54     animation.obj
 0002:00001f64       ??_C@_0BA@DONJBJG@ACT_IDLE_FIDGET?$AA@ 10095f64     animation.obj
 0002:00001f74       ??_C@_0BA@HCHFDLBF@ACT_IDLE_SCARED?$AA@ 10095f74     animation.obj
 0002:00001f84       ??_C@_0BH@CLODPAFE@ACT_IDLE_SCARED_FIDGET?$AA@ 10095f84     animation.obj
 0002:00001f9c       ??_C@_0BA@CAELALOP@ACT_FOLLOW_IDLE?$AA@ 10095f9c     animation.obj
 0002:00001fac       ??_C@_0BH@JAICFDKA@ACT_FOLLOW_IDLE_FIDGET?$AA@ 10095fac     animation.obj
 0002:00001fc4       ??_C@_0BH@OBBKPJCD@ACT_FOLLOW_IDLE_SCARED?$AA@ 10095fc4     animation.obj
 0002:00001fdc       ??_C@_0BO@IOHHBFF@ACT_FOLLOW_IDLE_SCARED_FIDGET?$AA@ 10095fdc     animation.obj
 0002:00001ffc       ??_C@_0BA@PAOHEDHC@ACT_CROUCH_IDLE?$AA@ 10095ffc     animation.obj
 0002:0000200c       ??_C@_0BH@GOBFAHFD@ACT_CROUCH_IDLE_FIDGET?$AA@ 1009600c     animation.obj
 0002:00002024       ??_C@_0BH@BPINKNNA@ACT_CROUCH_IDLE_SCARED?$AA@ 10096024     animation.obj
 0002:0000203c       ??_C@_0BO@MPPBIBGE@ACT_CROUCH_IDLE_SCARED_FIDGET?$AA@ 1009603c     animation.obj
 0002:0000205c       ??_C@_0BA@IGGKLHCN@ACT_CROUCH_WALK?$AA@ 1009605c     animation.obj
 0002:0000206c       ??_C@_0BH@EDDBOEOC@ACT_CROUCH_WALK_SCARED?$AA@ 1009606c     animation.obj
 0002:00002084       ??_C@_0P@MFBGHDEI@ACT_CROUCH_DIE?$AA@ 10096084     animation.obj
 0002:00002094       ??_C@_0O@BBIDHCBL@ACT_WALK_BACK?$AA@ 10096094     animation.obj
 0002:000020a4       ??_C@_0BA@IMDFDHGM@ACT_IDLE_SNEAKY?$AA@ 100960a4     animation.obj
 0002:000020b4       ??_C@_0BH@BLJLJMAK@ACT_IDLE_SNEAKY_FIDGET?$AA@ 100960b4     animation.obj
 0002:000020cc       ??_C@_0BA@NAIJHOFO@ACT_WALK_SNEAKY?$AA@ 100960cc     animation.obj
 0002:000020dc       ??_C@_08BBOLILFM@ACT_WAVE?$AA@ 100960dc     animation.obj
 0002:000020e8       ??_C@_07HGJHJOGO@ACT_YES?$AA@ 100960e8     animation.obj
 0002:000020f0       ??_C@_06FKDLKDHB@ACT_NO?$AA@ 100960f0     animation.obj
 0002:000020f8       ??_C@_0M@ECGMMMKA@Bip01?5Spine?$AA@ 100960f8     animation.obj
 0002:00002104       ??_C@_0N@OECCGFMA@Bip01?5Pelvis?$AA@ 10096104     animation.obj
 0002:00002114       __real@3b800000            10096114     animation.obj
 0002:00002118       __real@3e45798ee2308c3a    10096118     animation.obj
 0002:00002120       __real@3f70101010101010    10096120     animation.obj
 0002:00002128       __real@3ff6800000000000    10096128     animation.obj
 0002:00002130       __real@405fc00000000000    10096130     animation.obj
 0002:00002138       __real@406fe00000000000    10096138     animation.obj
 0002:00002140       __real@43000000            10096140     animation.obj
 0002:00002144       __real@437f0000            10096144     animation.obj
 0002:00002148       __real@43b38000            10096148     animation.obj
 0002:0000214c       ??_C@_0BA@LJBIDINK@m_flFanFriction?$AA@ 1009614c     bmodels.obj
 0002:0000215c       ??_C@_0BA@FPHDGFEO@m_flAttenuation?$AA@ 1009615c     bmodels.obj
 0002:0000216c       ??_C@_0L@OBLGJEC@m_flVolume?$AA@ 1009616c     bmodels.obj
 0002:00002178       ??_C@_07JIEGLHEC@m_pitch?$AA@ 10096178     bmodels.obj
 0002:00002180       ??_C@_08LNPJLNLH@m_sounds?$AA@ 10096180     bmodels.obj
 0002:0000218c       ??_C@_07LHFDKIEN@m_accel?$AA@ 1009618c     bmodels.obj
 0002:00002194       ??_C@_0L@OJIPJCOG@m_distance?$AA@ 10096194     bmodels.obj
 0002:000021a0       ??_C@_06GHNDIOJB@m_time?$AA@ 100961a0     bmodels.obj
 0002:000021a8       ??_C@_06PFDCNHOI@m_damp?$AA@ 100961a8     bmodels.obj
 0002:000021b0       ??_C@_0L@BJHACKLM@m_maxSpeed?$AA@ 100961b0     bmodels.obj
 0002:000021bc       ??_C@_0M@NNLOBDPH@m_dampSpeed?$AA@ 100961bc     bmodels.obj
 0002:000021c8       ??_C@_08ELPBEIAB@m_center?$AA@ 100961c8     bmodels.obj
 0002:000021d4       ??_C@_07BKPGKFGI@m_start?$AA@ 100961d4     bmodels.obj
 0002:000021e0       ??_7CFuncWall@@6B@         100961e0     bmodels.obj
 0002:000022cc       ??_7CFuncWallToggle@@6B@   100962cc     bmodels.obj
 0002:000023b8       ??_7CFuncConveyor@@6B@     100963b8     bmodels.obj
 0002:000024a4       ??_7CFuncIllusionary@@6B@  100964a4     bmodels.obj
 0002:00002590       ??_C@_04NHPAFEHJ@skin?$AA@ 10096590     bmodels.obj
 0002:0000259c       ??_7CFuncMonsterClip@@6B@  1009659c     bmodels.obj
 0002:00002684       ??_C@_0N@DCDKEHFJ@showtriggers?$AA@ 10096684     bmodels.obj
 0002:00002698       ??_7CFuncRotating@@6B@     10096698     bmodels.obj
 0002:00002780       ??_C@_0O@CGAGPICB@CFuncRotating?$AA@ 10096780     bmodels.obj
 0002:00002790       ??_C@_0M@LOPKKDPA@fanfriction?$AA@ 10096790     bmodels.obj
 0002:0000279c       ??_C@_06IDJCEMPA@Volume?$AA@ 1009679c     bmodels.obj
 0002:000027a4       ??_C@_0M@PDOFLHHK@spawnorigin?$AA@ 100967a4     bmodels.obj
 0002:000027b0       ??_C@_06OHLGPBPO@sounds?$AA@ 100967b0     bmodels.obj
 0002:000027b8       ??_C@_0O@ODFFPFJ@fans?1fan1?4wav?$AA@ 100967b8     bmodels.obj
 0002:000027c8       ??_C@_0O@IIKBCNPH@fans?1fan2?4wav?$AA@ 100967c8     bmodels.obj
 0002:000027d8       ??_C@_0O@EDPNPOFC@fans?1fan3?4wav?$AA@ 100967d8     bmodels.obj
 0002:000027e8       ??_C@_0O@FOPIMOOK@fans?1fan4?4wav?$AA@ 100967e8     bmodels.obj
 0002:000027f8       ??_C@_0O@JFKEBNEP@fans?1fan5?4wav?$AA@ 100967f8     bmodels.obj
 0002:00002808       ??_C@_0BA@HKOJACLM@common?1null?4wav?$AA@ 10096808     bmodels.obj
 0002:0000281c       ??_7CPendulum@@6B@         1009681c     bmodels.obj
 0002:00002904       ??_C@_09JOGCGCC@CPendulum?$AA@ 10096904     bmodels.obj
 0002:00002910       ??_C@_08LHFODBFO@distance?$AA@ 10096910     bmodels.obj
 0002:0000291c       ??_C@_04LJMFGIIM@damp?$AA@ 1009691c     bmodels.obj
 0002:00002924       ??_C@_0O@IOFEHMMD@Not?5a?5client?6?$AA@ 10096924     bmodels.obj
 0002:00002938       __real@4030000000000000    10096938     bmodels.obj
 0002:00002940       __real@41200000            10096940     bmodels.obj
 0002:00002944       __real@428c0000            10096944     bmodels.obj
 0002:00002948       ??_C@_0N@EAELBAI@m_rgEntities?$AA@ 10096948     buttons.obj
 0002:00002958       ??_C@_0O@KPIAALOE@m_rgTriggered?$AA@ 10096958     buttons.obj
 0002:00002968       ??_C@_08MOIPHNPE@m_iTotal?$AA@ 10096968     buttons.obj
 0002:00002974       ??_C@_0O@GNFIEECD@m_fStayPushed?$AA@ 10096974     buttons.obj
 0002:00002984       ??_C@_0M@KJABBPEP@m_fRotating?$AA@ 10096984     buttons.obj
 0002:00002990       ??_C@_0P@PCDMKHMH@m_bLockedSound?$AA@ 10096990     buttons.obj
 0002:000029a0       ??_C@_0BC@LIBPGAIE@m_bLockedSentence?$AA@ 100969a0     buttons.obj
 0002:000029b4       ??_C@_0BB@MPNMHFNK@m_bUnlockedSound?$AA@ 100969b4     buttons.obj
 0002:000029c8       ??_C@_0BE@LPOFBFHP@m_bUnlockedSentence?$AA@ 100969c8     buttons.obj
 0002:000029dc       ??_C@_0BC@JFGEDHPE@m_strChangeTarget?$AA@ 100969dc     buttons.obj
 0002:000029f0       ??_C@_0L@GKPGPHLM@m_lastUsed?$AA@ 100969f0     buttons.obj
 0002:000029fc       ??_C@_0M@LKEPFCII@m_direction?$AA@ 100969fc     buttons.obj
 0002:00002a08       ??_C@_0O@JCLMIGPN@m_returnSpeed?$AA@ 10096a08     buttons.obj
 0002:00002a18       ??_C@_05PDEFFHK@m_end?$AA@ 10096a18     buttons.obj
 0002:00002a20       ??_C@_09MMBGICBH@m_flDelay?$AA@ 10096a20     buttons.obj
 0002:00002a2c       ??_C@_0O@HGLPJMHF@m_globalstate?$AA@ 10096a2c     buttons.obj
 0002:00002a3c       ??_C@_0O@LPJCMHPN@m_triggermode?$AA@ 10096a3c     buttons.obj
 0002:00002a4c       ??_C@_0P@JCCGBBEA@m_initialstate?$AA@ 10096a4c     buttons.obj
 0002:00002a5c       ??_C@_09CNJINBGN@classname?$AA@ 10096a5c     buttons.obj
 0002:00002a68       ??_C@_0L@FEPNPAJD@targetname?$AA@ 10096a68     buttons.obj
 0002:00002a74       ??_C@_06JJLAMBGK@target?$AA@ 10096a74     buttons.obj
 0002:00002a80       ??_7CPointEntity@@6B@      10096a80     buttons.obj
 0002:00002b6c       ??_7CMultiSource@@6B@      10096b6c     buttons.obj
 0002:00002c58       ??_7CBaseButton@@6B@       10096c58     buttons.obj
 0002:00002d48       ??_7CEnvGlobal@@6B@        10096d48     buttons.obj
 0002:00002e30       ??_C@_0L@KJFFOBEG@CEnvGlobal?$AA@ 10096e30     buttons.obj
 0002:00002e3c       ??_C@_0M@MJAMDOOL@globalstate?$AA@ 10096e3c     buttons.obj
 0002:00002e48       ??_C@_0M@CBGFGD@triggermode?$AA@ 10096e48     buttons.obj
 0002:00002e54       ??_C@_0N@IFCOBMKB@initialstate?$AA@ 10096e54     buttons.obj
 0002:00002e64       ??_C@_0N@DBMFGCJG@CMultiSource?$AA@ 10096e64     buttons.obj
 0002:00002e74       ??_C@_05IAKJCFIM@style?$AA@ 10096e74     buttons.obj
 0002:00002e7c       ??_C@_06LNLHEAAG@height?$AA@ 10096e7c     buttons.obj
 0002:00002e84       ??_C@_0L@MEPFGHK@killtarget?$AA@ 10096e84     buttons.obj
 0002:00002e90       ??_C@_06KGOBNNPE@value1?$AA@ 10096e90     buttons.obj
 0002:00002e98       ??_C@_06INMMIODH@value2?$AA@ 10096e98     buttons.obj
 0002:00002ea0       ??_C@_06JENHLPHG@value3?$AA@ 10096ea0     buttons.obj
 0002:00002ea8       ??_C@_0CB@JHICIDCN@MultiSrc?3Used?5by?5non?5member?5?$CFs?4?6@ 10096ea8     buttons.obj
 0002:00002ecc       ??_C@_0CE@CBAKMLBP@Multisource?5?$CFs?5enabled?5?$CI?$CFd?5input@ 10096ecc     buttons.obj
 0002:00002ef0       ??_C@_0O@FEGFAINB@multi_manager?$AA@ 10096ef0     buttons.obj
 0002:00002f00       ??_C@_0M@PKHCIBON@CBaseButton?$AA@ 10096f00     buttons.obj
 0002:00002f0c       ??_C@_0BD@PNMHEJJE@buttons?1spark1?4wav?$AA@ 10096f0c     buttons.obj
 0002:00002f20       ??_C@_0BD@HLFDDLDK@buttons?1spark2?4wav?$AA@ 10096f20     buttons.obj
 0002:00002f34       ??_C@_0BD@LAAPOIJP@buttons?1spark3?4wav?$AA@ 10096f34     buttons.obj
 0002:00002f48       ??_C@_0BD@KNAKNICH@buttons?1spark4?4wav?$AA@ 10096f48     buttons.obj
 0002:00002f5c       ??_C@_0BD@GGFGALIC@buttons?1spark5?4wav?$AA@ 10096f5c     buttons.obj
 0002:00002f70       ??_C@_0BD@OAMCHJCM@buttons?1spark6?4wav?$AA@ 10096f70     buttons.obj
 0002:00002f84       ??_C@_02JDNIPIGD@NA?$AA@   10096f84     buttons.obj
 0002:00002f88       ??_C@_02OOKPAMCG@ND?$AA@   10096f88     buttons.obj
 0002:00002f8c       ??_C@_02NMJJGOKE@NF?$AA@   10096f8c     buttons.obj
 0002:00002f90       ??_C@_05KIPGMOIA@NFIRE?$AA@ 10096f90     buttons.obj
 0002:00002f98       ??_C@_05JBKBJGI@NCHEM?$AA@ 10096f98     buttons.obj
 0002:00002fa0       ??_C@_04FKFHEEBF@NRAD?$AA@ 10096fa0     buttons.obj
 0002:00002fa8       ??_C@_04ECIDLBGP@NCON?$AA@ 10096fa8     buttons.obj
 0002:00002fb0       ??_C@_02ECBKEDCK@NH?$AA@   10096fb0     buttons.obj
 0002:00002fb4       ??_C@_02MFICFPOF@NG?$AA@   10096fb4     buttons.obj
 0002:00002fb8       ??_C@_02JPINBHIC@EA?$AA@   10096fb8     buttons.obj
 0002:00002fbc       ??_C@_02OCPKODMH@ED?$AA@   10096fbc     buttons.obj
 0002:00002fc0       ??_C@_02NAMMIBEF@EF?$AA@   10096fc0     buttons.obj
 0002:00002fc4       ??_C@_05MCDBDOED@EFIRE?$AA@ 10096fc4     buttons.obj
 0002:00002fcc       ??_C@_05GDNNOJKL@ECHEM?$AA@ 10096fcc     buttons.obj
 0002:00002fd4       ??_C@_04CNIHHFAE@ERAD?$AA@ 10096fd4     buttons.obj
 0002:00002fdc       ??_C@_04DFFDIAHO@ECON?$AA@ 10096fdc     buttons.obj
 0002:00002fe4       ??_C@_02EOEPKMML@EH?$AA@   10096fe4     buttons.obj
 0002:00002fe8       ??_C@_0N@GILCMLHJ@changetarget?$AA@ 10096fe8     buttons.obj
 0002:00002ff8       ??_C@_0N@MABAFCDP@locked_sound?$AA@ 10096ff8     buttons.obj
 0002:00003008       ??_C@_0BA@FINLDLMF@locked_sentence?$AA@ 10097008     buttons.obj
 0002:00003018       ??_C@_0P@GKCKKJNE@unlocked_sound?$AA@ 10097018     buttons.obj
 0002:00003028       ??_C@_0BC@MMCIOFOK@unlocked_sentence?$AA@ 10097028     buttons.obj
 0002:0000303c       ??_C@_0BE@CAMCEHHF@buttons?1button1?4wav?$AA@ 1009703c     buttons.obj
 0002:00003050       ??_C@_0BE@KGFGDFNL@buttons?1button2?4wav?$AA@ 10097050     buttons.obj
 0002:00003064       ??_C@_0BE@GNAKOGHO@buttons?1button3?4wav?$AA@ 10097064     buttons.obj
 0002:00003078       ??_C@_0BE@HAAPNGMG@buttons?1button4?4wav?$AA@ 10097078     buttons.obj
 0002:0000308c       ??_C@_0BE@LLFDAFGD@buttons?1button5?4wav?$AA@ 1009708c     buttons.obj
 0002:000030a0       ??_C@_0BE@DNMHHHMN@buttons?1button6?4wav?$AA@ 100970a0     buttons.obj
 0002:000030b4       ??_C@_0BE@PGJLKEGI@buttons?1button7?4wav?$AA@ 100970b4     buttons.obj
 0002:000030c8       ??_C@_0BE@HMNBGLN@buttons?1button8?4wav?$AA@ 100970c8     buttons.obj
 0002:000030dc       ??_C@_0BE@MMJBMFBI@buttons?1button9?4wav?$AA@ 100970dc     buttons.obj
 0002:000030f0       ??_C@_0BF@DJOOOKGD@buttons?1button10?4wav?$AA@ 100970f0     buttons.obj
 0002:00003108       ??_C@_0BF@PCLCDJMG@buttons?1button11?4wav?$AA@ 10097108     buttons.obj
 0002:00003120       ??_C@_0BJ@NJGHAHDG@buttons?1latchlocked1?4wav?$AA@ 10097120     buttons.obj
 0002:0000313c       ??_C@_0BL@KIJJHNJN@buttons?1latchunlocked1?4wav?$AA@ 1009713c     buttons.obj
 0002:00003158       ??_C@_0BJ@BHFHBCLE@buttons?1lightswitch2?4wav?$AA@ 10097158     buttons.obj
 0002:00003174       ??_C@_0BD@ENNHPNKC@buttons?1lever1?4wav?$AA@ 10097174     buttons.obj
 0002:00003188       ??_C@_0BD@MLEDIPAM@buttons?1lever2?4wav?$AA@ 10097188     buttons.obj
 0002:0000319c       ??_C@_0BD@BPFMKJ@buttons?1lever3?4wav?$AA@ 1009719c     buttons.obj
 0002:000031b0       ??_C@_0BD@BNBKGMBB@buttons?1lever4?4wav?$AA@ 100971b0     buttons.obj
 0002:000031c4       ??_C@_0BD@NGEGLPLE@buttons?1lever5?4wav?$AA@ 100971c4     buttons.obj
 0002:000031d8       ??_C@_06BALNJMNP@player?$AA@ 100971d8     buttons.obj
 0002:000031e0       ??_C@_0M@JCKPPNHK@multisource?$AA@ 100971e0     buttons.obj
 0002:000031f0       ??_7CRotButton@@6B@        100971f0     buttons.obj
 0002:000032e0       ??_7CMomentaryRotButton@@6B@ 100972e0     buttons.obj
 0002:000033cc       ??_C@_0BE@CPPKOILK@CMomentaryRotButton?$AA@ 100973cc     buttons.obj
 0002:000033e0       ??_C@_0M@CKKDCBFF@returnspeed?$AA@ 100973e0     buttons.obj
 0002:000033ec       ??_C@_0BF@HDAFEIEA@momentary_rot_button?$AA@ 100973ec     buttons.obj
 0002:00003408       ??_7CEnvSpark@@6B@         10097408     buttons.obj
 0002:000034f0       ??_C@_09JGAKDOFI@CEnvSpark?$AA@ 100974f0     buttons.obj
 0002:000034fc       ??_C@_08PGOOKKDM@MaxDelay?$AA@ 100974fc     buttons.obj
 0002:0000350c       ??_7CButtonTarget@@6B@     1009750c     buttons.obj
 0002:000035f8       __real@3fd999999999999a    100975f8     buttons.obj
 0002:00003600       __real@40c00000            10097600     buttons.obj
 0002:00003604       ??_C@_0L@NDJIMIKA@m_pGoalEnt?$AA@ 10097604     cbase.obj
 0002:00003610       ??_C@_0L@MGLKIPBK@m_pfnThink?$AA@ 10097610     cbase.obj
 0002:0000361c       ??_C@_0L@ENKAHLLN@m_pfnTouch?$AA@ 1009761c     cbase.obj
 0002:00003628       ??_C@_08JOPFCPPD@m_pfnUse?$AA@ 10097628     cbase.obj
 0002:00003634       ??_C@_0N@OCPFDOKL@m_pfnBlocked?$AA@ 10097634     cbase.obj
 0002:00003648       ??_7CSave@@6B@             10097648     cbase.obj
 0002:00003650       ??_7CRestore@@6B@          10097650     cbase.obj
 0002:00003654       ??_C@_0BB@IGGFEGJN@Print?3?5?$CFs?5?$CFi?5?$CFp?6?$AA@ 10097654     cbase.obj
 0002:00003668       ??_C@_0BC@IHPKIKNE@info_player_start?$AA@ 10097668     cbase.obj
 0002:0000367c       ??_C@_0BH@IGAFCIL@info_player_deathmatch?$AA@ 1009767c     cbase.obj
 0002:00003694       ??_C@_0BP@EGALGLCO@?5Time?5in?5old?5search?5loop?5?$CF?44f?6?$AA@ 10097694     cbase.obj
 0002:000036b4       ??_C@_0BP@KEGEGDOJ@?5Time?5in?5new?5search?5loop?5?$CF?44f?6?$AA@ 100976b4     cbase.obj
 0002:000036d4       ??_C@_0L@BIFLFHPF@worldspawn?$AA@ 100976d4     cbase.obj
 0002:000036e0       ??_C@_0BB@KEGJGNKN@hostage?1hos1?4wav?$AA@ 100976e0     cbase.obj
 0002:000036f4       ??_C@_0BB@CCPNBPAD@hostage?1hos2?4wav?$AA@ 100976f4     cbase.obj
 0002:00003708       ??_C@_0BB@OJKBMMKG@hostage?1hos3?4wav?$AA@ 10097708     cbase.obj
 0002:0000371c       ??_C@_0BB@PEKEPMBO@hostage?1hos4?4wav?$AA@ 1009771c     cbase.obj
 0002:00003730       ??_C@_0BB@DPPICPLL@hostage?1hos5?4wav?$AA@ 10097730     cbase.obj
 0002:00003744       ??_C@_05MKNHBHKB@czero?$AA@ 10097744     cbase.obj
 0002:0000374c       ??_C@_0L@PAMNGMAC@czero?2maps?$AA@ 1009774c     cbase.obj
 0002:00003758       ??_C@_0DJ@MHEBNOPG@Dormant?5entity?5?$CFs?5is?5trying?5to?5t@ 10097758     cbase.obj
 0002:00003794       ??_C@_0CE@FJGLLDCK@ENTITY?5TABLE?5OR?5INDEX?5IS?5WRONG?$CB?$CB@ 10097794     cbase.obj
 0002:000037b8       ??_C@_0L@JILCNGEO@globalname?$AA@ 100977b8     cbase.obj
 0002:000037c4       ??_C@_0CI@JIKFOGLG@Global?5entity?5found?5?$CFs?0?5wrong?5cl@ 100977c4     cbase.obj
 0002:000037ec       ??_C@_07BCNOFJKA@ENTVARS?$AA@ 100977ec     cbase.obj
 0002:000037f4       ??_C@_0CH@NCMENFAJ@Global?5Entity?5?$CFs?5?$CI?$CFs?$CJ?5not?5in?5tab@ 100977f4     cbase.obj
 0002:0000381c       ??_C@_04NLLCBHDK@BASE?$AA@ 1009781c     cbase.obj
 0002:00003824       ??_C@_0BF@NBCCBNJB@NULL?5Ent?5in?5Create?$CB?6?$AA@ 10097824     cbase.obj
 0002:00003840       __real@4014000000000000    10097840     cbase.obj
 0002:00003848       __real@40f2000000000000    10097848     cbase.obj
 0002:00003850       __real@447a0000            10097850     cbase.obj
 0002:00003854       __real@44fa0000            10097854     cbase.obj
 0002:00003858       __real@45800000            10097858     cbase.obj
 0002:0000385c       __real@c4fa0000            1009785c     cbase.obj
 0002:00003860       __real@c5800000            10097860     cbase.obj
 0002:00003864       ??_C@_0BM@KGFFMFEO@models?1player?1leet?1leet?4mdl?$AA@ 10097864     client.obj
 0002:00003880       ??_C@_0BM@DDJNPOMO@models?1player?1gign?1gign?4mdl?$AA@ 10097880     client.obj
 0002:0000389c       ??_C@_0BK@ELIICLAO@models?1player?1vip?1vip?4mdl?$AA@ 1009789c     client.obj
 0002:000038b8       ??_C@_0BM@BALAODDJ@models?1player?1gsg9?1gsg9?4mdl?$AA@ 100978b8     client.obj
 0002:000038d4       ??_C@_0CE@NNCELJEF@models?1player?1guerilla?1guerilla?4@ 100978d4     client.obj
 0002:000038f8       ??_C@_0CA@JHDEEGNP@models?1player?1arctic?1arctic?4mdl?$AA@ 100978f8     client.obj
 0002:00003918       ??_C@_0BK@HPEEDEPF@models?1player?1sas?1sas?4mdl?$AA@ 10097918     client.obj
 0002:00003934       ??_C@_0CA@FNBFJIKL@models?1player?1terror?1terror?4mdl?$AA@ 10097934     client.obj
 0002:00003954       ??_C@_0BO@ECHOIJE@models?1player?1urban?1urban?4mdl?$AA@ 10097954     client.obj
 0002:00003974       ??_C@_0BC@NCILMEI@models?1player?4mdl?$AA@ 10097974     client.obj
 0002:0000398c       ??_7CBasePlayer@@6B@       1009798c     client.obj
 0002:00003aec       ??_C@_0P@JBPCNICL@Counter?9Strike?$AA@ 10097aec     client.obj
 0002:00003afc       ??_C@_0BD@KJAAMOPK@?$CDGame_disconnected?$AA@ 10097afc     client.obj
 0002:00003b10       ??_C@_07PPNJOBJE@reload?6?$AA@ 10097b10     client.obj
 0002:00003b18       ??_C@_01CLKCMJKC@?5?$AA@   10097b18     client.obj
 0002:00003b1c       ??_C@_01EEMJAFIK@?6?$AA@   10097b1c     client.obj
 0002:00003b20       ??_C@_03MCPBMLDJ@?5?3?5?$AA@ 10097b20     client.obj
 0002:00003b24       ??_C@_03MDAFIFFL@0?40?$AA@ 10097b24     client.obj
 0002:00003b28       ??_C@_0P@CMHCFECL@mp_kickpercent?$AA@ 10097b28     client.obj
 0002:00003b38       ??_C@_03HLLJOCDO@1?40?$AA@ 10097b38     client.obj
 0002:00003b3c       ??_C@_0N@EOAHLPPK@?$CDGame_kicked?$AA@ 10097b3c     client.obj
 0002:00003b4c       ??_C@_0L@IPIJMECD@kick?5?$CD?5?$CFd?6?$AA@ 10097b4c     client.obj
 0002:00003b58       ??_C@_0O@EAJBMN@mp_startmoney?$AA@ 10097b58     client.obj
 0002:00003b68       ??_C@_0P@FJOMPPCK@trigger_camera?$AA@ 10097b68     client.obj
 0002:00003b78       ??_C@_0O@CIJKEDFC@?$DMunconnected?$DO?$AA@ 10097b78     client.obj
 0002:00003b88       ??_C@_0BA@PFGKJOCH@?$CDGame_connected?$AA@ 10097b88     client.obj
 0002:00003b98       ??_C@_03BANJEMDJ@say?$AA@  10097b98     client.obj
 0002:00003b9c       ??_C@_08NBFNGOHN@say_team?$AA@ 10097b9c     client.obj
 0002:00003ba8       ??_C@_05DNIIFBMG@?$CFs?5?$CFs?$AA@ 10097ba8     client.obj
 0002:00003bb0       ??_C@_0BB@MBCKIPEH@?$CDCstrike_Chat_CT?$AA@ 10097bb0     client.obj
 0002:00003bc4       ??_C@_0BM@LFDPJPHC@?$CICounter?9Terrorist?$CJ?5?$CFs?5?3?5?$CFs?$AA@ 10097bc4     client.obj
 0002:00003be0       ??_C@_0BA@CCBHPNEF@?$CDCstrike_Chat_T?$AA@ 10097be0     client.obj
 0002:00003bf0       ??_C@_0BE@IJJKKCAL@?$CITerrorist?$CJ?5?$CFs?5?3?5?$CFs?$AA@ 10097bf0     client.obj
 0002:00003c04       ??_C@_0BG@KMAFELCD@?$CDCstrike_Chat_CT_Dead?$AA@ 10097c04     client.obj
 0002:00003c1c       ??_C@_0CC@CAIKLOBD@?$CKDEAD?$CK?$CICounter?9Terrorist?$CJ?5?$CFs?5?3?5?$CF@ 10097c1c     client.obj
 0002:00003c40       ??_C@_0BF@EOBDKGLI@?$CDCstrike_Chat_T_Dead?$AA@ 10097c40     client.obj
 0002:00003c58       ??_C@_0BK@DGNCOPOJ@?$CKDEAD?$CK?$CITerrorist?$CJ?5?$CFs?5?3?5?$CFs?$AA@ 10097c58     client.obj
 0002:00003c74       ??_C@_0BD@INEDBIBN@?$CDCstrike_Chat_Spec?$AA@ 10097c74     client.obj
 0002:00003c88       ??_C@_0BE@OELINCBK@?$CISpectator?$CJ?5?$CFs?5?3?5?$CFs?$AA@ 10097c88     client.obj
 0002:00003c9c       ??_C@_0BG@KANAAEM@?$CDCstrike_Chat_AllSpec?$AA@ 10097c9c     client.obj
 0002:00003cb4       ??_C@_0P@LCGPMKIG@?$CKSPEC?$CK?5?$CFs?5?3?5?$CFs?$AA@ 10097cb4     client.obj
 0002:00003cc4       ??_C@_0BG@PHECNCGI@?$CDCstrike_Chat_AllDead?$AA@ 10097cc4     client.obj
 0002:00003cdc       ??_C@_0P@DCAFGHBP@?$CKDEAD?$CK?5?$CFs?5?3?5?$CFs?$AA@ 10097cdc     client.obj
 0002:00003cec       ??_C@_0BC@KBEAKGLE@?$CDCstrike_Chat_All?$AA@ 10097cec     client.obj
 0002:00003d00       ??_C@_07IAFACCAD@?$CFs?5?3?5?$CFs?$AA@ 10097d00     client.obj
 0002:00003d08       ??_C@_0P@KCHKAJME@mp_logmessages?$AA@ 10097d08     client.obj
 0002:00003d18       ??_C@_07NFEMOMDL@?5?$CIdead?$CJ?$AA@ 10097d18     client.obj
 0002:00003d20       ??_C@_0BM@OAFDDPGE@?$CC?$CFs?$DM?$CFi?$DO?$DM?$CFs?$DO?$DM?$CFs?$DO?$CC?5?$CFs?5?$CC?$CFs?$CC?$CFs?6?$AA@ 10097d20     client.obj
 0002:00003d3c       ??_C@_0BM@IJKHJNCO@?$CDCstrike_Already_Own_Weapon?$AA@ 10097d3c     client.obj
 0002:00003d58       ??_C@_0BB@LIMCEPGH@?$CDCannot_Buy_This?$AA@ 10097d58     client.obj
 0002:00003d6c       ??_C@_0O@EJLAHDE@?$CDCT_BuyPistol?$AA@ 10097d6c     client.obj
 0002:00003d7c       ??_C@_0N@GFKCLPCM@?$CDT_BuyPistol?$AA@ 10097d7c     client.obj
 0002:00003d8c       ??_C@_0P@MMHMJFMJ@?$CDAS_BuyShotgun?$AA@ 10097d8c     client.obj
 0002:00003d9c       ??_C@_0M@LAHEIFOL@?$CDBuyShotgun?$AA@ 10097d9c     client.obj
 0002:00003da8       ??_C@_0BI@HBJDJBNH@?$CDAS_CT_BuySubMachineGun?$AA@ 10097da8     client.obj
 0002:00003dc0       ??_C@_0BH@GPNPPGGC@?$CDAS_T_BuySubMachineGun?$AA@ 10097dc0     client.obj
 0002:00003dd8       ??_C@_0BF@OOCAIJAE@?$CDCT_BuySubMachineGun?$AA@ 10097dd8     client.obj
 0002:00003df0       ??_C@_0BE@GDCDIACE@?$CDT_BuySubMachineGun?$AA@ 10097df0     client.obj
 0002:00003e04       ??_C@_0BA@BDOMFJOF@?$CDAS_CT_BuyRifle?$AA@ 10097e04     client.obj
 0002:00003e14       ??_C@_0P@OILPMLON@?$CDAS_T_BuyRifle?$AA@ 10097e14     client.obj
 0002:00003e24       ??_C@_0N@MGPABABB@?$CDCT_BuyRifle?$AA@ 10097e24     client.obj
 0002:00003e34       ??_C@_0M@JELHNLMP@?$CDT_BuyRifle?$AA@ 10097e34     client.obj
 0002:00003e40       ??_C@_0BE@MCKCOBJJ@?$CDAS_T_BuyMachineGun?$AA@ 10097e40     client.obj
 0002:00003e54       ??_C@_0P@JIOHMBKP@?$CDBuyMachineGun?$AA@ 10097e54     client.obj
 0002:00003e64       ??_C@_0N@EJNALCHF@?$CDDCT_BuyItem?$AA@ 10097e64     client.obj
 0002:00003e74       ??_C@_0M@EGDEIFKH@?$CDDT_BuyItem?$AA@ 10097e74     client.obj
 0002:00003e80       ??_C@_0M@GPAPJACE@?$CDCT_BuyItem?$AA@ 10097e80     client.obj
 0002:00003e8c       ??_C@_0L@EACGHIJH@?$CDT_BuyItem?$AA@ 10097e8c     client.obj
 0002:00003e98       ??_C@_0P@IENAOOCA@weapon_glock18?$AA@ 10097e98     client.obj
 0002:00003ea8       ??_C@_0L@EDMNDHEN@weapon_usp?$AA@ 10097ea8     client.obj
 0002:00003eb4       ??_C@_0M@IHOHKFGH@weapon_p228?$AA@ 10097eb4     client.obj
 0002:00003ec0       ??_C@_0O@LLIAKKDL@weapon_deagle?$AA@ 10097ec0     client.obj
 0002:00003ed0       ??_C@_0BB@JLPINHFH@weapon_fiveseven?$AA@ 10097ed0     client.obj
 0002:00003ee4       ??_C@_0N@HKGPJCDJ@weapon_elite?$AA@ 10097ee4     client.obj
 0002:00003ef4       ??_C@_0BC@OGPCCPEA@?$CDNot_Enough_Money?$AA@ 10097ef4     client.obj
 0002:00003f08       ??_C@_09BGJHOLJJ@weapon_m3?$AA@ 10097f08     client.obj
 0002:00003f14       ??_C@_0O@FOKAPHMK@weapon_xm1014?$AA@ 10097f14     client.obj
 0002:00003f24       ??_C@_0L@ONMJNOFC@weapon_tmp?$AA@ 10097f24     client.obj
 0002:00003f30       ??_C@_0N@LAIMNCLL@weapon_mac10?$AA@ 10097f30     client.obj
 0002:00003f40       ??_C@_0P@BDOBOOBH@weapon_mp5navy?$AA@ 10097f40     client.obj
 0002:00003f50       ??_C@_0L@PJGHIAGM@weapon_p90?$AA@ 10097f50     client.obj
 0002:00003f5c       ??_C@_0N@INHMGHDN@weapon_famas?$AA@ 10097f5c     client.obj
 0002:00003f6c       ??_C@_0N@DNNFIMNL@weapon_galil?$AA@ 10097f6c     client.obj
 0002:00003f7c       ??_C@_0M@OPHHDLAA@weapon_ak47?$AA@ 10097f7c     client.obj
 0002:00003f88       ??_C@_0N@FKMAPCJF@weapon_scout?$AA@ 10097f88     client.obj
 0002:00003f98       ??_C@_0M@IFMEICCI@weapon_m4a1?$AA@ 10097f98     client.obj
 0002:00003fa4       ??_C@_0L@JNLIAPKB@weapon_aug?$AA@ 10097fa4     client.obj
 0002:00003fb0       ??_C@_0N@NNEJNONA@weapon_sg552?$AA@ 10097fb0     client.obj
 0002:00003fc0       ??_C@_0N@OPHPLMFC@weapon_sg550?$AA@ 10097fc0     client.obj
 0002:00003fd0       ??_C@_0L@JLLPFPFJ@weapon_awp?$AA@ 10097fd0     client.obj
 0002:00003fdc       ??_C@_0N@HCPHFJKK@weapon_g3sg1?$AA@ 10097fdc     client.obj
 0002:00003fec       ??_C@_0M@CABLLKH@weapon_m249?$AA@ 10097fec     client.obj
 0002:00003ff8       ??_C@_0BF@HMHDFKKP@?$CDAlready_Have_Kevlar?$AA@ 10097ff8     client.obj
 0002:00004010       ??_C@_0CD@GOEJLKNB@?$CDAlready_Have_Helmet_Bought_Kevl@ 10098010     client.obj
 0002:00004034       ??_C@_0M@OLDIGHJE@item_kevlar?$AA@ 10098034     client.obj
 0002:00004040       ??_C@_0BM@LAHHEJBL@?$CDAlready_Have_Kevlar_Helmet?$AA@ 10098040     client.obj
 0002:0000405c       ??_C@_0CD@EGJMBNAH@?$CDAlready_Have_Kevlar_Bought_Helm@ 1009805c     client.obj
 0002:00004080       ??_C@_0BB@BPPCALOG@item_assaultsuit?$AA@ 10098080     client.obj
 0002:00004094       ??_C@_09BIHNNKHL@Flashbang?$AA@ 10098094     client.obj
 0002:000040a0       ??_C@_0BG@DOCFEEKG@?$CDCannot_Carry_Anymore?$AA@ 100980a0     client.obj
 0002:000040b8       ??_C@_0BB@GIHHBGBI@weapon_flashbang?$AA@ 100980b8     client.obj
 0002:000040cc       ??_C@_09PHEHKHNO@HEGrenade?$AA@ 100980cc     client.obj
 0002:000040d8       ??_C@_0BB@PMMKILEI@weapon_hegrenade?$AA@ 100980d8     client.obj
 0002:000040ec       ??_C@_0N@PMLDOHPN@SmokeGrenade?$AA@ 100980ec     client.obj
 0002:000040fc       ??_C@_0BE@MIMOIBPO@weapon_smokegrenade?$AA@ 100980fc     client.obj
 0002:00004110       ??_C@_0BC@HFDPNJAF@?$CDAlready_Have_One?$AA@ 10098110     client.obj
 0002:00004124       ??_C@_0BG@DDCOBCMF@?$CDHint_use_nightvision?$AA@ 10098124     client.obj
 0002:0000413c       ??_C@_0BE@LKDCHNHC@items?1equip_nvg?4wav?$AA@ 1009813c     client.obj
 0002:00004150       ??_C@_07NCPCHDKA@defuser?$AA@ 10098150     client.obj
 0002:00004158       ??_C@_0BB@JLJFDOIJ@items?1kevlar?4wav?$AA@ 10098158     client.obj
 0002:0000416c       ??_C@_0BF@FIJIKGHL@items?1gunpickup2?4wav?$AA@ 1009816c     client.obj
 0002:00004184       ??_C@_06DOCLAGIB@terror?$AA@ 10098184     client.obj
 0002:0000418c       ??_C@_04GMKICAKG@leet?$AA@ 1009818c     client.obj
 0002:00004194       ??_C@_06DKKBDJIH@arctic?$AA@ 10098194     client.obj
 0002:0000419c       ??_C@_08ICNJGCGF@guerilla?$AA@ 1009819c     client.obj
 0002:000041a8       ??_C@_05LFIEKJDH@urban?$AA@ 100981a8     client.obj
 0002:000041b0       ??_C@_04CIFJPMNC@gsg9?$AA@ 100981b0     client.obj
 0002:000041b8       ??_C@_03OKDGKELD@sas?$AA@  100981b8     client.obj
 0002:000041bc       ??_C@_04OCAHIALK@gign?$AA@ 100981bc     client.obj
 0002:000041c4       ??_C@_05NCCFOPHA@model?$AA@ 100981c4     client.obj
 0002:000041cc       ??_C@_0BE@CHCMFIHK@func_vip_safetyzone?$AA@ 100981cc     client.obj
 0002:000041e0       ??_C@_0BI@POAODMML@?$CDCannot_Switch_From_VIP?$AA@ 100981e0     client.obj
 0002:000041f8       ??_C@_07JHPHPJCK@slot10?6?$AA@ 100981f8     client.obj
 0002:00004200       ??_C@_0BA@POONLJEP@?$CDAll_Teams_Full?$AA@ 10098200     client.obj
 0002:00004210       ??_C@_0BF@HKKMJEAE@?$CDCannot_Be_Spectator?$AA@ 10098210     client.obj
 0002:00004228       ??_C@_0CK@OGJOEPO@?$CC?$CFs?$DM?$CFi?$DO?$DM?$CFs?$DO?$DM?$CFs?$DO?$CC?5joined?5team?5?$CCSP@ 10098228     client.obj
 0002:00004254       ??_C@_0BB@OEJAGKCH@?$CDTerrorists_Full?$AA@ 10098254     client.obj
 0002:00004268       ??_C@_09KNODHGJI@?$CDCTs_Full?$AA@ 10098268     client.obj
 0002:00004274       ??_C@_0BF@NKCKONLO@?$CDToo_Many_Terrorists?$AA@ 10098274     client.obj
 0002:0000428c       ??_C@_0O@BPPKOGMK@?$CDToo_Many_CTs?$AA@ 1009828c     client.obj
 0002:0000429c       ??_C@_02KMLFINCE@CT?$AA@   1009829c     client.obj
 0002:000042a0       ??_C@_0BF@CCNBLLGO@?$CDHumans_Join_Team_CT?$AA@ 100982a0     client.obj
 0002:000042b8       ??_C@_0BE@LKCIMGMN@?$CDHumans_Join_Team_T?$AA@ 100982b8     client.obj
 0002:000042cc       ??_C@_01GAPBHFFA@T?$AA@    100982cc     client.obj
 0002:000042d0       ??_C@_0BE@CJNAPGLK@?$CDOnly_1_Team_Change?$AA@ 100982d0     client.obj
 0002:000042e4       ??_C@_0BC@BNFIAOEC@?$CDTerrorist_Select?$AA@ 100982e4     client.obj
 0002:000042f8       ??_C@_0L@EGMPNDED@?$CDCT_Select?$AA@ 100982f8     client.obj
 0002:00004304       ??_C@_0BF@OOPCLNBF@?$CDGame_join_terrorist?$AA@ 10098304     client.obj
 0002:0000431c       ??_C@_0O@EKKNDHLN@?$CDGame_join_ct?$AA@ 1009831c     client.obj
 0002:0000432c       ??_C@_0CD@MHFDPOCD@?$CC?$CFs?$DM?$CFi?$DO?$DM?$CFs?$DO?$DM?$CFs?$DO?$CC?5joined?5team?5?$CC?$CFs@ 1009832c     client.obj
 0002:00004350       ??_C@_09MJLDLCLN@?$CDCover_me?$AA@ 10098350     client.obj
 0002:0000435c       ??_C@_0P@PEFKBAA@?$CF?$CBMRAD_COVERME?$AA@ 1009835c     client.obj
 0002:0000436c       ??_C@_0BE@CHOPGKJB@?$CDYou_take_the_point?$AA@ 1009836c     client.obj
 0002:00004380       ??_C@_0BB@JCNCIMIL@?$CF?$CBMRAD_TAKEPOINT?$AA@ 10098380     client.obj
 0002:00004394       ??_C@_0BE@FHDGGEB@?$CDHold_this_position?$AA@ 10098394     client.obj
 0002:000043a8       ??_C@_0BA@NDPHFBGD@?$CF?$CBMRAD_POSITION?$AA@ 100983a8     client.obj
 0002:000043b8       ??_C@_0O@CCADNKEM@?$CDRegroup_team?$AA@ 100983b8     client.obj
 0002:000043c8       ??_C@_0P@IGJNMOMJ@?$CF?$CBMRAD_REGROUP?$AA@ 100983c8     client.obj
 0002:000043d8       ??_C@_0L@CJJBFEAH@?$CDFollow_me?$AA@ 100983d8     client.obj
 0002:000043e4       ??_C@_0BA@IKPAJMJG@?$CF?$CBMRAD_FOLLOWME?$AA@ 100983e4     client.obj
 0002:000043f4       ??_C@_0N@OANEBNMN@?$CDTaking_fire?$AA@ 100983f4     client.obj
 0002:00004404       ??_C@_0BB@HCDGHAGP@?$CF?$CBMRAD_HITASSIST?$AA@ 10098404     client.obj
 0002:00004418       ??_C@_09OMLKAAJK@?$CDGo_go_go?$AA@ 10098418     client.obj
 0002:00004424       ??_C@_09NOHEBGGE@?$CF?$CBMRAD_GO?$AA@ 10098424     client.obj
 0002:00004430       ??_C@_0BA@KCGNOHCG@?$CDTeam_fall_back?$AA@ 10098430     client.obj
 0002:00004440       ??_C@_0BA@IGIFECNC@?$CF?$CBMRAD_FALLBACK?$AA@ 10098440     client.obj
 0002:00004450       ??_C@_0BF@HPIIAGK@?$CDStick_together_team?$AA@ 10098450     client.obj
 0002:00004468       ??_C@_0BA@DIJPJEGF@?$CF?$CBMRAD_STICKTOG?$AA@ 10098468     client.obj
 0002:00004478       ??_C@_0BK@DPJJBAEE@?$CDGet_in_position_and_wait?$AA@ 10098478     client.obj
 0002:00004494       ??_C@_0BA@LHBMKHLH@?$CF?$CBMRAD_GETINPOS?$AA@ 10098494     client.obj
 0002:000044a4       ??_C@_0BB@BJKNMBML@?$CDStorm_the_front?$AA@ 100984a4     client.obj
 0002:000044b8       ??_C@_0BC@PIDKGNPD@?$CF?$CBMRAD_STORMFRONT?$AA@ 100984b8     client.obj
 0002:000044cc       ??_C@_0BA@GHPOMDIB@?$CDReport_in_team?$AA@ 100984cc     client.obj
 0002:000044dc       ??_C@_0BA@KCMOJKPN@?$CF?$CBMRAD_REPORTIN?$AA@ 100984dc     client.obj
 0002:000044ec       ??_C@_0N@EJHGINL@?$CDAffirmative?$AA@ 100984ec     client.obj
 0002:000044fc       ??_C@_0O@NJEIOJIN@?$CF?$CBMRAD_AFFIRM?$AA@ 100984fc     client.obj
 0002:0000450c       ??_C@_0M@DNBLLGBE@?$CDRoger_that?$AA@ 1009850c     client.obj
 0002:00004518       ??_C@_0N@KPCKOAIB@?$CF?$CBMRAD_ROGER?$AA@ 10098518     client.obj
 0002:00004528       ??_C@_0P@JMAKCKCE@?$CDEnemy_spotted?$AA@ 10098528     client.obj
 0002:00004538       ??_C@_0BB@NKOKMLA@?$CF?$CBMRAD_ENEMYSPOT?$AA@ 10098538     client.obj
 0002:0000454c       ??_C@_0N@CMJIBBMF@?$CDNeed_backup?$AA@ 1009854c     client.obj
 0002:0000455c       ??_C@_0O@GNGPPOMK@?$CF?$CBMRAD_BACKUP?$AA@ 1009855c     client.obj
 0002:0000456c       ??_C@_0O@JPBAFFGL@?$CDSector_clear?$AA@ 1009856c     client.obj
 0002:0000457c       ??_C@_0N@INAACLDI@?$CF?$CBMRAD_CLEAR?$AA@ 1009857c     client.obj
 0002:0000458c       ??_C@_0N@OANCKCII@?$CDIn_position?$AA@ 1009858c     client.obj
 0002:0000459c       ??_C@_0N@CCBJOANI@?$CF?$CBMRAD_INPOS?$AA@ 1009859c     client.obj
 0002:000045ac       ??_C@_0O@EGDDFOBN@?$CDReporting_in?$AA@ 100985ac     client.obj
 0002:000045bc       ??_C@_0BC@FEHHAALP@?$CF?$CBMRAD_REPRTINGIN?$AA@ 100985bc     client.obj
 0002:000045d0       ??_C@_0BC@EFOMPAPA@?$CDGet_out_of_there?$AA@ 100985d0     client.obj
 0002:000045e4       ??_C@_0M@KBCMOEHG@?$CF?$CBMRAD_BLOW?$AA@ 100985e4     client.obj
 0002:000045f0       ??_C@_09LJHHICAC@?$CDNegative?$AA@ 100985f0     client.obj
 0002:000045fc       ??_C@_0BA@KJPEKPMM@?$CF?$CBMRAD_NEGATIVE?$AA@ 100985fc     client.obj
 0002:0000460c       ??_C@_0M@PPLBOBIJ@?$CDEnemy_down?$AA@ 1009860c     client.obj
 0002:00004618       ??_C@_0BB@HFAMKIPI@?$CF?$CBMRAD_ENEMYDOWN?$AA@ 10098618     client.obj
 0002:0000462c       ??_C@_0P@IJIKBFNI@ammo_338magnum?$AA@ 1009862c     client.obj
 0002:0000463c       ??_C@_0BA@LKOJKHLF@ammo_556natobox?$AA@ 1009863c     client.obj
 0002:0000464c       ??_C@_0N@HCAEAANH@ammo_556nato?$AA@ 1009864c     client.obj
 0002:0000465c       ??_C@_0N@JKFIFPCB@ammo_762nato?$AA@ 1009865c     client.obj
 0002:0000466c       ??_C@_0O@ENPHGKLB@ammo_buckshot?$AA@ 1009866c     client.obj
 0002:0000467c       ??_C@_0L@EAFPCLDF@ammo_45acp?$AA@ 1009867c     client.obj
 0002:00004688       ??_C@_09NANFBHAH@ammo_57mm?$AA@ 10098688     client.obj
 0002:00004694       ??_C@_08KNPPPJNO@ammo_9mm?$AA@ 10098694     client.obj
 0002:000046a0       ??_C@_09IMMBFMNC@ammo_50ae?$AA@ 100986a0     client.obj
 0002:000046ac       ??_C@_0M@ENFFKNON@ammo_357sig?$AA@ 100986ac     client.obj
 0002:000046b8       ??_C@_0CL@COGCKJKE@Tried?5to?5buy?5ammo?5for?5an?5unrecog@ 100986b8     client.obj
 0002:000046e4       ??_C@_0BB@MEOEBCJC@?$CDAlias_Not_Avail?$AA@ 100986e4     client.obj
 0002:000046f8       ??_C@_08GCBAPFOD@primammo?$AA@ 100986f8     client.obj
 0002:00004704       ??_C@_07CAJIPGGL@secammo?$AA@ 10098704     client.obj
 0002:0000470c       ??_C@_04FOFDHAEH@vest?$AA@ 1009870c     client.obj
 0002:00004714       ??_C@_08HLFDGGKD@vesthelm?$AA@ 10098714     client.obj
 0002:00004720       ??_C@_05LEFLIPJH@flash?$AA@ 10098720     client.obj
 0002:00004728       ??_C@_06NNLFDAEC@hegren?$AA@ 10098728     client.obj
 0002:00004730       ??_C@_05JMMNKNJL@sgren?$AA@ 10098730     client.obj
 0002:00004738       ??_C@_04BIABMJBO@nvgs?$AA@ 10098738     client.obj
 0002:00004740       ??_C@_0BC@BCIMEFGB@?$CDBomb_Defusal_Kit?$AA@ 10098740     client.obj
 0002:00004754       ??_C@_06IDDCOJOK@shield?$AA@ 10098754     client.obj
 0002:0000475c       ??_C@_0BB@IKFBB@?$CDTactShield_Desc?$AA@ 1009875c     client.obj
 0002:00004770       ??_C@_07KMFNACKF@coverme?$AA@ 10098770     client.obj
 0002:00004778       ??_C@_09KDLEPHCP@takepoint?$AA@ 10098778     client.obj
 0002:00004784       ??_C@_07NLAPLPIM@holdpos?$AA@ 10098784     client.obj
 0002:0000478c       ??_C@_07CFIFGNGM@regroup?$AA@ 1009878c     client.obj
 0002:00004794       ??_C@_08LJGLPHPA@followme?$AA@ 10098794     client.obj
 0002:000047a0       ??_C@_0L@CEOPLFCH@takingfire?$AA@ 100987a0     client.obj
 0002:000047ac       ??_C@_02KPEDIMCA@go?$AA@   100987ac     client.obj
 0002:000047b0       ??_C@_08LFBOCJLE@fallback?$AA@ 100987b0     client.obj
 0002:000047bc       ??_C@_08LAEPPAD@sticktog?$AA@ 100987bc     client.obj
 0002:000047c8       ??_C@_08IEIHMMNB@getinpos?$AA@ 100987c8     client.obj
 0002:000047d4       ??_C@_0L@LMDEEINL@stormfront?$AA@ 100987d4     client.obj
 0002:000047e0       ??_C@_06MHOMHIDM@report?$AA@ 100987e0     client.obj
 0002:000047e8       ??_C@_05OGFBMPAP@roger?$AA@ 100987e8     client.obj
 0002:000047f0       ??_C@_09DMMINHBE@enemyspot?$AA@ 100987f0     client.obj
 0002:000047fc       ??_C@_0L@HDHAHJFC@needbackup?$AA@ 100987fc     client.obj
 0002:00004808       ??_C@_0M@JJJIFELL@sectorclear?$AA@ 10098808     client.obj
 0002:00004814       ??_C@_0L@IJFFADDJ@inposition?$AA@ 10098814     client.obj
 0002:00004820       ??_C@_0M@PNGJFLDL@reportingin?$AA@ 10098820     client.obj
 0002:0000482c       ??_C@_06CMFHLBA@getout?$AA@ 1009882c     client.obj
 0002:00004834       ??_C@_08JKGPMEKK@negative?$AA@ 10098834     client.obj
 0002:00004840       ??_C@_09EEGKNDFM@enemydown?$AA@ 10098840     client.obj
 0002:0000484c       ??_C@_0L@BAECHHDI@fullupdate?$AA@ 1009884c     client.obj
 0002:00004858       ??_C@_04GHHIKFLG@vote?$AA@ 10098858     client.obj
 0002:00004860       ??_C@_0BA@EFKKMJOH@?$CDWait_3_Seconds?$AA@ 10098860     client.obj
 0002:00004870       ??_C@_0BB@OAMIBCKD@?$CDGame_vote_usage?$AA@ 10098870     client.obj
 0002:00004884       ??_C@_0CC@INIIOHOO@?$CDCannot_Vote_With_Less_Than_Thre@ 10098884     client.obj
 0002:000048a8       ??_C@_0CA@DGENBLHP@?$CDGame_vote_players_on_your_team?$AA@ 100988a8     client.obj
 0002:000048c8       ??_C@_0BI@LCHLKIHP@?$CDGame_vote_not_yourself?$AA@ 100988c8     client.obj
 0002:000048e0       ??_C@_0BA@ELNOODGH@?$CDGame_vote_cast?$AA@ 100988e0     client.obj
 0002:000048f0       ??_C@_0BM@LCPDILJO@?$CDGame_vote_player_not_found?$AA@ 100988f0     client.obj
 0002:0000490c       ??_C@_08JDONMGOP@listmaps?$AA@ 1009890c     client.obj
 0002:00004918       ??_C@_07ODBLMEFI@votemap?$AA@ 10098918     client.obj
 0002:00004920       ??_C@_0BB@KFKBFIJE@?$CDCannot_Vote_Map?$AA@ 10098920     client.obj
 0002:00004934       ??_C@_0BE@KKLKFCIP@?$CDGame_votemap_usage?$AA@ 10098934     client.obj
 0002:00004948       ??_C@_0BO@INLMILDJ@?$CDCannot_Vote_Need_More_People?$AA@ 10098948     client.obj
 0002:00004968       ??_C@_0BE@MCDBCIFI@?$CDGame_voted_for_map?$AA@ 10098968     client.obj
 0002:0000497c       ??_C@_08JOHGOHMJ@timeleft?$AA@ 1009897c     client.obj
 0002:00004988       ??_C@_0BD@MJHCBKGH@?$CDGame_no_timelimit?$AA@ 10098988     client.obj
 0002:0000499c       ??_C@_0BA@MMPMJEGM@?$CDGame_timelimit?$AA@ 1009899c     client.obj
 0002:000049ac       ??_C@_0M@LKGJGEJM@listplayers?$AA@ 100989ac     client.obj
 0002:000049b8       ??_C@_0BA@CFOECNLA@client_buy_open?$AA@ 100989b8     client.obj
 0002:000049c8       ??_C@_0BB@HKFPKCPM@client_buy_close?$AA@ 100989c8     client.obj
 0002:000049dc       ??_C@_0L@JMKGJPHD@menuselect?$AA@ 100989dc     client.obj
 0002:000049e8       ??_C@_0BA@IBLJCCKJ@?$CDIG_Team_Select?$AA@ 100989e8     client.obj
 0002:000049f8       ??_C@_0N@OEDCBEKN@?$CDTeam_Select?$AA@ 100989f8     client.obj
 0002:00004a08       ??_C@_0CI@FPNBOBJJ@ClientCommand?$CI?$CJ?3?5Invalid?5menu?5se@ 10098a08     client.obj
 0002:00004a30       ??_C@_0L@JDKKHFA@chooseteam?$AA@ 10098a30     client.obj
 0002:00004a3c       ??_C@_0BK@CCELMDEJ@?$CDIG_VIP_Team_Select_Spect?$AA@ 10098a3c     client.obj
 0002:00004a58       ??_C@_0BE@DFLPNDLO@?$CDIG_VIP_Team_Select?$AA@ 10098a58     client.obj
 0002:00004a6c       ??_C@_0BG@KOPAIBJH@?$CDIG_Team_Select_Spect?$AA@ 10098a6c     client.obj
 0002:00004a84       ??_C@_0N@OMAMMGOA@showbriefing?$AA@ 10098a84     client.obj
 0002:00004a94       ??_C@_09BDGFIKJL@ignoremsg?$AA@ 10098a94     client.obj
 0002:00004aa0       ??_C@_0BL@NGCFBHFD@?$CDIgnore_Broadcast_Messages?$AA@ 10098aa0     client.obj
 0002:00004abc       ??_C@_0CA@CLCABEEN@?$CDIgnore_Broadcast_Team_Messages?$AA@ 10098abc     client.obj
 0002:00004adc       ??_C@_0BF@JCGIDKPF@?$CDAccept_All_Messages?$AA@ 10098adc     client.obj
 0002:00004af4       ??_C@_09CPJAOJIP@ignorerad?$AA@ 10098af4     client.obj
 0002:00004b00       ??_C@_0O@LMCNOLHM@?$CDIgnore_Radio?$AA@ 10098b00     client.obj
 0002:00004b10       ??_C@_0O@KHHJMHJD@?$CDAccept_Radio?$AA@ 10098b10     client.obj
 0002:00004b20       ??_C@_0L@OJFNDMGH@become_vip?$AA@ 10098b20     client.obj
 0002:00004b2c       ??_C@_0BH@GBJHAOPI@?$CDCommand_Not_Available?$AA@ 10098b2c     client.obj
 0002:00004b44       ??_C@_08OPNMBCGA@spectate?$AA@ 10098b44     client.obj
 0002:00004b50       ??_C@_08HONFDDNA@specmode?$AA@ 10098b50     client.obj
 0002:00004b5c       ??_C@_0M@KFPLKJEI@spec_set_ad?$AA@ 10098b5c     client.obj
 0002:00004b68       ??_C@_0L@GBHEMAKD@follownext?$AA@ 10098b68     client.obj
 0002:00004b74       ??_C@_06HNJAFFAK@follow?$AA@ 10098b74     client.obj
 0002:00004b7c       ??_C@_08GMEMMAKD@jointeam?$AA@ 10098b7c     client.obj
 0002:00004b88       ??_C@_09EONKEKIP@joinclass?$AA@ 10098b88     client.obj
 0002:00004b94       ??_C@_0M@HCKANOMF@nightvision?$AA@ 10098b94     client.obj
 0002:00004ba0       ??_C@_0BC@KBPFIBDD@items?1nvg_off?4wav?$AA@ 10098ba0     client.obj
 0002:00004bb4       ??_C@_0BB@LCIJBDDB@items?1nvg_on?4wav?$AA@ 10098bb4     client.obj
 0002:00004bc8       ??_C@_06HFIGNPNH@radio1?$AA@ 10098bc8     client.obj
 0002:00004bd0       ??_C@_07BKLDPKBP@?$CDRadioA?$AA@ 10098bd0     client.obj
 0002:00004bd8       ??_C@_06FOKLIMBE@radio2?$AA@ 10098bd8     client.obj
 0002:00004be0       ??_C@_07DBJOKJNM@?$CDRadioB?$AA@ 10098be0     client.obj
 0002:00004be8       ??_C@_06EHLALNFF@radio3?$AA@ 10098be8     client.obj
 0002:00004bf0       ??_C@_07CIIFJIJN@?$CDRadioC?$AA@ 10098bf0     client.obj
 0002:00004bf8       ??_C@_04PIONEEJD@drop?$AA@ 10098bf8     client.obj
 0002:00004c00       ??_C@_09FDEIFAFE@weapon_c4?$AA@ 10098c00     client.obj
 0002:00004c0c       ??_C@_03PKBINKFB@fov?$AA@  10098c0c     client.obj
 0002:00004c10       ??_C@_03MMGHDJKG@use?$AA@  10098c10     client.obj
 0002:00004c14       ??_C@_07MDJDKHIJ@weapon_?$AA@ 10098c14     client.obj
 0002:00004c1c       ??_C@_07MMLOGLIA@lastinv?$AA@ 10098c1c     client.obj
 0002:00004c24       ??_C@_08BILDIDAN@buyammo1?$AA@ 10098c24     client.obj
 0002:00004c30       ??_C@_08DDJONAMO@buyammo2?$AA@ 10098c30     client.obj
 0002:00004c3c       ??_C@_08FOHAMGBO@buyequip?$AA@ 10098c3c     client.obj
 0002:00004c48       ??_C@_03ODFDHHGP@buy?$AA@  10098c48     client.obj
 0002:00004c4c       ??_C@_04CCGGKFIE@?$CDBuy?$AA@ 10098c4c     client.obj
 0002:00004c54       ??_C@_0O@ONDHEEGD@cl_setautobuy?$AA@ 10098c54     client.obj
 0002:00004c64       ??_C@_0M@KKOFPINO@cl_setrebuy?$AA@ 10098c64     client.obj
 0002:00004c70       ??_C@_0L@CPFGHDBN@cl_autobuy?$AA@ 10098c70     client.obj
 0002:00004c7c       ??_C@_08EBBHJOB@cl_rebuy?$AA@ 10098c7c     client.obj
 0002:00004c88       ??_C@_0L@JJHEBHLH@smartradio?$AA@ 10098c88     client.obj
 0002:00004c94       ??_C@_0BG@GNPKOJL@?$CDGame_unknown_command?$AA@ 10098c94     client.obj
 0002:00004cac       ??_C@_04MEMAJGDJ@name?$AA@ 10098cac     client.obj
 0002:00004cb4       ??_C@_0BI@CIDMPNGC@?$CDName_change_at_respawn?$AA@ 10098cb4     client.obj
 0002:00004ccc       ??_C@_0BF@HCMGNALM@?$CDCstrike_Name_Change?$AA@ 10098ccc     client.obj
 0002:00004ce4       ??_C@_0CH@NAMGOCBE@?$CC?$CFs?$DM?$CFi?$DO?$DM?$CFs?$DO?$DM?$CFs?$DO?$CC?5changed?5name?5to@ 10098ce4     client.obj
 0002:00004d0c       ??_C@_0BD@BMHPBGOD@Can?8t?5instance?5?$CFs?6?$AA@ 10098d0c     client.obj
 0002:00004d20       ??_C@_05ODMCMJAJ@skill?$AA@ 10098d20     client.obj
 0002:00004d28       ??_C@_0BL@POEMGIDP@weapons?1dryfire_pistol?4wav?$AA@ 10098d28     client.obj
 0002:00004d44       ??_C@_0BK@GNAPJDHJ@weapons?1dryfire_rifle?4wav?$AA@ 10098d44     client.obj
 0002:00004d60       ??_C@_0BE@CPIIPLEE@player?1pl_shot1?4wav?$AA@ 10098d60     client.obj
 0002:00004d74       ??_C@_0BD@OIJCOHKN@player?1pl_die1?4wav?$AA@ 10098d74     client.obj
 0002:00004d88       ??_C@_0BF@IHAFAPNF@player?1headshot1?4wav?$AA@ 10098d88     client.obj
 0002:00004da0       ??_C@_0BF@BJBHNHL@player?1headshot2?4wav?$AA@ 10098da0     client.obj
 0002:00004db8       ??_C@_0BF@MKMNKONO@player?1headshot3?4wav?$AA@ 10098db8     client.obj
 0002:00004dd0       ??_C@_0BI@CFNAOCJN@player?1bhit_flesh?91?4wav?$AA@ 10098dd0     client.obj
 0002:00004de8       ??_C@_0BI@KDEEJADD@player?1bhit_flesh?92?4wav?$AA@ 10098de8     client.obj
 0002:00004e00       ??_C@_0BI@GIBIEDJG@player?1bhit_flesh?93?4wav?$AA@ 10098e00     client.obj
 0002:00004e18       ??_C@_0BJ@OHIJMCOC@player?1bhit_kevlar?91?4wav?$AA@ 10098e18     client.obj
 0002:00004e34       ??_C@_0BJ@GCFLABNG@player?1bhit_helmet?91?4wav?$AA@ 10098e34     client.obj
 0002:00004e50       ??_C@_0BA@CPFJPBKF@player?1die1?4wav?$AA@ 10098e50     client.obj
 0002:00004e60       ??_C@_0BA@KJMNIDAL@player?1die2?4wav?$AA@ 10098e60     client.obj
 0002:00004e70       ??_C@_0BA@GCJBFAKO@player?1die3?4wav?$AA@ 10098e70     client.obj
 0002:00004e80       ??_C@_0BC@IONHJGGE@player?1death6?4wav?$AA@ 10098e80     client.obj
 0002:00004e94       ??_C@_0BE@FHDLOCM@radio?1locknload?4wav?$AA@ 10098e94     client.obj
 0002:00004ea8       ??_C@_0BB@FFBECBEJ@radio?1letsgo?4wav?$AA@ 10098ea8     client.obj
 0002:00004ebc       ??_C@_0BC@DAFDCPOA@radio?1moveout?4wav?$AA@ 10098ebc     client.obj
 0002:00004ed0       ??_C@_0BB@HPHEMGHF@radio?1com_go?4wav?$AA@ 10098ed0     client.obj
 0002:00004ee4       ??_C@_0BC@LADAAEJB@radio?1rescued?4wav?$AA@ 10098ee4     client.obj
 0002:00004ef8       ??_C@_0BE@PECOFFIA@radio?1rounddraw?4wav?$AA@ 10098ef8     client.obj
 0002:00004f0c       ??_C@_0BG@DLDFGMFM@items?1ammopickup2?4wav?$AA@ 10098f0c     client.obj
 0002:00004f24       ??_C@_0BF@CBLGFFLP@weapons?1c4_beep1?4wav?$AA@ 10098f24     client.obj
 0002:00004f3c       ??_C@_0BF@KHCCCHBB@weapons?1c4_beep2?4wav?$AA@ 10098f3c     client.obj
 0002:00004f54       ??_C@_0BF@GMHOPELE@weapons?1c4_beep3?4wav?$AA@ 10098f54     client.obj
 0002:00004f6c       ??_C@_0BF@HBHLMEAM@weapons?1c4_beep4?4wav?$AA@ 10098f6c     client.obj
 0002:00004f84       ??_C@_0BF@LKCHBHKJ@weapons?1c4_beep5?4wav?$AA@ 10098f84     client.obj
 0002:00004f9c       ??_C@_0BI@BGMCEHJI@weapons?1c4_explode1?4wav?$AA@ 10098f9c     client.obj
 0002:00004fb4       ??_C@_0BF@ECHAMAIH@weapons?1c4_plant?4wav?$AA@ 10098fb4     client.obj
 0002:00004fcc       ??_C@_0BG@BKOPOBJB@weapons?1c4_disarm?4wav?$AA@ 10098fcc     client.obj
 0002:00004fe4       ??_C@_0BI@COHGPFHG@weapons?1c4_disarmed?4wav?$AA@ 10098fe4     client.obj
 0002:00004ffc       ??_C@_0BF@JODNKDND@weapons?1explode3?4wav?$AA@ 10098ffc     client.obj
 0002:00005014       ??_C@_0BF@IDDIJDGL@weapons?1explode4?4wav?$AA@ 10099014     client.obj
 0002:0000502c       ??_C@_0BF@EIGEEAMO@weapons?1explode5?4wav?$AA@ 1009902c     client.obj
 0002:00005044       ??_C@_0BD@DOKDOHJH@player?1sprayer?4wav?$AA@ 10099044     client.obj
 0002:00005058       ??_C@_0BI@DAMJBODD@player?1pl_fallpain2?4wav?$AA@ 10099058     client.obj
 0002:00005070       ??_C@_0BI@PLJFMNJG@player?1pl_fallpain3?4wav?$AA@ 10099070     client.obj
 0002:00005088       ??_C@_0BE@PGOLNKEF@player?1pl_snow5?4wav?$AA@ 10099088     client.obj
 0002:0000509c       ??_C@_0BE@HAHPKIOL@player?1pl_snow6?4wav?$AA@ 1009909c     client.obj
 0002:000050b0       ??_C@_0BF@DHFMPOGA@common?1npc_step1?4wav?$AA@ 100990b0     client.obj
 0002:000050c8       ??_C@_0BF@LBMIIMMO@common?1npc_step2?4wav?$AA@ 100990c8     client.obj
 0002:000050e0       ??_C@_0BF@HKJEFPGL@common?1npc_step3?4wav?$AA@ 100990e0     client.obj
 0002:000050f8       ??_C@_0BF@GHJBGPND@common?1npc_step4?4wav?$AA@ 100990f8     client.obj
 0002:00005110       ??_C@_0BE@GINIKGHO@player?1pl_swim1?4wav?$AA@ 10099110     client.obj
 0002:00005124       ??_C@_0BE@CFBAAHHF@player?1pl_swim3?4wav?$AA@ 10099124     client.obj
 0002:00005138       ??_C@_0BE@DIBFDHMN@player?1pl_swim4?4wav?$AA@ 10099138     client.obj
 0002:0000514c       ??_C@_0BB@MNLIPNHB@debris?1wood1?4wav?$AA@ 1009914c     client.obj
 0002:00005160       ??_C@_0BB@ELCMIPNP@debris?1wood2?4wav?$AA@ 10099160     client.obj
 0002:00005174       ??_C@_0BB@IAHAFMHK@debris?1wood3?4wav?$AA@ 10099174     client.obj
 0002:00005188       ??_C@_0BF@CHHJHBMH@plats?1train_use1?4wav?$AA@ 10099188     client.obj
 0002:000051a0       ??_C@_0BL@KDIEADLE@plats?1vehicle_ignition?4wav?$AA@ 100991a0     client.obj
 0002:000051bc       ??_C@_0BC@NNNLHPFN@debris?1glass1?4wav?$AA@ 100991bc     client.obj
 0002:000051d0       ??_C@_0BC@FLEPANPD@debris?1glass2?4wav?$AA@ 100991d0     client.obj
 0002:000051e4       ??_C@_0BC@JABDNOFG@debris?1glass3?4wav?$AA@ 100991e4     client.obj
 0002:000051f8       ??_C@_0BG@GEEPOHBH@items?1flashlight1?4wav?$AA@ 100991f8     client.obj
 0002:00005210       ??_C@_0BF@EIPAPGDL@common?1bodysplat?4wav?$AA@ 10099210     client.obj
 0002:00005228       ??_C@_0BE@OLEJEOLF@player?1pl_pain2?4wav?$AA@ 10099228     client.obj
 0002:0000523c       ??_C@_0BE@DNBAKNKI@player?1pl_pain4?4wav?$AA@ 1009923c     client.obj
 0002:00005250       ??_C@_0BE@PGEMHOAN@player?1pl_pain5?4wav?$AA@ 10099250     client.obj
 0002:00005264       ??_C@_0BE@HANIAMKD@player?1pl_pain6?4wav?$AA@ 10099264     client.obj
 0002:00005278       ??_C@_0BE@LLIENPAG@player?1pl_pain7?4wav?$AA@ 10099278     client.obj
 0002:0000528c       ??_C@_0BC@GKEFMKPJ@models?1p_ak47?4mdl?$AA@ 1009928c     client.obj
 0002:000052a0       ??_C@_0BB@CPEMAIAP@models?1p_aug?4mdl?$AA@ 100992a0     client.obj
 0002:000052b4       ??_C@_0BB@KGAACLAF@models?1p_awp?4mdl?$AA@ 100992b4     client.obj
 0002:000052c8       ??_C@_0BA@CPKBBBMD@models?1p_c4?4mdl?$AA@ 100992c8     client.obj
 0002:000052d8       ??_C@_0BA@ELMAHMAK@models?1w_c4?4mdl?$AA@ 100992d8     client.obj
 0002:000052e8       ??_C@_0BE@KPBMPGPG@models?1p_deagle?4mdl?$AA@ 100992e8     client.obj
 0002:000052fc       ??_C@_0CC@NJKEIHPF@models?1shield?1p_shield_deagle?4md@ 100992fc     client.obj
 0002:00005320       ??_C@_0BH@NINIHKNE@models?1p_flashbang?4mdl?$AA@ 10099320     client.obj
 0002:00005338       ??_C@_0CF@CJAALHPC@models?1shield?1p_shield_flashbang@ 10099338     client.obj
 0002:00005360       ??_C@_0BH@EABHNJHN@models?1p_hegrenade?4mdl?$AA@ 10099360     client.obj
 0002:00005378       ??_C@_0CF@LBMPBEFL@models?1shield?1p_shield_hegrenade@ 10099378     client.obj
 0002:000053a0       ??_C@_0BF@LGFHPLCO@models?1p_glock18?4mdl?$AA@ 100993a0     client.obj
 0002:000053b8       ??_C@_0CD@CPCIBCOF@models?1shield?1p_shield_glock18?4m@ 100993b8     client.obj
 0002:000053dc       ??_C@_0BC@JBBPDMJ@models?1p_p228?4mdl?$AA@ 100993dc     client.obj
 0002:000053f0       ??_C@_0CA@FCCKHDNA@models?1shield?1p_shield_p228?4mdl?$AA@ 100993f0     client.obj
 0002:00005410       ??_C@_0BK@FNBPFFHO@models?1p_smokegrenade?4mdl?$AA@ 10099410     client.obj
 0002:0000542c       ??_C@_0CI@JHIDJMDI@models?1shield?1p_shield_smokegren@ 1009942c     client.obj
 0002:00005454       ??_C@_0BB@KKLODAMH@models?1p_usp?4mdl?$AA@ 10099454     client.obj
 0002:00005468       ??_C@_0BP@EPJADEHI@models?1shield?1p_shield_usp?4mdl?$AA@ 10099468     client.obj
 0002:00005488       ??_C@_0BH@BDGNOJOK@models?1p_fiveseven?4mdl?$AA@ 10099488     client.obj
 0002:000054a0       ??_C@_0CF@OCLFCEMM@models?1shield?1p_shield_fiveseven@ 100994a0     client.obj
 0002:000054c8       ??_C@_0BD@BCKADMEP@models?1p_knife?4mdl?$AA@ 100994c8     client.obj
 0002:000054dc       ??_C@_0CB@HGJAKPAP@models?1shield?1p_shield_knife?4mdl@ 100994dc     client.obj
 0002:00005500       ??_C@_0BH@CFCBICKB@models?1w_flashbang?4mdl?$AA@ 10099500     client.obj
 0002:00005518       ??_C@_0BH@LNOOCBAI@models?1w_hegrenade?4mdl?$AA@ 10099518     client.obj
 0002:00005530       ??_C@_0BD@MGINMHOP@models?1p_sg550?4mdl?$AA@ 10099530     client.obj
 0002:00005544       ??_C@_0BD@FHJCBGFG@models?1p_g3sg1?4mdl?$AA@ 10099544     client.obj
 0002:00005558       ??_C@_0BC@PMBCLAHA@models?1p_m249?4mdl?$AA@ 10099558     client.obj
 0002:0000556c       ??_C@_0BA@GCJLFKCG@models?1p_m3?4mdl?$AA@ 1009956c     client.obj
 0002:0000557c       ??_C@_0BC@KHMDPNIK@models?1p_m4a1?4mdl?$AA@ 1009957c     client.obj
 0002:00005590       ??_C@_0BD@OLPGNBGM@models?1p_mac10?4mdl?$AA@ 10099590     client.obj
 0002:000055a4       ??_C@_0BB@GLJNJLBL@models?1p_mp5?4mdl?$AA@ 100995a4     client.obj
 0002:000055b8       ??_C@_0BD@MJHKGLLI@models?1p_ump45?4mdl?$AA@ 100995b8     client.obj
 0002:000055cc       ??_C@_0BB@NHNBOPI@models?1p_p90?4mdl?$AA@ 100995cc     client.obj
 0002:000055e0       ??_C@_0BD@IPEFEEOO@models?1p_scout?4mdl?$AA@ 100995e0     client.obj
 0002:000055f4       ??_C@_0BD@ILEFGGOE@models?1p_sg552?4mdl?$AA@ 100995f4     client.obj
 0002:00005608       ??_C@_0BK@BHCBNODF@models?1w_smokegrenade?4mdl?$AA@ 10099608     client.obj
 0002:00005624       ??_C@_0BB@FBPFNHMK@models?1p_tmp?4mdl?$AA@ 10099624     client.obj
 0002:00005638       ??_C@_0BD@NCNOKJJN@models?1p_elite?4mdl?$AA@ 10099638     client.obj
 0002:0000564c       ??_C@_0BE@LAEGAIIC@models?1p_xm1014?4mdl?$AA@ 1009964c     client.obj
 0002:00005660       ??_C@_0BD@EOICDMFF@models?1p_galil?4mdl?$AA@ 10099660     client.obj
 0002:00005674       ??_C@_0BD@KMIFKJNM@models?1p_famas?4mdl?$AA@ 10099674     client.obj
 0002:00005688       ??_C@_0BE@OPIONKMO@models?1p_shield?4mdl?$AA@ 10099688     client.obj
 0002:0000569c       ??_C@_0BE@JCPNNMJG@models?1w_shield?4mdl?$AA@ 1009969c     client.obj
 0002:000056b0       ??_C@_0BJ@BOHNAGME@sprites?1black_smoke1?4spr?$AA@ 100996b0     client.obj
 0002:000056cc       ??_C@_0BJ@JIOJHEGK@sprites?1black_smoke2?4spr?$AA@ 100996cc     client.obj
 0002:000056e8       ??_C@_0BJ@FDLFKHMP@sprites?1black_smoke3?4spr?$AA@ 100996e8     client.obj
 0002:00005704       ??_C@_0BJ@EOLAJHHH@sprites?1black_smoke4?4spr?$AA@ 10099704     client.obj
 0002:00005720       ??_C@_0BL@IFABAINK@sprites?1fast_wallpuff1?4spr?$AA@ 10099720     client.obj
 0002:0000573c       ??_C@_0BG@NPJJGPKL@sprites?1smokepuff?4spr?$AA@ 1009973c     client.obj
 0002:00005754       ??_C@_0BI@NMHLFKHL@sprites?1gas_puff_01?4spr?$AA@ 10099754     client.obj
 0002:0000576c       ??_C@_0BG@CLBMLHIH@sprites?1scope_arc?4tga?$AA@ 1009976c     client.obj
 0002:00005784       ??_C@_0BJ@PEPNEGBL@sprites?1scope_arc_nw?4tga?$AA@ 10099784     client.obj
 0002:000057a0       ??_C@_0BJ@LKODOFIL@sprites?1scope_arc_ne?4tga?$AA@ 100997a0     client.obj
 0002:000057bc       ??_C@_0BJ@PCPELLBF@sprites?1scope_arc_sw?4tga?$AA@ 100997bc     client.obj
 0002:000057d8       ??_C@_0BG@MNEIFLMJ@common?1wpn_hudoff?4wav?$AA@ 100997d8     client.obj
 0002:000057f0       ??_C@_0BF@JMGAEGF@common?1wpn_hudon?4wav?$AA@ 100997f0     client.obj
 0002:00005808       ??_C@_0BK@JHOFLAAJ@common?1wpn_moveselect?4wav?$AA@ 10099808     client.obj
 0002:00005824       ??_C@_0BG@FBAPKLEJ@common?1wpn_select?4wav?$AA@ 10099824     client.obj
 0002:0000583c       ??_C@_0BK@NELGKIDH@common?1wpn_denyselect?4wav?$AA@ 1009983c     client.obj
 0002:00005858       ??_C@_0BD@FPOMJEFG@player?1geiger6?4wav?$AA@ 10099858     client.obj
 0002:0000586c       ??_C@_0BD@NJHIOGPI@player?1geiger5?4wav?$AA@ 1009986c     client.obj
 0002:00005880       ??_C@_0BD@BCCEDFFN@player?1geiger4?4wav?$AA@ 10099880     client.obj
 0002:00005894       ??_C@_0BD@PCBAFOF@player?1geiger3?4wav?$AA@ 10099894     client.obj
 0002:000058a8       ??_C@_0BD@MEHNNGEA@player?1geiger2?4wav?$AA@ 100998a8     client.obj
 0002:000058bc       ??_C@_0BD@ECOJKEOO@player?1geiger1?4wav?$AA@ 100998bc     client.obj
 0002:000058d0       ??_C@_0BA@LBLLBKPK@enemy_terrorist?$AA@ 100998d0     client.obj
 0002:000058e0       ??_C@_0BK@CKEHIHMD@sprites?1shadow_circle?4spr?$AA@ 100998e0     client.obj
 0002:000058fc       ??_C@_0BH@NMPOFKFI@sprites?1wall_puff1?4spr?$AA@ 100998fc     client.obj
 0002:00005914       ??_C@_0BH@FKGKCIPG@sprites?1wall_puff2?4spr?$AA@ 10099914     client.obj
 0002:0000592c       ??_C@_0BH@JBDGPLFD@sprites?1wall_puff3?4spr?$AA@ 1009992c     client.obj
 0002:00005944       ??_C@_0BH@IMDDMLOL@sprites?1wall_puff4?4spr?$AA@ 10099944     client.obj
 0002:0000595c       ??_C@_0BK@BKLMNJDJ@sprites?1pistol_smoke1?4spr?$AA@ 1009995c     client.obj
 0002:00005978       ??_C@_0BK@JMCIKLJH@sprites?1pistol_smoke2?4spr?$AA@ 10099978     client.obj
 0002:00005994       ??_C@_0BJ@EEAGPFPD@sprites?1rifle_smoke1?4spr?$AA@ 10099994     client.obj
 0002:000059b0       ??_C@_0BJ@MCJCIHFN@sprites?1rifle_smoke2?4spr?$AA@ 100999b0     client.obj
 0002:000059cc       ??_C@_0BJ@JMOFEPI@sprites?1rifle_smoke3?4spr?$AA@ 100999cc     client.obj
 0002:000059e8       ??_C@_0BG@FCCGPODL@events?1decal_reset?4sc?$AA@ 100999e8     client.obj
 0002:00005a00       ??_C@_0CM@BANGGDIF@PlayerCustomization?3?5?5Couldn?8t?5g@ 10099a00     client.obj
 0002:00005a2c       ??_C@_0CL@FDKPJGAL@PlayerCustomization?3?5?5NULL?5custo@ 10099a2c     client.obj
 0002:00005a58       ??_C@_0DD@HOMPMPKP@PlayerCustomization?3?5?5Unknown?5cu@ 10099a58     client.obj
 0002:00005a8c       ??_C@_0O@PCHEEIFI@Entity_Encode?$AA@ 10099a8c     client.obj
 0002:00005a9c       ??_C@_0O@GGOABDLG@Custom_Encode?$AA@ 10099a9c     client.obj
 0002:00005aac       ??_C@_0O@ENIFDO@Player_Encode?$AA@ 10099aac     client.obj
 0002:00005abc       ??_C@_0P@HELJHMBJ@mp_consistency?$AA@ 10099abc     client.obj
 0002:00005acc       ??_C@_0CN@HNFCOJEN@Server?5is?5enforcing?5file?5consist@ 10099acc     client.obj
 0002:00005b00       __real@3fe51eb851eb851f    10099b00     client.obj
 0002:00005b08       __real@42c80000            10099b08     client.obj
 0002:00005b10       __real@bf50624dd2f1a9fc    10099b10     client.obj
 0002:00005b1c       ??_7CGib@@6B@              10099b1c     combat.obj
 0002:00005c04       ??_C@_0BG@BNKFADOJ@models?1germangibs?4mdl?$AA@ 10099c04     combat.obj
 0002:00005c1c       ??_C@_0BB@GHAHFCKB@models?1hgibs?4mdl?$AA@ 10099c1c     combat.obj
 0002:00005c30       ??_C@_0BB@JLBCHJGL@models?1agibs?4mdl?$AA@ 10099c30     combat.obj
 0002:00005c44       ??_C@_0P@CKNFIDAM@violence_hgibs?$AA@ 10099c44     combat.obj
 0002:00005c54       ??_C@_0P@NNKNCME@violence_agibs?$AA@ 10099c54     combat.obj
 0002:00005c64       ??_C@_03GIIHBGND@gib?$AA@  10099c64     combat.obj
 0002:00005c68       ??_C@_0BI@IDLPOIHJ@weapons?1ric_metal?91?4wav?$AA@ 10099c68     combat.obj
 0002:00005c80       ??_C@_0BI@FCLJKNH@weapons?1ric_metal?92?4wav?$AA@ 10099c80     combat.obj
 0002:00005c98       __real@3c800000            10099c98     combat.obj
 0002:00005c9c       __real@3e19999a            10099c9c     combat.obj
 0002:00005ca0       __real@3e4ccccd            10099ca0     combat.obj
 0002:00005ca4       __real@3e800000            10099ca4     combat.obj
 0002:00005ca8       __real@3e99999a            10099ca8     combat.obj
 0002:00005cac       __real@3ecccccd            10099cac     combat.obj
 0002:00005cb0       __real@3ee66666            10099cb0     combat.obj
 0002:00005cb4       __real@3f19999a            10099cb4     combat.obj
 0002:00005cb8       __real@3f4ccccd            10099cb8     combat.obj
 0002:00005cbc       __real@3f666666            10099cbc     combat.obj
 0002:00005cc0       __real@3fc3333333333333    10099cc0     combat.obj
 0002:00005cc8       __real@3fc999999999999a    10099cc8     combat.obj
 0002:00005cd0       __real@3fe4cccccccccccd    10099cd0     combat.obj
 0002:00005cd8       __real@3fe8000000000000    10099cd8     combat.obj
 0002:00005ce0       __real@3ffc000000000000    10099ce0     combat.obj
 0002:00005ce8       __real@400c000000000000    10099ce8     combat.obj
 0002:00005cf0       __real@40a00000            10099cf0     combat.obj
 0002:00005cf4       __real@40e00000            10099cf4     combat.obj
 0002:00005cf8       __real@41a00000            10099cf8     combat.obj
 0002:00005cfc       __real@41c00000            10099cfc     combat.obj
 0002:00005d00       __real@41c80000            10099d00     combat.obj
 0002:00005d04       __real@42000000            10099d04     combat.obj
 0002:00005d08       __real@42280000            10099d08     combat.obj
 0002:00005d0c       __real@42960000            10099d0c     combat.obj
 0002:00005d10       __real@42a00000            10099d10     combat.obj
 0002:00005d14       __real@43960000            10099d14     combat.obj
 0002:00005d18       __real@43e10000            10099d18     combat.obj
 0002:00005d1c       __real@43fa0000            10099d1c     combat.obj
 0002:00005d20       __real@44480000            10099d20     combat.obj
 0002:00005d24       __real@44bb8000            10099d24     combat.obj
 0002:00005d28       __real@457a0000            10099d28     combat.obj
 0002:00005d2c       __real@459c4000            10099d2c     combat.obj
 0002:00005d30       __real@45fa0000            10099d30     combat.obj
 0002:00005d34       __real@be19999a            10099d34     combat.obj
 0002:00005d38       __real@bf000000            10099d38     combat.obj
 0002:00005d40       __real@bfd3333333333333    10099d40     combat.obj
 0002:00005d48       __real@c0a00000            10099d48     combat.obj
 0002:00005d4c       __real@c1f00000            10099d4c     combat.obj
 0002:00005d50       __real@c2480000            10099d50     combat.obj
 0002:00005d54       __real@c2c60000            10099d54     combat.obj
 0002:00005d58       __real@c32c0000            10099d58     combat.obj
 0002:00005d5c       __real@c3480000            10099d5c     combat.obj
 0002:00005d60       ??_C@_0P@MPDEGIBO@m_bHealthValue?$AA@ 10099d60     doors.obj
 0002:00005d70       ??_C@_0L@OMBNPENP@m_bMoveSnd?$AA@ 10099d70     doors.obj
 0002:00005d7c       ??_C@_0L@GMCMFEFD@m_bStopSnd?$AA@ 10099d7c     doors.obj
 0002:00005d8c       ??_7CBaseDoor@@6B@         10099d8c     doors.obj
 0002:00005e78       ??_C@_09JANAHKGE@CBaseDoor?$AA@ 10099e78     doors.obj
 0002:00005e84       ??_C@_07BKDGPIOK@movesnd?$AA@ 10099e84     doors.obj
 0002:00005e8c       ??_C@_07JKAHFIGG@stopsnd?$AA@ 10099e8c     doors.obj
 0002:00005e94       ??_C@_0M@NNKPFEMJ@healthvalue?$AA@ 10099e94     doors.obj
 0002:00005ea0       ??_C@_0L@PAPDKEGB@WaveHeight?$AA@ 10099ea0     doors.obj
 0002:00005eac       ??_C@_0BE@BBEIDEHN@doors?1doormove1?4wav?$AA@ 10099eac     doors.obj
 0002:00005ec0       ??_C@_0BE@JHNMEGND@doors?1doormove2?4wav?$AA@ 10099ec0     doors.obj
 0002:00005ed4       ??_C@_0BE@FMIAJFHG@doors?1doormove3?4wav?$AA@ 10099ed4     doors.obj
 0002:00005ee8       ??_C@_0BE@EBIFKFMO@doors?1doormove4?4wav?$AA@ 10099ee8     doors.obj
 0002:00005efc       ??_C@_0BE@IKNJHGGL@doors?1doormove5?4wav?$AA@ 10099efc     doors.obj
 0002:00005f10       ??_C@_0BE@MENAEMF@doors?1doormove6?4wav?$AA@ 10099f10     doors.obj
 0002:00005f24       ??_C@_0BE@MHBBNHGA@doors?1doormove7?4wav?$AA@ 10099f24     doors.obj
 0002:00005f38       ??_C@_0BE@DGEHGFLF@doors?1doormove8?4wav?$AA@ 10099f38     doors.obj
 0002:00005f4c       ??_C@_0BE@PNBLLGBA@doors?1doormove9?4wav?$AA@ 10099f4c     doors.obj
 0002:00005f60       ??_C@_0BF@DHAEOICC@doors?1doormove10?4wav?$AA@ 10099f60     doors.obj
 0002:00005f78       ??_C@_0BE@FAKIMAOD@doors?1doorstop1?4wav?$AA@ 10099f78     doors.obj
 0002:00005f8c       ??_C@_0BE@NGDMLCEN@doors?1doorstop2?4wav?$AA@ 10099f8c     doors.obj
 0002:00005fa0       ??_C@_0BE@BNGAGBOI@doors?1doorstop3?4wav?$AA@ 10099fa0     doors.obj
 0002:00005fb4       ??_C@_0BE@GFFBFA@doors?1doorstop4?4wav?$AA@ 10099fb4     doors.obj
 0002:00005fc8       ??_C@_0BE@MLDJICPF@doors?1doorstop5?4wav?$AA@ 10099fc8     doors.obj
 0002:00005fdc       ??_C@_0BE@ENKNPAFL@doors?1doorstop6?4wav?$AA@ 10099fdc     doors.obj
 0002:00005ff0       ??_C@_0BE@IGPBCDPO@doors?1doorstop7?4wav?$AA@ 10099ff0     doors.obj
 0002:00006004       ??_C@_0BE@HHKHJBCL@doors?1doorstop8?4wav?$AA@ 1009a004     doors.obj
 0002:00006018       ??_C@_0BD@CAJBLNMK@func_door_rotating?$AA@ 1009a018     doors.obj
 0002:0000602c       ??_C@_09KJCKJKEG@func_door?$AA@ 1009a02c     doors.obj
 0002:0000603c       ??_7CRotDoor@@6B@          1009a03c     doors.obj
 0002:0000612c       ??_7CMomentaryDoor@@6B@    1009a12c     doors.obj
 0002:00006218       ??_C@_0P@CFKCHMA@CMomentaryDoor?$AA@ 1009a218     doors.obj
 0002:00006228       __real@4008000000000000    1009a228     doors.obj
 0002:00006230       ??_C@_0L@NFHODIAB@m_restrike?$AA@ 1009a230     effects.obj
 0002:0000623c       ??_C@_0BA@CPMFMELB@m_spriteTexture?$AA@ 1009a23c     effects.obj
 0002:0000624c       ??_C@_0BA@GILAOABN@m_iszSpriteName?$AA@ 1009a24c     effects.obj
 0002:0000625c       ??_C@_0N@HNOKCAMN@m_frameStart?$AA@ 1009a25c     effects.obj
 0002:0000626c       ??_C@_08PMDHJILP@m_radius?$AA@ 1009a26c     effects.obj
 0002:00006278       ??_C@_09KOIGKNNN@m_pSprite?$AA@ 1009a278     effects.obj
 0002:00006284       ??_C@_0P@BGIFJAHH@m_firePosition?$AA@ 1009a284     effects.obj
 0002:00006294       ??_C@_0L@HPDKAJAO@m_lastTime?$AA@ 1009a294     effects.obj
 0002:000062a0       ??_C@_0L@KIMBBNFK@m_maxFrame?$AA@ 1009a2a0     effects.obj
 0002:000062ac       ??_C@_07MIOJFLJL@m_iGibs?$AA@ 1009a2ac     effects.obj
 0002:000062b4       ??_C@_0P@DFLCGCLB@m_iGibCapacity?$AA@ 1009a2b4     effects.obj
 0002:000062c4       ??_C@_0P@OCHGOGJL@m_iGibMaterial?$AA@ 1009a2c4     effects.obj
 0002:000062d4       ??_C@_0BB@LHIGCDIG@m_iGibModelIndex?$AA@ 1009a2d4     effects.obj
 0002:000062e8       ??_C@_0BA@LKDGGDHE@m_flGibVelocity?$AA@ 1009a2e8     effects.obj
 0002:000062f8       ??_C@_0N@OALEENLK@m_flVariance?$AA@ 1009a2f8     effects.obj
 0002:00006308       ??_C@_0M@EIIIDCDB@m_flGibLife?$AA@ 1009a308     effects.obj
 0002:00006314       ??_C@_09HPAPBFGC@m_density?$AA@ 1009a314     effects.obj
 0002:00006320       ??_C@_0M@GMIBMEAJ@m_frequency?$AA@ 1009a320     effects.obj
 0002:0000632c       ??_C@_08JJPHCDOL@m_active?$AA@ 1009a32c     effects.obj
 0002:00006338       ??_C@_0BB@DNNBPBAL@m_iszStartEntity?$AA@ 1009a338     effects.obj
 0002:0000634c       ??_C@_0P@FKJLMNIL@m_iszEndEntity?$AA@ 1009a34c     effects.obj
 0002:0000635c       ??_C@_06DLBGLNDD@m_life?$AA@ 1009a35c     effects.obj
 0002:00006364       ??_C@_0M@NPALMKGE@m_boltWidth?$AA@ 1009a364     effects.obj
 0002:00006370       ??_C@_0BB@ILMDIDMA@m_noiseAmplitude?$AA@ 1009a370     effects.obj
 0002:00006384       ??_C@_0N@HHOEFNFF@m_brightness?$AA@ 1009a384     effects.obj
 0002:00006394       ??_C@_07DDLPDDFL@m_speed?$AA@ 1009a394     effects.obj
 0002:000063a0       ??_7CSprite@@6B@           1009a3a0     effects.obj
 0002:0000648c       ??_7CBeam@@6B@             1009a48c     effects.obj
 0002:00006578       ??_7CLaser@@6B@            1009a578     effects.obj
 0002:00006664       ??_7CBubbling@@6B@         1009a664     effects.obj
 0002:0000674c       ??_C@_09FGCAFFEN@CBubbling?$AA@ 1009a74c     effects.obj
 0002:00006758       ??_C@_0BD@CIFPGIGI@sprites?1bubble?4spr?$AA@ 1009a758     effects.obj
 0002:0000676c       ??_C@_07HAFFKDBK@density?$AA@ 1009a76c     effects.obj
 0002:00006774       ??_C@_09KJGFCOBE@frequency?$AA@ 1009a774     effects.obj
 0002:00006780       ??_C@_07LKPDDKMO@current?$AA@ 1009a780     effects.obj
 0002:00006788       ??_C@_04EPJBJPAD@beam?$AA@ 1009a788     effects.obj
 0002:00006790       ??_C@_0BD@BNAHIKPA@Firing?5targets?$CB?$CB?$CB?6?$AA@ 1009a790     effects.obj
 0002:000067a8       ??_7CLightning@@6B@        1009a7a8     effects.obj
 0002:00006890       ??_C@_0L@FFIJGPDE@CLightning?$AA@ 1009a890     effects.obj
 0002:0000689c       ??_C@_0P@DLOGNGEL@LightningStart?$AA@ 1009a89c     effects.obj
 0002:000068ac       ??_C@_0N@FJGGAMBM@LightningEnd?$AA@ 1009a8ac     effects.obj
 0002:000068bc       ??_C@_04HHOBACFH@life?$AA@ 1009a8bc     effects.obj
 0002:000068c4       ??_C@_09FFLCCDKJ@BoltWidth?$AA@ 1009a8c4     effects.obj
 0002:000068d0       ??_C@_0P@DKNCBEEG@NoiseAmplitude?$AA@ 1009a8d0     effects.obj
 0002:000068e0       ??_C@_0O@MNDDLKBD@TextureScroll?$AA@ 1009a8e0     effects.obj
 0002:000068f0       ??_C@_0L@JJMHBAPC@StrikeTime?$AA@ 1009a8f0     effects.obj
 0002:000068fc       ??_C@_07JDHEGGGP@texture?$AA@ 1009a8fc     effects.obj
 0002:00006904       ??_C@_0L@BJIFKNMI@framestart?$AA@ 1009a904     effects.obj
 0002:00006910       ??_C@_06GJMFONGK@Radius?$AA@ 1009a910     effects.obj
 0002:00006918       ??_C@_06GJOIPFFF@damage?$AA@ 1009a918     effects.obj
 0002:00006920       ??_C@_0M@BLHFOIPE@info_target?$AA@ 1009a920     effects.obj
 0002:0000692c       ??_C@_0O@GJDINDMF@info_landmark?$AA@ 1009a92c     effects.obj
 0002:0000693c       ??_C@_0M@ONCHNMHP@path_corner?$AA@ 1009a93c     effects.obj
 0002:00006948       ??_C@_0BP@IGPKCJMJ@env_beam?3?5unknown?5entity?5?$CC?$CFs?$CC?6?$AA@ 1009a948     effects.obj
 0002:00006968       ??_C@_06OBCHMGEC@CLaser?$AA@ 1009a968     effects.obj
 0002:00006970       ??_C@_0M@PBHIDOPD@LaserTarget?$AA@ 1009a970     effects.obj
 0002:0000697c       ??_C@_05IGKADHGO@width?$AA@ 1009a97c     effects.obj
 0002:00006984       ??_C@_09DDLHAFLJ@EndSprite?$AA@ 1009a984     effects.obj
 0002:00006994       ??_7CGlow@@6B@             1009a994     effects.obj
 0002:00006a7c       ??_C@_05HPCHIJFA@CGlow?$AA@ 1009aa7c     effects.obj
 0002:00006a88       ??_7CBombGlow@@6B@         1009aa88     effects.obj
 0002:00006b70       ??_C@_0BD@EIMLDBE@sprites?1flare1?4spr?$AA@ 1009ab70     effects.obj
 0002:00006b84       ??_C@_07KKJOEPDL@CSprite?$AA@ 1009ab84     effects.obj
 0002:00006b8c       ??_C@_0L@CNIGIIKA@env_sprite?$AA@ 1009ab8c     effects.obj
 0002:00006b9c       ??_7CGibShooter@@6B@       1009ab9c     effects.obj
 0002:00006c88       ??_C@_0M@FFLLFIKE@CGibShooter?$AA@ 1009ac88     effects.obj
 0002:00006c94       ??_C@_0BH@KBLNBNBD@models?1germanygibs?4mdl?$AA@ 1009ac94     effects.obj
 0002:00006cac       ??_C@_0N@JNEPMELP@m_flVelocity?$AA@ 1009acac     effects.obj
 0002:00006cbc       ??_C@_0BK@MGEKFNDN@GibShooter?5Body?5is?5?$DM?$DN?51?$CB?6?$AA@ 1009acbc     effects.obj
 0002:00006cdc       ??_7CEnvShooter@@6B@       1009acdc     effects.obj
 0002:00006dc8       ??_C@_0L@DPKGIHBD@shootmodel?$AA@ 1009adc8     effects.obj
 0002:00006dd4       ??_C@_0M@DDOAECHE@shootsounds?$AA@ 1009add4     effects.obj
 0002:00006de4       ??_7CTestEffect@@6B@       1009ade4     effects.obj
 0002:00006ecc       ??_C@_0BE@DOGFHABJ@sprites?1lgtning?4spr?$AA@ 1009aecc     effects.obj
 0002:00006ee4       ??_7CBlood@@6B@            1009aee4     effects.obj
 0002:00006fcc       ??_C@_05PEENBMOG@color?$AA@ 1009afcc     effects.obj
 0002:00006fd4       ??_C@_06LFKBJBLO@amount?$AA@ 1009afd4     effects.obj
 0002:00006fe0       ??_7CShake@@6B@            1009afe0     effects.obj
 0002:000070c8       ??_C@_09EHCGJNBI@amplitude?$AA@ 1009b0c8     effects.obj
 0002:000070d4       ??_C@_08LGBPINEC@duration?$AA@ 1009b0d4     effects.obj
 0002:000070e0       ??_C@_06KGHINEPG@radius?$AA@ 1009b0e0     effects.obj
 0002:000070ec       ??_7CFade@@6B@             1009b0ec     effects.obj
 0002:000071d4       ??_C@_08DKAMCIDA@holdtime?$AA@ 1009b1d4     effects.obj
 0002:000071e4       ??_7CMessage@@6B@          1009b1e4     effects.obj
 0002:000072cc       ??_C@_0N@LCEOMKPP@messagesound?$AA@ 1009b2cc     effects.obj
 0002:000072dc       ??_C@_0O@ICDLAPOA@messagevolume?$AA@ 1009b2dc     effects.obj
 0002:000072ec       ??_C@_0BD@OEKCJAMA@messageattenuation?$AA@ 1009b2ec     effects.obj
 0002:00007304       ??_7CEnvFunnel@@6B@        1009b304     effects.obj
 0002:000073ec       ??_C@_0BD@BJIJIDKM@sprites?1flare6?4spr?$AA@ 1009b3ec     effects.obj
 0002:00007404       ??_7CEnvBeverage@@6B@      1009b404     effects.obj
 0002:000074ec       ??_C@_0P@FIGGFLCB@models?1can?4mdl?$AA@ 1009b4ec     effects.obj
 0002:000074fc       ??_C@_0BG@PFBLLDCD@weapons?1g_bounce3?4wav?$AA@ 1009b4fc     effects.obj
 0002:00007514       ??_C@_0N@FDOOOEA@item_sodacan?$AA@ 1009b514     effects.obj
 0002:00007528       ??_7CItemSoda@@6B@         1009b528     effects.obj
 0002:00007610       __real@3fee666666666666    1009b610     effects.obj
 0002:00007618       __real@4004000000000000    1009b618     effects.obj
 0002:00007620       ??_C@_0N@NFMFFNFN@m_iMagnitude?$AA@ 1009b620     explode.obj
 0002:00007630       ??_C@_0O@OLNCEOIP@m_spriteScale?$AA@ 1009b630     explode.obj
 0002:00007644       ??_7CShower@@6B@           1009b644     explode.obj
 0002:0000772c       ??_C@_0BD@HNJLMAMD@models?1grenade?4mdl?$AA@ 1009b72c     explode.obj
 0002:00007744       ??_7CEnvExplosion@@6B@     1009b744     explode.obj
 0002:00007874       ??_C@_0O@OGPBOAJ@CEnvExplosion?$AA@ 1009b874     explode.obj
 0002:00007884       ??_C@_0L@LGAGNFGO@iMagnitude?$AA@ 1009b884     explode.obj
 0002:00007890       ??_C@_0N@GFJBOHAK@spark_shower?$AA@ 1009b890     explode.obj
 0002:000078a0       ??_C@_0O@NHOGPALB@env_explosion?$AA@ 1009b8a0     explode.obj
 0002:000078b0       ??_C@_03GOOLIKIF@?$CF3d?$AA@ 1009b8b0     explode.obj
 0002:000078b4       __real@42200000            1009b8b4     explode.obj
 0002:000078b8       ??_C@_0N@HAEOHIKC@item_battery?$AA@ 1009b8b8     func_break.obj
 0002:000078c8       ??_C@_0P@PMNEPGFM@item_healthkit?$AA@ 1009b8c8     func_break.obj
 0002:000078d8       ??_C@_0BC@GDALAHJA@weapon_9mmhandgun?$AA@ 1009b8d8     func_break.obj
 0002:000078ec       ??_C@_0N@IAIGGIKN@ammo_9mmclip?$AA@ 1009b8ec     func_break.obj
 0002:000078fc       ??_C@_0N@BIGGDBN@weapon_9mmAR?$AA@ 1009b8fc     func_break.obj
 0002:0000790c       ??_C@_0L@CCAPNHPH@ammo_9mmAR?$AA@ 1009b90c     func_break.obj
 0002:00007918       ??_C@_0BA@KLCOFANC@ammo_ARgrenades?$AA@ 1009b918     func_break.obj
 0002:00007928       ??_C@_0P@ILAKNOAG@weapon_shotgun?$AA@ 1009b928     func_break.obj
 0002:00007938       ??_C@_0BA@IMEECLKD@weapon_crossbow?$AA@ 1009b938     func_break.obj
 0002:00007948       ??_C@_0O@DMPMCOMO@ammo_crossbow?$AA@ 1009b948     func_break.obj
 0002:00007958       ??_C@_0L@DGJNBIBM@weapon_357?$AA@ 1009b958     func_break.obj
 0002:00007964       ??_C@_08OALJNDGM@ammo_357?$AA@ 1009b964     func_break.obj
 0002:00007970       ??_C@_0L@NJNPDFDL@weapon_rpg?$AA@ 1009b970     func_break.obj
 0002:0000797c       ??_C@_0N@FDODGIHO@ammo_rpgclip?$AA@ 1009b97c     func_break.obj
 0002:0000798c       ??_C@_0P@BLGPJBGG@ammo_gaussclip?$AA@ 1009b98c     func_break.obj
 0002:0000799c       ??_C@_0BD@DKJAMAOF@weapon_handgrenade?$AA@ 1009b99c     func_break.obj
 0002:000079b0       ??_C@_0BA@NAEGPHIJ@weapon_tripmine?$AA@ 1009b9b0     func_break.obj
 0002:000079c0       ??_C@_0P@NDDAPDLL@weapon_satchel?$AA@ 1009b9c0     func_break.obj
 0002:000079d0       ??_C@_0N@IKJKFJAM@weapon_snark?$AA@ 1009b9d0     func_break.obj
 0002:000079e0       ??_C@_0BB@MOKAIFA@weapon_hornetgun?$AA@ 1009b9e0     func_break.obj
 0002:000079f4       ??_C@_0M@MHCEIKLF@weapon_mp5n?$AA@ 1009b9f4     func_break.obj
 0002:00007a00       ??_C@_0L@HBMEOINH@m_Material?$AA@ 1009ba00     func_break.obj
 0002:00007a0c       ??_C@_0M@LDDEDCJB@m_Explosion?$AA@ 1009ba0c     func_break.obj
 0002:00007a18       ??_C@_07BOLCHLGN@m_angle?$AA@ 1009ba18     func_break.obj
 0002:00007a20       ??_C@_0O@PKADNALM@m_iszGibModel?$AA@ 1009ba20     func_break.obj
 0002:00007a30       ??_C@_0BB@MAJHCIPD@m_iszSpawnObject?$AA@ 1009ba30     func_break.obj
 0002:00007a44       ??_C@_0BC@CEGADJKF@debris?1flesh1?4wav?$AA@ 1009ba44     func_break.obj
 0002:00007a58       ??_C@_0BC@KCPEELAL@debris?1flesh2?4wav?$AA@ 1009ba58     func_break.obj
 0002:00007a6c       ??_C@_0BC@GJKIJIKO@debris?1flesh3?4wav?$AA@ 1009ba6c     func_break.obj
 0002:00007a80       ??_C@_0BC@LPPBHLLD@debris?1flesh5?4wav?$AA@ 1009ba80     func_break.obj
 0002:00007a94       ??_C@_0BC@DJGFAJBN@debris?1flesh6?4wav?$AA@ 1009ba94     func_break.obj
 0002:00007aa8       ??_C@_0BC@PCDJNKLI@debris?1flesh7?4wav?$AA@ 1009baa8     func_break.obj
 0002:00007abc       ??_C@_0BC@IKDONBFM@debris?1metal1?4wav?$AA@ 1009babc     func_break.obj
 0002:00007ad0       ??_C@_0BC@MKKKDPC@debris?1metal2?4wav?$AA@ 1009bad0     func_break.obj
 0002:00007ae4       ??_C@_0BC@MHPGHAFH@debris?1metal3?4wav?$AA@ 1009bae4     func_break.obj
 0002:00007af8       ??_C@_0BF@JDGIBJCG@debris?1concrete1?4wav?$AA@ 1009baf8     func_break.obj
 0002:00007b10       ??_C@_0BF@BFPMGLII@debris?1concrete2?4wav?$AA@ 1009bb10     func_break.obj
 0002:00007b28       ??_C@_0BF@NOKALICN@debris?1concrete3?4wav?$AA@ 1009bb28     func_break.obj
 0002:00007b40       ??_C@_0M@DIFBPOGJ@m_soundTime?$AA@ 1009bb40     func_break.obj
 0002:00007b4c       ??_C@_0BE@IOMCLHDF@debris?1pushbox1?4wav?$AA@ 1009bb4c     func_break.obj
 0002:00007b60       ??_C@_0BE@IFGMFJL@debris?1pushbox2?4wav?$AA@ 1009bb60     func_break.obj
 0002:00007b74       ??_C@_0BE@MDAKBGDO@debris?1pushbox3?4wav?$AA@ 1009bb74     func_break.obj
 0002:00007b8c       ??_7CBreakable@@6B@        1009bb8c     func_break.obj
 0002:00007c74       ??_C@_09DJINNLFM@explosion?$AA@ 1009bc74     func_break.obj
 0002:00007c80       ??_C@_08IBFBECLM@directed?$AA@ 1009bc80     func_break.obj
 0002:00007c8c       ??_C@_06NLFCANPD@random?$AA@ 1009bc8c     func_break.obj
 0002:00007c94       ??_C@_08KNOEMJMM@material?$AA@ 1009bc94     func_break.obj
 0002:00007ca0       ??_C@_09CNCNIOJH@deadmodel?$AA@ 1009bca0     func_break.obj
 0002:00007cac       ??_C@_06HFBMBICD@shards?$AA@ 1009bcac     func_break.obj
 0002:00007cb4       ??_C@_08GOGBFAEM@gibmodel?$AA@ 1009bcb4     func_break.obj
 0002:00007cc0       ??_C@_0M@KACAHILH@spawnobject?$AA@ 1009bcc0     func_break.obj
 0002:00007ccc       ??_C@_0BB@NILEAPEI@explodemagnitude?$AA@ 1009bccc     func_break.obj
 0002:00007ce0       ??_C@_03MHHCOBAB@lip?$AA@  1009bce0     func_break.obj
 0002:00007ce4       ??_C@_0L@CEALNHPH@CBreakable?$AA@ 1009bce4     func_break.obj
 0002:00007cf0       ??_C@_0BE@OJIFNLLD@models?1woodgibs?4mdl?$AA@ 1009bcf0     func_break.obj
 0002:00007d04       ??_C@_0BG@KNGABGKL@debris?1bustcrate1?4wav?$AA@ 1009bd04     func_break.obj
 0002:00007d1c       ??_C@_0BG@CLPEGEAF@debris?1bustcrate2?4wav?$AA@ 1009bd1c     func_break.obj
 0002:00007d34       ??_C@_0BF@MJBGOHAK@models?1fleshgibs?4mdl?$AA@ 1009bd34     func_break.obj
 0002:00007d4c       ??_C@_0BG@NDKODCGH@debris?1bustflesh1?4wav?$AA@ 1009bd4c     func_break.obj
 0002:00007d64       ??_C@_0BG@FFDKEAMJ@debris?1bustflesh2?4wav?$AA@ 1009bd64     func_break.obj
 0002:00007d7c       ??_C@_0BI@HEONPHCD@models?1computergibs?4mdl?$AA@ 1009bd7c     func_break.obj
 0002:00007d94       ??_C@_0BG@HNPANKJO@debris?1bustmetal1?4wav?$AA@ 1009bd94     func_break.obj
 0002:00007dac       ??_C@_0BG@PLGEKIDA@debris?1bustmetal2?4wav?$AA@ 1009bdac     func_break.obj
 0002:00007dc4       ??_C@_0BF@IIFBEHBM@models?1glassgibs?4mdl?$AA@ 1009bdc4     func_break.obj
 0002:00007ddc       ??_C@_0BG@CKBFHEJP@debris?1bustglass1?4wav?$AA@ 1009bddc     func_break.obj
 0002:00007df4       ??_C@_0BG@KMIBAGDB@debris?1bustglass2?4wav?$AA@ 1009bdf4     func_break.obj
 0002:00007e0c       ??_C@_0BK@OOFFABIO@models?1metalplategibs?4mdl?$AA@ 1009be0c     func_break.obj
 0002:00007e28       ??_C@_0BG@IDHDMAPD@models?1cindergibs?4mdl?$AA@ 1009be28     func_break.obj
 0002:00007e40       ??_C@_0BJ@JOGLGNID@debris?1bustconcrete1?4wav?$AA@ 1009be40     func_break.obj
 0002:00007e5c       ??_C@_0BJ@BIPPBPCN@debris?1bustconcrete2?4wav?$AA@ 1009be5c     func_break.obj
 0002:00007e78       ??_C@_0BE@PLLKBOK@models?1rockgibs?4mdl?$AA@ 1009be78     func_break.obj
 0002:00007e8c       ??_C@_0BH@LOPLEIDF@models?1ceilinggibs?4mdl?$AA@ 1009be8c     func_break.obj
 0002:00007ea4       ??_C@_0BH@EILDHCGK@debris?1bustceiling?4wav?$AA@ 1009bea4     func_break.obj
 0002:00007ebc       ??_C@_07JBPBHDIL@grenade?$AA@ 1009bebc     func_break.obj
 0002:00007ec8       ??_7CPushable@@6B@         1009bec8     func_break.obj
 0002:00007fb0       ??_C@_09KKAHHOPK@CPushable?$AA@ 1009bfb0     func_break.obj
 0002:00007fbc       ??_C@_04IAGNFIBA@size?$AA@ 1009bfbc     func_break.obj
 0002:00007fc4       ??_C@_08BFMHNEIJ@buoyancy?$AA@ 1009bfc4     func_break.obj
 0002:00007fd0       __real@3f40624dd2f1a9fc    1009bfd0     func_break.obj
 0002:00007fd8       __real@43c78000            1009bfd8     func_break.obj
 0002:00007fdc       __real@43c80000            1009bfdc     func_break.obj
 0002:00007fe0       ??_C@_0M@ICNAMDPN@m_yawCenter?$AA@ 1009bfe0     func_tank.obj
 0002:00007fec       ??_C@_09JHEFDFNO@m_yawRate?$AA@ 1009bfec     func_tank.obj
 0002:00007ff8       ??_C@_0L@EFFGEGJB@m_yawRange?$AA@ 1009bff8     func_tank.obj
 0002:00008004       ??_C@_0P@LILJIDIK@m_yawTolerance?$AA@ 1009c004     func_tank.obj
 0002:00008014       ??_C@_0O@BBJIIMJP@m_pitchCenter?$AA@ 1009c014     func_tank.obj
 0002:00008024       ??_C@_0M@CDMANIHF@m_pitchRate?$AA@ 1009c024     func_tank.obj
 0002:00008030       ??_C@_0N@EOGLJBM@m_pitchRange?$AA@ 1009c030     func_tank.obj
 0002:00008040       ??_C@_0BB@PMAMAGDP@m_pitchTolerance?$AA@ 1009c040     func_tank.obj
 0002:00008054       ??_C@_0L@IHEJBLGJ@m_fireLast?$AA@ 1009c054     func_tank.obj
 0002:00008060       ??_C@_0L@OAPAHBP@m_fireRate?$AA@ 1009c060     func_tank.obj
 0002:0000806c       ??_C@_0BA@BCCDMLCB@m_lastSightTime?$AA@ 1009c06c     func_tank.obj
 0002:0000807c       ??_C@_09EDALIAJL@m_persist?$AA@ 1009c07c     func_tank.obj
 0002:00008088       ??_C@_0L@JFNJJHEE@m_minRange?$AA@ 1009c088     func_tank.obj
 0002:00008094       ??_C@_0L@ECDCCFAF@m_maxRange?$AA@ 1009c094     func_tank.obj
 0002:000080a0       ??_C@_0M@FKHGMGPO@m_barrelPos?$AA@ 1009c0a0     func_tank.obj
 0002:000080ac       ??_C@_0BB@KBMLFKBO@m_iszSpriteSmoke?$AA@ 1009c0ac     func_tank.obj
 0002:000080c0       ??_C@_0BB@IIPEBLDA@m_iszSpriteFlash?$AA@ 1009c0c0     func_tank.obj
 0002:000080d4       ??_C@_0N@MJCDNHL@m_bulletType?$AA@ 1009c0d4     func_tank.obj
 0002:000080e4       ??_C@_0O@MFEMAGDC@m_sightOrigin?$AA@ 1009c0e4     func_tank.obj
 0002:000080f4       ??_C@_08CJBABAJF@m_spread?$AA@ 1009c0f4     func_tank.obj
 0002:00008100       ??_C@_0O@DAFMEDHA@m_pController?$AA@ 1009c100     func_tank.obj
 0002:00008110       ??_C@_0BG@CKGJOPMN@m_vecControllerUsePos?$AA@ 1009c110     func_tank.obj
 0002:00008128       ??_C@_0P@IFMDLDIK@m_flNextAttack?$AA@ 1009c128     func_tank.obj
 0002:00008138       ??_C@_0BA@NBNAKJHO@m_iBulletDamage?$AA@ 1009c138     func_tank.obj
 0002:00008148       ??_C@_0M@OPJDFHEL@m_iszMaster?$AA@ 1009c148     func_tank.obj
 0002:00008154       ??_C@_08CCODDFME@m_pLaser?$AA@ 1009c154     func_tank.obj
 0002:00008160       ??_C@_0M@DHNBEDGF@m_laserTime?$AA@ 1009c160     func_tank.obj
 0002:0000816c       ??_C@_07IFMFKMEI@m_pTank?$AA@ 1009c16c     func_tank.obj
 0002:00008178       ??_7CFuncTank@@6B@         1009c178     func_tank.obj
 0002:00008268       ??_C@_09PPGACJDE@CFuncTank?$AA@ 1009c268     func_tank.obj
 0002:00008274       ??_C@_07FJNOKMKC@yawrate?$AA@ 1009c274     func_tank.obj
 0002:0000827c       ??_C@_08BMCLOABP@yawrange?$AA@ 1009c27c     func_tank.obj
 0002:00008288       ??_C@_0N@OAOMINLL@yawtolerance?$AA@ 1009c288     func_tank.obj
 0002:00008298       ??_C@_0L@GAIJDEBJ@pitchrange?$AA@ 1009c298     func_tank.obj
 0002:000082a4       ??_C@_09CHOFBNGM@pitchrate?$AA@ 1009c2a4     func_tank.obj
 0002:000082b0       ??_C@_0P@IKIFKMPH@pitchtolerance?$AA@ 1009c2b0     func_tank.obj
 0002:000082c0       ??_C@_08JBBPILKD@firerate?$AA@ 1009c2c0     func_tank.obj
 0002:000082cc       ??_C@_06HIGCFHGK@barrel?$AA@ 1009c2cc     func_tank.obj
 0002:000082d4       ??_C@_07FDOCCIKO@barrely?$AA@ 1009c2d4     func_tank.obj
 0002:000082dc       ??_C@_07HIMPHLGN@barrelz?$AA@ 1009c2dc     func_tank.obj
 0002:000082e4       ??_C@_0M@FDMNOJCH@spritescale?$AA@ 1009c2e4     func_tank.obj
 0002:000082f0       ??_C@_0M@JGNDGPA@spritesmoke?$AA@ 1009c2f0     func_tank.obj
 0002:000082fc       ??_C@_0M@CAFCHHNO@spriteflash?$AA@ 1009c2fc     func_tank.obj
 0002:00008308       ??_C@_0M@EDLEIPPM@rotatesound?$AA@ 1009c308     func_tank.obj
 0002:00008314       ??_C@_0M@OANGIEMM@persistence?$AA@ 1009c314     func_tank.obj
 0002:00008320       ??_C@_06NCIIGPB@bullet?$AA@ 1009c320     func_tank.obj
 0002:00008328       ??_C@_0O@IOEGEOAO@bullet_damage?$AA@ 1009c328     func_tank.obj
 0002:00008338       ??_C@_0L@FGHJAEAD@firespread?$AA@ 1009c338     func_tank.obj
 0002:00008344       ??_C@_08MLAIDEPM@minRange?$AA@ 1009c344     func_tank.obj
 0002:00008350       ??_C@_08BMODIGLN@maxRange?$AA@ 1009c350     func_tank.obj
 0002:0000835c       ??_C@_06ECGAGODA@master?$AA@ 1009c35c     func_tank.obj
 0002:00008364       ??_C@_0N@FKGPNOIP@using?5TANK?$CB?6?$AA@ 1009c364     func_tank.obj
 0002:00008374       ??_C@_0BE@IELJMGLA@stopped?5using?5TANK?6?$AA@ 1009c374     func_tank.obj
 0002:0000838c       ??_7CFuncTankGun@@6B@      1009c38c     func_tank.obj
 0002:00008480       ??_7CFuncTankLaser@@6B@    1009c480     func_tank.obj
 0002:00008570       ??_C@_0P@KEDPEBIH@CFuncTankLaser?$AA@ 1009c570     func_tank.obj
 0002:00008580       ??_C@_0BP@BOGOALCH@Laser?5tank?5with?5no?5env_laser?$CB?6?$AA@ 1009c580     func_tank.obj
 0002:000085a0       ??_C@_0M@NBNOMMKB@laserentity?$AA@ 1009c5a0     func_tank.obj
 0002:000085ac       ??_C@_09PBEDIPND@env_laser?$AA@ 1009c5ac     func_tank.obj
 0002:000085bc       ??_7CFuncTankRocket@@6B@   1009c5bc     func_tank.obj
 0002:000086ac       ??_C@_0L@MFNEJJJF@rpg_rocket?$AA@ 1009c6ac     func_tank.obj
 0002:000086bc       ??_7CFuncTankMortar@@6B@   1009c6bc     func_tank.obj
 0002:000087b0       ??_7CFuncTankControls@@6B@ 1009c7b0     func_tank.obj
 0002:00008898       ??_C@_0BC@JJFEFACP@CFuncTankControls?$AA@ 1009c898     func_tank.obj
 0002:000088ac       ??_C@_09LDNHLJNI@func_tank?$AA@ 1009c8ac     func_tank.obj
 0002:000088b8       ??_C@_0M@CDMIIIAG@No?5tank?5?$CFs?6?$AA@ 1009c8b8     func_tank.obj
 0002:000088c8       __real@404ca5dc1a63c1f8    1009c8c8     func_tank.obj
 0002:000088d0       ??_C@_0BB@LIKIAMCO@displaysoundlist?$AA@ 1009c8d0     game.obj
 0002:000088e4       ??_C@_0N@MFFHNGOA@mp_timelimit?$AA@ 1009c8e4     game.obj
 0002:000088f4       ??_C@_0BA@JBCEDEIF@mp_friendlyfire?$AA@ 1009c8f4     game.obj
 0002:00008904       ??_C@_0O@DCOEKON@mp_flashlight?$AA@ 1009c904     game.obj
 0002:00008914       ??_C@_0P@HAABGEJ@decalfrequency?$AA@ 1009c914     game.obj
 0002:00008924       ??_C@_02PJNFELNH@30?$AA@   1009c924     game.obj
 0002:00008928       ??_C@_0BB@IMFDPFIC@mp_allowmonsters?$AA@ 1009c928     game.obj
 0002:0000893c       ??_C@_0N@LJJLGMIM@mp_roundtime?$AA@ 1009c93c     game.obj
 0002:0000894c       ??_C@_01BMBHCPLG@5?$AA@    1009c94c     game.obj
 0002:00008950       ??_C@_0L@EGNAKDEH@mp_buytime?$AA@ 1009c950     game.obj
 0002:0000895c       ??_C@_03GMOBGHL@1?45?$AA@  1009c95c     game.obj
 0002:00008960       ??_C@_0O@CHICILMC@mp_freezetime?$AA@ 1009c960     game.obj
 0002:00008970       ??_C@_01DHDKHMHF@6?$AA@    1009c970     game.obj
 0002:00008974       ??_C@_0L@MIBKNPIA@mp_c4timer?$AA@ 1009c974     game.obj
 0002:00008980       ??_C@_02IBONKJBH@45?$AA@   1009c980     game.obj
 0002:00008984       ??_C@_0BC@EJIEEJEB@mp_ghostfrequency?$AA@ 1009c984     game.obj
 0002:00008998       ??_C@_03NKBOLEBK@0?41?$AA@ 1009c998     game.obj
 0002:0000899c       ??_C@_0M@KOJDKBCE@mp_autokick?$AA@ 1009c99c     game.obj
 0002:000089a8       ??_C@_01HIHLOKLC@1?$AA@    1009c9a8     game.obj
 0002:000089ac       ??_C@_0BA@LNBDKCPA@sv_restartround?$AA@ 1009c9ac     game.obj
 0002:000089bc       ??_C@_0L@IMKHFNPM@sv_restart?$AA@ 1009c9bc     game.obj
 0002:000089c8       ??_C@_0O@OKANJHGH@mp_limitteams?$AA@ 1009c9c8     game.obj
 0002:000089d8       ??_C@_01FDFGLJHB@2?$AA@    1009c9d8     game.obj
 0002:000089dc       ??_C@_0BD@DMFALOCP@mp_autoteambalance?$AA@ 1009c9dc     game.obj
 0002:000089f0       ??_C@_0M@IIBMPPCO@mp_tkpunish?$AA@ 1009c9f0     game.obj
 0002:000089fc       ??_C@_0BC@FCBNFEMJ@mp_hostagepenalty?$AA@ 1009c9fc     game.obj
 0002:00008a10       ??_C@_02NBHMMMHK@13?$AA@   1009ca10     game.obj
 0002:00008a14       ??_C@_0BA@JKIOIBNB@mp_mirrordamage?$AA@ 1009ca14     game.obj
 0002:00008a24       ??_C@_0P@GGKMKPGJ@mp_forcecamera?$AA@ 1009ca24     game.obj
 0002:00008a34       ??_C@_0BB@BOLJKPAG@mp_forcechasecam?$AA@ 1009ca34     game.obj
 0002:00008a48       ??_C@_0BA@HKBJBDLO@mp_mapvoteratio?$AA@ 1009ca48     game.obj
 0002:00008a58       ??_C@_04HBOLGADO@0?466?$AA@ 1009ca58     game.obj
 0002:00008a60       ??_C@_0N@MCDBFMBA@mp_logdetail?$AA@ 1009ca60     game.obj
 0002:00008a70       ??_C@_03BAAJCDMO@800?$AA@  1009ca70     game.obj
 0002:00008a74       ??_C@_0N@EFLOOBIC@mp_maxrounds?$AA@ 1009ca74     game.obj
 0002:00008a84       ??_C@_0P@MJFMLKAP@mp_fadetoblack?$AA@ 1009ca84     game.obj
 0002:00008a94       ??_C@_0BB@CGMNNOMB@mp_windifference?$AA@ 1009ca94     game.obj
 0002:00008aa8       ??_C@_0M@CEJCHIBP@mp_playerid?$AA@ 1009caa8     game.obj
 0002:00008ab4       ??_C@_0M@CKAIEAOK@mp_winlimit?$AA@ 1009cab4     game.obj
 0002:00008ac0       ??_C@_0BB@DGDMGJHG@allow_spectators?$AA@ 1009cac0     game.obj
 0002:00008ad4       ??_C@_0M@ENIBOMLO@mp_chattime?$AA@ 1009cad4     game.obj
 0002:00008ae0       ??_C@_02PKFBJPLJ@10?$AA@   1009cae0     game.obj
 0002:00008ae4       ??_C@_0N@PMCBAPBD@mp_fragsleft?$AA@ 1009cae4     game.obj
 0002:00008af4       ??_C@_0M@DGKNHNI@mp_timeleft?$AA@ 1009caf4     game.obj
 0002:00008b00       ??_C@_0BB@NALJJEGA@humans_join_team?$AA@ 1009cb00     game.obj
 0002:00008b14       ??_C@_03OBJFJEBA@any?$AA@  1009cb14     game.obj
 0002:00008b18       ??_C@_0BC@DOIHDDHO@sk_agrunt_health1?$AA@ 1009cb18     game.obj
 0002:00008b2c       ??_C@_0BC@BFKKGALN@sk_agrunt_health2?$AA@ 1009cb2c     game.obj
 0002:00008b40       ??_C@_0BC@MLBFBPM@sk_agrunt_health3?$AA@ 1009cb40     game.obj
 0002:00008b54       ??_C@_0BF@OAADGBHL@sk_agrunt_dmg_punch1?$AA@ 1009cb54     game.obj
 0002:00008b6c       ??_C@_0BF@MLCODCLI@sk_agrunt_dmg_punch2?$AA@ 1009cb6c     game.obj
 0002:00008b84       ??_C@_0BF@NCDFADPJ@sk_agrunt_dmg_punch3?$AA@ 1009cb84     game.obj
 0002:00008b9c       ??_C@_0BC@PHMJAHEP@sk_apache_health1?$AA@ 1009cb9c     game.obj
 0002:00008bb0       ??_C@_0BC@NMOEFEIM@sk_apache_health2?$AA@ 1009cbb0     game.obj
 0002:00008bc4       ??_C@_0BC@MFPPGFMN@sk_apache_health3?$AA@ 1009cbc4     game.obj
 0002:00008bd8       ??_C@_0BC@HMGNFHLH@sk_barney_health1?$AA@ 1009cbd8     game.obj
 0002:00008bec       ??_C@_0BC@FHEAAEHE@sk_barney_health2?$AA@ 1009cbec     game.obj
 0002:00008c00       ??_C@_0BC@EOFLDFDF@sk_barney_health3?$AA@ 1009cc00     game.obj
 0002:00008c14       ??_C@_0BF@DEPDKIMK@sk_bullsquid_health1?$AA@ 1009cc14     game.obj
 0002:00008c2c       ??_C@_0BF@BPNOPLAJ@sk_bullsquid_health2?$AA@ 1009cc2c     game.obj
 0002:00008c44       ??_C@_0BF@GMFMKEI@sk_bullsquid_health3?$AA@ 1009cc44     game.obj
 0002:00008c5c       ??_C@_0BH@NLHMLKHD@sk_bullsquid_dmg_bite1?$AA@ 1009cc5c     game.obj
 0002:00008c74       ??_C@_0BH@PAFBOJLA@sk_bullsquid_dmg_bite2?$AA@ 1009cc74     game.obj
 0002:00008c8c       ??_C@_0BH@OJEKNIPB@sk_bullsquid_dmg_bite3?$AA@ 1009cc8c     game.obj
 0002:00008ca4       ??_C@_0BH@NJJOODC@sk_bullsquid_dmg_whip1?$AA@ 1009cca4     game.obj
 0002:00008cbc       ??_C@_0BH@CGLELNPB@sk_bullsquid_dmg_whip2?$AA@ 1009ccbc     game.obj
 0002:00008cd4       ??_C@_0BH@DPKPIMLA@sk_bullsquid_dmg_whip3?$AA@ 1009ccd4     game.obj
 0002:00008cec       ??_C@_0BH@MBJBNILL@sk_bullsquid_dmg_spit1?$AA@ 1009ccec     game.obj
 0002:00008d04       ??_C@_0BH@OKLMILHI@sk_bullsquid_dmg_spit2?$AA@ 1009cd04     game.obj
 0002:00008d1c       ??_C@_0BH@PDKHLKDJ@sk_bullsquid_dmg_spit3?$AA@ 1009cd1c     game.obj
 0002:00008d34       ??_C@_0BL@DCHJJJGH@sk_bigmomma_health_factor1?$AA@ 1009cd34     game.obj
 0002:00008d50       ??_C@_0BL@BJFEMKKE@sk_bigmomma_health_factor2?$AA@ 1009cd50     game.obj
 0002:00008d6c       ??_C@_0BL@EPPLOF@sk_bigmomma_health_factor3?$AA@ 1009cd6c     game.obj
 0002:00008d88       ??_C@_0BH@NLHHGGIE@sk_bigmomma_dmg_slash1?$AA@ 1009cd88     game.obj
 0002:00008da0       ??_C@_02PNFIDHGF@50?$AA@   1009cda0     game.obj
 0002:00008da4       ??_C@_0BH@PAFKDFEH@sk_bigmomma_dmg_slash2?$AA@ 1009cda4     game.obj
 0002:00008dbc       ??_C@_0BH@OJEBAEAG@sk_bigmomma_dmg_slash3?$AA@ 1009cdbc     game.obj
 0002:00008dd4       ??_C@_0BH@POCKLOK@sk_bigmomma_dmg_blast1?$AA@ 1009cdd4     game.obj
 0002:00008dec       ??_C@_03GNABGMEE@100?$AA@  1009cdec     game.obj
 0002:00008df0       ??_C@_0BH@CEMPPICJ@sk_bigmomma_dmg_blast2?$AA@ 1009cdf0     game.obj
 0002:00008e08       ??_C@_0BH@DNNEMJGI@sk_bigmomma_dmg_blast3?$AA@ 1009ce08     game.obj
 0002:00008e20       ??_C@_0BK@MIFFGIPE@sk_bigmomma_radius_blast1?$AA@ 1009ce20     game.obj
 0002:00008e3c       ??_C@_03HJHPABEB@250?$AA@  1009ce3c     game.obj
 0002:00008e40       ??_C@_0BK@ODHIDLDH@sk_bigmomma_radius_blast2?$AA@ 1009ce40     game.obj
 0002:00008e5c       ??_C@_0BK@PKGDAKHG@sk_bigmomma_radius_blast3?$AA@ 1009ce5c     game.obj
 0002:00008e78       ??_C@_0BF@GBMKEDFN@sk_gargantua_health1?$AA@ 1009ce78     game.obj
 0002:00008e90       ??_C@_0BF@EKOHBAJO@sk_gargantua_health2?$AA@ 1009ce90     game.obj
 0002:00008ea8       ??_C@_0BF@FDPMCBNP@sk_gargantua_health3?$AA@ 1009cea8     game.obj
 0002:00008ec0       ??_C@_0BI@DKCCFEMG@sk_gargantua_dmg_slash1?$AA@ 1009cec0     game.obj
 0002:00008ed8       ??_C@_0BI@BBAPAHAF@sk_gargantua_dmg_slash2?$AA@ 1009ced8     game.obj
 0002:00008ef0       ??_C@_0BI@IBEDGEE@sk_gargantua_dmg_slash3?$AA@ 1009cef0     game.obj
 0002:00008f08       ??_C@_0BH@GMFONFKN@sk_gargantua_dmg_fire1?$AA@ 1009cf08     game.obj
 0002:00008f20       ??_C@_0BH@EHHDIGGO@sk_gargantua_dmg_fire2?$AA@ 1009cf20     game.obj
 0002:00008f38       ??_C@_0BH@FOGILHCP@sk_gargantua_dmg_fire3?$AA@ 1009cf38     game.obj
 0002:00008f50       ??_C@_0BI@MIGELIDF@sk_gargantua_dmg_stomp1?$AA@ 1009cf50     game.obj
 0002:00008f68       ??_C@_0BI@ODEJOLPG@sk_gargantua_dmg_stomp2?$AA@ 1009cf68     game.obj
 0002:00008f80       ??_C@_0BI@PKFCNKLH@sk_gargantua_dmg_stomp3?$AA@ 1009cf80     game.obj
 0002:00008f98       ??_C@_0BF@CFJHKOCC@sk_hassassin_health1?$AA@ 1009cf98     game.obj
 0002:00008fb0       ??_C@_0BF@OLKPNOB@sk_hassassin_health2?$AA@ 1009cfb0     game.obj
 0002:00008fc8       ??_C@_0BF@BHKBMMKA@sk_hassassin_health3?$AA@ 1009cfc8     game.obj
 0002:00008fe0       ??_C@_0BE@DIPHKDEP@sk_headcrab_health1?$AA@ 1009cfe0     game.obj
 0002:00008ff4       ??_C@_0BE@BDNKPAIM@sk_headcrab_health2?$AA@ 1009cff4     game.obj
 0002:00009008       ??_C@_0BE@KMBMBMN@sk_headcrab_health3?$AA@ 1009d008     game.obj
 0002:0000901c       ??_C@_0BG@KFKADPB@sk_headcrab_dmg_bite1?$AA@ 1009d01c     game.obj
 0002:00009034       ??_C@_0BG@CBHHFADC@sk_headcrab_dmg_bite2?$AA@ 1009d034     game.obj
 0002:0000904c       ??_C@_0BG@DIGMGBHD@sk_headcrab_dmg_bite3?$AA@ 1009d04c     game.obj
 0002:00009064       ??_C@_0BC@EIPFCEBB@sk_hgrunt_health1?$AA@ 1009d064     game.obj
 0002:00009078       ??_C@_0BC@GDNIHHNC@sk_hgrunt_health2?$AA@ 1009d078     game.obj
 0002:0000908c       ??_C@_0BC@HKMDEGJD@sk_hgrunt_health3?$AA@ 1009d08c     game.obj
 0002:000090a0       ??_C@_0BA@ICNAMLFE@sk_hgrunt_kick1?$AA@ 1009d0a0     game.obj
 0002:000090b0       ??_C@_0BA@KJPNJIJH@sk_hgrunt_kick2?$AA@ 1009d0b0     game.obj
 0002:000090c0       ??_C@_0BA@LAOGKJNG@sk_hgrunt_kick3?$AA@ 1009d0c0     game.obj
 0002:000090d0       ??_C@_0BD@OODLFMHG@sk_hgrunt_pellets1?$AA@ 1009d0d0     game.obj
 0002:000090e4       ??_C@_0BD@MFBGAPLF@sk_hgrunt_pellets2?$AA@ 1009d0e4     game.obj
 0002:000090f8       ??_C@_0BD@NMANDOPE@sk_hgrunt_pellets3?$AA@ 1009d0f8     game.obj
 0002:0000910c       ??_C@_0BC@LBPOOFJI@sk_hgrunt_gspeed1?$AA@ 1009d10c     game.obj
 0002:00009120       ??_C@_0BC@JKNDLGFL@sk_hgrunt_gspeed2?$AA@ 1009d120     game.obj
 0002:00009134       ??_C@_0BC@IDMIIHBK@sk_hgrunt_gspeed3?$AA@ 1009d134     game.obj
 0002:00009148       ??_C@_0BE@CDHHAFAI@sk_houndeye_health1?$AA@ 1009d148     game.obj
 0002:0000915c       ??_C@_0BE@IFKFGML@sk_houndeye_health2?$AA@ 1009d15c     game.obj
 0002:00009170       ??_C@_0BE@BBEBGHIK@sk_houndeye_health3?$AA@ 1009d170     game.obj
 0002:00009184       ??_C@_0BH@JHDDFCAD@sk_houndeye_dmg_blast1?$AA@ 1009d184     game.obj
 0002:0000919c       ??_C@_0BH@LMBOABMA@sk_houndeye_dmg_blast2?$AA@ 1009d19c     game.obj
 0002:000091b4       ??_C@_0BH@KFAFDAIB@sk_houndeye_dmg_blast3?$AA@ 1009d1b4     game.obj
 0002:000091cc       ??_C@_0BC@BDLGPPDP@sk_islave_health1?$AA@ 1009d1cc     game.obj
 0002:000091e0       ??_C@_0BC@DIJLKMPM@sk_islave_health2?$AA@ 1009d1e0     game.obj
 0002:000091f4       ??_C@_0BC@CBIAJNLN@sk_islave_health3?$AA@ 1009d1f4     game.obj
 0002:00009208       ??_C@_0BE@DMGBMAPP@sk_islave_dmg_claw1?$AA@ 1009d208     game.obj
 0002:0000921c       ??_C@_0BE@BHEMJDDM@sk_islave_dmg_claw2?$AA@ 1009d21c     game.obj
 0002:00009230       ??_C@_0BE@OFHKCHN@sk_islave_dmg_claw3?$AA@ 1009d230     game.obj
 0002:00009244       ??_C@_0BI@FFNLOOJE@sk_islave_dmg_clawrake1?$AA@ 1009d244     game.obj
 0002:0000925c       ??_C@_0BI@HOPGLNFH@sk_islave_dmg_clawrake2?$AA@ 1009d25c     game.obj
 0002:00009274       ??_C@_0BI@GHONIMBG@sk_islave_dmg_clawrake3?$AA@ 1009d274     game.obj
 0002:0000928c       ??_C@_0BD@BHKHCCPE@sk_islave_dmg_zap1?$AA@ 1009d28c     game.obj
 0002:000092a0       ??_C@_0BD@DMIKHBDH@sk_islave_dmg_zap2?$AA@ 1009d2a0     game.obj
 0002:000092b4       ??_C@_0BD@CFJBEAHG@sk_islave_dmg_zap3?$AA@ 1009d2b4     game.obj
 0002:000092c8       ??_C@_0BH@JBKJNANN@sk_ichthyosaur_health1?$AA@ 1009d2c8     game.obj
 0002:000092e0       ??_C@_0BH@LKIEIDBO@sk_ichthyosaur_health2?$AA@ 1009d2e0     game.obj
 0002:000092f8       ??_C@_0BH@KDJPLCFP@sk_ichthyosaur_health3?$AA@ 1009d2f8     game.obj
 0002:00009310       ??_C@_0BG@KOGPIGHN@sk_ichthyosaur_shake1?$AA@ 1009d310     game.obj
 0002:00009328       ??_C@_0BG@IFECNFLO@sk_ichthyosaur_shake2?$AA@ 1009d328     game.obj
 0002:00009340       ??_C@_0BG@JMFJOEPP@sk_ichthyosaur_shake3?$AA@ 1009d340     game.obj
 0002:00009358       ??_C@_0BB@DKHDHIHF@sk_leech_health1?$AA@ 1009d358     game.obj
 0002:0000936c       ??_C@_0BB@BBFOCLLG@sk_leech_health2?$AA@ 1009d36c     game.obj
 0002:00009380       ??_C@_0BB@IEFBKPH@sk_leech_health3?$AA@ 1009d380     game.obj
 0002:00009394       ??_C@_0BD@DOPCNEFA@sk_leech_dmg_bite1?$AA@ 1009d394     game.obj
 0002:000093a8       ??_C@_0BD@BFNPIHJD@sk_leech_dmg_bite2?$AA@ 1009d3a8     game.obj
 0002:000093bc       ??_C@_0BD@MMELGNC@sk_leech_dmg_bite3?$AA@ 1009d3bc     game.obj
 0002:000093d0       ??_C@_0BG@GDGMGHLH@sk_controller_health1?$AA@ 1009d3d0     game.obj
 0002:000093e8       ??_C@_0BG@EIEBDEHE@sk_controller_health2?$AA@ 1009d3e8     game.obj
 0002:00009400       ??_C@_0BG@FBFKAFDF@sk_controller_health3?$AA@ 1009d400     game.obj
 0002:00009418       ??_C@_0BG@ELCHOIMF@sk_controller_dmgzap1?$AA@ 1009d418     game.obj
 0002:00009430       ??_C@_0BG@GAAKLLAG@sk_controller_dmgzap2?$AA@ 1009d430     game.obj
 0002:00009448       ??_C@_0BG@HJBBIKEH@sk_controller_dmgzap3?$AA@ 1009d448     game.obj
 0002:00009460       ??_C@_0BJ@KIGMHGMP@sk_controller_speedball1?$AA@ 1009d460     game.obj
 0002:0000947c       ??_C@_0BJ@IDEBCFAM@sk_controller_speedball2?$AA@ 1009d47c     game.obj
 0002:00009498       ??_C@_0BJ@JKFKBEEN@sk_controller_speedball3?$AA@ 1009d498     game.obj
 0002:000094b4       ??_C@_0BH@LMDGMDFH@sk_controller_dmgball1?$AA@ 1009d4b4     game.obj
 0002:000094cc       ??_C@_0BH@JHBLJAJE@sk_controller_dmgball2?$AA@ 1009d4cc     game.obj
 0002:000094e4       ??_C@_0BH@IOAAKBNF@sk_controller_dmgball3?$AA@ 1009d4e4     game.obj
 0002:000094fc       ??_C@_0BF@MLAANMBA@sk_nihilanth_health1?$AA@ 1009d4fc     game.obj
 0002:00009514       ??_C@_0BF@OACNIPND@sk_nihilanth_health2?$AA@ 1009d514     game.obj
 0002:0000952c       ??_C@_0BF@PJDGLOJC@sk_nihilanth_health3?$AA@ 1009d52c     game.obj
 0002:00009544       ??_C@_0BC@GIJOPGCA@sk_nihilanth_zap1?$AA@ 1009d544     game.obj
 0002:00009558       ??_C@_0BC@EDLDKFOD@sk_nihilanth_zap2?$AA@ 1009d558     game.obj
 0002:0000956c       ??_C@_0BC@FKKIJEKC@sk_nihilanth_zap3?$AA@ 1009d56c     game.obj
 0002:00009580       ??_C@_0BF@OHMOOEMB@sk_scientist_health1?$AA@ 1009d580     game.obj
 0002:00009598       ??_C@_0BF@MMODLHAC@sk_scientist_health2?$AA@ 1009d598     game.obj
 0002:000095b0       ??_C@_0BF@NFPIIGED@sk_scientist_health3?$AA@ 1009d5b0     game.obj
 0002:000095c8       ??_C@_0BB@GKNFNEDL@sk_snark_health1?$AA@ 1009d5c8     game.obj
 0002:000095dc       ??_C@_0BB@EBPIIHPI@sk_snark_health2?$AA@ 1009d5dc     game.obj
 0002:000095f0       ??_C@_0BB@FIODLGLJ@sk_snark_health3?$AA@ 1009d5f0     game.obj
 0002:00009604       ??_C@_0BD@IPGIAJLO@sk_snark_dmg_bite1?$AA@ 1009d604     game.obj
 0002:00009618       ??_C@_0BD@KEEFFKHN@sk_snark_dmg_bite2?$AA@ 1009d618     game.obj
 0002:0000962c       ??_C@_0BD@LNFOGLDM@sk_snark_dmg_bite3?$AA@ 1009d62c     game.obj
 0002:00009640       ??_C@_0BC@LKNMOKFE@sk_snark_dmg_pop1?$AA@ 1009d640     game.obj
 0002:00009654       ??_C@_0BC@JBPBLJJH@sk_snark_dmg_pop2?$AA@ 1009d654     game.obj
 0002:00009668       ??_C@_0BC@IIOKIING@sk_snark_dmg_pop3?$AA@ 1009d668     game.obj
 0002:0000967c       ??_C@_0BC@JNOIJMDA@sk_zombie_health1?$AA@ 1009d67c     game.obj
 0002:00009690       ??_C@_0BC@LGMFMPPD@sk_zombie_health2?$AA@ 1009d690     game.obj
 0002:000096a4       ??_C@_0BC@KPNOPOLC@sk_zombie_health3?$AA@ 1009d6a4     game.obj
 0002:000096b8       ??_C@_0BJ@PMDBEBBM@sk_zombie_dmg_one_slash1?$AA@ 1009d6b8     game.obj
 0002:000096d4       ??_C@_0BJ@NHBMBCNP@sk_zombie_dmg_one_slash2?$AA@ 1009d6d4     game.obj
 0002:000096f0       ??_C@_0BJ@MOAHCDJO@sk_zombie_dmg_one_slash3?$AA@ 1009d6f0     game.obj
 0002:0000970c       ??_C@_0BK@HCDJHKPM@sk_zombie_dmg_both_slash1?$AA@ 1009d70c     game.obj
 0002:00009728       ??_C@_0BK@FJBECJDP@sk_zombie_dmg_both_slash2?$AA@ 1009d728     game.obj
 0002:00009744       ??_C@_0BK@EAAPBIHO@sk_zombie_dmg_both_slash3?$AA@ 1009d744     game.obj
 0002:00009760       ??_C@_0BC@JJAHIELA@sk_turret_health1?$AA@ 1009d760     game.obj
 0002:00009774       ??_C@_0BC@LCCKNHHD@sk_turret_health2?$AA@ 1009d774     game.obj
 0002:00009788       ??_C@_0BC@KLDBOGDC@sk_turret_health3?$AA@ 1009d788     game.obj
 0002:0000979c       ??_C@_0BG@CGKJGHKJ@sk_miniturret_health1?$AA@ 1009d79c     game.obj
 0002:000097b4       ??_C@_0BG@NIEDEGK@sk_miniturret_health2?$AA@ 1009d7b4     game.obj
 0002:000097cc       ??_C@_0BG@BEJPAFCL@sk_miniturret_health3?$AA@ 1009d7cc     game.obj
 0002:000097e4       ??_C@_0BC@NHAHFHPP@sk_sentry_health1?$AA@ 1009d7e4     game.obj
 0002:000097f8       ??_C@_0BC@PMCKAEDM@sk_sentry_health2?$AA@ 1009d7f8     game.obj
 0002:0000980c       ??_C@_0BC@OFDBDFHN@sk_sentry_health3?$AA@ 1009d80c     game.obj
 0002:00009820       ??_C@_0BA@GAEAGBPD@sk_plr_crowbar1?$AA@ 1009d820     game.obj
 0002:00009830       ??_C@_0BA@ELGNDCDA@sk_plr_crowbar2?$AA@ 1009d830     game.obj
 0002:00009840       ??_C@_0BA@FCHGADHB@sk_plr_crowbar3?$AA@ 1009d840     game.obj
 0002:00009850       ??_C@_0BD@JILFLEDK@sk_plr_9mm_bullet1?$AA@ 1009d850     game.obj
 0002:00009864       ??_C@_0BD@LDJIOHPJ@sk_plr_9mm_bullet2?$AA@ 1009d864     game.obj
 0002:00009878       ??_C@_0BD@KKIDNGLI@sk_plr_9mm_bullet3?$AA@ 1009d878     game.obj
 0002:0000988c       ??_C@_0BD@BOMJHGLL@sk_plr_357_bullet1?$AA@ 1009d88c     game.obj
 0002:000098a0       ??_C@_0BD@DFOECFHI@sk_plr_357_bullet2?$AA@ 1009d8a0     game.obj
 0002:000098b4       ??_C@_0BD@CMPPBEDJ@sk_plr_357_bullet3?$AA@ 1009d8b4     game.obj
 0002:000098c8       ??_C@_0BF@CLJAENPO@sk_plr_9mmAR_bullet1?$AA@ 1009d8c8     game.obj
 0002:000098e0       ??_C@_0BF@LNBODN@sk_plr_9mmAR_bullet2?$AA@ 1009d8e0     game.obj
 0002:000098f8       ??_C@_0BF@BJKGCPHM@sk_plr_9mmAR_bullet3?$AA@ 1009d8f8     game.obj
 0002:00009910       ??_C@_0BG@MKFNJHFJ@sk_plr_9mmAR_grenade1?$AA@ 1009d910     game.obj
 0002:00009928       ??_C@_0BG@OBHAMEJK@sk_plr_9mmAR_grenade2?$AA@ 1009d928     game.obj
 0002:00009940       ??_C@_0BG@PIGLPFNL@sk_plr_9mmAR_grenade3?$AA@ 1009d940     game.obj
 0002:00009958       ??_C@_0BB@IPEDHCFB@sk_plr_buckshot1?$AA@ 1009d958     game.obj
 0002:0000996c       ??_C@_0BB@KEGOCBJC@sk_plr_buckshot2?$AA@ 1009d96c     game.obj
 0002:00009980       ??_C@_0BB@LNHFBAND@sk_plr_buckshot3?$AA@ 1009d980     game.obj
 0002:00009994       ??_C@_0BJ@MLNFHMGP@sk_plr_xbow_bolt_client1?$AA@ 1009d994     game.obj
 0002:000099b0       ??_C@_0BJ@OAPICPKM@sk_plr_xbow_bolt_client2?$AA@ 1009d9b0     game.obj
 0002:000099cc       ??_C@_0BJ@PJODBOON@sk_plr_xbow_bolt_client3?$AA@ 1009d9cc     game.obj
 0002:000099e8       ??_C@_0BK@PNNHCBDO@sk_plr_xbow_bolt_monster1?$AA@ 1009d9e8     game.obj
 0002:00009a04       ??_C@_0BK@NGPKHCPN@sk_plr_xbow_bolt_monster2?$AA@ 1009da04     game.obj
 0002:00009a20       ??_C@_0BK@MPOBEDLM@sk_plr_xbow_bolt_monster3?$AA@ 1009da20     game.obj
 0002:00009a3c       ??_C@_0M@HODEGCAI@sk_plr_rpg1?$AA@ 1009da3c     game.obj
 0002:00009a48       ??_C@_0M@FFBJDBML@sk_plr_rpg2?$AA@ 1009da48     game.obj
 0002:00009a54       ??_C@_0M@EMACAAIK@sk_plr_rpg3?$AA@ 1009da54     game.obj
 0002:00009a60       ??_C@_0O@CNNOBDPA@sk_plr_gauss1?$AA@ 1009da60     game.obj
 0002:00009a70       ??_C@_0O@GPDEADD@sk_plr_gauss2?$AA@ 1009da70     game.obj
 0002:00009a80       ??_C@_0O@BPOIHBHC@sk_plr_gauss3?$AA@ 1009da80     game.obj
 0002:00009a90       ??_C@_0BE@CBPIDPDF@sk_plr_egon_narrow1?$AA@ 1009da90     game.obj
 0002:00009aa4       ??_C@_0BE@KNFGMPG@sk_plr_egon_narrow2?$AA@ 1009daa4     game.obj
 0002:00009ab8       ??_C@_0BE@BDMOFNLH@sk_plr_egon_narrow3?$AA@ 1009dab8     game.obj
 0002:00009acc       ??_C@_0BC@DAHLFLHB@sk_plr_egon_wide1?$AA@ 1009dacc     game.obj
 0002:00009ae0       ??_C@_0BC@BLFGAILC@sk_plr_egon_wide2?$AA@ 1009dae0     game.obj
 0002:00009af4       ??_C@_0BC@CENDJPD@sk_plr_egon_wide3?$AA@ 1009daf4     game.obj
 0002:00009b08       ??_C@_0BF@OAAJKAIM@sk_plr_hand_grenade1?$AA@ 1009db08     game.obj
 0002:00009b20       ??_C@_0BF@MLCEPDEP@sk_plr_hand_grenade2?$AA@ 1009db20     game.obj
 0002:00009b38       ??_C@_0BF@NCDPMCAO@sk_plr_hand_grenade3?$AA@ 1009db38     game.obj
 0002:00009b50       ??_C@_0BA@BAEAJMHP@sk_plr_satchel1?$AA@ 1009db50     game.obj
 0002:00009b60       ??_C@_0BA@DLGNMPLM@sk_plr_satchel2?$AA@ 1009db60     game.obj
 0002:00009b70       ??_C@_0BA@CCHGPOPN@sk_plr_satchel3?$AA@ 1009db70     game.obj
 0002:00009b80       ??_C@_0BB@JEGPNOLC@sk_plr_tripmine1?$AA@ 1009db80     game.obj
 0002:00009b94       ??_C@_0BB@LPECINHB@sk_plr_tripmine2?$AA@ 1009db94     game.obj
 0002:00009ba8       ??_C@_0BB@KGFJLMDA@sk_plr_tripmine3?$AA@ 1009dba8     game.obj
 0002:00009bbc       ??_C@_0BA@KOMHKEHG@sk_12mm_bullet1?$AA@ 1009dbbc     game.obj
 0002:00009bcc       ??_C@_0BA@IFOKPHLF@sk_12mm_bullet2?$AA@ 1009dbcc     game.obj
 0002:00009bdc       ??_C@_0BA@JMPBMGPE@sk_12mm_bullet3?$AA@ 1009dbdc     game.obj
 0002:00009bec       ??_C@_0BB@NDOMKFMH@sk_9mmAR_bullet1?$AA@ 1009dbec     game.obj
 0002:00009c00       ??_C@_0BB@PIMBPGAE@sk_9mmAR_bullet2?$AA@ 1009dc00     game.obj
 0002:00009c14       ??_C@_0BB@OBNKMHEF@sk_9mmAR_bullet3?$AA@ 1009dc14     game.obj
 0002:00009c28       ??_C@_0P@NPBHABKI@sk_9mm_bullet1?$AA@ 1009dc28     game.obj
 0002:00009c38       ??_C@_0P@PEDKFCGL@sk_9mm_bullet2?$AA@ 1009dc38     game.obj
 0002:00009c48       ??_C@_0P@ONCBGDCK@sk_9mm_bullet3?$AA@ 1009dc48     game.obj
 0002:00009c58       ??_C@_0P@KLCKJFH@sk_hornet_dmg1?$AA@ 1009dc58     game.obj
 0002:00009c68       ??_C@_0P@CBJPPKJE@sk_hornet_dmg2?$AA@ 1009dc68     game.obj
 0002:00009c78       ??_C@_0P@DIIEMLNF@sk_hornet_dmg3?$AA@ 1009dc78     game.obj
 0002:00009c88       ??_C@_0BA@NMFKLONC@sk_suitcharger1?$AA@ 1009dc88     game.obj
 0002:00009c98       ??_C@_0BA@PHHHONBB@sk_suitcharger2?$AA@ 1009dc98     game.obj
 0002:00009ca8       ??_C@_0BA@OOGMNMFA@sk_suitcharger3?$AA@ 1009dca8     game.obj
 0002:00009cb8       ??_C@_0M@HMNNAIC@sk_battery1?$AA@ 1009dcb8     game.obj
 0002:00009cc4       ??_C@_0M@CMOAIDEB@sk_battery2?$AA@ 1009dcc4     game.obj
 0002:00009cd0       ??_C@_0M@DFPLLCAA@sk_battery3?$AA@ 1009dcd0     game.obj
 0002:00009cdc       ??_C@_0BC@HHOAEAEB@sk_healthcharger1?$AA@ 1009dcdc     game.obj
 0002:00009cf0       ??_C@_0BC@FMMNBDIC@sk_healthcharger2?$AA@ 1009dcf0     game.obj
 0002:00009d04       ??_C@_0BC@EFNGCCMD@sk_healthcharger3?$AA@ 1009dd04     game.obj
 0002:00009d18       ??_C@_0O@MPPDGIJI@sk_healthkit1?$AA@ 1009dd18     game.obj
 0002:00009d28       ??_C@_0O@OENODLFL@sk_healthkit2?$AA@ 1009dd28     game.obj
 0002:00009d38       ??_C@_0O@PNMFAKBK@sk_healthkit3?$AA@ 1009dd38     game.obj
 0002:00009d48       ??_C@_0BD@NLOAMMFL@sk_scientist_heal1?$AA@ 1009dd48     game.obj
 0002:00009d5c       ??_C@_0BD@PAMNJPJI@sk_scientist_heal2?$AA@ 1009dd5c     game.obj
 0002:00009d70       ??_C@_0BD@OJNGKONJ@sk_scientist_heal3?$AA@ 1009dd70     game.obj
 0002:00009d84       ??_C@_0BB@GBGAAOEF@sk_monster_head1?$AA@ 1009dd84     game.obj
 0002:00009d98       ??_C@_0BB@EKENFNIG@sk_monster_head2?$AA@ 1009dd98     game.obj
 0002:00009dac       ??_C@_0BB@FDFGGMMH@sk_monster_head3?$AA@ 1009ddac     game.obj
 0002:00009dc0       ??_C@_0BC@DAAMBDEK@sk_monster_chest1?$AA@ 1009ddc0     game.obj
 0002:00009dd4       ??_C@_0BC@BLCBEAIJ@sk_monster_chest2?$AA@ 1009ddd4     game.obj
 0002:00009de8       ??_C@_0BC@CDKHBMI@sk_monster_chest3?$AA@ 1009dde8     game.obj
 0002:00009dfc       ??_C@_0BE@NNMNMOBM@sk_monster_stomach1?$AA@ 1009ddfc     game.obj
 0002:00009e10       ??_C@_0BE@PGOAJNNP@sk_monster_stomach2?$AA@ 1009de10     game.obj
 0002:00009e24       ??_C@_0BE@OPPLKMJO@sk_monster_stomach3?$AA@ 1009de24     game.obj
 0002:00009e38       ??_C@_0BA@FECHMLMG@sk_monster_arm1?$AA@ 1009de38     game.obj
 0002:00009e48       ??_C@_0BA@HPAKJIAF@sk_monster_arm2?$AA@ 1009de48     game.obj
 0002:00009e58       ??_C@_0BA@GGBBKJEE@sk_monster_arm3?$AA@ 1009de58     game.obj
 0002:00009e68       ??_C@_0BA@GMOOOFIH@sk_monster_leg1?$AA@ 1009de68     game.obj
 0002:00009e78       ??_C@_0BA@EHMDLGEE@sk_monster_leg2?$AA@ 1009de78     game.obj
 0002:00009e88       ??_C@_0BA@FONIIHAF@sk_monster_leg3?$AA@ 1009de88     game.obj
 0002:00009e98       ??_C@_0BA@JGGFNPOK@sk_player_head1?$AA@ 1009de98     game.obj
 0002:00009ea8       ??_C@_0BA@LNEIIMCJ@sk_player_head2?$AA@ 1009dea8     game.obj
 0002:00009eb8       ??_C@_0BA@KEFDLNGI@sk_player_head3?$AA@ 1009deb8     game.obj
 0002:00009ec8       ??_C@_0BB@HGJCKIOC@sk_player_chest1?$AA@ 1009dec8     game.obj
 0002:00009edc       ??_C@_0BB@FNLPPLCB@sk_player_chest2?$AA@ 1009dedc     game.obj
 0002:00009ef0       ??_C@_0BB@EEKEMKGA@sk_player_chest3?$AA@ 1009def0     game.obj
 0002:00009f04       ??_C@_0BD@OHKANEGH@sk_player_stomach1?$AA@ 1009df04     game.obj
 0002:00009f18       ??_C@_0BD@MMINIHKE@sk_player_stomach2?$AA@ 1009df18     game.obj
 0002:00009f2c       ??_C@_0BD@NFJGLGOF@sk_player_stomach3?$AA@ 1009df2c     game.obj
 0002:00009f40       ??_C@_0P@DDKBDJFC@sk_player_arm1?$AA@ 1009df40     game.obj
 0002:00009f50       ??_C@_0P@BIIMGKJB@sk_player_arm2?$AA@ 1009df50     game.obj
 0002:00009f60       ??_C@_0P@BJHFLNA@sk_player_arm3?$AA@ 1009df60     game.obj
 0002:00009f70       ??_C@_0P@LGIBHBD@sk_player_leg1?$AA@ 1009df70     game.obj
 0002:00009f80       ??_C@_0P@CAEFEENA@sk_player_leg2?$AA@ 1009df80     game.obj
 0002:00009f90       ??_C@_0P@DJFOHFJB@sk_player_leg3?$AA@ 1009df90     game.obj
 0002:00009fa0       ??_C@_0L@FKMMBKBD@sv_gravity?$AA@ 1009dfa0     game.obj
 0002:00009fac       ??_C@_06MMOECJNC@sv_aim?$AA@ 1009dfac     game.obj
 0002:00009fb4       ??_C@_0N@OFGIKLBC@mp_footsteps?$AA@ 1009dfb4     game.obj
 0002:00009fc4       ??_C@_0O@OFAOFHGI@sv_accelerate?$AA@ 1009dfc4     game.obj
 0002:00009fd4       ??_C@_0M@CKLNABFC@sv_friction?$AA@ 1009dfd4     game.obj
 0002:00009fe0       ??_C@_0N@LFAHFFEG@sv_stopspeed?$AA@ 1009dfe0     game.obj
 0002:00009ff0       ??_C@_0BA@FKEOFPI@exec?5skill?4cfg?6?$AA@ 1009dff0     game.obj
 0002:0000a000       ??_C@_0BG@KNDHOFON@?6GAME?5SKILL?5LEVEL?3?$CFd?6?$AA@ 1009e000     gamerules.obj
 0002:0000a018       ??_C@_0P@OKGCFKIM@exec?5game?4cfg?6?$AA@ 1009e018     gamerules.obj
 0002:0000a030       __xmm@41700000424800004170000042960000 1009e030     gamerules.obj
 0002:0000a040       ??_C@_09OBGHCEGP@m_fAttenu?$AA@ 1009e040     ggrenade.obj
 0002:0000a04c       ??_C@_0N@CLNDFNPG@m_flNextFreq?$AA@ 1009e04c     ggrenade.obj
 0002:0000a05c       ??_C@_0L@HFCEAPNC@m_flC4Blow?$AA@ 1009e05c     ggrenade.obj
 0002:0000a068       ??_C@_0BF@ODOIEBHJ@m_flNextFreqInterval?$AA@ 1009e068     ggrenade.obj
 0002:0000a080       ??_C@_0N@KIGKFFB@m_flNextBeep?$AA@ 1009e080     ggrenade.obj
 0002:0000a090       ??_C@_0BE@GMKOIPKK@m_flDefuseCountDown?$AA@ 1009e090     ggrenade.obj
 0002:0000a0a4       ??_C@_0O@MLBBAGBI@m_flNextBlink?$AA@ 1009e0a4     ggrenade.obj
 0002:0000a0b4       ??_C@_0BE@FIKMNMEA@m_pentCurBombTarget?$AA@ 1009e0b4     ggrenade.obj
 0002:0000a0c8       ??_C@_0M@ECPABJAN@m_sBeepName?$AA@ 1009e0c8     ggrenade.obj
 0002:0000a0d4       ??_C@_07KEANFHNH@m_bIsC4?$AA@ 1009e0d4     ggrenade.obj
 0002:0000a0dc       ??_C@_0P@KIILDNFI@m_bStartDefuse?$AA@ 1009e0dc     ggrenade.obj
 0002:0000a0ec       ??_C@_09BLHHLMOP@m_SGSmoke?$AA@ 1009e0ec     ggrenade.obj
 0002:0000a0f8       ??_C@_0M@JDBNJPLN@m_bJustBlew?$AA@ 1009e0f8     ggrenade.obj
 0002:0000a104       ??_C@_0O@PJIOPLID@m_bLightSmoke?$AA@ 1009e104     ggrenade.obj
 0002:0000a114       ??_C@_09IAFCBAPF@m_usEvent?$AA@ 1009e114     ggrenade.obj
 0002:0000a120       ??_C@_0BI@LIEIOJPA@weapons?1flashbang?91?4wav?$AA@ 1009e120     ggrenade.obj
 0002:0000a138       ??_C@_0BI@DONMJLFO@weapons?1flashbang?92?4wav?$AA@ 1009e138     ggrenade.obj
 0002:0000a150       ??_C@_0BE@JJJKAAPC@weapons?1debris1?4wav?$AA@ 1009e150     ggrenade.obj
 0002:0000a164       ??_C@_0BE@BPAOHCFM@weapons?1debris2?4wav?$AA@ 1009e164     ggrenade.obj
 0002:0000a178       ??_C@_0BE@NEFCKBPJ@weapons?1debris3?4wav?$AA@ 1009e178     ggrenade.obj
 0002:0000a18c       ??_C@_0BH@EBHLGDPA@weapons?1sg_explode?4wav?$AA@ 1009e18c     ggrenade.obj
 0002:0000a1a4       ??_C@_0P@NGDPBEAP@func_breakable?$AA@ 1009e1a4     ggrenade.obj
 0002:0000a1b4       ??_C@_0BI@FGFAOFDP@weapons?1he_bounce?91?4wav?$AA@ 1009e1b4     ggrenade.obj
 0002:0000a1cc       ??_C@_0BJ@EONCICHB@weapons?1grenade_hit1?4wav?$AA@ 1009e1cc     ggrenade.obj
 0002:0000a1e8       ??_C@_0BJ@MIEGPANP@weapons?1grenade_hit2?4wav?$AA@ 1009e1e8     ggrenade.obj
 0002:0000a204       ??_C@_0BJ@DBKCDHK@weapons?1grenade_hit3?4wav?$AA@ 1009e204     ggrenade.obj
 0002:0000a220       ??_C@_0DJ@NINMOEJD@?$CC?$CFs?$DM?$CFi?$DO?$DM?$CFs?$DO?$DMCT?$DO?$CC?5triggered?5?$CCBegi@ 1009e220     ggrenade.obj
 0002:0000a25c       ??_C@_0BP@HHCOBNGE@?$CDDefusing_Bomb_With_Defuse_Kit?$AA@ 1009e25c     ggrenade.obj
 0002:0000a27c       ??_C@_0DM@DKDEGAEC@?$CC?$CFs?$DM?$CFi?$DO?$DM?$CFs?$DO?$DMCT?$DO?$CC?5triggered?5?$CCBegi@ 1009e27c     ggrenade.obj
 0002:0000a2b8       ??_C@_0CC@POHLPEJD@?$CDDefusing_Bomb_Without_Defuse_Ki@ 1009e2b8     ggrenade.obj
 0002:0000a2dc       ??_C@_0BN@BIGHJJBO@?$CDC4_Defuse_Must_Be_On_Ground?$AA@ 1009e2dc     ggrenade.obj
 0002:0000a2fc       ??_C@_07BGNHJKMP@BOMBDEF?$AA@ 1009e2fc     ggrenade.obj
 0002:0000a304       ??_C@_0CP@LFOIIOFK@?$CC?$CFs?$DM?$CFi?$DO?$DM?$CFs?$DO?$DMCT?$DO?$CC?5triggered?5?$CCDefu@ 1009e304     ggrenade.obj
 0002:0000a334       ??_C@_08MLDOFNI@CGrenade?$AA@ 1009e334     ggrenade.obj
 0002:0000a340       __real@3f733333            1009e340     ggrenade.obj
 0002:0000a348       __real@3fbeb851eb851eb8    1009e348     ggrenade.obj
 0002:0000a350       __real@3fe199999999999a    1009e350     ggrenade.obj
 0002:0000a358       __real@3feb333333333333    1009e358     ggrenade.obj
 0002:0000a360       __real@3ff6666666666666    1009e360     ggrenade.obj
 0002:0000a368       __real@41700000            1009e368     ggrenade.obj
 0002:0000a36c       __real@420c0000            1009e36c     ggrenade.obj
 0002:0000a370       __real@42480000            1009e370     ggrenade.obj
 0002:0000a374       __real@43898000            1009e374     ggrenade.obj
 0002:0000a378       ??_C@_0P@BFGOAFJC@m_flNextCharge?$AA@ 1009e378     healthkit.obj
 0002:0000a388       ??_C@_0O@FKECEDE@m_iReactivate?$AA@ 1009e388     healthkit.obj
 0002:0000a398       ??_C@_08KNDGHBFJ@m_iJuice?$AA@ 1009e398     healthkit.obj
 0002:0000a3a4       ??_C@_05IGICCOJP@m_iOn?$AA@ 1009e3a4     healthkit.obj
 0002:0000a3ac       ??_C@_0O@IKFNGDE@m_flSoundTime?$AA@ 1009e3ac     healthkit.obj
 0002:0000a3c0       ??_7CHealthKit@@6B@        1009e3c0     healthkit.obj
 0002:0000a4ac       ??_C@_0BE@COKIGALC@models?1w_medkit?4mdl?$AA@ 1009e4ac     healthkit.obj
 0002:0000a4c0       ??_C@_0BH@FOMKJFDE@items?1smallmedkit1?4wav?$AA@ 1009e4c0     healthkit.obj
 0002:0000a4dc       ??_7CWallHealth@@6B@       1009e4dc     healthkit.obj
 0002:0000a5c8       ??_C@_0M@JFMHKOKP@CWallHealth?$AA@ 1009e5c8     healthkit.obj
 0002:0000a5d4       ??_C@_07CALCDNJA@dmdelay?$AA@ 1009e5d4     healthkit.obj
 0002:0000a5dc       ??_C@_0BD@LMOBFGIO@items?1medshot4?4wav?$AA@ 1009e5dc     healthkit.obj
 0002:0000a5f0       ??_C@_0BF@IKPMFCMN@items?1medshotno1?4wav?$AA@ 1009e5f0     healthkit.obj
 0002:0000a608       ??_C@_0BF@MFCDNO@items?1medcharge4?4wav?$AA@ 1009e608     healthkit.obj
 0002:0000a620       __real@3fe1eb851eb851ec    1009e620     healthkit.obj
 0002:0000a628       __real@3fe3d70a3d70a3d7    1009e628     healthkit.obj
 0002:0000a634       ??_7CHostage@@6B@          1009e634     hostage.obj
 0002:0000a764       ??_C@_0P@GLDKGGMP@hostage_entity?$AA@ 1009e764     hostage.obj
 0002:0000a774       ??_C@_0BF@LMBIKAG@models?1scientist?4mdl?$AA@ 1009e774     hostage.obj
 0002:0000a78c       ??_C@_0BC@DDAJIPKB@sprites?1smoke?4spr?$AA@ 1009e78c     hostage.obj
 0002:0000a7a0       ??_C@_0BE@HDIAIJCL@info_hostage_rescue?$AA@ 1009e7a0     hostage.obj
 0002:0000a7b4       ??_C@_0DA@JONFNLLB@?$CC?$CFs?$DM?$CFi?$DO?$DM?$CFs?$DO?$DMCT?$DO?$CC?5triggered?5?$CCResc@ 1009e7b4     hostage.obj
 0002:0000a7e4       ??_C@_07ONGOFAAN@rescued?$AA@ 1009e7e4     hostage.obj
 0002:0000a7ec       ??_C@_07NBNGGAAC@escaped?$AA@ 1009e7ec     hostage.obj
 0002:0000a7f4       ??_C@_0BB@KCKPFJAC@?$CDInjured_Hostage?$AA@ 1009e7f4     hostage.obj
 0002:0000a808       ??_C@_0BO@BEACDLBB@?$CDHint_careful_around_hostages?$AA@ 1009e808     hostage.obj
 0002:0000a828       ??_C@_0BA@CGKIIKCB@?$CDKilled_Hostage?$AA@ 1009e828     hostage.obj
 0002:0000a838       ??_C@_0BB@NLHHEALJ@?$CDHint_lost_money?$AA@ 1009e838     hostage.obj
 0002:0000a84c       ??_C@_0CP@GPPNIBHN@?$CC?$CFs?$DM?$CFi?$DO?$DM?$CFs?$DO?$DM?$CFs?$DO?$CC?5triggered?5?$CCKill@ 1009e84c     hostage.obj
 0002:0000a87c       ??_C@_0CG@PCBGOMFO@?$CDHint_removed_for_next_hostage_k@ 1009e87c     hostage.obj
 0002:0000a8a4       ??_C@_0M@MNJNCGPD@disconnect?6?$AA@ 1009e8a4     hostage.obj
 0002:0000a8b0       ??_C@_0BL@NEPJEMLE@?$CDOnly_CT_Can_Move_Hostages?$AA@ 1009e8b0     hostage.obj
 0002:0000a8cc       ??_C@_0DA@IGPCJNFC@?$CC?$CFs?$DM?$CFi?$DO?$DM?$CFs?$DO?$DMCT?$DO?$CC?5triggered?5?$CCTouc@ 1009e8cc     hostage.obj
 0002:0000a900       __real@3fa1111111111111    1009e900     hostage.obj
 0002:0000a908       __real@403a000000000000    1009e908     hostage.obj
 0002:0000a910       __real@42dc0000            1009e910     hostage.obj
 0002:0000a914       __real@43200000            1009e914     hostage.obj
 0002:0000a918       __real@c1c80000            1009e918     hostage.obj
 0002:0000a920       __xmm@00000000c24800000000000000000000 1009e920     hostage.obj
 0002:0000a930       __xmm@00000000c2480000c248000000000000 1009e930     hostage.obj
 0002:0000a940       __xmm@42480000000000000000000000000000 1009e940     hostage.obj
 0002:0000a950       __xmm@42480000000000004248000042480000 1009e950     hostage.obj
 0002:0000a960       __xmm@42480000c248000000000000c2480000 1009e960     hostage.obj
 0002:0000a970       __xmm@c2480000000000000000000042480000 1009e970     hostage.obj
 0002:0000a980       ??_C@_0M@DFOHBOK@sv_stepsize?$AA@ 1009e980     hostage_localnav.obj
 0002:0000a98c       ??_C@_0M@ELLBMFNK@queue?5full?6?$AA@ 1009e98c     hostage_localnav.obj
 0002:0000a998       __real@3fa00000            1009e998     hostage_localnav.obj
 0002:0000a99c       __real@41500000            1009e99c     hostage_localnav.obj
 0002:0000a9a0       __real@41980000            1009e9a0     hostage_localnav.obj
 0002:0000a9a4       __real@41d00000            1009e9a4     hostage_localnav.obj
 0002:0000a9a8       __real@422c0000            1009e9a8     hostage_localnav.obj
 0002:0000a9ac       __real@42540000            1009e9ac     hostage_localnav.obj
 0002:0000a9b0       __real@42980000            1009e9b0     hostage_localnav.obj
 0002:0000a9b4       __real@42b20000            1009e9b4     hostage_localnav.obj
 0002:0000a9b8       __real@42ce0000            1009e9b8     hostage_localnav.obj
 0002:0000a9bc       __real@42ec0000            1009e9bc     hostage_localnav.obj
 0002:0000a9c0       __real@43060000            1009e9c0     hostage_localnav.obj
 0002:0000a9c4       __real@43170000            1009e9c4     hostage_localnav.obj
 0002:0000a9c8       __real@43290000            1009e9c8     hostage_localnav.obj
 0002:0000a9cc       __real@49742400            1009e9cc     hostage_localnav.obj
 0002:0000a9d4       ??_7CRecharge@@6B@         1009e9d4     h_battery.obj
 0002:0000aac0       ??_C@_09MDNIEDOH@CRecharge?$AA@ 1009eac0     h_battery.obj
 0002:0000aacc       ??_C@_0BG@KIEJIBEB@items?1suitcharge1?4wav?$AA@ 1009eacc     h_battery.obj
 0002:0000aae4       ??_C@_0BI@JGMJMEPH@items?1suitchargeno1?4wav?$AA@ 1009eae4     h_battery.obj
 0002:0000aafc       ??_C@_0BI@KOCMOAHK@items?1suitchargeok1?4wav?$AA@ 1009eafc     h_battery.obj
 0002:0000ab14       ??_C@_09NEPOCDBF@m_animate?$AA@ 1009eb14     h_cycler.obj
 0002:0000ab20       ??_C@_0O@HNGJMBGI@m_flStartTime?$AA@ 1009eb20     h_cycler.obj
 0002:0000ab30       ??_C@_07JIHGIBOM@CCycler?$AA@ 1009eb30     h_cycler.obj
 0002:0000ab3c       ??_7CGenericCycler@@6B@    1009eb3c     h_cycler.obj
 0002:0000ac70       ??_7CCyclerProbe@@6B@      1009ec70     h_cycler.obj
 0002:0000ada0       ??_C@_0BD@BPCMLOLM@models?1prdroid?4mdl?$AA@ 1009eda0     h_cycler.obj
 0002:0000adb4       ??_C@_0CL@JKNOOIKA@cycler?5at?5?$CF?40f?5?$CF?40f?5?$CF0?4f?5missing@ 1009edb4     h_cycler.obj
 0002:0000ade0       ??_C@_06IJHHNGJ@cycler?$AA@ 1009ede0     h_cycler.obj
 0002:0000ade8       ??_C@_0BK@LFJHEILO@sequence?3?5?$CFd?0?5frame?5?$CF?40f?6?$AA@ 1009ede8     h_cycler.obj
 0002:0000ae08       ??_7CCyclerSprite@@6B@     1009ee08     h_cycler.obj
 0002:0000aef0       ??_C@_0O@MHAFPOHA@CCyclerSprite?$AA@ 1009eef0     h_cycler.obj
 0002:0000af00       ??_C@_0M@JNJBBHKN@Sprite?3?5?$CFs?6?$AA@ 1009ef00     h_cycler.obj
 0002:0000af10       ??_7CWeaponCycler@@6B@     1009ef10     h_cycler.obj
 0002:0000b08c       ??_7CWreckage@@6B@         1009f08c     h_cycler.obj
 0002:0000b1bc       ??_C@_09PODKBLLD@CWreckage?$AA@ 1009f1bc     h_cycler.obj
 0002:0000b1c8       __real@43820000            1009f1c8     h_cycler.obj
 0002:0000b1cc       ??_C@_0P@BIKEAKN@models?1hostage?$AA@ 1009f1cc     h_export.obj
 0002:0000b1dc       ??_C@_08MMPLIDAA@spetsnaz?$AA@ 1009f1dc     h_export.obj
 0002:0000b1e8       ??_C@_07PLLENLFF@militia?$AA@ 1009f1e8     h_export.obj
 0002:0000b1f0       ??_C@_0BD@EINLPFKD@models?1hostage?4mdl?$AA@ 1009f1f0     h_export.obj
 0002:0000b204       ??_C@_08OEBGFPHK@hostage?1?$AA@ 1009f204     h_export.obj
 0002:0000b210       ??_C@_0O@PCKKNCOM@hostage?1huse?1?$AA@ 1009f210     h_export.obj
 0002:0000b220       ??_C@_04KMKFGGNA@?4nav?$AA@ 1009f220     h_export.obj
 0002:0000b228       ??_C@_0O@JEFGFABM@czero?2maps?2?$CFs?$AA@ 1009f228     h_export.obj
 0002:0000b238       ??_C@_0BB@LINBJCLN@?4?4?1czero?1maps?1?$CFs?$AA@ 1009f238     h_export.obj
 0002:0000b250       ??_7CWorldItem@@6B@        1009f250     items.obj
 0002:0000b338       ??_C@_04GPMDFGEJ@type?$AA@ 1009f338     items.obj
 0002:0000b340       ??_C@_0O@OIAMBJND@item_antidote?$AA@ 1009f340     items.obj
 0002:0000b350       ??_C@_0O@MNIBGPHB@item_security?$AA@ 1009f350     items.obj
 0002:0000b360       ??_C@_09PNLMJFNO@item_suit?$AA@ 1009f360     items.obj
 0002:0000b370       ??_7CItemSuit@@6B@         1009f370     items.obj
 0002:0000b45c       ??_C@_0BE@KLFIGEGF@models?1w_kevlar?4mdl?$AA@ 1009f45c     items.obj
 0002:0000b470       ??_C@_0BE@KLNAOLP@items?1tr_kevlar?4wav?$AA@ 1009f470     items.obj
 0002:0000b488       ??_7CItemBattery@@6B@      1009f488     items.obj
 0002:0000b574       ??_C@_0BF@DDCPJKEB@models?1w_battery?4mdl?$AA@ 1009f574     items.obj
 0002:0000b58c       ??_C@_09LBNDPFEG@?$CBHEV_?$CF1dP?$AA@ 1009f58c     items.obj
 0002:0000b59c       ??_7CItemAntidote@@6B@     1009f59c     items.obj
 0002:0000b688       ??_C@_0BG@ENGLBEKN@models?1w_antidote?4mdl?$AA@ 1009f688     items.obj
 0002:0000b6a0       ??_C@_09NECGNHED@?$CBHEV_DET4?$AA@ 1009f6a0     items.obj
 0002:0000b6b0       ??_7CItemSecurity@@6B@     1009f6b0     items.obj
 0002:0000b79c       ??_C@_0BG@DPFMODIA@models?1w_security?4mdl?$AA@ 1009f79c     items.obj
 0002:0000b7b8       ??_7CItemLongJump@@6B@     1009f7b8     items.obj
 0002:0000b8a4       ??_C@_0BG@EHJGCIAE@models?1w_longjump?4mdl?$AA@ 1009f8a4     items.obj
 0002:0000b8bc       ??_C@_03HJOOJOPI@slj?$AA@  1009f8bc     items.obj
 0002:0000b8c0       ??_C@_07BEEICHEF@?$CBHEV_A1?$AA@ 1009f8c0     items.obj
 0002:0000b8cc       ??_7CItemKevlar@@6B@       1009f8cc     items.obj
 0002:0000b9bc       ??_7CItemAssaultSuit@@6B@  1009f9bc     items.obj
 0002:0000baa8       ??_C@_0BF@EBGEOMJK@models?1w_assault?4mdl?$AA@ 1009faa8     items.obj
 0002:0000bac4       ??_7CItemThighPack@@6B@    1009fac4     items.obj
 0002:0000bbb0       ??_C@_0BH@OOEEBKAN@models?1w_thighpack?4mdl?$AA@ 1009fbb0     items.obj
 0002:0000bbc8       ??_C@_0N@GDIOFKLE@?$CDGot_defuser?$AA@ 1009fbc8     items.obj
 0002:0000bbd8       ??_C@_08OPMKBLBI@m_iStyle?$AA@ 1009fbd8     lights.obj
 0002:0000bbe4       ??_C@_0N@OACEFJCE@m_iszPattern?$AA@ 1009fbe4     lights.obj
 0002:0000bbf8       ??_7CLight@@6B@            1009fbf8     lights.obj
 0002:0000bce0       ??_C@_06FAKOHJJO@CLight?$AA@ 1009fce0     lights.obj
 0002:0000bce8       ??_C@_05NCNFOFLM@pitch?$AA@ 1009fce8     lights.obj
 0002:0000bcf0       ??_C@_07CHFOACKJ@pattern?$AA@ 1009fcf0     lights.obj
 0002:0000bcf8       ??_C@_01MCMALHOG@a?$AA@    1009fcf8     lights.obj
 0002:0000bcfc       ??_C@_01GOHFPIOK@m?$AA@    1009fcfc     lights.obj
 0002:0000bd04       ??_7CEnvLight@@6B@         1009fd04     lights.obj
 0002:0000bdec       ??_C@_06PHHMIKBC@_light?$AA@ 1009fdec     lights.obj
 0002:0000bdf4       ??_C@_0N@EPGDEDFI@?$CFd?5?$CFd?5?$CFd?5?$CFd?6?$AA@ 1009fdf4     lights.obj
 0002:0000be04       ??_C@_02DPKJAMEF@?$CFd?$AA@ 1009fe04     lights.obj
 0002:0000be08       ??_C@_0O@CGCGGHO@sv_skycolor_r?$AA@ 1009fe08     lights.obj
 0002:0000be18       ??_C@_0O@DFNHIAGK@sv_skycolor_g?$AA@ 1009fe18     lights.obj
 0002:0000be28       ??_C@_0O@EIKAHECP@sv_skycolor_b?$AA@ 1009fe28     lights.obj
 0002:0000be38       ??_C@_02NJPGOMH@?$CFf?$AA@ 1009fe38     lights.obj
 0002:0000be3c       ??_C@_0M@JBBFCNJL@sv_skyvec_x?$AA@ 1009fe3c     lights.obj
 0002:0000be48       ??_C@_0M@IIAOBMNK@sv_skyvec_y?$AA@ 1009fe48     lights.obj
 0002:0000be54       ??_C@_0M@KDCDEPBJ@sv_skyvec_z?$AA@ 1009fe54     lights.obj
 0002:0000be60       __real@3fe3333340000000    1009fe60     lights.obj
 0002:0000be68       __real@405c800000000000    1009fe68     lights.obj
 0002:0000be70       __real@43840000            1009fe70     lights.obj
 0002:0000be78       ??_7CMapInfo@@6B@          1009fe78     mapinfo.obj
 0002:0000bf60       ??_C@_06PPEMMAEC@buying?$AA@ 1009ff60     mapinfo.obj
 0002:0000bf68       ??_C@_0L@EHCFALFF@bombradius?$AA@ 1009ff68     mapinfo.obj
 0002:0000bf74       ??_C@_0M@HKKCKONL@m_textParms?$AA@ 1009ff74     maprules.obj
 0002:0000bf80       ??_C@_0O@ILAHDDJG@m_iszInTarget?$AA@ 1009ff80     maprules.obj
 0002:0000bf90       ??_C@_0P@OILNKAPD@m_iszOutTarget?$AA@ 1009ff90     maprules.obj
 0002:0000bfa0       ??_C@_0N@IONPGFBL@m_iszInCount?$AA@ 1009ffa0     maprules.obj
 0002:0000bfb0       ??_C@_0O@DCCANJAG@m_iszOutCount?$AA@ 1009ffb0     maprules.obj
 0002:0000bfc0       ??_C@_0M@BCINGCIH@CRuleEntity?$AA@ 1009ffc0     maprules.obj
 0002:0000bfd0       ??_7CGameScore@@6B@        1009ffd0     maprules.obj
 0002:0000c0b8       ??_C@_06GPGIDCJA@points?$AA@ 100a00b8     maprules.obj
 0002:0000c0c4       ??_7CGameEnd@@6B@          100a00c4     maprules.obj
 0002:0000c1b0       ??_7CGameText@@6B@         100a01b0     maprules.obj
 0002:0000c298       ??_C@_09KNMILNCN@CGameText?$AA@ 100a0298     maprules.obj
 0002:0000c2a4       ??_C@_07MFOHDNMP@channel?$AA@ 100a02a4     maprules.obj
 0002:0000c2ac       ??_C@_01FJMABOPO@x?$AA@    100a02ac     maprules.obj
 0002:0000c2b0       ??_C@_01EANLCPLP@y?$AA@    100a02b0     maprules.obj
 0002:0000c2b4       ??_C@_06HOPIODND@effect?$AA@ 100a02b4     maprules.obj
 0002:0000c2bc       ??_C@_06KEONFOCA@color2?$AA@ 100a02bc     maprules.obj
 0002:0000c2c4       ??_C@_06JFGPOFJL@fadein?$AA@ 100a02c4     maprules.obj
 0002:0000c2cc       ??_C@_07BJADIKJG@fadeout?$AA@ 100a02cc     maprules.obj
 0002:0000c2d4       ??_C@_06HPHNOPOF@fxtime?$AA@ 100a02d4     maprules.obj
 0002:0000c2e0       ??_7CGameTeamMaster@@6B@   100a02e0     maprules.obj
 0002:0000c3c8       ??_C@_09BHEEPGFP@teamindex?$AA@ 100a03c8     maprules.obj
 0002:0000c3d4       ??_C@_0N@MIOHHCGI@triggerstate?$AA@ 100a03d4     maprules.obj
 0002:0000c3e8       ??_7CGameTeamSet@@6B@      100a03e8     maprules.obj
 0002:0000c4d4       ??_7CGamePlayerZone@@6B@   100a04d4     maprules.obj
 0002:0000c5bc       ??_C@_0BA@DCNHONFL@CGamePlayerZone?$AA@ 100a05bc     maprules.obj
 0002:0000c5cc       ??_C@_08NHHEIPMM@intarget?$AA@ 100a05cc     maprules.obj
 0002:0000c5d8       ??_C@_09FFJEDAGP@outtarget?$AA@ 100a05d8     maprules.obj
 0002:0000c5e4       ??_C@_07EOAJDLKA@incount?$AA@ 100a05e4     maprules.obj
 0002:0000c5ec       ??_C@_08KGECFJPG@outcount?$AA@ 100a05ec     maprules.obj
 0002:0000c5fc       ??_7CGamePlayerHurt@@6B@   100a05fc     maprules.obj
 0002:0000c6e8       ??_7CGameCounter@@6B@      100a06e8     maprules.obj
 0002:0000c7d4       ??_7CGameCounterSet@@6B@   100a07d4     maprules.obj
 0002:0000c8c0       ??_7CGamePlayerEquip@@6B@  100a08c0     maprules.obj
 0002:0000c9ac       ??_7CGamePlayerTeam@@6B@   100a09ac     maprules.obj
 0002:0000ca94       ??_C@_0BB@FDMJCLGJ@game_team_master?$AA@ 100a0a94     maprules.obj
 0002:0000caa8       ??_C@_0BB@CGOJPOMI@m_iszXController?$AA@ 100a0aa8     mortar.obj
 0002:0000cabc       ??_C@_0BB@LNEMLCKH@m_iszYController?$AA@ 100a0abc     mortar.obj
 0002:0000cad0       ??_C@_0L@DBGLEAPC@m_flSpread?$AA@ 100a0ad0     mortar.obj
 0002:0000cadc       ??_C@_08OBKHPHNG@m_iCount?$AA@ 100a0adc     mortar.obj
 0002:0000cae8       ??_C@_0L@MHOLKBEB@m_fControl?$AA@ 100a0ae8     mortar.obj
 0002:0000caf8       ??_7CFuncMortarField@@6B@  100a0af8     mortar.obj
 0002:0000cbe4       ??_C@_0BB@NAKFLCBC@CFuncMortarField?$AA@ 100a0be4     mortar.obj
 0002:0000cbf8       ??_C@_0BD@JNNJPPFN@weapons?1mortar?4wav?$AA@ 100a0bf8     mortar.obj
 0002:0000cc0c       ??_C@_0BG@ENLMPGOF@weapons?1mortarhit?4wav?$AA@ 100a0c0c     mortar.obj
 0002:0000cc24       ??_C@_0P@OAGCDPBD@monster_mortar?$AA@ 100a0c24     mortar.obj
 0002:0000cc38       ??_7CMortar@@6B@           100a0c38     mortar.obj
 0002:0000cd6c       __real@40200000            100a0d6c     mortar.obj
 0002:0000cd70       __real@44800000            100a0d70     mortar.obj
 0002:0000cd78       ??_7IVoiceGameMgrHelper@@6B@ 100a0d78     multiplay_gamerules.obj
 0002:0000cd84       ??_7CCStrikeGameMgrHelper@@6B@ 100a0d84     multiplay_gamerules.obj
 0002:0000cd90       ??_7CHalfLifeMultiplay@@6B@ 100a0d90     multiplay_gamerules.obj
 0002:0000cea8       ??_C@_07NKIMKAEK@?$CF?$CBMRAD_?$AA@ 100a0ea8     multiplay_gamerules.obj
 0002:0000ceb0       ??_C@_09HBCKMAMK@TERRORIST?$AA@ 100a0eb0     multiplay_gamerules.obj
 0002:0000cebc       ??_C@_09GNDCBOBP@SPECTATOR?$AA@ 100a0ebc     multiplay_gamerules.obj
 0002:0000cec8       ??_C@_0CN@LAOOMEBG@Team?5?$CC?$CFs?$CC?5triggered?5?$CC?$CFs?$CC?5?$CICT?5?$CC?$CFi@ 100a0ec8     multiplay_gamerules.obj
 0002:0000cef8       ??_C@_0CJ@LIJKEKDH@World?5triggered?5?$CC?$CFs?$CC?5?$CICT?5?$CC?$CFi?$CC?$CJ?5?$CI@ 100a0ef8     multiplay_gamerules.obj
 0002:0000cf24       ??_C@_0BN@MKGLHLBE@World?5triggered?5?$CCRound_End?$CC?6?$AA@ 100a0f24     multiplay_gamerules.obj
 0002:0000cf44       ??_C@_0M@NHHOJIBJ@cl_himodels?$AA@ 100a0f44     multiplay_gamerules.obj
 0002:0000cf50       ??_C@_08KKMIMEJB@pausable?$AA@ 100a0f50     multiplay_gamerules.obj
 0002:0000cf5c       ??_C@_0P@DHKADKNH@lservercfgfile?$AA@ 100a0f5c     multiplay_gamerules.obj
 0002:0000cf6c       ??_C@_0CF@ILJOPBHJ@Executing?5listen?5server?5config?5f@ 100a0f6c     multiplay_gamerules.obj
 0002:0000cf94       ??_C@_08NNCMPFKC@exec?5?$CFs?6?$AA@ 100a0f94     multiplay_gamerules.obj
 0002:0000cfa0       ??_C@_09BKENKICP@perf_test?$AA@ 100a0fa0     multiplay_gamerules.obj
 0002:0000cfac       ??_C@_09PFGDPEO@print_ent?$AA@ 100a0fac     multiplay_gamerules.obj
 0002:0000cfb8       ??_C@_0P@CCDIMHBI@sv_clienttrace?$AA@ 100a0fb8     multiplay_gamerules.obj
 0002:0000cfc8       ??_C@_09ENPIJEF@weaponbox?$AA@ 100a0fc8     multiplay_gamerules.obj
 0002:0000cfd4       ??_C@_0O@CGAFKJKO@weapon_shield?$AA@ 100a0fd4     multiplay_gamerules.obj
 0002:0000cfe4       ??_C@_0O@NLOKLGJD@cycler_sprite?$AA@ 100a0fe4     multiplay_gamerules.obj
 0002:0000cff4       ??_C@_05OEPGNJB@light?$AA@ 100a0ff4     multiplay_gamerules.obj
 0002:0000cffc       ??_C@_0L@CGBMHOHE@func_water?$AA@ 100a0ffc     multiplay_gamerules.obj
 0002:0000d008       ??_C@_0BA@PKBGBJEG@func_tracktrain?$AA@ 100a1008     multiplay_gamerules.obj
 0002:0000d018       ??_C@_0N@MEANFAOF@func_vehicle?$AA@ 100a1018     multiplay_gamerules.obj
 0002:0000d028       ??_C@_0L@PGCOCBM@func_train?$AA@ 100a1028     multiplay_gamerules.obj
 0002:0000d034       ??_C@_0P@GKDHJCIP@armoury_entity?$AA@ 100a1034     multiplay_gamerules.obj
 0002:0000d044       ??_C@_0BA@JGPOPFCJ@ambient_generic?$AA@ 100a1044     multiplay_gamerules.obj
 0002:0000d054       ??_C@_0P@GKBPEKKN@item_thighpack?$AA@ 100a1054     multiplay_gamerules.obj
 0002:0000d064       ??_C@_0BI@BHGPMMGD@?$CDHint_you_have_the_bomb?$AA@ 100a1064     multiplay_gamerules.obj
 0002:0000d07c       ??_C@_0DL@ODLKFCMA@?$CC?$CFs?$DM?$CFi?$DO?$DM?$CFs?$DO?$DMTERRORIST?$DO?$CC?5triggere@ 100a107c     multiplay_gamerules.obj
 0002:0000d0b8       ??_C@_0O@CBMHJLOL@?$CDGame_scoring?$AA@ 100a10b8     multiplay_gamerules.obj
 0002:0000d0c8       ??_C@_0CD@MBGHJKFM@World?5triggered?5?$CCGame_Commencing@ 100a10c8     multiplay_gamerules.obj
 0002:0000d0ec       ??_C@_0BB@JHMCPEEG@?$CDGame_Commencing?$AA@ 100a10ec     multiplay_gamerules.obj
 0002:0000d100       ??_C@_05IGJPELAE@ctwin?$AA@ 100a1100     multiplay_gamerules.obj
 0002:0000d108       ??_C@_0N@CGPOGMON@?$CDVIP_Escaped?$AA@ 100a1108     multiplay_gamerules.obj
 0002:0000d118       ??_C@_06OLAPNHFM@terwin?$AA@ 100a1118     multiplay_gamerules.obj
 0002:0000d120       ??_C@_0BC@GMINPNKL@?$CDVIP_Assassinated?$AA@ 100a1120     multiplay_gamerules.obj
 0002:0000d134       ??_C@_0BE@JCDEADKB@?$CDTerrorists_Escaped?$AA@ 100a1134     multiplay_gamerules.obj
 0002:0000d148       ??_C@_0BD@LPMIFEEH@?$CDCTs_PreventEscape?$AA@ 100a1148     multiplay_gamerules.obj
 0002:0000d15c       ??_C@_0CB@LCNGDIMP@?$CDEscaping_Terrorists_Neutralized@ 100a115c     multiplay_gamerules.obj
 0002:0000d180       ??_C@_0P@GOHJDNDG@?$CDTarget_Bombed?$AA@ 100a1180     multiplay_gamerules.obj
 0002:0000d190       ??_C@_0O@FGCOAJMA@?$CDBomb_Defused?$AA@ 100a1190     multiplay_gamerules.obj
 0002:0000d1a0       ??_C@_08PFFPLHF@?$CDCTs_Win?$AA@ 100a11a0     multiplay_gamerules.obj
 0002:0000d1ac       ??_C@_0BA@BFAOAJJD@?$CDTerrorists_Win?$AA@ 100a11ac     multiplay_gamerules.obj
 0002:0000d1bc       ??_C@_0M@FDOBDFPP@?$CDRound_Draw?$AA@ 100a11bc     multiplay_gamerules.obj
 0002:0000d1c8       ??_C@_09EFKAJOOF@rounddraw?$AA@ 100a11c8     multiplay_gamerules.obj
 0002:0000d1d4       ??_C@_0BG@OAEPCCMF@?$CDAll_Hostages_Rescued?$AA@ 100a11d4     multiplay_gamerules.obj
 0002:0000d1ec       ??_C@_0BB@BABJCDGB@func_bomb_target?$AA@ 100a11ec     multiplay_gamerules.obj
 0002:0000d200       ??_C@_0BB@IPBLFIDN@info_bomb_target?$AA@ 100a1200     multiplay_gamerules.obj
 0002:0000d214       ??_C@_0BE@DEODJPHB@func_hostage_rescue?$AA@ 100a1214     multiplay_gamerules.obj
 0002:0000d228       ??_C@_0N@PNLKKEEA@func_buyzone?$AA@ 100a1228     multiplay_gamerules.obj
 0002:0000d238       ??_C@_0BA@INDIKMDO@func_escapezone?$AA@ 100a1238     multiplay_gamerules.obj
 0002:0000d248       ??_C@_0BO@HHABACFB@?$CDAuto_Team_Balance_Next_Round?$AA@ 100a1248     multiplay_gamerules.obj
 0002:0000d268       ??_C@_0BE@HKHPLIBK@info_map_parameters?$AA@ 100a1268     multiplay_gamerules.obj
 0002:0000d27c       ??_C@_0BD@CEAPOMPL@EVERYONE?5CAN?5BUY?$CB?6?$AA@ 100a127c     multiplay_gamerules.obj
 0002:0000d290       ??_C@_0BF@OCKFEFDH@Only?5CT?8s?5can?5buy?$CB?$CB?6?$AA@ 100a1290     multiplay_gamerules.obj
 0002:0000d2a8       ??_C@_0BE@OONOMIIM@Only?5T?8s?5can?5buy?$CB?$CB?6?$AA@ 100a12a8     multiplay_gamerules.obj
 0002:0000d2bc       ??_C@_0BC@DBCPELIO@No?5one?5can?5buy?$CB?$CB?6?$AA@ 100a12bc     multiplay_gamerules.obj
 0002:0000d2d0       ??_C@_0BC@FLLBIDJA@?$CDGame_in_position?$AA@ 100a12d0     multiplay_gamerules.obj
 0002:0000d2e4       ??_C@_0BF@KOOAEOAL@?$CDGame_added_position?$AA@ 100a12e4     multiplay_gamerules.obj
 0002:0000d2fc       ??_C@_0BE@CCMIOLBN@?$CDAll_VIP_Slots_Full?$AA@ 100a12fc     multiplay_gamerules.obj
 0002:0000d310       ??_C@_0BP@LCBLLNHF@World?5triggered?5?$CCRound_Start?$CC?6?$AA@ 100a1310     multiplay_gamerules.obj
 0002:0000d330       ??_C@_0P@PJFAONKI@?$CF?$CBMRAD_MOVEOUT?$AA@ 100a1330     multiplay_gamerules.obj
 0002:0000d340       ??_C@_0O@DDFEIKOD@?$CF?$CBMRAD_LETSGO?$AA@ 100a1340     multiplay_gamerules.obj
 0002:0000d350       ??_C@_0BB@PHDKOFGG@?$CF?$CBMRAD_LOCKNLOAD?$AA@ 100a1350     multiplay_gamerules.obj
 0002:0000d364       ??_C@_0M@KHKMLOAP@?$CF?$CBMRAD_ELIM?$AA@ 100a1364     multiplay_gamerules.obj
 0002:0000d370       ??_C@_0O@JNAIIKLK@?$CF?$CBMRAD_GETOUT?$AA@ 100a1370     multiplay_gamerules.obj
 0002:0000d380       ??_C@_0L@BMJCMAEL@?$CF?$CBMRAD_VIP?$AA@ 100a1380     multiplay_gamerules.obj
 0002:0000d38c       ??_C@_0O@LEBCOMND@?$CDTarget_Saved?$AA@ 100a138c     multiplay_gamerules.obj
 0002:0000d39c       ??_C@_0BG@ECKFAIGD@?$CDHostages_Not_Rescued?$AA@ 100a139c     multiplay_gamerules.obj
 0002:0000d3b4       ??_C@_0BI@PAIDCPCJ@?$CDTerrorists_Not_Escaped?$AA@ 100a13b4     multiplay_gamerules.obj
 0002:0000d3cc       ??_C@_0BB@JPNDAMOA@?$CDVIP_Not_Escaped?$AA@ 100a13cc     multiplay_gamerules.obj
 0002:0000d3e0       ??_C@_06BJCFNGJP@second?$AA@ 100a13e0     multiplay_gamerules.obj
 0002:0000d3e8       ??_C@_07GELLIBDG@seconds?$AA@ 100a13e8     multiplay_gamerules.obj
 0002:0000d3f0       ??_C@_0CJ@LMGDBJGG@World?5triggered?5?$CCRestart_Round_?$CI@ 100a13f0     multiplay_gamerules.obj
 0002:0000d41c       ??_C@_0CJ@INLBICIA@Team?5?$CCCT?$CC?5scored?5?$CC?$CFi?$CC?5with?5?$CC?$CFi?$CC?5@ 100a141c     multiplay_gamerules.obj
 0002:0000d448       ??_C@_0DA@IECIFEAB@Team?5?$CCTERRORIST?$CC?5scored?5?$CC?$CFi?$CC?5wit@ 100a1448     multiplay_gamerules.obj
 0002:0000d478       ??_C@_06BNAOAIEN@SECOND?$AA@ 100a1478     multiplay_gamerules.obj
 0002:0000d480       ??_C@_07JJOGDNLC@SECONDS?$AA@ 100a1480     multiplay_gamerules.obj
 0002:0000d488       ??_C@_0BG@LANBPMCA@?$CDGame_will_restart_in?$AA@ 100a1488     multiplay_gamerules.obj
 0002:0000d4a0       ??_C@_0BO@KLPCFOFA@?$CDGame_will_restart_in_console?$AA@ 100a14a0     multiplay_gamerules.obj
 0002:0000d4c0       ??_C@_0CP@BFJNGFGF@Changing?5maps?5because?5time?5limit@ 100a14c0     multiplay_gamerules.obj
 0002:0000d4f0       ??_C@_0DD@OFDHHIFI@Changing?5maps?5due?5to?5maximum?5rou@ 100a14f0     multiplay_gamerules.obj
 0002:0000d528       ??_C@_0EB@NBGDFGHH@Changing?5maps?4?4?4one?5team?5has?5won@ 100a1528     multiplay_gamerules.obj
 0002:0000d56c       ??_C@_0CB@FLKLBABJ@?$CC?$CFs?$DM?$CFi?$DO?$DM?$CFs?$DO?$DM?$DO?$CC?5entered?5the?5game?6@ 100a156c     multiplay_gamerules.obj
 0002:0000d590       ??_C@_0BB@HACPNBJC@game_playerleave?$AA@ 100a1590     multiplay_gamerules.obj
 0002:0000d5a4       ??_C@_0BP@PJHMJBCA@?$CC?$CFs?$DM?$CFi?$DO?$DM?$CFs?$DO?$DM?$CFs?$DO?$CC?5disconnected?6?$AA@ 100a15a4     multiplay_gamerules.obj
 0002:0000d5c4       ??_C@_0BD@GPEELGFG@?$CDTeam_Select_Spect?$AA@ 100a15c4     multiplay_gamerules.obj
 0002:0000d5d8       ??_C@_0BC@NDIKNKII@game_player_equip?$AA@ 100a15d8     multiplay_gamerules.obj
 0002:0000d5ec       ??_C@_0P@OLOFLAMO@game_playerdie?$AA@ 100a15ec     multiplay_gamerules.obj
 0002:0000d5fc       ??_C@_0BB@KGBGCPLF@?$CDKilled_Teammate?$AA@ 100a15fc     multiplay_gamerules.obj
 0002:0000d610       ??_C@_0BF@IJCDAJDJ@?$CDGame_teammate_kills?$AA@ 100a1610     multiplay_gamerules.obj
 0002:0000d628       ??_C@_0BN@LDFAFIJF@?$CDBanned_For_Killing_Teamates?$AA@ 100a1628     multiplay_gamerules.obj
 0002:0000d648       ??_C@_0BP@CFONGKM@?$CDHint_careful_around_teammates?$AA@ 100a1648     multiplay_gamerules.obj
 0002:0000d668       ??_C@_0BN@CEMIBJAD@?$CDHint_reward_for_killing_vip?$AA@ 100a1668     multiplay_gamerules.obj
 0002:0000d688       ??_C@_0DK@MEGDEICP@?$CC?$CFs?$DM?$CFi?$DO?$DM?$CFs?$DO?$DMTERRORIST?$DO?$CC?5triggere@ 100a1688     multiplay_gamerules.obj
 0002:0000d6c4       ??_C@_0CB@LEIFCBAH@?$CDHint_win_round_by_killing_enemy@ 100a16c4     multiplay_gamerules.obj
 0002:0000d6e8       ??_C@_0BA@DIPOICPC@game_playerkill?$AA@ 100a16e8     multiplay_gamerules.obj
 0002:0000d6f8       ??_C@_05MCBCHHEJ@world?$AA@ 100a16f8     multiplay_gamerules.obj
 0002:0000d700       ??_C@_0L@OOGMGOHD@tau_cannon?$AA@ 100a1700     multiplay_gamerules.obj
 0002:0000d70c       ??_C@_09PANNDLMO@gluon?5gun?$AA@ 100a170c     multiplay_gamerules.obj
 0002:0000d718       ??_C@_08IBNCMLPJ@monster_?$AA@ 100a1718     multiplay_gamerules.obj
 0002:0000d724       ??_C@_05NOJGJHG@func_?$AA@ 100a1724     multiplay_gamerules.obj
 0002:0000d72c       ??_C@_04HGALPFFB@egon?$AA@ 100a172c     multiplay_gamerules.obj
 0002:0000d734       ??_C@_05PBNKJDNB@gauss?$AA@ 100a1734     multiplay_gamerules.obj
 0002:0000d73c       ??_C@_0CO@LLFPEL@?$CC?$CFs?$DM?$CFi?$DO?$DM?$CFs?$DO?$DM?$CFs?$DO?$CC?5committed?5suici@ 100a173c     multiplay_gamerules.obj
 0002:0000d76c       ??_C@_0DE@DFLKMCED@?$CC?$CFs?$DM?$CFi?$DO?$DM?$CFs?$DO?$DM?$CFs?$DO?$CC?5killed?5?$CC?$CFs?$DM?$CFi?$DO?$DM@ 100a176c     multiplay_gamerules.obj
 0002:0000d7a0       ??_C@_0DG@IEFHAED@?$CC?$CFs?$DM?$CFi?$DO?$DM?$CFs?$DO?$DM?$CFs?$DO?$CC?5committed?5suici@ 100a17a0     multiplay_gamerules.obj
 0002:0000d7d8       ??_C@_0L@DONIJINK@minplayers?$AA@ 100a17d8     multiplay_gamerules.obj
 0002:0000d7e4       ??_C@_0L@PCNFODNF@maxplayers?$AA@ 100a17e4     multiplay_gamerules.obj
 0002:0000d7f0       ??_C@_0CM@ILNGGGAD@Skipping?5?$CFs?5from?5mapcycle?0?5not?5a@ 100a17f0     multiplay_gamerules.obj
 0002:0000d81c       ??_C@_0N@NBABDDNG@mapcyclefile?$AA@ 100a181c     multiplay_gamerules.obj
 0002:0000d82c       ??_C@_06PDCABMMD@?$CDVotes?$AA@ 100a182c     multiplay_gamerules.obj
 0002:0000d834       ??_C@_05FAGBKLJE@?$CDVote?$AA@ 100a1834     multiplay_gamerules.obj
 0002:0000d83c       ??_C@_0BB@JEEHFNCB@?$CDMap_Vote_Extend?$AA@ 100a183c     multiplay_gamerules.obj
 0002:0000d850       ??_C@_04FMANPBBG@0?435?$AA@ 100a1850     multiplay_gamerules.obj
 0002:0000d858       ??_C@_0BF@LEOPFPMM@?$CDGame_required_votes?$AA@ 100a1858     multiplay_gamerules.obj
 0002:0000d870       ??_C@_05MEEOHGLC@hldm1?$AA@ 100a1870     multiplay_gamerules.obj
 0002:0000d878       ??_C@_0CC@FEANGDAF@Unable?5to?5load?5map?5cycle?5file?5?$CFs@ 100a1878     multiplay_gamerules.obj
 0002:0000d89c       ??_C@_0BC@FAALNBDM@CHANGE?5LEVEL?3?5?$CFs?6?$AA@ 100a189c     multiplay_gamerules.obj
 0002:0000d8b0       ??_C@_0CJ@JMBELONF@PLAYER?5COUNT?3?5?5min?5?$CFi?5max?5?$CFi?5cur@ 100a18b0     multiplay_gamerules.obj
 0002:0000d8dc       ??_C@_0M@GHGDGIIH@RULES?3?5?5?$CFs?6?$AA@ 100a18dc     multiplay_gamerules.obj
 0002:0000d8e8       ??_C@_08DPEIBBAD@motdfile?$AA@ 100a18e8     multiplay_gamerules.obj
 0002:0000d8f4       ??_C@_08EHKIGBEA@hostname?$AA@ 100a18f4     multiplay_gamerules.obj
 0002:0000d900       __real@3ff4000000000000    100a1900     multiplay_gamerules.obj
 0002:0000d908       __real@42f00000            100a1908     multiplay_gamerules.obj
 0002:0000d90c       __real@44160000            100a190c     multiplay_gamerules.obj
 0002:0000d910       __real@454b2000            100a1910     multiplay_gamerules.obj
 0002:0000d914       __real@455ac000            100a1914     multiplay_gamerules.obj
 0002:0000d918       __real@bfe199999999999a    100a1918     multiplay_gamerules.obj
 0002:0000d920       __xmm@42f0000041a0000041a0000042c80000 100a1920     multiplay_gamerules.obj
 0002:0000d930       ??_C@_02PBAFKAGD@c4?$AA@   100a1930     observer.obj
 0002:0000d934       ??_C@_0P@EKNHLOCM@?$CDSpec_NoTarget?$AA@ 100a1934     observer.obj
 0002:0000d944       ??_C@_0N@KDFDPMBJ@?$CDSpec_Mode?$CFi?$AA@ 100a1944     observer.obj
 0002:0000d954       ??_C@_08KKHABFNG@m_flWait?$AA@ 100a1954     pathcorner.obj
 0002:0000d960       ??_C@_08FCNMPDAF@m_length?$AA@ 100a1960     pathcorner.obj
 0002:0000d96c       ??_C@_07DEMHEKGE@m_pnext?$AA@ 100a196c     pathcorner.obj
 0002:0000d974       ??_C@_0L@PDPEBDNF@m_paltpath?$AA@ 100a1974     pathcorner.obj
 0002:0000d980       ??_C@_0M@JELEFCEN@m_pprevious?$AA@ 100a1980     pathcorner.obj
 0002:0000d98c       ??_C@_09GJLPOOFC@m_altName?$AA@ 100a198c     pathcorner.obj
 0002:0000d99c       ??_7CPathTrack@@6B@        100a199c     pathcorner.obj
 0002:0000da88       ??_7CPathCorner@@6B@       100a1a88     pathcorner.obj
 0002:0000db70       ??_C@_0M@KMLCDEGG@CPathCorner?$AA@ 100a1b70     pathcorner.obj
 0002:0000db7c       ??_C@_04PNOAOIAG@wait?$AA@ 100a1b7c     pathcorner.obj
 0002:0000db84       ??_C@_0L@OCJCBBIH@CPathTrack?$AA@ 100a1b84     pathcorner.obj
 0002:0000db90       ??_C@_07NOKNLIHP@altpath?$AA@ 100a1b90     pathcorner.obj
 0002:0000db98       ??_C@_0BC@HHFGBHKD@Dead?5end?5link?5?$CFs?6?$AA@ 100a1b98     pathcorner.obj
 0002:0000dbac       ??_C@_0CE@NHMMIPJM@Bad?5sequence?5of?5path_tracks?5from@ 100a1bac     pathcorner.obj
 0002:0000dbd0       ??_C@_0L@HDAAGICM@path_track?$AA@ 100a1bd0     pathcorner.obj
 0002:0000dbdc       __real@49f42400            100a1bdc     perf_counter.obj
 0002:0000dbe0       __xmm@41f00000000000000000000000000000 100a1be0     perf_counter.obj
 0002:0000dbf0       ??_C@_08BGGADJCF@m_volume?$AA@ 100a1bf0     plats.obj
 0002:0000dbfc       ??_C@_0BD@FDNMBPME@m_pevCurrentTarget?$AA@ 100a1bfc     plats.obj
 0002:0000dc10       ??_C@_0M@GGJHBJGF@m_activated?$AA@ 100a1c10     plats.obj
 0002:0000dc1c       ??_C@_07ILBIFAOJ@m_ppath?$AA@ 100a1c1c     plats.obj
 0002:0000dc24       ??_C@_08OHPIAMEP@m_height?$AA@ 100a1c24     plats.obj
 0002:0000dc30       ??_C@_05KOFPJBEN@m_dir?$AA@ 100a1c30     plats.obj
 0002:0000dc38       ??_C@_0N@OCCOBKMN@m_startSpeed?$AA@ 100a1c38     plats.obj
 0002:0000dc48       ??_C@_0O@IJLDGMLM@m_controlMins?$AA@ 100a1c48     plats.obj
 0002:0000dc58       ??_C@_0O@FEKMJLJB@m_controlMaxs?$AA@ 100a1c58     plats.obj
 0002:0000dc68       ??_C@_08MKGFBFDP@m_flBank?$AA@ 100a1c68     plats.obj
 0002:0000dc74       ??_C@_0L@MPNOBFB@m_oldSpeed?$AA@ 100a1c74     plats.obj
 0002:0000dc80       ??_C@_0L@GBIFFNDK@m_trackTop?$AA@ 100a1c80     plats.obj
 0002:0000dc8c       ??_C@_0O@DNDAJFJJ@m_trackBottom?$AA@ 100a1c8c     plats.obj
 0002:0000dc9c       ??_C@_07CIONNGDK@m_train?$AA@ 100a1c9c     plats.obj
 0002:0000dca4       ??_C@_0P@LLGPCJDJ@m_trackTopName?$AA@ 100a1ca4     plats.obj
 0002:0000dcb4       ??_C@_0BC@IAGCBPAI@m_trackBottomName?$AA@ 100a1cb4     plats.obj
 0002:0000dcc8       ??_C@_0M@PECLMFMD@m_trainName?$AA@ 100a1cc8     plats.obj
 0002:0000dcd4       ??_C@_06JPKJKBFA@m_code?$AA@ 100a1cd4     plats.obj
 0002:0000dcdc       ??_C@_0O@IJLNHIAM@m_targetState?$AA@ 100a1cdc     plats.obj
 0002:0000dcec       ??_C@_05FCMIADIH@m_use?$AA@ 100a1cec     plats.obj
 0002:0000dcf4       ??_C@_04HDOEGONO@m_on?$AA@ 100a1cf4     plats.obj
 0002:0000dd00       ??_7CFuncTrackTrain@@6B@   100a1d00     plats.obj
 0002:0000dde8       ??_C@_0P@NOIFMLKO@CBasePlatTrain?$AA@ 100a1de8     plats.obj
 0002:0000ddf8       ??_C@_08OHGOKOGA@rotation?$AA@ 100a1df8     plats.obj
 0002:0000de04       ??_C@_06EMCPHFGM@volume?$AA@ 100a1e04     plats.obj
 0002:0000de0c       ??_C@_0BD@BEEIBLCM@plats?1bigmove1?4wav?$AA@ 100a1e0c     plats.obj
 0002:0000de20       ??_C@_0BD@JCNMGJIC@plats?1bigmove2?4wav?$AA@ 100a1e20     plats.obj
 0002:0000de34       ??_C@_0BE@NIAHEBHC@plats?1elevmove1?4wav?$AA@ 100a1e34     plats.obj
 0002:0000de48       ??_C@_0BE@FOJDDDNM@plats?1elevmove2?4wav?$AA@ 100a1e48     plats.obj
 0002:0000de5c       ??_C@_0BE@JFMPOAHJ@plats?1elevmove3?4wav?$AA@ 100a1e5c     plats.obj
 0002:0000de70       ??_C@_0BH@IOHBKOHJ@plats?1freightmove1?4wav?$AA@ 100a1e70     plats.obj
 0002:0000de88       ??_C@_0BH@IOFNMNH@plats?1freightmove2?4wav?$AA@ 100a1e88     plats.obj
 0002:0000dea0       ??_C@_0BF@MBNIOGIL@plats?1heavymove1?4wav?$AA@ 100a1ea0     plats.obj
 0002:0000deb8       ??_C@_0BE@BGALJLIM@plats?1rackmove1?4wav?$AA@ 100a1eb8     plats.obj
 0002:0000decc       ??_C@_0BE@NFAHGGGO@plats?1railmove1?4wav?$AA@ 100a1ecc     plats.obj
 0002:0000dee0       ??_C@_0BG@GMPINPFF@plats?1squeekmove1?4wav?$AA@ 100a1ee0     plats.obj
 0002:0000def8       ??_C@_0BE@JMFNEPEL@plats?1talkmove1?4wav?$AA@ 100a1ef8     plats.obj
 0002:0000df0c       ??_C@_0BE@BKMJDNOF@plats?1talkmove2?4wav?$AA@ 100a1f0c     plats.obj
 0002:0000df20       ??_C@_0BD@FFKIOPLC@plats?1bigstop1?4wav?$AA@ 100a1f20     plats.obj
 0002:0000df34       ??_C@_0BD@NDDMJNBM@plats?1bigstop2?4wav?$AA@ 100a1f34     plats.obj
 0002:0000df48       ??_C@_0BH@MPJBFKOH@plats?1freightstop1?4wav?$AA@ 100a1f48     plats.obj
 0002:0000df60       ??_C@_0BF@GKMGALL@plats?1heavystop2?4wav?$AA@ 100a1f60     plats.obj
 0002:0000df78       ??_C@_0BE@FHOLGPBC@plats?1rackstop1?4wav?$AA@ 100a1f78     plats.obj
 0002:0000df8c       ??_C@_0BE@JEOHJCPA@plats?1railstop1?4wav?$AA@ 100a1f8c     plats.obj
 0002:0000dfa0       ??_C@_0BG@CNBICLML@plats?1squeekstop1?4wav?$AA@ 100a1fa0     plats.obj
 0002:0000dfb8       ??_C@_0BE@NNLNLLNF@plats?1talkstop1?4wav?$AA@ 100a1fb8     plats.obj
 0002:0000dfd0       ??_7CFuncPlat@@6B@         100a1fd0     plats.obj
 0002:0000e0d0       ??_7CPlatTrigger@@6B@      100a20d0     plats.obj
 0002:0000e1b8       ??_C@_0BC@MFOAEBGM@?$CFs?5Blocked?5by?5?$CFs?6?$AA@ 100a21b8     plats.obj
 0002:0000e1d0       ??_7CFuncPlatRot@@6B@      100a21d0     plats.obj
 0002:0000e2cc       ??_C@_0N@LFDBJJHK@CFuncPlatRot?$AA@ 100a22cc     plats.obj
 0002:0000e2e0       ??_7CFuncTrain@@6B@        100a22e0     plats.obj
 0002:0000e3cc       ??_C@_0L@KGJCPLNP@CFuncTrain?$AA@ 100a23cc     plats.obj
 0002:0000e3d8       ??_C@_0BJ@OMMMCBEN@Train?5?$CFs?5speed?5to?5?$CF4?42f?6?$AA@ 100a23d8     plats.obj
 0002:0000e3f4       ??_C@_0BJ@BFCBAJNM@FuncTrain?5with?5no?5target?$AA@ 100a23f4     plats.obj
 0002:0000e410       ??_C@_0BA@LEBPOCBO@CFuncTrackTrain?$AA@ 100a2410     plats.obj
 0002:0000e420       ??_C@_06LHAOKEGO@wheels?$AA@ 100a2420     plats.obj
 0002:0000e428       ??_C@_0L@IGEBJHMI@startspeed?$AA@ 100a2428     plats.obj
 0002:0000e434       ??_C@_04JNPFOIOP@bank?$AA@ 100a2434     plats.obj
 0002:0000e43c       ??_C@_0CF@HEILEEIL@TRAIN?$CI?$CFs?$CJ?3?5Blocked?5by?5?$CFs?5?$CIdmg?3?$CF?4@ 100a243c     plats.obj
 0002:0000e464       ??_C@_0BK@FBEOOPJE@TRAIN?$CI?$CFs?$CJ?0?5speed?5to?5?$CF?42f?6?$AA@ 100a2464     plats.obj
 0002:0000e480       ??_C@_0BI@CKEBGBNG@plats?1ttrain_start1?4wav?$AA@ 100a2480     plats.obj
 0002:0000e498       ??_C@_0BH@JBKCPEP@TRAIN?$CI?$CFs?$CJ?3?5Speed?5is?50?6?$AA@ 100a2498     plats.obj
 0002:0000e4b0       ??_C@_0BG@ICJLEFNA@TRAIN?$CI?$CFs?$CJ?3?5Lost?5path?6?$AA@ 100a24b0     plats.obj
 0002:0000e4c8       ??_C@_0BO@GHOFJEJK@TrackTrain?5?$CFs?5speed?5to?5?$CF4?42f?6?$AA@ 100a24c8     plats.obj
 0002:0000e4e8       ??_C@_0BF@HIDIPGGD@TRAIN?$CI?$CFs?$CJ?3?5Dead?5end?5?$AA@ 100a24e8     plats.obj
 0002:0000e500       ??_C@_06CFJEGGIM@at?5?$CFs?6?$AA@ 100a2500     plats.obj
 0002:0000e508       ??_C@_0DC@BCPCIPIH@func_track_train?5must?5be?5on?5a?5pa@ 100a2508     plats.obj
 0002:0000e53c       ??_C@_0BP@KAGCAOND@Can?8t?5find?5a?5nearby?5track?5?$CB?$CB?$CB?6?$AA@ 100a253c     plats.obj
 0002:0000e55c       ??_C@_0CA@CEKPEFHF@TRAIN?3?5?$CFs?0?5Nearest?5track?5is?5?$CFs?6?$AA@ 100a255c     plats.obj
 0002:0000e57c       ??_C@_0O@LJFBEFEA@M_speed?5?$DN?5?$CFf?6?$AA@ 100a257c     plats.obj
 0002:0000e58c       ??_C@_0BC@BNAJEFJN@plats?1ttrain1?4wav?$AA@ 100a258c     plats.obj
 0002:0000e5a0       ??_C@_0BC@JLJNDHDD@plats?1ttrain2?4wav?$AA@ 100a25a0     plats.obj
 0002:0000e5b4       ??_C@_0BC@FAMBOEJG@plats?1ttrain3?4wav?$AA@ 100a25b4     plats.obj
 0002:0000e5c8       ??_C@_0BC@ENMENECO@plats?1ttrain4?4wav?$AA@ 100a25c8     plats.obj
 0002:0000e5dc       ??_C@_0BC@MHFCF@plats?1ttrain6?4wav?$AA@ 100a25dc     plats.obj
 0002:0000e5f0       ??_C@_0BC@MLFAKGIA@plats?1ttrain7?4wav?$AA@ 100a25f0     plats.obj
 0002:0000e604       ??_C@_0BI@OKHKLHOA@plats?1ttrain_brake1?4wav?$AA@ 100a2604     plats.obj
 0002:0000e61c       ??_C@_0BA@EJMDOJFA@events?1train?4sc?$AA@ 100a261c     plats.obj
 0002:0000e630       ??_7CFuncTrainControls@@6B@ 100a2630     plats.obj
 0002:0000e718       ??_C@_0N@IAKJBPML@No?5train?5?$CFs?6?$AA@ 100a2718     plats.obj
 0002:0000e72c       ??_7CFuncTrackChange@@6B@  100a272c     plats.obj
 0002:0000e830       ??_C@_0BB@HAADDNOI@CFuncTrackChange?$AA@ 100a2830     plats.obj
 0002:0000e844       ??_C@_05GCHOIEME@train?$AA@ 100a2844     plats.obj
 0002:0000e84c       ??_C@_08NLJLALP@toptrack?$AA@ 100a284c     plats.obj
 0002:0000e858       ??_C@_0M@GOILCKPL@bottomtrack?$AA@ 100a2858     plats.obj
 0002:0000e864       ??_C@_0CH@OBNOEFIM@Can?8t?5find?5train?5for?5track?5chang@ 100a2864     plats.obj
 0002:0000e88c       ??_C@_0CO@HLILMLEF@Can?8t?5find?5bottom?5track?5for?5trac@ 100a288c     plats.obj
 0002:0000e8bc       ??_C@_0CL@KCFJMNOL@Can?8t?5find?5top?5track?5for?5track?5c@ 100a28bc     plats.obj
 0002:0000e8ec       ??_7CFuncTrackAuto@@6B@    100a28ec     plats.obj
 0002:0000e9f4       ??_7CGunTarget@@6B@        100a29f4     plats.obj
 0002:0000eb24       ??_C@_0L@OMHPMBEA@CGunTarget?$AA@ 100a2b24     plats.obj
 0002:0000eb30       ??_C@_0BD@CAIGLONG@m_flFlashLightTime?$AA@ 100a2b30     player.obj
 0002:0000eb44       ??_C@_0BA@PPJCOFDL@m_iFlashBattery?$AA@ 100a2b44     player.obj
 0002:0000eb54       ??_C@_0P@KEOFIABN@m_afButtonLast?$AA@ 100a2b54     player.obj
 0002:0000eb64       ??_C@_0BC@NDJHIJIA@m_afButtonPressed?$AA@ 100a2b64     player.obj
 0002:0000eb78       ??_C@_0BD@JKPFKIHN@m_afButtonReleased?$AA@ 100a2b78     player.obj
 0002:0000eb8c       ??_C@_09FJADBKLE@m_rgItems?$AA@ 100a2b8c     player.obj
 0002:0000eb98       ??_C@_0BB@BNBADOCE@m_afPhysicsFlags?$AA@ 100a2b98     player.obj
 0002:0000ebac       ??_C@_0BC@EIPLGABJ@m_flTimeStepSound?$AA@ 100a2bac     player.obj
 0002:0000ebc0       ??_C@_0BD@PIBAPMMC@m_flTimeWeaponIdle?$AA@ 100a2bc0     player.obj
 0002:0000ebd4       ??_C@_0N@BADHJIDO@m_flSwimTime?$AA@ 100a2bd4     player.obj
 0002:0000ebe4       ??_C@_0N@OIJKAMKI@m_flDuckTime?$AA@ 100a2be4     player.obj
 0002:0000ebf4       ??_C@_0BB@BMHIALMA@m_flWallJumpTime?$AA@ 100a2bf4     player.obj
 0002:0000ec08       ??_C@_0P@JDLOBIKO@m_flSuitUpdate?$AA@ 100a2c08     player.obj
 0002:0000ec18       ??_C@_0BB@LIJDLDDA@m_rgSuitPlayList?$AA@ 100a2c18     player.obj
 0002:0000ec2c       ??_C@_0BA@JDHIHGP@m_iSuitPlayNext?$AA@ 100a2c2c     player.obj
 0002:0000ec3c       ??_C@_0BC@HLHFICFF@m_rgiSuitNoRepeat?$AA@ 100a2c3c     player.obj
 0002:0000ec50       ??_C@_0BH@NGIAKLAL@m_rgflSuitNoRepeatTime?$AA@ 100a2c50     player.obj
 0002:0000ec68       ??_C@_0BD@FNBHLOHL@m_lastDamageAmount?$AA@ 100a2c68     player.obj
 0002:0000ec7c       ??_C@_0BB@GHEKCEGC@m_rgpPlayerItems?$AA@ 100a2c7c     player.obj
 0002:0000ec90       ??_C@_0O@KIFOCAMF@m_pActiveItem?$AA@ 100a2c90     player.obj
 0002:0000eca0       ??_C@_0M@GJPNDMIJ@m_pLastItem?$AA@ 100a2ca0     player.obj
 0002:0000ecac       ??_C@_08FIGPODBE@m_rgAmmo?$AA@ 100a2cac     player.obj
 0002:0000ecb8       ??_C@_0M@IILFBJHF@m_idrowndmg?$AA@ 100a2cb8     player.obj
 0002:0000ecc4       ??_C@_0BB@LGCIKBLF@m_idrownrestored?$AA@ 100a2cc4     player.obj
 0002:0000ecd8       ??_C@_0M@HCJCMNGO@m_tSneaking?$AA@ 100a2cd8     player.obj
 0002:0000ece4       ??_C@_08NBNLKFA@m_iTrain?$AA@ 100a2ce4     player.obj
 0002:0000ecf0       ??_C@_0BA@IBLOCKKC@m_bitsHUDDamage?$AA@ 100a2cf0     player.obj
 0002:0000ed00       ??_C@_0BB@PBNAOOBP@m_flFallVelocity?$AA@ 100a2d00     player.obj
 0002:0000ed14       ??_C@_0BA@OLILJCPJ@m_iTargetVolume?$AA@ 100a2d14     player.obj
 0002:0000ed24       ??_C@_0BA@NPHEFKGO@m_iWeaponVolume?$AA@ 100a2d24     player.obj
 0002:0000ed34       ??_C@_0BD@INMMHMGB@m_iExtraSoundTypes?$AA@ 100a2d34     player.obj
 0002:0000ed48       ??_C@_0P@OGILBABK@m_iWeaponFlash?$AA@ 100a2d48     player.obj
 0002:0000ed58       ??_C@_0M@NLOPHCDO@m_fLongJump?$AA@ 100a2d58     player.obj
 0002:0000ed64       ??_C@_0L@GGOFAKM@m_fInitHUD?$AA@ 100a2d64     player.obj
 0002:0000ed70       ??_C@_09PMINGJGD@m_tbdPrev?$AA@ 100a2d70     player.obj
 0002:0000ed7c       ??_C@_0L@DBMEAMIB@m_iHideHUD?$AA@ 100a2d7c     player.obj
 0002:0000ed88       ??_C@_06MIFAJFHE@m_iFOV?$AA@ 100a2d88     player.obj
 0002:0000ed90       ??_C@_0BD@IHFPJLOG@m_flDisplayHistory?$AA@ 100a2d90     player.obj
 0002:0000eda4       ??_C@_0BA@NHGGLAHL@m_iJoiningState?$AA@ 100a2da4     player.obj
 0002:0000edb4       ??_C@_0N@KDOJHBJD@weapon_ump45?$AA@ 100a2db4     player.obj
 0002:0000edc4       ??_C@_08JCCGOMGF@deadback?$AA@ 100a2dc4     player.obj
 0002:0000edd0       ??_C@_0M@DPJMNOCF@deadsitting?$AA@ 100a2dd0     player.obj
 0002:0000eddc       ??_C@_0M@HHIAIDPD@deadstomach?$AA@ 100a2ddc     player.obj
 0002:0000ede8       ??_C@_09ENLMLMLP@deadtable?$AA@ 100a2de8     player.obj
 0002:0000edf4       ??_C@_0O@KBOGFHKN@m_messageTime?$AA@ 100a2df4     player.obj
 0002:0000ee04       ??_C@_0L@JJCHJEEA@m_loadTime?$AA@ 100a2e04     player.obj
 0002:0000ee10       ??_C@_04CPLLELMC@m249?$AA@ 100a2e10     player.obj
 0002:0000ee18       ??_C@_04KKFNFFAC@p228?$AA@ 100a2e18     player.obj
 0002:0000ee20       ??_C@_03BBKEAIF@?$DP?$DP?$DP?$AA@ 100a2e20     player.obj
 0002:0000ee24       ??_C@_05GHDFNNLC@scout?$AA@ 100a2e24     player.obj
 0002:0000ee2c       ??_C@_06PLJHLHIO@xm1014?$AA@ 100a2e2c     player.obj
 0002:0000ee34       ??_C@_05INHJPNJM@mac10?$AA@ 100a2e34     player.obj
 0002:0000ee3c       ??_C@_03CFKHOHFO@aug?$AA@  100a2e3c     player.obj
 0002:0000ee40       ??_C@_06POFKINOL@elites?$AA@ 100a2e40     player.obj
 0002:0000ee48       ??_C@_04EGPBINHA@fn57?$AA@ 100a2e48     player.obj
 0002:0000ee50       ??_C@_05JOBMFOLE@ump45?$AA@ 100a2e50     player.obj
 0002:0000ee58       ??_C@_05NCIKJDHF@sg550?$AA@ 100a2e58     player.obj
 0002:0000ee60       ??_C@_05CAKDPM@galil?$AA@  100a2e60     player.obj
 0002:0000ee68       ??_C@_05LAIJEIBK@famas?$AA@ 100a2e68     player.obj
 0002:0000ee70       ??_C@_03PLNCNPLC@usp?$AA@  100a2e70     player.obj
 0002:0000ee74       ??_C@_05KINDNLLC@glock?$AA@ 100a2e74     player.obj
 0002:0000ee7c       ??_C@_03CDKALHKG@awp?$AA@  100a2e7c     player.obj
 0002:0000ee80       ??_C@_03OBDHKFNL@mp5?$AA@  100a2e80     player.obj
 0002:0000ee84       ??_C@_02LENKBLKO@m3?$AA@   100a2e84     player.obj
 0002:0000ee88       ??_C@_04KIHOHCEN@m4a1?$AA@ 100a2e88     player.obj
 0002:0000ee90       ??_C@_03FFNGDGKN@tmp?$AA@  100a2e90     player.obj
 0002:0000ee94       ??_C@_05EPACHGIN@g3sg1?$AA@ 100a2e94     player.obj
 0002:0000ee9c       ??_C@_06BOLHOKHP@deagle?$AA@ 100a2e9c     player.obj
 0002:0000eea4       ??_C@_05OALMPBPH@sg552?$AA@ 100a2ea4     player.obj
 0002:0000eeac       ??_C@_04MCMNMLGF@ak47?$AA@ 100a2eac     player.obj
 0002:0000eeb4       ??_C@_05BIPCPIBA@knife?$AA@ 100a2eb4     player.obj
 0002:0000eebc       ??_C@_03EBHIGIJD@p90?$AA@  100a2ebc     player.obj
 0002:0000eec0       ??_C@_04CGFJFPFD@none?$AA@ 100a2ec0     player.obj
 0002:0000eec8       ??_C@_09MDJNEEPL@hegrenade?$AA@ 100a2ec8     player.obj
 0002:0000eed4       ??_C@_07PFMEFMOJ@glock18?$AA@ 100a2ed4     player.obj
 0002:0000eedc       ??_C@_05EHJKLNBO@elite?$AA@ 100a2edc     player.obj
 0002:0000eee4       ??_C@_09KEKPBIOE@fiveseven?$AA@ 100a2ee4     player.obj
 0002:0000eef0       ??_C@_07GCPFFMNO@mp5navy?$AA@ 100a2ef0     player.obj
 0002:0000eef8       ??_C@_06NFHHPLBG@?$CDGalil?$AA@ 100a2ef8     player.obj
 0002:0000ef00       ??_C@_08PBHOMJNH@defender?$AA@ 100a2f00     player.obj
 0002:0000ef0c       ??_C@_05FFOGGKHJ@?$CDAK47?$AA@ 100a2f0c     player.obj
 0002:0000ef14       ??_C@_04BKHOBHEH@cv47?$AA@ 100a2f14     player.obj
 0002:0000ef1c       ??_C@_06PECKIGBJ@?$CDSG552?$AA@ 100a2f1c     player.obj
 0002:0000ef24       ??_C@_08EMJFCFNO@krieg552?$AA@ 100a2f24     player.obj
 0002:0000ef30       ??_C@_06DJNIEFGH@magnum?$AA@ 100a2f30     player.obj
 0002:0000ef38       ??_C@_06CCKMHLJ@?$CDG3SG1?$AA@ 100a2f38     player.obj
 0002:0000ef40       ??_C@_05CMCEOMCJ@d3au1?$AA@ 100a2f40     player.obj
 0002:0000ef48       ??_C@_06GFNOBAPA@?$CDFamas?$AA@ 100a2f48     player.obj
 0002:0000ef50       ??_C@_07DGMOLMLC@clarion?$AA@ 100a2f50     player.obj
 0002:0000ef58       ??_C@_05KHCKDKIP@?$CDM4A1?$AA@ 100a2f58     player.obj
 0002:0000ef60       ??_C@_04OEJCDFLF@?$CDAug?$AA@ 100a2f60     player.obj
 0002:0000ef68       ??_C@_07IDINFOGA@bullpup?$AA@ 100a2f68     player.obj
 0002:0000ef70       ??_C@_06MGBMOEJL@?$CDSG550?$AA@ 100a2f70     player.obj
 0002:0000ef78       ??_C@_08HOKDEHFM@krieg550?$AA@ 100a2f78     player.obj
 0002:0000ef84       ??_C@_06DJCHCECI@9x19mm?$AA@ 100a2f84     player.obj
 0002:0000ef8c       ??_C@_04JPCAOOJK@km45?$AA@ 100a2f8c     player.obj
 0002:0000ef94       ??_C@_0L@PBOLLCPD@228compact?$AA@ 100a2f94     player.obj
 0002:0000efa0       ??_C@_09CMDABABB@nighthawk?$AA@ 100a2fa0     player.obj
 0002:0000efac       ??_C@_0M@CKAKAINH@?$CDBeretta96G?$AA@ 100a2fac     player.obj
 0002:0000efb8       ??_C@_0L@HLCNCOEO@?$CDFiveSeven?$AA@ 100a2fb8     player.obj
 0002:0000efc4       ??_C@_07FEBGLEPI@12gauge?$AA@ 100a2fc4     player.obj
 0002:0000efcc       ??_C@_0M@KEBDMAII@autoshotgun?$AA@ 100a2fcc     player.obj
 0002:0000efd8       ??_C@_06FICOKFHG@?$CDMac10?$AA@ 100a2fd8     player.obj
 0002:0000efe0       ??_C@_04DENBELHI@?$CDtmp?$AA@ 100a2fe0     player.obj
 0002:0000efe8       ??_C@_02GPIOAHGI@mp?$AA@   100a2fe8     player.obj
 0002:0000efec       ??_C@_03MNICIKIC@smg?$AA@  100a2fec     player.obj
 0002:0000eff0       ??_C@_03DNEJAOC@c90?$AA@   100a2ff0     player.obj
 0002:0000eff4       ??_C@_06HBOMKLFK@pistol?$AA@ 100a2ff4     player.obj
 0002:0000effc       ??_C@_03MAHJEHPO@SMG?$AA@  100a2ffc     player.obj
 0002:0000f000       ??_C@_0L@CFEKEAAE@machinegun?$AA@ 100a3000     player.obj
 0002:0000f00c       ??_C@_07PKBOGMMP@shotgun?$AA@ 100a300c     player.obj
 0002:0000f014       ??_C@_05NLPPOCND@rifle?$AA@ 100a3014     player.obj
 0002:0000f01c       ??_C@_06CBOFCDAC@sniper?$AA@ 100a301c     player.obj
 0002:0000f028       ??_7CWShield@@6B@          100a3028     player.obj
 0002:0000f110       ??_C@_09PEGKEGNI@CurWeapon?$AA@ 100a3110     player.obj
 0002:0000f11c       ??_C@_06NKMADNKG@Geiger?$AA@ 100a311c     player.obj
 0002:0000f124       ??_C@_0L@PALCELJK@Flashlight?$AA@ 100a3124     player.obj
 0002:0000f130       ??_C@_08JFEKNMJ@FlashBat?$AA@ 100a3130     player.obj
 0002:0000f13c       ??_C@_06GGDALCBD@Health?$AA@ 100a313c     player.obj
 0002:0000f144       ??_C@_06KGFFMMMJ@Damage?$AA@ 100a3144     player.obj
 0002:0000f14c       ??_C@_07OFDFNCDP@Battery?$AA@ 100a314c     player.obj
 0002:0000f154       ??_C@_05GFNCIBPC@Train?$AA@ 100a3154     player.obj
 0002:0000f15c       ??_C@_0L@HEMALLOE@HudTextPro?$AA@ 100a315c     player.obj
 0002:0000f168       ??_C@_07JNEKKACO@HudText?$AA@ 100a3168     player.obj
 0002:0000f170       ??_C@_07JAECCEML@SayText?$AA@ 100a3170     player.obj
 0002:0000f178       ??_C@_07GMGJNMMC@TextMsg?$AA@ 100a3178     player.obj
 0002:0000f180       ??_C@_0L@JMLCHIOL@WeaponList?$AA@ 100a3180     player.obj
 0002:0000f18c       ??_C@_08PEHACIKG@ResetHUD?$AA@ 100a318c     player.obj
 0002:0000f198       ??_C@_07PEONMAPN@InitHUD?$AA@ 100a3198     player.obj
 0002:0000f1a0       ??_C@_08IMMBLBLF@ViewMode?$AA@ 100a31a0     player.obj
 0002:0000f1ac       ??_C@_09HEMANCP@GameTitle?$AA@ 100a31ac     player.obj
 0002:0000f1b8       ??_C@_08DMGIIAG@DeathMsg?$AA@ 100a31b8     player.obj
 0002:0000f1c4       ??_C@_0M@MPCNLNKM@ScoreAttrib?$AA@ 100a31c4     player.obj
 0002:0000f1d0       ??_C@_09CBJIIAKN@ScoreInfo?$AA@ 100a31d0     player.obj
 0002:0000f1dc       ??_C@_08BHMNHEND@TeamInfo?$AA@ 100a31dc     player.obj
 0002:0000f1e8       ??_C@_09DEGMELBN@TeamScore?$AA@ 100a31e8     player.obj
 0002:0000f1f4       ??_C@_08JJGOBBMF@GameMode?$AA@ 100a31f4     player.obj
 0002:0000f200       ??_C@_04KFGJNABM@MOTD?$AA@ 100a3200     player.obj
 0002:0000f208       ??_C@_0L@FFDIDHBB@ServerName?$AA@ 100a3208     player.obj
 0002:0000f214       ??_C@_0L@EANOMKOP@AmmoPickup?$AA@ 100a3214     player.obj
 0002:0000f220       ??_C@_0L@FGOFFEAA@WeapPickup?$AA@ 100a3220     player.obj
 0002:0000f22c       ??_C@_0L@NIFLCEON@ItemPickup?$AA@ 100a322c     player.obj
 0002:0000f238       ??_C@_0L@IFFGJKPB@HideWeapon?$AA@ 100a3238     player.obj
 0002:0000f244       ??_C@_06NJNDMID@SetFOV?$AA@ 100a3244     player.obj
 0002:0000f24c       ??_C@_08IGGENMMJ@ShowMenu?$AA@ 100a324c     player.obj
 0002:0000f258       ??_C@_0M@FNPJCEOM@ScreenShake?$AA@ 100a3258     player.obj
 0002:0000f264       ??_C@_0L@OBKHMDDA@ScreenFade?$AA@ 100a3264     player.obj
 0002:0000f270       ??_C@_05BDDOEAPG@AmmoX?$AA@ 100a3270     player.obj
 0002:0000f278       ??_C@_09GCLOFLD@SendAudio?$AA@ 100a3278     player.obj
 0002:0000f284       ??_C@_09FNCKHMJK@RoundTime?$AA@ 100a3284     player.obj
 0002:0000f290       ??_C@_05INIBOMDG@Money?$AA@ 100a3290     player.obj
 0002:0000f298       ??_C@_09FEHNEEEH@ArmorType?$AA@ 100a3298     player.obj
 0002:0000f2a4       ??_C@_09HLBKBIK@BlinkAcct?$AA@ 100a32a4     player.obj
 0002:0000f2b0       ??_C@_0M@GOKLPADN@StatusValue?$AA@ 100a32b0     player.obj
 0002:0000f2bc       ??_C@_0L@KLILBJK@StatusText?$AA@ 100a32bc     player.obj
 0002:0000f2c8       ??_C@_0L@BOOHPCFL@StatusIcon?$AA@ 100a32c8     player.obj
 0002:0000f2d4       ??_C@_07EJHGBIIO@BarTime?$AA@ 100a32d4     player.obj
 0002:0000f2dc       ??_C@_0M@NABBCHMD@ReloadSound?$AA@ 100a32dc     player.obj
 0002:0000f2e8       ??_C@_09JOIHIAIG@Crosshair?$AA@ 100a32e8     player.obj
 0002:0000f2f4       ??_C@_09EEIKOKPI@NVGToggle?$AA@ 100a32f4     player.obj
 0002:0000f300       ??_C@_05ELHBHDGK@Radar?$AA@ 100a3300     player.obj
 0002:0000f308       ??_C@_09BCJOCADI@Spectator?$AA@ 100a3308     player.obj
 0002:0000f314       ??_C@_08NOMGHFLN@VGUIMenu?$AA@ 100a3314     player.obj
 0002:0000f320       ??_C@_09NFGKNDKN@TutorText?$AA@ 100a3320     player.obj
 0002:0000f32c       ??_C@_09IEFOEMIE@TutorLine?$AA@ 100a332c     player.obj
 0002:0000f338       ??_C@_0L@NNKMLMPL@TutorState?$AA@ 100a3338     player.obj
 0002:0000f344       ??_C@_0L@GLHKADJF@TutorClose?$AA@ 100a3344     player.obj
 0002:0000f350       ??_C@_09CPIHBJAO@AllowSpec?$AA@ 100a3350     player.obj
 0002:0000f35c       ??_C@_08EPPFJCMG@BombDrop?$AA@ 100a335c     player.obj
 0002:0000f368       ??_C@_0L@EGMMGJAC@BombPickup?$AA@ 100a3368     player.obj
 0002:0000f374       ??_C@_08FDPMOJNE@ClCorpse?$AA@ 100a3374     player.obj
 0002:0000f380       ??_C@_0L@NMFNKADK@HostagePos?$AA@ 100a3380     player.obj
 0002:0000f38c       ??_C@_08GHHGHDHK@HostageK?$AA@ 100a338c     player.obj
 0002:0000f398       ??_C@_04HMIIAFB@HLTV?$AA@  100a3398     player.obj
 0002:0000f3a0       ??_C@_0L@MPFOIBIP@SpecHealth?$AA@ 100a33a0     player.obj
 0002:0000f3ac       ??_C@_08JBHCECO@ForceCam?$AA@ 100a33ac     player.obj
 0002:0000f3b8       ??_C@_06ODHMGBAN@ADStop?$AA@ 100a33b8     player.obj
 0002:0000f3c0       ??_C@_08FOKOMMML@ReceiveW?$AA@ 100a33c0     player.obj
 0002:0000f3cc       ??_C@_08FALLCOKH@CZCareer?$AA@ 100a33cc     player.obj
 0002:0000f3d8       ??_C@_0M@CLEBDOBF@CZCareerHUD?$AA@ 100a33d8     player.obj
 0002:0000f3e4       ??_C@_09DGCBEHEI@ShadowIdx?$AA@ 100a33e4     player.obj
 0002:0000f3f0       ??_C@_08EGICHIDC@TaskTime?$AA@ 100a33f0     player.obj
 0002:0000f3fc       ??_C@_08CHDKINPP@Scenario?$AA@ 100a33fc     player.obj
 0002:0000f408       ??_C@_08CNPONPJL@BotVoice?$AA@ 100a3408     player.obj
 0002:0000f414       ??_C@_08IMKEIGOM@BuyClose?$AA@ 100a3414     player.obj
 0002:0000f420       ??_C@_0M@JALIJEEB@SpecHealth2?$AA@ 100a3420     player.obj
 0002:0000f42c       ??_C@_08OHDJIMEO@BarTime2?$AA@ 100a342c     player.obj
 0002:0000f438       ??_C@_0L@PGMGIFP@ItemStatus?$AA@ 100a3438     player.obj
 0002:0000f444       ??_C@_08KDOEBHGA@Location?$AA@ 100a3444     player.obj
 0002:0000f450       ??_C@_0M@ENJLMLDE@BotProgress?$AA@ 100a3450     player.obj
 0002:0000f45c       ??_C@_05FOIACKMO@Brass?$AA@ 100a345c     player.obj
 0002:0000f464       ??_C@_03JPDFGHP@Fog?$AA@   100a3464     player.obj
 0002:0000f468       ??_C@_09BAINLHHA@ShowTimer?$AA@ 100a3468     player.obj
 0002:0000f474       ??_C@_0M@PAJCCDGF@HudTextArgs?$AA@ 100a3474     player.obj
 0002:0000f480       ??_C@_05LGDANENA@Empty?$AA@ 100a3480     player.obj
 0002:0000f488       ??_C@_03PINGFGPK@vip?$AA@  100a3488     player.obj
 0002:0000f48c       ??_C@_0M@DJPGBHGM@?$CDGame_radio?$AA@ 100a348c     player.obj
 0002:0000f498       ??_C@_0HD@NDPMKOKK@?$CC?$CFs?$DM?$CFi?$DO?$DM?$CFs?$DO?$DM?$CFs?$DO?$CC?5attacked?5?$CC?$CFs?$DM?$CFi@ 100a3498     player.obj
 0002:0000f50c       ??_C@_0CE@FBOOKCPO@?$CDHint_try_not_to_injure_teamAtta@ 100a350c     player.obj
 0002:0000f530       ??_C@_0BI@OEGCMJAK@?$CDGame_teamAttack_attack?$AA@ 100a3530     player.obj
 0002:0000f548       ??_C@_0BC@EDHONPHK@models?1w_ak47?4mdl?$AA@ 100a3548     player.obj
 0002:0000f55c       ??_C@_0BD@DKBKNFNK@models?1w_galil?4mdl?$AA@ 100a355c     player.obj
 0002:0000f570       ??_C@_0BD@NIBNEAFD@models?1w_famas?4mdl?$AA@ 100a3570     player.obj
 0002:0000f584       ??_C@_0BB@EENMDAHM@models?1w_awp?4mdl?$AA@ 100a3584     player.obj
 0002:0000f598       ??_C@_0BE@NCGPPAKO@models?1w_deagle?4mdl?$AA@ 100a3598     player.obj
 0002:0000f5ac       ??_C@_0BD@CDAKPPNJ@models?1w_g3sg1?4mdl?$AA@ 100a35ac     player.obj
 0002:0000f5c0       ??_C@_0BD@LCBFCOGA@models?1w_sg550?4mdl?$AA@ 100a35c0     player.obj
 0002:0000f5d4       ??_C@_0BF@NDJKFBOO@models?1w_glock18?4mdl?$AA@ 100a35d4     player.obj
 0002:0000f5ec       ??_C@_0BC@NFCJKFPD@models?1w_m249?4mdl?$AA@ 100a35ec     player.obj
 0002:0000f600       ??_C@_0BA@GPKDHOP@models?1w_m3?4mdl?$AA@ 100a3600     player.obj
 0002:0000f610       ??_C@_0BC@IOPIOIAJ@models?1w_m4a1?4mdl?$AA@ 100a3610     player.obj
 0002:0000f624       ??_C@_0BB@IJEBIAGC@models?1w_mp5?4mdl?$AA@ 100a3624     player.obj
 0002:0000f638       ??_C@_0BD@PPNNIPGL@models?1w_sg552?4mdl?$AA@ 100a3638     player.obj
 0002:0000f64c       ??_C@_0BB@MNJABDHG@models?1w_aug?4mdl?$AA@ 100a364c     player.obj
 0002:0000f660       ??_C@_0BB@LDCJMMLD@models?1w_tmp?4mdl?$AA@ 100a3660     player.obj
 0002:0000f674       ??_C@_0BB@EIGCCLLO@models?1w_usp?4mdl?$AA@ 100a3674     player.obj
 0002:0000f688       ??_C@_0BD@KGEGEABC@models?1w_elite?4mdl?$AA@ 100a3688     player.obj
 0002:0000f69c       ??_C@_0BH@OOJEBBJP@models?1w_fiveseven?4mdl?$AA@ 100a369c     player.obj
 0002:0000f6b4       ??_C@_0BB@OPKBAFIB@models?1w_p90?4mdl?$AA@ 100a36b4     player.obj
 0002:0000f6c8       ??_C@_0BD@LNOCICDH@models?1w_ump45?4mdl?$AA@ 100a36c8     player.obj
 0002:0000f6dc       ??_C@_0BD@JPGODIOD@models?1w_mac10?4mdl?$AA@ 100a36dc     player.obj
 0002:0000f6f0       ??_C@_0BC@CACKOGEK@models?1w_p228?4mdl?$AA@ 100a36f0     player.obj
 0002:0000f704       ??_C@_0BD@PLNNKNGB@models?1w_scout?4mdl?$AA@ 100a3704     player.obj
 0002:0000f718       ??_C@_0BD@GGDINFMA@models?1w_knife?4mdl?$AA@ 100a3718     player.obj
 0002:0000f72c       ??_C@_0BE@MNDFAONK@models?1w_xm1014?4mdl?$AA@ 100a372c     player.obj
 0002:0000f740       ??_C@_0BG@HNNICEBI@models?1w_backpack?4mdl?$AA@ 100a3740     player.obj
 0002:0000f758       ??_C@_0EM@DGLCOMNL@CBasePlayer?3?3PackDeadPlayerItems@ 100a3758     player.obj
 0002:0000f7a4       ??_C@_0N@CFAHNHDH@weapon_knife?$AA@ 100a37a4     player.obj
 0002:0000f7b4       ??_C@_07BAIKECCG@buyzone?$AA@ 100a37b4     player.obj
 0002:0000f7bc       ??_C@_0BN@HKMIAPAN@?$CDHint_cannot_play_because_tk?$AA@ 100a37bc     player.obj
 0002:0000f7dc       ??_C@_0L@MLABHCOM@?$CDSpec_Duck?$AA@ 100a37dc     player.obj
 0002:0000f7e8       ??_C@_0L@IJFMLCAO@ref_shoot_?$AA@ 100a37e8     player.obj
 0002:0000f7f4       ??_C@_0M@JKBNGIFN@ref_shoot2_?$AA@ 100a37f4     player.obj
 0002:0000f800       ??_C@_0M@LOACIOAC@ref_reload_?$AA@ 100a3800     player.obj
 0002:0000f80c       ??_C@_08NFEGJCLM@ref_aim_?$AA@ 100a380c     player.obj
 0002:0000f818       ??_C@_0O@KPFFFEDH@crouch_shoot_?$AA@ 100a3818     player.obj
 0002:0000f828       ??_C@_0P@MFDOOJLD@crouch_shoot2_?$AA@ 100a3828     player.obj
 0002:0000f838       ??_C@_0P@OBCBAPOM@crouch_reload_?$AA@ 100a3838     player.obj
 0002:0000f848       ??_C@_0M@GDMFFFFJ@crouch_aim_?$AA@ 100a3848     player.obj
 0002:0000f854       ??_C@_04JJEEEMFC@run_?$AA@ 100a3854     player.obj
 0002:0000f85c       ??_C@_0L@ODIAEHOD@gut_flinch?$AA@ 100a385c     player.obj
 0002:0000f868       ??_C@_0M@HGFPALE@head_flinch?$AA@ 100a3868     player.obj
 0002:0000f874       ??_C@_04GOOOJOPP@left?$AA@ 100a3874     player.obj
 0002:0000f87c       ??_C@_05DHJDAOHK@right?$AA@ 100a387c     player.obj
 0002:0000f884       ??_C@_0L@MHOKLGEC@crouch_die?$AA@ 100a3884     player.obj
 0002:0000f890       ??_C@_0CJ@LMIBGPCH@?$CC?$CFs?$DM?$CFi?$DO?$DM?$CFs?$DO?$DMCT?$DO?$CC?5triggered?5?$CCBeca@ 100a3890     player.obj
 0002:0000f8bc       ??_C@_05HCPOCGIM@kill?6?$AA@ 100a38bc     player.obj
 0002:0000f8c4       ??_C@_0BO@JEKBHMEM@?$CDHint_use_hostage_to_stop_him?$AA@ 100a38c4     player.obj
 0002:0000f8e4       ??_C@_0CD@CEIOEIJM@?$CDHint_lead_hostage_to_rescue_poi@ 100a38e4     player.obj
 0002:0000f908       ??_C@_09IPNAMHEE@?$CDCant_buy?$AA@ 100a3908     player.obj
 0002:0000f914       ??_C@_0O@BOHLNEKK@?$CDVIP_cant_buy?$AA@ 100a3914     player.obj
 0002:0000f924       ??_C@_0N@IMIEOCJI@?$CDCT_cant_buy?$AA@ 100a3924     player.obj
 0002:0000f934       ??_C@_0BE@GNPNCGCH@?$CDTerrorist_cant_buy?$AA@ 100a3934     player.obj
 0002:0000f948       ??_C@_0BI@CHIIMIDI@1?5?$CFc1?3?5?$CFp2?62?5?5?$CFh?3?5?$CFi3?$CF?$CF?$AA@ 100a3948     player.obj
 0002:0000f960       ??_C@_0BH@ELFLMEAB@?$CDHint_spotted_a_friend?$AA@ 100a3960     player.obj
 0002:0000f978       ??_C@_0L@OAJKHPKP@1?5?$CFc1?3?5?$CFp2?$AA@ 100a3978     player.obj
 0002:0000f984       ??_C@_0BH@GOBOELBF@?$CDHint_spotted_an_enemy?$AA@ 100a3984     player.obj
 0002:0000f99c       ??_C@_0BB@PCBAEAIC@1?5?$CFc1?5?5?$CFh?3?5?$CFi3?$CF?$CF?$AA@ 100a399c     player.obj
 0002:0000f9b0       ??_C@_0BN@ELILADHL@?$CDHint_prevent_hostage_rescue?$AA@ 100a39b0     player.obj
 0002:0000f9d0       ??_C@_0BK@LPLNANKI@?$CDHint_rescue_the_hostages?$AA@ 100a39d0     player.obj
 0002:0000f9ec       ??_C@_0CH@GHNDHBLG@?$CDHint_press_use_so_hostage_will_@ 100a39ec     player.obj
 0002:0000fa14       ??_C@_0DE@OPDIPKJJ@?$CC?$CFs?$DM?$CFi?$DO?$DM?$CFs?$DO?$DM?$CFs?$DO?$CC?5triggered?5?$CCGame@ 100a3a14     player.obj
 0002:0000fa48       ??_C@_0BA@JEMIEDIB@?$CDGame_idle_kick?$AA@ 100a3a48     player.obj
 0002:0000fa58       ??_C@_08CKHMKINC@kick?5?$CFs?6?$AA@ 100a3a58     player.obj
 0002:0000fa64       ??_C@_0BM@LNFNOFCI@?$CDHint_press_buy_to_purchase?$AA@ 100a3a64     player.obj
 0002:0000fa80       ??_C@_0BN@DEDLJHDB@Client?5lost?5reserved?5sound?$CB?6?$AA@ 100a3a80     player.obj
 0002:0000faa0       ??_C@_0BB@HKBBLLCA@info_player_coop?$AA@ 100a3aa0     player.obj
 0002:0000fab4       ??_C@_0P@CILCMIAB@info_vip_start?$AA@ 100a3ab4     player.obj
 0002:0000fac4       ??_C@_0DB@JJPGFIEH@PutClientInServer?3?5no?5info_playe@ 100a3ac4     player.obj
 0002:0000faf8       ??_C@_02IPDCJINO@hl?$AA@   100a3af8     player.obj
 0002:0000fafc       ??_C@_0BB@KLBOFLEC@models?1v_awp?4mdl?$AA@ 100a3afc     player.obj
 0002:0000fb10       ??_C@_0BD@LIKPLDLG@models?1v_g3sg1?4mdl?$AA@ 100a3b10     player.obj
 0002:0000fb24       ??_C@_0BD@GAHIOBAO@models?1v_scout?4mdl?$AA@ 100a3b24     player.obj
 0002:0000fb38       ??_C@_0BD@CJLAGCAP@models?1v_sg550?4mdl?$AA@ 100a3b38     player.obj
 0002:0000fb4c       ??_C@_0CD@CNGHKPLI@Couldn?8t?5alloc?5player?5sound?5slot@ 100a3b4c     player.obj
 0002:0000fb70       ??_C@_0BG@NOGLILFL@?$CDHint_you_are_the_vip?$AA@ 100a3b70     player.obj
 0002:0000fb88       ??_C@_0CA@IKGCJJA@?$CK?$CKGraph?5pointers?5were?5not?5set?$CB?6?$AA@ 100a3b88     player.obj
 0002:0000fba8       ??_C@_0BH@LIPNFKDF@?$CK?$CKGraph?5Pointers?5Set?$CB?6?$AA@ 100a3ba8     player.obj
 0002:0000fbc0       ??_C@_06BEJGECAN@PLAYER?$AA@ 100a3bc0     player.obj
 0002:0000fbc8       ??_C@_0BA@PAIIGCLL@No?5Landmark?3?$CFs?6?$AA@ 100a3bc8     player.obj
 0002:0000fbdc       ??_7CSprayCan@@6B@         100a3bdc     player.obj
 0002:0000fcc8       ??_7CBloodSplat@@6B@       100a3cc8     player.obj
 0002:0000fdb0       ??_C@_0BL@INAPDPE@NULL?5Ent?5in?5GiveNamedItem?$CB?$AA@ 100a3db0     player.obj
 0002:0000fdcc       ??_C@_0BM@LPABGAPK@?$CDHint_you_are_in_targetzone?$AA@ 100a3dcc     player.obj
 0002:0000fde8       ??_C@_06JMAMIIMB@rescue?$AA@ 100a3de8     player.obj
 0002:0000fdf0       ??_C@_0BK@ICDCIMLG@?$CDHint_hostage_rescue_zone?$AA@ 100a3df0     player.obj
 0002:0000fe0c       ??_C@_06CHNIFGOF@escape?$AA@ 100a3e0c     player.obj
 0002:0000fe14       ??_C@_0BM@FJAGHPIH@?$CDHint_terrorist_escape_zone?$AA@ 100a3e14     player.obj
 0002:0000fe30       ??_C@_09BCBFFFJP@vipsafety?$AA@ 100a3e30     player.obj
 0002:0000fe3c       ??_C@_0BC@IMFNDACG@?$CDHint_ct_vip_zone?$AA@ 100a3e3c     player.obj
 0002:0000fe50       ??_C@_0BJ@INEAPFEO@?$CDHint_terrorist_vip_zone?$AA@ 100a3e50     player.obj
 0002:0000fe6c       ??_C@_04GIGGPADC@Logo?$AA@ 100a3e6c     player.obj
 0002:0000fe74       ??_C@_0BE@MKHPBDMI@monster_human_grunt?$AA@ 100a3e74     player.obj
 0002:0000fe88       ??_C@_0CM@PIPFIJLA@You?5must?5now?5restart?5to?5use?5Grun@ 100a3e88     player.obj
 0002:0000feb4       ??_C@_0BK@KBNHHGAJ@Crediting?5?$CFs?5with?5$16000?6?$AA@ 100a3eb4     player.obj
 0002:0000fed0       ??_C@_0BD@PLCKGGAM@Player?5is?5audible?6?$AA@ 100a3ed0     player.obj
 0002:0000fee4       ??_C@_0BC@BDDKBFNJ@Player?5is?5silent?6?$AA@ 100a3ee4     player.obj
 0002:0000fef8       ??_C@_0O@FBDPFEB@Classname?3?5?$CFs?$AA@ 100a3ef8     player.obj
 0002:0000ff08       ??_C@_0BD@KLNJJDIG@?5?9?5Targetname?3?5?$CFs?6?$AA@ 100a3f08     player.obj
 0002:0000ff1c       ??_C@_0BO@DLIJLDDF@?5?9?5TargetName?3?5No?5Targetname?6?$AA@ 100a3f1c     player.obj
 0002:0000ff3c       ??_C@_0L@CDEOHHKA@Model?3?5?$CFs?6?$AA@ 100a3f3c     player.obj
 0002:0000ff48       ??_C@_0BA@NDBFDLDM@Globalname?3?5?$CFs?6?$AA@ 100a3f48     player.obj
 0002:0000ff58       ??_C@_0N@OAFBHAKD@Texture?3?5?$CFs?6?$AA@ 100a3f58     player.obj
 0002:0000ff68       ??_C@_0BA@NLCNMBCE@node_viewer_fly?$AA@ 100a3f68     player.obj
 0002:0000ff78       ??_C@_0BC@MGJDOKDM@node_viewer_large?$AA@ 100a3f78     player.obj
 0002:0000ff8c       ??_C@_0BC@CHGBHLNI@node_viewer_human?$AA@ 100a3f8c     player.obj
 0002:0000ffa0       ??_C@_03PMGGPEJJ@?$CFd?6?$AA@ 100a3fa0     player.obj
 0002:0000ffa4       ??_C@_08EPDFHEP@env_rain?$AA@ 100a3fa4     player.obj
 0002:0000ffb0       ??_C@_09EEKPKOLI@func_rain?$AA@ 100a3fb0     player.obj
 0002:0000ffbc       ??_C@_08POHNLLAD@env_snow?$AA@ 100a3fbc     player.obj
 0002:0000ffc8       ??_C@_09LOCBECPE@func_snow?$AA@ 100a3fc8     player.obj
 0002:0000ffd4       ??_C@_07MJBNNGJF@env_fog?$AA@ 100a3fd4     player.obj
 0002:0000ffdc       ??_C@_0BA@BEAIFEPH@game_playerjoin?$AA@ 100a3fdc     player.obj
 0002:0000ffec       ??_C@_0BB@MIJJMKNC@game_playerspawn?$AA@ 100a3fec     player.obj
 0002:00010000       ??_C@_0BC@FGMHPGAA@?$CDHint_out_of_ammo?$AA@ 100a4000     player.obj
 0002:00010014       ??_C@_0BK@FJHDPDPN@?$CDWeapon_Cannot_Be_Dropped?$AA@ 100a4014     player.obj
 0002:00010030       ??_C@_0DG@BHEJMFLH@?$CC?$CFs?$DM?$CFi?$DO?$DM?$CFs?$DO?$DMTERRORIST?$DO?$CC?5triggere@ 100a4030     player.obj
 0002:00010068       ??_C@_0BA@ECBEGNAK@?$CDGame_bomb_drop?$AA@ 100a4068     player.obj
 0002:00010078       ??_C@_0BK@IFFDPEPM@?$CDGame_join_terrorist_auto?$AA@ 100a4078     player.obj
 0002:00010094       ??_C@_0BD@OKGLGGJE@?$CDGame_join_ct_auto?$AA@ 100a4094     player.obj
 0002:000100a8       ??_C@_0CK@KMOCKGIO@?$CC?$CFs?$DM?$CFi?$DO?$DM?$CFs?$DO?$DM?$CFs?$DO?$CC?5joined?5team?5?$CC?$CFs@ 100a40a8     player.obj
 0002:000100d8       ??_7CDeadHEV@@6B@          100a40d8     player.obj
 0002:00010208       ??_C@_04ONHHEGJD@pose?$AA@ 100a4208     player.obj
 0002:00010210       ??_C@_0BM@PLPGECIG@Dead?5hevsuit?5with?5bad?5pose?6?$AA@ 100a4210     player.obj
 0002:00010230       ??_7CStripWeapons@@6B@     100a4230     player.obj
 0002:0001031c       ??_7CRevertSaved@@6B@      100a431c     player.obj
 0002:00010404       ??_C@_0N@DFGPJFJM@CRevertSaved?$AA@ 100a4404     player.obj
 0002:00010414       ??_C@_0M@NPJENKDH@messagetime?$AA@ 100a4414     player.obj
 0002:00010420       ??_C@_08GDHBIPM@loadtime?$AA@ 100a4420     player.obj
 0002:00010430       ??_7CInfoIntermission@@6B@ 100a4430     player.obj
 0002:00010518       ??_C@_0BC@DOINDOAB@_cl_autowepswitch?$AA@ 100a4518     player.obj
 0002:0001052c       ??_C@_0M@CHANDLAH@_vgui_menus?$AA@ 100a452c     player.obj
 0002:00010538       ??_C@_03KJOEHPKP@_ah?$AA@  100a4538     player.obj
 0002:0001053c       ??_C@_0O@KKIEACDH@primaryWeapon?$AA@ 100a453c     player.obj
 0002:0001054c       ??_C@_0M@MDNOFGAN@primaryAmmo?$AA@ 100a454c     player.obj
 0002:00010558       ??_C@_0BA@PGLOMEDP@secondaryWeapon?$AA@ 100a4558     player.obj
 0002:00010568       ??_C@_0O@LMPJANJE@secondaryAmmo?$AA@ 100a4568     player.obj
 0002:00010578       ??_C@_09FHCANJKL@flashbang?$AA@ 100a4578     player.obj
 0002:00010584       ??_C@_0N@LGLLMOFO@smokegrenade?$AA@ 100a4584     player.obj
 0002:00010594       ??_C@_05JJEJIJLL@armor?$AA@ 100a4594     player.obj
 0002:0001059c       __real@3ea8f5c3            100a459c     player.obj
 0002:000105a0       __real@3f2b851f            100a45a0     player.obj
 0002:000105a4       __real@3f400000            100a45a4     player.obj
 0002:000105a8       __real@3fd51eb851eb851f    100a45a8     player.obj
 0002:000105b0       __real@3ff0cccccccccccd    100a45b0     player.obj
 0002:000105b8       __real@3ff3333333333333    100a45b8     player.obj
 0002:000105c0       __real@3ff7333333333333    100a45c0     player.obj
 0002:000105c8       __real@3ff8cccccccccccd    100a45c8     player.obj
 0002:000105d0       __real@3ffa666666666666    100a45d0     player.obj
 0002:000105d8       __real@3ffb333333333333    100a45d8     player.obj
 0002:000105e0       __real@3fff333333333333    100a45e0     player.obj
 0002:000105e8       __real@4006000000000000    100a45e8     player.obj
 0002:000105f0       __real@4046800000000000    100a45f0     player.obj
 0002:000105f8       __real@4056800000000000    100a45f8     player.obj
 0002:00010600       __real@4060000000000000    100a4600     player.obj
 0002:00010608       __real@41100000            100a4608     player.obj
 0002:0001060c       __real@42180000            100a460c     player.obj
 0002:00010610       __real@42340000            100a4610     player.obj
 0002:00010614       __real@43070000            100a4614     player.obj
 0002:00010618       __real@432a0000            100a4618     player.obj
 0002:0001061c       __real@43630000            100a461c     player.obj
 0002:00010620       __real@43700000            100a4620     player.obj
 0002:00010624       __real@450fc000            100a4624     player.obj
 0002:00010628       __real@46000000            100a4628     player.obj
 0002:00010630       __real@bfe0000000000000    100a4630     player.obj
 0002:00010638       __real@bff0000000000000    100a4638     player.obj
 0002:00010640       __real@c0800000            100a4640     player.obj
 0002:00010644       __real@c1100000            100a4644     player.obj
 0002:00010648       __real@c1400000            100a4648     player.obj
 0002:0001064c       __real@c2340000            100a464c     player.obj
 0002:00010650       __real@c2b40000            100a4650     player.obj
 0002:00010654       __real@c2f00000            100a4654     player.obj
 0002:00010658       __real@c60ca000            100a4658     player.obj
 0002:00010660       __xmm@ffffffffffffffffffffffffffffffff 100a4660     player.obj
 0002:00010670       ??_C@_08LPEJFCFP@m_preset?$AA@ 100a4670     sound.obj
 0002:0001067c       ??_C@_09ONJFEJGN@m_fActive?$AA@ 100a467c     sound.obj
 0002:00010688       ??_C@_0L@EFDJKFOK@m_fLooping?$AA@ 100a4688     sound.obj
 0002:00010694       ??_C@_05NJMEMMLG@m_dpv?$AA@ 100a4694     sound.obj
 0002:0001069c       ??_C@_0L@OEEMMINI@m_flRadius?$AA@ 100a469c     sound.obj
 0002:000106a8       ??_C@_0N@EOOENLGB@m_flRoomtype?$AA@ 100a46a8     sound.obj
 0002:000106bc       ??_7CAmbientGeneric@@6B@   100a46bc     sound.obj
 0002:000107a4       ??_C@_0BA@JFHJJCNE@CAmbientGeneric?$AA@ 100a47a4     sound.obj
 0002:000107b4       ??_C@_0BO@MMKAKBAC@EMPTY?5AMBIENT?5AT?3?5?$CFf?0?5?$CFf?0?5?$CFf?6?$AA@ 100a47b4     sound.obj
 0002:000107d4       ??_C@_06OFAGBOBG@preset?$AA@ 100a47d4     sound.obj
 0002:000107dc       ??_C@_0L@BCICKNJD@pitchstart?$AA@ 100a47dc     sound.obj
 0002:000107e8       ??_C@_06IGOPKBLH@spinup?$AA@ 100a47e8     sound.obj
 0002:000107f0       ??_C@_08PFGPOMOJ@spindown?$AA@ 100a47f0     sound.obj
 0002:000107fc       ??_C@_08MBMKGMEC@volstart?$AA@ 100a47fc     sound.obj
 0002:00010808       ??_C@_07FKEDAPJJ@lfotype?$AA@ 100a4808     sound.obj
 0002:00010810       ??_C@_07EHKHCNJF@lforate?$AA@ 100a4810     sound.obj
 0002:00010818       ??_C@_0M@HGAJBMGN@lfomodpitch?$AA@ 100a4818     sound.obj
 0002:00010824       ??_C@_09EKPKCPJP@lfomodvol?$AA@ 100a4824     sound.obj
 0002:00010830       ??_C@_07CAMFAGPI@cspinup?$AA@ 100a4830     sound.obj
 0002:0001083c       ??_7CEnvSound@@6B@         100a483c     sound.obj
 0002:00010924       ??_C@_09DJGFLIBI@CEnvSound?$AA@ 100a4924     sound.obj
 0002:00010930       ??_C@_08FBOCMMDG@roomtype?$AA@ 100a4930     sound.obj
 0002:0001093c       ??_C@_0BL@PDIDECJC@No?5such?5sentence?5group?5?$CFs?6?$AA@ 100a493c     sound.obj
 0002:00010958       ??_C@_0BE@LOFIHEDB@sound?1sentences?4txt?$AA@ 100a4958     sound.obj
 0002:0001096c       ??_C@_0CG@HMGILMJN@Too?5many?5sentences?5in?5sentences?4@ 100a496c     sound.obj
 0002:00010994       ??_C@_0CE@OLECIHDE@Sentence?5?$CFs?5longer?5than?5?$CFd?5lette@ 100a4994     sound.obj
 0002:000109b8       ??_C@_0CM@HHCLKDCI@Too?5many?5sentence?5groups?5in?5sent@ 100a49b8     sound.obj
 0002:000109e4       ??_C@_0CE@LFNOEBKB@Unable?5to?5find?5?$CFs?5in?5sentences?4t@ 100a49e4     sound.obj
 0002:00010a08       ??_C@_0L@BFLOMJEF@suitvolume?$AA@ 100a4a08     sound.obj
 0002:00010a14       ??_C@_0BE@FMMHIEKK@debris?1pl_snow1?4wav?$AA@ 100a4a14     sound.obj
 0002:00010a28       ??_C@_0BE@NKFDPGAE@debris?1pl_snow2?4wav?$AA@ 100a4a28     sound.obj
 0002:00010a3c       ??_C@_0BE@BBAPCFKB@debris?1pl_snow3?4wav?$AA@ 100a4a3c     sound.obj
 0002:00010a50       ??_C@_0BI@EOPFENC@weapons?1bullet_hit1?4wav?$AA@ 100a4a50     sound.obj
 0002:00010a68       ??_C@_0BI@ICHLCGHM@weapons?1bullet_hit2?4wav?$AA@ 100a4a68     sound.obj
 0002:00010a84       ??_7CSpeaker@@6B@          100a4a84     sound.obj
 0002:00010b6c       ??_C@_08IKHBFCDE@CSpeaker?$AA@ 100a4b6c     sound.obj
 0002:00010b78       ??_C@_0DA@IIMJMCCG@SPEAKER?5with?5no?5Level?1Sentence?$CB?5@ 100a4b78     sound.obj
 0002:00010ba8       ??_C@_05GBFACMPL@C1A0_?$AA@ 100a4ba8     sound.obj
 0002:00010bb0       ??_C@_05GAJCEGMM@C1A1_?$AA@ 100a4bb0     sound.obj
 0002:00010bb8       ??_C@_05GCNEPIJF@C1A2_?$AA@ 100a4bb8     sound.obj
 0002:00010bc0       ??_C@_05GDBGJCKC@C1A3_?$AA@ 100a4bc0     sound.obj
 0002:00010bc8       ??_C@_05GGFJIECH@C1A4_?$AA@ 100a4bc8     sound.obj
 0002:00010bd0       ??_C@_05CHDCDMBM@C2A1_?$AA@ 100a4bd0     sound.obj
 0002:00010bd8       ??_C@_05CFHEICEF@C2A2_?$AA@ 100a4bd8     sound.obj
 0002:00010be0       ??_C@_05CELGOIHC@C2A3_?$AA@ 100a4be0     sound.obj
 0002:00010be8       ??_C@_05CBPJPOPH@C2A4_?$AA@ 100a4be8     sound.obj
 0002:00010bf0       ??_C@_05CADLJEMA@C2A5_?$AA@ 100a4bf0     sound.obj
 0002:00010bf8       ??_C@_05BKFCBFKM@C3A1_?$AA@ 100a4bf8     sound.obj
 0002:00010c00       ??_C@_05BIBEKLPF@C3A2_?$AA@ 100a4c00     sound.obj
 0002:00010c08       ??_C@_0DN@IIPINGFH@Level?5Design?5Error?$CB?6SPEAKER?5has?5@ 100a4c08     sound.obj
 0002:00010c48       __real@3c23d70a            100a4c48     sound.obj
 0002:00010c50       ??_7CSoundEnt@@6B@         100a4c50     soundent.obj
 0002:00010d38       ??_C@_0BJ@GDOOKBDM@Soundlist?3?5?$CFd?5?1?5?$CFd?5?$CI?$CFd?$CJ?6?$AA@ 100a4d38     soundent.obj
 0002:00010d54       ??_C@_0BK@DPDJHKOE@Free?5Sound?5List?5is?5full?$CB?6?$AA@ 100a4d54     soundent.obj
 0002:00010d70       ??_C@_0DA@OFDMIPGM@Could?5not?5AllocSound?$CI?$CJ?5for?5Inser@ 100a4d70     soundent.obj
 0002:00010da0       ??_C@_0DC@IFEGGAIA@Could?5not?5AllocSound?$CI?$CJ?5for?5Clien@ 100a4da0     soundent.obj
 0002:00010dd4       ??_C@_0BK@LFGFIJLI@Unknown?5Sound?5List?5Type?$CB?6?$AA@ 100a4dd4     soundent.obj
 0002:00010df0       ??_C@_0CL@BJLOCJEP@SoundPointerForIndex?$CI?$CJ?5?9?5Index?5t@ 100a4df0     soundent.obj
 0002:00010e1c       ??_C@_0CF@INAIIKML@SoundPointerForIndex?$CI?$CJ?5?9?5Index?5?$DM@ 100a4e1c     soundent.obj
 0002:00010e44       ??_C@_0BO@HEFLNGKF@Could?5not?5find?5a?5spawn?5spot?4?6?$AA@ 100a4e44     spectator.obj
 0002:00010e64       ??_C@_0BL@IGDIAIEK@Unknown?5spectator?5impulse?6?$AA@ 100a4e64     spectator.obj
 0002:00010e80       ??_C@_0BA@MDIAPLEP@m_iszKillTarget?$AA@ 100a4e80     subs.obj
 0002:00010e90       ??_C@_0P@DDBBHOBM@m_toggle_state?$AA@ 100a4e90     subs.obj
 0002:00010ea0       ??_C@_0BF@PMOCPINK@m_flActivateFinished?$AA@ 100a4ea0     subs.obj
 0002:00010eb8       ??_C@_0BB@HKHDNHJB@m_flMoveDistance?$AA@ 100a4eb8     subs.obj
 0002:00010ecc       ??_C@_07DPDKBEHF@m_flLip?$AA@ 100a4ecc     subs.obj
 0002:00010ed4       ??_C@_0L@PHLBKEJD@m_flTWidth?$AA@ 100a4ed4     subs.obj
 0002:00010ee0       ??_C@_0M@MLOOCAHO@m_flTLength?$AA@ 100a4ee0     subs.obj
 0002:00010eec       ??_C@_0P@GBKKPHLK@m_vecPosition1?$AA@ 100a4eec     subs.obj
 0002:00010efc       ??_C@_0P@EKIHKEHJ@m_vecPosition2?$AA@ 100a4efc     subs.obj
 0002:00010f0c       ??_C@_0M@GIHHBGIA@m_vecAngle1?$AA@ 100a4f0c     subs.obj
 0002:00010f18       ??_C@_0M@EDFKEFED@m_vecAngle2?$AA@ 100a4f18     subs.obj
 0002:00010f24       ??_C@_0BA@NALIEGNH@m_cTriggersLeft?$AA@ 100a4f24     subs.obj
 0002:00010f34       ??_C@_0L@PPIDFMCI@m_flHeight?$AA@ 100a4f34     subs.obj
 0002:00010f40       ??_C@_0N@PMPIOGHN@m_hActivator?$AA@ 100a4f40     subs.obj
 0002:00010f50       ??_C@_0BG@DKNHFGIO@m_pfnCallWhenMoveDone?$AA@ 100a4f50     subs.obj
 0002:00010f68       ??_C@_0P@MMMIBFEG@m_vecFinalDest?$AA@ 100a4f68     subs.obj
 0002:00010f78       ??_C@_0BA@GNKKCBPA@m_vecFinalAngle?$AA@ 100a4f78     subs.obj
 0002:00010f88       ??_C@_09FIBGHHLA@m_sMaster?$AA@ 100a4f88     subs.obj
 0002:00010f94       ??_C@_0BE@DJFAIBNP@m_bitsDamageInflict?$AA@ 100a4f94     subs.obj
 0002:00010fac       ??_7CNullEntity@@6B@       100a4fac     subs.obj
 0002:00011098       ??_7CBaseDMStart@@6B@      100a5098     subs.obj
 0002:00011180       ??_C@_0CN@KIJHINND@SUB_Remove?5called?5on?5entity?5with@ 100a5180     subs.obj
 0002:000111b0       ??_C@_0L@PCNHBNOC@CBaseDelay?$AA@ 100a51b0     subs.obj
 0002:000111bc       ??_C@_05EKJCMADO@delay?$AA@ 100a51bc     subs.obj
 0002:000111c4       ??_C@_0O@IHAKEOCA@Firing?3?5?$CI?$CFs?$CJ?6?$AA@ 100a51c4     subs.obj
 0002:000111d4       ??_C@_0BI@LEHGBIAF@Found?3?5?$CFs?0?5firing?5?$CI?$CFs?$CJ?6?$AA@ 100a51d4     subs.obj
 0002:000111ec       ??_C@_0L@JMKEFFDI@DelayedUse?$AA@ 100a51ec     subs.obj
 0002:000111f8       ??_C@_0BA@NKONOHCE@KillTarget?3?5?$CFs?6?$AA@ 100a51f8     subs.obj
 0002:00011208       ??_C@_0M@HMFGDCCE@killing?5?$CFs?6?$AA@ 100a5208     subs.obj
 0002:00011214       ??_C@_0M@NIGPHLFF@CBaseToggle?$AA@ 100a5214     subs.obj
 0002:00011224       ??_7CHalfLifeTraining@@6B@ 100a5224     training_gamerules.obj
 0002:0001133c       ??_C@_0BH@BOHLGHCG@models?1w_weaponbox?4mdl?$AA@ 100a533c     training_gamerules.obj
 0002:00011354       ??_C@_02MJEIOGID@C4?$AA@   100a5354     training_gamerules.obj
 0002:00011358       ??_C@_0M@JMFCGDH@m_szMapName?$AA@ 100a5358     triggers.obj
 0002:00011364       ??_C@_0BB@OEJKNEJK@m_szLandmarkName?$AA@ 100a5364     triggers.obj
 0002:00011378       ??_C@_0P@LAAHPPAE@m_changeTarget?$AA@ 100a5378     triggers.obj
 0002:00011388       ??_C@_0BE@MJAMIDFI@m_changeTargetDelay?$AA@ 100a5388     triggers.obj
 0002:0001139c       ??_C@_0BC@FEOEFFDK@m_NeedGrenadeType?$AA@ 100a539c     triggers.obj
 0002:000113b0       ??_C@_0BB@OMKIACBM@m_fSmokeTouching?$AA@ 100a53b0     triggers.obj
 0002:000113c4       ??_C@_0BA@EOBOILDP@m_fFlashTouched?$AA@ 100a53c4     triggers.obj
 0002:000113d4       ??_C@_0BC@GLPKFILN@sTriggerOnGrenade?$AA@ 100a53d4     triggers.obj
 0002:000113e8       ??_C@_0BC@BMLDCFMG@sDisableOnGrenade?$AA@ 100a53e8     triggers.obj
 0002:000113fc       ??_C@_0BC@DFBLDABH@sTriggerWithItems?$AA@ 100a53fc     triggers.obj
 0002:00011410       ??_C@_0BA@ICNPDDBK@sTriggerNoItems?$AA@ 100a5410     triggers.obj
 0002:00011420       ??_C@_0L@MFDOEJMP@iItemCount?$AA@ 100a5420     triggers.obj
 0002:0001142c       ??_C@_07FHEMMBMI@sMaster?$AA@ 100a542c     triggers.obj
 0002:00011434       ??_C@_09KBIENDN@sItemName?$AA@ 100a5434     triggers.obj
 0002:00011440       ??_C@_0L@CAPECHDI@iAnyWeapon?$AA@ 100a5440     triggers.obj
 0002:0001144c       ??_C@_0P@CFDAIOFP@m_iszNewTarget?$AA@ 100a544c     triggers.obj
 0002:0001145c       ??_C@_0BD@ICIHMOEA@m_frictionFraction?$AA@ 100a545c     triggers.obj
 0002:00011470       ??_C@_09CLBKKICC@m_hPlayer?$AA@ 100a5470     triggers.obj
 0002:0001147c       ??_C@_09KCBHPFJH@m_hTarget?$AA@ 100a547c     triggers.obj
 0002:00011488       ??_C@_0L@CBOACDAC@m_pentPath?$AA@ 100a5488     triggers.obj
 0002:00011494       ??_C@_07MMENANED@m_sPath?$AA@ 100a5494     triggers.obj
 0002:0001149c       ??_C@_0P@KABPIPFB@m_flReturnTime?$AA@ 100a549c     triggers.obj
 0002:000114ac       ??_C@_0N@ECCALLKC@m_flStopTime?$AA@ 100a54ac     triggers.obj
 0002:000114bc       ??_C@_0P@PJJKPCON@m_moveDistance?$AA@ 100a54bc     triggers.obj
 0002:000114cc       ??_C@_0O@PHKALBJN@m_targetSpeed?$AA@ 100a54cc     triggers.obj
 0002:000114dc       ??_C@_0P@OLJHNNOH@m_initialSpeed?$AA@ 100a54dc     triggers.obj
 0002:000114ec       ??_C@_0P@PNFIMDJC@m_acceleration?$AA@ 100a54ec     triggers.obj
 0002:000114fc       ??_C@_0P@PEKNFGB@m_deceleration?$AA@ 100a54fc     triggers.obj
 0002:0001150c       ??_C@_0M@MCENLMHL@triggerType?$AA@ 100a550c     triggers.obj
 0002:00011518       ??_C@_0L@OIIOKFPK@m_cTargets?$AA@ 100a5518     triggers.obj
 0002:00011524       ??_C@_07BAOJABHN@m_index?$AA@ 100a5524     triggers.obj
 0002:0001152c       ??_C@_0M@ENJNOJDF@m_startTime?$AA@ 100a552c     triggers.obj
 0002:00011538       ??_C@_0O@JLKNDME@m_iTargetName?$AA@ 100a5538     triggers.obj
 0002:00011548       ??_C@_0BA@POLOKLBB@m_flTargetDelay?$AA@ 100a5548     triggers.obj
 0002:0001155c       ??_7CClientFog@@6B@        100a555c     triggers.obj
 0002:00011648       ??_7CBaseGrenCatch@@6B@    100a5648     triggers.obj
 0002:00011730       ??_C@_0P@DNIIFPCK@CBaseGrenCatch?$AA@ 100a5730     triggers.obj
 0002:00011740       ??_C@_05JNGEMOLJ@smoke?$AA@ 100a5740     triggers.obj
 0002:00011748       ??_C@_0BB@HOGIHMBL@triggerongrenade?$AA@ 100a5748     triggers.obj
 0002:0001175c       ??_C@_0BB@JCBABGA@disableongrenade?$AA@ 100a575c     triggers.obj
 0002:00011770       ??_C@_0M@LAFOMKLG@grenadetype?$AA@ 100a5770     triggers.obj
 0002:00011780       ??_7CFuncWeaponCheck@@6B@  100a5780     triggers.obj
 0002:00011868       ??_C@_0BB@BBMNIDJF@CFuncWeaponCheck?$AA@ 100a5868     triggers.obj
 0002:0001187c       ??_C@_0O@LOFABPDA@trigger_items?$AA@ 100a587c     triggers.obj
 0002:0001188c       ??_C@_0BA@BGAPALPG@trigger_noitems?$AA@ 100a588c     triggers.obj
 0002:0001189c       ??_C@_0BG@CFOBADLN@trigger_noitems_delay?$AA@ 100a589c     triggers.obj
 0002:000118b4       ??_C@_04NHONDGDE@item?$AA@ 100a58b4     triggers.obj
 0002:000118bc       ??_C@_0L@BMGEODNF@any_weapon?$AA@ 100a58bc     triggers.obj
 0002:000118cc       ??_7CFrictionModifier@@6B@ 100a58cc     triggers.obj
 0002:000119b4       ??_C@_0BC@BIECHPAG@CFrictionModifier?$AA@ 100a59b4     triggers.obj
 0002:000119c8       ??_C@_08OOFKCBAK@modifier?$AA@ 100a59c8     triggers.obj
 0002:000119d8       ??_7CAutoTrigger@@6B@      100a59d8     triggers.obj
 0002:00011ac0       ??_C@_0N@PDJBDOFF@CAutoTrigger?$AA@ 100a5ac0     triggers.obj
 0002:00011ad4       ??_7CTriggerRelay@@6B@     100a5ad4     triggers.obj
 0002:00011bbc       ??_C@_0O@HAOFIEI@CTriggerRelay?$AA@ 100a5bbc     triggers.obj
 0002:00011bd0       ??_7CMultiManager@@6B@     100a5bd0     triggers.obj
 0002:00011cbc       ??_C@_0O@PMGJDIHO@CMultiManager?$AA@ 100a5cbc     triggers.obj
 0002:00011cd0       ??_7CRenderFxManager@@6B@  100a5cd0     triggers.obj
 0002:00011dbc       ??_7CBaseTrigger@@6B@      100a5dbc     triggers.obj
 0002:00011ea8       ??_C@_05IOMEMJEC@count?$AA@ 100a5ea8     triggers.obj
 0002:00011eb0       ??_C@_0L@LLALLABI@damagetype?$AA@ 100a5eb0     triggers.obj
 0002:00011ec0       ??_7CTriggerHurt@@6B@      100a5ec0     triggers.obj
 0002:00011fb0       ??_7CTriggerMonsterJump@@6B@ 100a5fb0     triggers.obj
 0002:000120a0       ??_7CTriggerCDAudio@@6B@   100a60a0     triggers.obj
 0002:0001218c       ??_C@_0CI@NHDNLIHJ@TriggerCDAudio?5?9?5Track?5?$CFd?5out?5of@ 100a618c     triggers.obj
 0002:000121b4       ??_C@_09NNHBHFM@cd?5pause?6?$AA@ 100a61b4     triggers.obj
 0002:000121c0       ??_C@_0N@JOPHGMMD@cd?5play?5?$CF3d?6?$AA@ 100a61c0     triggers.obj
 0002:000121d4       ??_7CTargetCDAudio@@6B@    100a61d4     triggers.obj
 0002:000122c0       ??_7CTriggerMultiple@@6B@  100a62c0     triggers.obj
 0002:000123b0       ??_7CTriggerOnce@@6B@      100a63b0     triggers.obj
 0002:0001249c       ??_C@_0O@PMMEMIKJ@func_pushable?$AA@ 100a649c     triggers.obj
 0002:000124ac       ??_C@_0P@PJIBKDFE@trigger_secret?$AA@ 100a64ac     triggers.obj
 0002:000124bc       ??_C@_0BF@NLFDDHAG@Only?51?5more?5to?5go?4?4?4?$AA@ 100a64bc     triggers.obj
 0002:000124d4       ??_C@_0BF@PCJLIDPE@Only?52?5more?5to?5go?4?4?4?$AA@ 100a64d4     triggers.obj
 0002:000124ec       ??_C@_0BF@FMPDBCGF@Only?53?5more?5to?5go?4?4?4?$AA@ 100a64ec     triggers.obj
 0002:00012504       ??_C@_0BI@FHBGPHNJ@There?5are?5more?5to?5go?4?4?4?$AA@ 100a6504     triggers.obj
 0002:0001251c       ??_C@_0BE@EBPNPHOF@Sequence?5completed?$CB?$AA@ 100a651c     triggers.obj
 0002:00012534       ??_7CTriggerCounter@@6B@   100a6534     triggers.obj
 0002:00012624       ??_7CTriggerVolume@@6B@    100a6624     triggers.obj
 0002:00012710       ??_7CFireAndDie@@6B@       100a6710     triggers.obj
 0002:000127f8       ??_C@_0L@NPPAIPLB@fireanddie?$AA@ 100a67f8     triggers.obj
 0002:00012808       ??_7CChangeLevel@@6B@      100a6808     triggers.obj
 0002:000128f4       ??_C@_0N@BEEKEJPH@CChangeLevel?$AA@ 100a68f4     triggers.obj
 0002:00012904       ??_C@_03HBNNNHNM@map?$AA@  100a6904     triggers.obj
 0002:00012908       ??_C@_0CD@CLJEDOIA@Map?5name?5?8?$CFs?8?5too?5long?5?$CI32?5chars@ 100a6908     triggers.obj
 0002:0001292c       ??_C@_08MEEIGOPI@landmark?$AA@ 100a692c     triggers.obj
 0002:00012938       ??_C@_0CI@LBNCODNE@Landmark?5name?5?8?$CFs?8?5too?5long?5?$CI32?5@ 100a6938     triggers.obj
 0002:00012960       ??_C@_0M@JMHKJBOP@changedelay?$AA@ 100a6960     triggers.obj
 0002:0001296c       ??_C@_0CJ@LBDADKCP@a?5trigger_changelevel?5doesn?8t?5ha@ 100a696c     triggers.obj
 0002:00012998       ??_C@_0DC@GNFIENLH@trigger_changelevel?5to?5?$CFs?5doesn?8@ 100a6998     triggers.obj
 0002:000129cc       ??_C@_0BI@CGIKFJAN@Can?8t?5find?5landmark?5?$CFs?6?$AA@ 100a69cc     triggers.obj
 0002:000129e4       ??_C@_0DE@IFHDIACB@Player?5isn?8t?5in?5the?5transition?5v@ 100a69e4     triggers.obj
 0002:00012a18       ??_C@_0BF@JCEFGHFI@CHANGE?5LEVEL?3?5?$CFs?5?$CFs?6?$AA@ 100a6a18     triggers.obj
 0002:00012a30       ??_C@_0BD@NJMMJHIN@trigger_transition?$AA@ 100a6a30     triggers.obj
 0002:00012a44       ??_C@_0BE@FKCBEADL@trigger_changelevel?$AA@ 100a6a44     triggers.obj
 0002:00012a58       ??_C@_0CH@GOLIONPC@Too?5many?5entities?5across?5a?5trans@ 100a6a58     triggers.obj
 0002:00012a84       ??_7CLadder@@6B@           100a6a84     triggers.obj
 0002:00012b74       ??_7CTriggerPush@@6B@      100a6b74     triggers.obj
 0002:00012c64       ??_7CTriggerTeleport@@6B@  100a6c64     triggers.obj
 0002:00012d54       ??_7CBuyZone@@6B@          100a6d54     triggers.obj
 0002:00012e40       ??_C@_0CG@KJJANKKN@Bad?5team?5number?5?$CI?$CFi?$CJ?5in?5func_buy@ 100a6e40     triggers.obj
 0002:00012e6c       ??_7CBombTarget@@6B@       100a6e6c     triggers.obj
 0002:00012f5c       ??_7CHostageRescue@@6B@    100a6f5c     triggers.obj
 0002:0001304c       ??_7CEscapeZone@@6B@       100a704c     triggers.obj
 0002:00013138       ??_C@_0DH@OELBOHON@?$CC?$CFs?$DM?$CFi?$DO?$DM?$CFs?$DO?$DMTERRORIST?$DO?$CC?5triggere@ 100a7138     triggers.obj
 0002:00013170       ??_C@_0BD@HMBKGCGK@?$CDTerrorist_Escaped?$AA@ 100a7170     triggers.obj
 0002:00013188       ??_7CVIP_SafetyZone@@6B@   100a7188     triggers.obj
 0002:00013274       ??_C@_0CN@GKGKLGGE@?$CC?$CFs?$DM?$CFi?$DO?$DM?$CFs?$DO?$DMCT?$DO?$CC?5triggered?5?$CCEsca@ 100a7274     triggers.obj
 0002:000132a8       ??_7CTriggerSave@@6B@      100a72a8     triggers.obj
 0002:00013394       ??_C@_09BOMDOCKI@autosave?6?$AA@ 100a7394     triggers.obj
 0002:000133a4       ??_7CTriggerEndSection@@6B@ 100a73a4     triggers.obj
 0002:00013490       ??_C@_07BNGFJMOB@section?$AA@ 100a7490     triggers.obj
 0002:0001349c       ??_7CTriggerGravity@@6B@   100a749c     triggers.obj
 0002:0001358c       ??_7CTriggerChangeTarget@@6B@ 100a758c     triggers.obj
 0002:00013674       ??_C@_0BF@LAOILACM@CTriggerChangeTarget?$AA@ 100a7674     triggers.obj
 0002:00013690       ??_7CTriggerCamera@@6B@    100a7690     triggers.obj
 0002:00013778       ??_C@_0P@OAIJBJHG@CTriggerCamera?$AA@ 100a7778     triggers.obj
 0002:00013788       ??_C@_06LKKHBFJB@moveto?$AA@ 100a7788     triggers.obj
 0002:00013790       ??_C@_0N@OKFAMOHD@acceleration?$AA@ 100a7790     triggers.obj
 0002:000137a0       ??_C@_0N@BIECNIIA@deceleration?$AA@ 100a77a0     triggers.obj
 0002:000137b4       ??_7CWeather@@6B@          100a77b4     triggers.obj
 0002:000138a0       ??_C@_06NHCMNMEH@origin?$AA@ 100a78a0     util.obj
 0002:000138a8       ??_C@_09GHNAOIED@oldorigin?$AA@ 100a78a8     util.obj
 0002:000138b4       ??_C@_08ICEJNDOI@velocity?$AA@ 100a78b4     util.obj
 0002:000138c0       ??_C@_0N@OGGCDFHA@basevelocity?$AA@ 100a78c0     util.obj
 0002:000138d0       ??_C@_07MOCPDEJO@movedir?$AA@ 100a78d0     util.obj
 0002:000138d8       ??_C@_06GNEAMJOC@angles?$AA@ 100a78d8     util.obj
 0002:000138e0       ??_C@_09LJOPMAHO@avelocity?$AA@ 100a78e0     util.obj
 0002:000138ec       ??_C@_0L@BCLKNKBP@punchangle?$AA@ 100a78ec     util.obj
 0002:000138f8       ??_C@_07DPGDFGBA@v_angle?$AA@ 100a78f8     util.obj
 0002:00013900       ??_C@_08DMLAEBGM@fixangle?$AA@ 100a7900     util.obj
 0002:0001390c       ??_C@_0L@LNKGLLBL@idealpitch?$AA@ 100a790c     util.obj
 0002:00013918       ??_C@_0M@PADHJFPD@pitch_speed?$AA@ 100a7918     util.obj
 0002:00013924       ??_C@_09HPOLLHBO@ideal_yaw?$AA@ 100a7924     util.obj
 0002:00013930       ??_C@_09BJCIJCBC@yaw_speed?$AA@ 100a7930     util.obj
 0002:0001393c       ??_C@_0L@OOABJPOI@modelindex?$AA@ 100a793c     util.obj
 0002:00013948       ??_C@_09DKDOKEPP@viewmodel?$AA@ 100a7948     util.obj
 0002:00013954       ??_C@_0M@HFKHPDIJ@weaponmodel?$AA@ 100a7954     util.obj
 0002:00013960       ??_C@_06MBCIMKMG@absmin?$AA@ 100a7960     util.obj
 0002:00013968       ??_C@_06NDKDCOKJ@absmax?$AA@ 100a7968     util.obj
 0002:00013970       ??_C@_04FIAKMPII@mins?$AA@ 100a7970     util.obj
 0002:00013978       ??_C@_04IFBFDIKF@maxs?$AA@ 100a7978     util.obj
 0002:00013980       ??_C@_05CDPCKIGK@ltime?$AA@ 100a7980     util.obj
 0002:00013988       ??_C@_09BJKCIGCI@nextthink?$AA@ 100a7988     util.obj
 0002:00013994       ??_C@_05OPIONHBI@solid?$AA@ 100a7994     util.obj
 0002:0001399c       ??_C@_08DMIOBKOG@movetype?$AA@ 100a799c     util.obj
 0002:000139a8       ??_C@_04IEJGKNJ@body?$AA@  100a79a8     util.obj
 0002:000139b0       ??_C@_07BLLGFBLI@effects?$AA@ 100a79b0     util.obj
 0002:000139b8       ??_C@_07GFBFDLBM@gravity?$AA@ 100a79b8     util.obj
 0002:000139c0       ??_C@_08LKDNMFOC@friction?$AA@ 100a79c0     util.obj
 0002:000139cc       ??_C@_0M@EMAIGPBJ@light_level?$AA@ 100a79cc     util.obj
 0002:000139d8       ??_C@_05MIJNFGED@frame?$AA@ 100a79d8     util.obj
 0002:000139e0       ??_C@_05MHMEBBGO@scale?$AA@ 100a79e0     util.obj
 0002:000139e8       ??_C@_08IBBDGPOF@sequence?$AA@ 100a79e8     util.obj
 0002:000139f4       ??_C@_08CPDCOAJK@animtime?$AA@ 100a79f4     util.obj
 0002:00013a00       ??_C@_09PLDKGHKD@framerate?$AA@ 100a7a00     util.obj
 0002:00013a0c       ??_C@_0L@DNGLJIEO@controller?$AA@ 100a7a0c     util.obj
 0002:00013a18       ??_C@_08EFDOIIKB@blending?$AA@ 100a7a18     util.obj
 0002:00013a24       ??_C@_0L@PCPPJFN@rendermode?$AA@ 100a7a24     util.obj
 0002:00013a30       ??_C@_09BBEIIFBJ@renderamt?$AA@ 100a7a30     util.obj
 0002:00013a3c       ??_C@_0M@PKPFNFIN@rendercolor?$AA@ 100a7a3c     util.obj
 0002:00013a48       ??_C@_08CMBMAAGP@renderfx?$AA@ 100a7a48     util.obj
 0002:00013a54       ??_C@_06KJINILIP@health?$AA@ 100a7a54     util.obj
 0002:00013a5c       ??_C@_05NJJCGGEC@frags?$AA@ 100a7a5c     util.obj
 0002:00013a64       ??_C@_07PKKCMMCH@weapons?$AA@ 100a7a64     util.obj
 0002:00013a6c       ??_C@_0L@KJOAGEFO@takedamage?$AA@ 100a7a6c     util.obj
 0002:00013a78       ??_C@_08DKPNAJBK@deadflag?$AA@ 100a7a78     util.obj
 0002:00013a84       ??_C@_08LAMJGEN@view_ofs?$AA@ 100a7a84     util.obj
 0002:00013a90       ??_C@_06HFKPFKMP@button?$AA@ 100a7a90     util.obj
 0002:00013a98       ??_C@_07LKMFNFAN@impulse?$AA@ 100a7a98     util.obj
 0002:00013aa0       ??_C@_05FGPNDJME@chain?$AA@ 100a7aa0     util.obj
 0002:00013aa8       ??_C@_0O@ONBBJJMD@dmg_inflictor?$AA@ 100a7aa8     util.obj
 0002:00013ab8       ??_C@_05ICAMJEGE@enemy?$AA@ 100a7ab8     util.obj
 0002:00013ac0       ??_C@_06EOJNHFH@aiment?$AA@ 100a7ac0     util.obj
 0002:00013ac8       ??_C@_05HEIBENID@owner?$AA@ 100a7ac8     util.obj
 0002:00013ad0       ??_C@_0N@FEDPFDJI@groundentity?$AA@ 100a7ad0     util.obj
 0002:00013ae0       ??_C@_0L@HLIKNEFC@spawnflags?$AA@ 100a7ae0     util.obj
 0002:00013aec       ??_C@_05GECEPKB@flags?$AA@ 100a7aec     util.obj
 0002:00013af4       ??_C@_08OMBDDLKJ@colormap?$AA@ 100a7af4     util.obj
 0002:00013b00       ??_C@_04KADBPNCB@team?$AA@ 100a7b00     util.obj
 0002:00013b08       ??_C@_0L@DNHONBML@max_health?$AA@ 100a7b08     util.obj
 0002:00013b14       ??_C@_0O@KOGAOCNF@teleport_time?$AA@ 100a7b14     util.obj
 0002:00013b24       ??_C@_09NKOBGIJD@armortype?$AA@ 100a7b24     util.obj
 0002:00013b30       ??_C@_0L@GKOHIKGL@armorvalue?$AA@ 100a7b30     util.obj
 0002:00013b3c       ??_C@_0L@NEBDHOBF@waterlevel?$AA@ 100a7b3c     util.obj
 0002:00013b48       ??_C@_09KCJIJCMG@watertype?$AA@ 100a7b48     util.obj
 0002:00013b54       ??_C@_07OLJMCAFB@netname?$AA@ 100a7b54     util.obj
 0002:00013b5c       ??_C@_07ONPBMBOP@message?$AA@ 100a7b5c     util.obj
 0002:00013b64       ??_C@_08DDJOCLJA@dmg_take?$AA@ 100a7b64     util.obj
 0002:00013b70       ??_C@_08JFEAMHKD@dmg_save?$AA@ 100a7b70     util.obj
 0002:00013b7c       ??_C@_03EMOFKE@dmg?$AA@    100a7b7c     util.obj
 0002:00013b80       ??_C@_07CDBFKFAH@dmgtime?$AA@ 100a7b80     util.obj
 0002:00013b88       ??_C@_05GPLCCBII@noise?$AA@ 100a7b88     util.obj
 0002:00013b90       ??_C@_06CFFBLOIB@noise1?$AA@ 100a7b90     util.obj
 0002:00013b98       ??_C@_06OHMONEC@noise2?$AA@ 100a7b98     util.obj
 0002:00013ba0       ??_C@_06BHGHNMAD@noise3?$AA@ 100a7ba0     util.obj
 0002:00013ba8       ??_C@_05HJCMGBKF@speed?$AA@ 100a7ba8     util.obj
 0002:00013bb0       ??_C@_0N@GDIGBCMH@air_finished?$AA@ 100a7bb0     util.obj
 0002:00013bc0       ??_C@_0O@PDMKMIML@pain_finished?$AA@ 100a7bc0     util.obj
 0002:00013bd0       ??_C@_0BB@EAPLFHEL@radsuit_finished?$AA@ 100a7bd0     util.obj
 0002:00013be8       ??_7CSaveRestoreBuffer@@6B@ 100a7be8     util.obj
 0002:00013bec       ??_C@_0CC@PIEFDLNP@Master?5was?5null?5or?5not?5a?5master?$CB@ 100a7bec     util.obj
 0002:00013c10       ??_C@_0BA@HHHGKLAB@violence_hblood?$AA@ 100a7c10     util.obj
 0002:00013c20       ??_C@_0BA@OCOOOONC@violence_ablood?$AA@ 100a7c20     util.obj
 0002:00013c30       ??_C@_0CA@GPGNKNKH@NULL?5Ent?5in?5UTIL_PrecacheOther?6?$AA@ 100a7c30     util.obj
 0002:00013c50       ??_C@_0DG@PLEHHJFB@CSaveRestoreBuffer?5?3?3?5TokenHash?$CI@ 100a7c50     util.obj
 0002:00013c88       ??_C@_0CE@LOPLMFBI@Invalid?5function?5pointer?5in?5enti@ 100a7c88     util.obj
 0002:00013cac       ??_C@_0BH@EKBNCGHO@Bad?5field?5in?5entity?$CB?$CB?6?$AA@ 100a7cac     util.obj
 0002:00013cc4       ??_C@_0DB@NAHFIIFC@Can?8t?5save?5more?5than?5?$CFd?5entities@ 100a7cc4     util.obj
 0002:00013cf8       ??_C@_0BA@CGJOHFEH@Bad?5field?5type?6?$AA@ 100a7cf8     util.obj
 0002:00013d08       ??_C@_0DI@EKOAHHAL@CSave?5?3?3?5BufferHeader?$CI?$CJ?5size?5par@ 100a7d08     util.obj
 0002:00013d40       ??_C@_0BH@DDIPEFHA@Save?1Restore?5overflow?$CB?$AA@ 100a7d40     util.obj
 0002:00013d58       ??_C@_0BC@LOPFGCCH@Restore?5overflow?$CB?$AA@ 100a7d58     util.obj
 0002:00013d6c       __real@37800000            100a7d6c     util.obj
 0002:00013d70       __real@c3b40000            100a7d70     util.obj
 0002:00013d78       ??_7CFuncVehicle@@6B@      100a7d78     vehicle.obj
 0002:00013e60       ??_C@_0N@EALBNFFI@CFuncVehicle?$AA@ 100a7e60     vehicle.obj
 0002:00013e70       ??_C@_06IJDLPEM@length?$AA@ 100a7e70     vehicle.obj
 0002:00013e78       ??_C@_0BJ@JFKGHNOO@plats?1vehicle_brake1?4wav?$AA@ 100a7e78     vehicle.obj
 0002:00013e94       ??_C@_0BH@FECFNKJH@I?5hit?5another?5vehicle?6?$AA@ 100a7e94     vehicle.obj
 0002:00013eac       ??_C@_0BH@HMHCLOBI@Vehicle?5with?5no?5target?$AA@ 100a7eac     vehicle.obj
 0002:00013ec4       ??_C@_0BD@PEKABAKK@plats?1vehicle1?4wav?$AA@ 100a7ec4     vehicle.obj
 0002:00013ed8       ??_C@_0BD@HCDEGCAE@plats?1vehicle2?4wav?$AA@ 100a7ed8     vehicle.obj
 0002:00013eec       ??_C@_0BD@LJGILBKB@plats?1vehicle3?4wav?$AA@ 100a7eec     vehicle.obj
 0002:00013f00       ??_C@_0BD@KEGNIBBJ@plats?1vehicle4?4wav?$AA@ 100a7f00     vehicle.obj
 0002:00013f14       ??_C@_0BD@OJKFCABC@plats?1vehicle6?4wav?$AA@ 100a7f14     vehicle.obj
 0002:00013f28       ??_C@_0BD@CCPJPDLH@plats?1vehicle7?4wav?$AA@ 100a7f28     vehicle.obj
 0002:00013f3c       ??_C@_0BJ@FFJNKLNI@plats?1vehicle_start1?4wav?$AA@ 100a7f3c     vehicle.obj
 0002:00013f58       ??_C@_0BC@OPCOBNEI@events?1vehicle?4sc?$AA@ 100a7f58     vehicle.obj
 0002:00013f70       ??_7CFuncVehicleControls@@6B@ 100a7f70     vehicle.obj
 0002:00014058       ??_C@_0P@OKJNDIE@No?5vehicle?5?$CFs?6?$AA@ 100a8058     vehicle.obj
 0002:00014068       __real@3f43a92a30553261    100a8068     vehicle.obj
 0002:00014070       __real@3f46f0068db8bac7    100a8070     vehicle.obj
 0002:00014078       __real@3f4a36e2eb1c432d    100a8078     vehicle.obj
 0002:00014080       __real@3f4d7dbf487fcb92    100a8080     vehicle.obj
 0002:00014088       __real@3f4e098ead65b79d    100a8088     vehicle.obj
 0002:00014090       __real@3f53a92a30553261    100a8090     vehicle.obj
 0002:00014098       __real@3f57aa706995f586    100a8098     vehicle.obj
 0002:000140a0       __real@3f5eb851eb851eb8    100a80a0     vehicle.obj
 0002:000140a8       __real@3f618de5ab277f45    100a80a8     vehicle.obj
 0002:000140b0       __real@3f62b97d835d548e    100a80b0     vehicle.obj
 0002:000140b8       __real@3f65d867c3ece2a6    100a80b8     vehicle.obj
 0002:000140c0       __real@3f6b4e81b4e81b50    100a80c0     vehicle.obj
 0002:000140c8       __real@3f6f212d77318fc5    100a80c8     vehicle.obj
 0002:000140d0       __real@3f70624dd2f1a9fc    100a80d0     vehicle.obj
 0002:000140d8       __real@3f71111111111111    100a80d8     vehicle.obj
 0002:000140e0       __real@3f716872b020c49c    100a80e0     vehicle.obj
 0002:000140e8       __real@3f726e978d4fdf3b    100a80e8     vehicle.obj
 0002:000140f0       __real@3f747ae147ae147b    100a80f0     vehicle.obj
 0002:000140f8       __real@3f7eb851eb851eb8    100a80f8     vehicle.obj
 0002:00014100       __real@3f8999999999999a    100a8100     vehicle.obj
 0002:00014108       __real@3f8c28f5c28f5c29    100a8108     vehicle.obj
 0002:00014110       __real@3fb3333333333333    100a8110     vehicle.obj
 0002:00014118       __real@3fc00000            100a8118     vehicle.obj
 0002:00014120       __real@3fcc28f5c28f5c29    100a8120     vehicle.obj
 0002:00014128       __real@3fef5c28f5c28f5c    100a8128     vehicle.obj
 0002:00014130       __real@3fefae147ae147ae    100a8130     vehicle.obj
 0002:00014138       __real@42400000            100a8138     vehicle.obj
 0002:0001413c       __real@43110000            100a813c     vehicle.obj
 0002:00014140       __real@43610000            100a8140     vehicle.obj
 0002:00014144       __real@44098000            100a8144     vehicle.obj
 0002:00014148       __real@beb33333            100a8148     vehicle.obj
 0002:00014150       __real@bf91eb851eb851ec    100a8150     vehicle.obj
 0002:00014158       __real@bfa999999999999a    100a8158     vehicle.obj
 0002:00014160       __real@bfc3333333333333    100a8160     vehicle.obj
 0002:00014168       __real@bfcc28f5c28f5c29    100a8168     vehicle.obj
 0002:00014170       __real@bfd6666666666666    100a8170     vehicle.obj
 0002:00014178       __real@bfe6666666666666    100a8178     vehicle.obj
 0002:00014180       __real@c1200000            100a8180     vehicle.obj
 0002:00014184       __real@c20c0000            100a8184     vehicle.obj
 0002:00014188       __real@c3c80000            100a8188     vehicle.obj
 0002:0001418c       ??_C@_0BG@LKPONKLB@sprites?1laserbeam?4spr?$AA@ 100a818c     weapons.obj
 0002:000141a4       ??_C@_09IEEEICLM@m_pPlayer?$AA@ 100a81a4     weapons.obj
 0002:000141b0       ??_C@_07PFAGGFGA@m_pNext?$AA@ 100a81b0     weapons.obj
 0002:000141b8       ??_C@_05HIOALKKH@m_iId?$AA@ 100a81b8     weapons.obj
 0002:000141c0       ??_C@_0BG@IBOJPCLN@m_flNextPrimaryAttack?$AA@ 100a81c0     weapons.obj
 0002:000141d8       ??_C@_0BI@BCKKEFEG@m_flNextSecondaryAttack?$AA@ 100a81d8     weapons.obj
 0002:000141f0       ??_C@_0BD@BNHLCIGM@m_iPrimaryAmmoType?$AA@ 100a81f0     weapons.obj
 0002:00014204       ??_C@_0BF@GEDBJCD@m_iSecondaryAmmoType?$AA@ 100a8204     weapons.obj
 0002:0001421c       ??_C@_07CNMPLBEL@m_iClip?$AA@ 100a821c     weapons.obj
 0002:00014224       ??_C@_0P@NNECLEIB@m_iDefaultAmmo?$AA@ 100a8224     weapons.obj
 0002:00014234       ??_C@_0M@KFAHOKOB@m_rgiszAmmo?$AA@ 100a8234     weapons.obj
 0002:00014240       ??_C@_0N@JGCFPOCP@m_cAmmoTypes?$AA@ 100a8240     weapons.obj
 0002:00014254       ??_7CWeaponBox@@6B@        100a8254     weapons.obj
 0002:00014340       ??_7CArmoury@@6B@          100a8340     weapons.obj
 0002:00014428       ??_C@_0CI@BEIKHBNH@MaxAmmoCarry?$CI?$CJ?5doesn?8t?5recognize@ 100a8428     weapons.obj
 0002:00014450       ??_C@_0CG@PAFNIJCC@NULL?5Ent?5in?5UTIL_PrecacheOtherWe@ 100a8450     weapons.obj
 0002:00014478       ??_C@_0O@IIJLCLJL@item_longjump?$AA@ 100a8478     weapons.obj
 0002:00014488       ??_C@_0BI@OKNOKJPL@sprites?1zerogxplode?4spr?$AA@ 100a8488     weapons.obj
 0002:000144a0       ??_C@_0BD@PKIKCPOP@sprites?1WXplo1?4spr?$AA@ 100a84a0     weapons.obj
 0002:000144b4       ??_C@_0BD@HDGDDDCC@sprites?1steam1?4spr?$AA@ 100a84b4     weapons.obj
 0002:000144c8       ??_C@_0BH@KCADAOLD@sprites?1bloodspray?4spr?$AA@ 100a84c8     weapons.obj
 0002:000144e0       ??_C@_0BC@NDANIGIC@sprites?1blood?4spr?$AA@ 100a84e0     weapons.obj
 0002:000144f4       ??_C@_0BD@IACBCBNM@sprites?1eexplo?4spr?$AA@ 100a84f4     weapons.obj
 0002:00014508       ??_C@_0BD@BJMDEHNN@sprites?1fexplo?4spr?$AA@ 100a8508     weapons.obj
 0002:0001451c       ??_C@_0BE@MGEALGOO@sprites?1fexplo1?4spr?$AA@ 100a851c     weapons.obj
 0002:00014530       ??_C@_0BC@FBJBDJJC@sprites?1radio?4spr?$AA@ 100a8530     weapons.obj
 0002:00014544       ??_C@_0BE@PBNGMNMF@sprites?1b?9tele1?4spr?$AA@ 100a8544     weapons.obj
 0002:00014558       ??_C@_0BE@GKHDIBKK@sprites?1c?9tele1?4spr?$AA@ 100a8558     weapons.obj
 0002:0001456c       ??_C@_0BE@EFPJCA@sprites?1ledglow?4spr?$AA@ 100a856c     weapons.obj
 0002:00014580       ??_C@_0BF@LHKHEIDI@sprites?1laserdot?4spr?$AA@ 100a8580     weapons.obj
 0002:00014598       ??_C@_0BF@GCBOLJMB@sprites?1explode1?4spr?$AA@ 100a8598     weapons.obj
 0002:000145b0       ??_C@_0BG@CGGPMCHD@items?1weapondrop1?4wav?$AA@ 100a85b0     weapons.obj
 0002:000145c8       ??_C@_0BL@DDPBAIGB@weapons?1generic_reload?4wav?$AA@ 100a85c8     weapons.obj
 0002:000145e4       ??_C@_0BA@CLGFKBJP@CBasePlayerItem?$AA@ 100a85e4     weapons.obj
 0002:000145f4       ??_C@_0BC@EHGFPLNF@CBasePlayerWeapon?$AA@ 100a85f4     weapons.obj
 0002:00014608       ??_C@_0BO@FBKEEOOJ@Respawn?5failed?5to?5create?5?$CFs?$CB?6?$AA@ 100a8608     weapons.obj
 0002:00014628       ??_C@_09OMKLGPPI@shieldgun?$AA@ 100a8628     weapons.obj
 0002:00014634       ??_C@_08DCMKGFOA@shielded?$AA@ 100a8634     weapons.obj
 0002:00014640       ??_C@_0L@CMBHIDNP@CWeaponBox?$AA@ 100a8640     weapons.obj
 0002:0001464c       ??_C@_0CP@GGAKEPLH@WeaponBox?5too?5full?$CB?5only?5?$CFd?5ammo@ 100a864c     weapons.obj
 0002:0001467c       ??_C@_09HJKLCPLH@?$CDGot_bomb?$AA@ 100a867c     weapons.obj
 0002:00014688       ??_C@_0DC@EDJKCFGB@?$CC?$CFs?$DM?$CFi?$DO?$DM?$CFs?$DO?$DMTERRORIST?$DO?$CC?5triggere@ 100a8688     weapons.obj
 0002:000146bc       ??_C@_0BC@MIBBDCM@?$CDGame_bomb_pickup?$AA@ 100a86bc     weapons.obj
 0002:000146d0       ??_C@_0BK@IMKFEDKG@NULL?5String?5in?5PackAmmo?$CB?6?$AA@ 100a86d0     weapons.obj
 0002:000146ec       ??_C@_0BJ@HGOABKLC@out?5of?5named?5ammo?5slots?6?$AA@ 100a86ec     weapons.obj
 0002:00014708       __real@3f60000000000000    100a8708     weapons.obj
 0002:00014710       __real@3f970a3d70a3d70a    100a8710     weapons.obj
 0002:00014718       __real@44000000            100a8718     weapons.obj
 0002:0001471c       __real@4b189680            100a871c     weapons.obj
 0002:00014720       ??_C@_06FOOIMHNI@?$HLshot1?$AA@ 100a8720     world.obj
 0002:00014728       ??_C@_06HFMFJEBL@?$HLshot2?$AA@ 100a8728     world.obj
 0002:00014730       ??_C@_06GMNOKFFK@?$HLshot3?$AA@ 100a8730     world.obj
 0002:00014738       ??_C@_06CDJPDDJN@?$HLshot4?$AA@ 100a8738     world.obj
 0002:00014740       ??_C@_06DKIEACNM@?$HLshot5?$AA@ 100a8740     world.obj
 0002:00014748       ??_C@_09BGIJBLMO@?$HLlambda01?$AA@ 100a8748     world.obj
 0002:00014754       ??_C@_09DNKEEIAN@?$HLlambda02?$AA@ 100a8754     world.obj
 0002:00014760       ??_C@_09CELPHJEM@?$HLlambda03?$AA@ 100a8760     world.obj
 0002:0001476c       ??_C@_09GLPOOPIL@?$HLlambda04?$AA@ 100a876c     world.obj
 0002:00014778       ??_C@_09HCOFNOMK@?$HLlambda05?$AA@ 100a8778     world.obj
 0002:00014784       ??_C@_09FJMIINAJ@?$HLlambda06?$AA@ 100a8784     world.obj
 0002:00014790       ??_C@_08CADLLNLF@?$HLscorch1?$AA@ 100a8790     world.obj
 0002:0001479c       ??_C@_08LBGOOHG@?$HLscorch2?$AA@ 100a879c     world.obj
 0002:000147a8       ??_C@_07PJFMFMDK@?$HLblood1?$AA@ 100a87a8     world.obj
 0002:000147b0       ??_C@_07NCHBAPPJ@?$HLblood2?$AA@ 100a87b0     world.obj
 0002:000147b8       ??_C@_07MLGKDOLI@?$HLblood3?$AA@ 100a87b8     world.obj
 0002:000147c0       ??_C@_07IECLKIHP@?$HLblood4?$AA@ 100a87c0     world.obj
 0002:000147c8       ??_C@_07JNDAJJDO@?$HLblood5?$AA@ 100a87c8     world.obj
 0002:000147d0       ??_C@_07LGBNMKPN@?$HLblood6?$AA@ 100a87d0     world.obj
 0002:000147d8       ??_C@_08EKKEMNII@?$HLyblood1?$AA@ 100a87d8     world.obj
 0002:000147e4       ??_C@_08GBIJJOEL@?$HLyblood2?$AA@ 100a87e4     world.obj
 0002:000147f0       ??_C@_08HIJCKPAK@?$HLyblood3?$AA@ 100a87f0     world.obj
 0002:000147fc       ??_C@_08DHNDDJMN@?$HLyblood4?$AA@ 100a87fc     world.obj
 0002:00014808       ??_C@_08COMIAIIM@?$HLyblood5?$AA@ 100a8808     world.obj
 0002:00014814       ??_C@_08FOFFLEP@?$HLyblood6?$AA@ 100a8814     world.obj
 0002:00014820       ??_C@_07GBLDBHHO@?$HLbreak1?$AA@ 100a8820     world.obj
 0002:00014828       ??_C@_07EKJOEELN@?$HLbreak2?$AA@ 100a8828     world.obj
 0002:00014830       ??_C@_07FDIFHFPM@?$HLbreak3?$AA@ 100a8830     world.obj
 0002:00014838       ??_C@_09DDOIOKLH@?$HLbigshot1?$AA@ 100a8838     world.obj
 0002:00014844       ??_C@_09BIMFLJHE@?$HLbigshot2?$AA@ 100a8844     world.obj
 0002:00014850       ??_C@_09BNOIIDF@?$HLbigshot3?$AA@ 100a8850     world.obj
 0002:0001485c       ??_C@_09EOJPBOPC@?$HLbigshot4?$AA@ 100a885c     world.obj
 0002:00014868       ??_C@_09FHIECPLD@?$HLbigshot5?$AA@ 100a8868     world.obj
 0002:00014874       ??_C@_06CLBDEEEH@?$HLspit1?$AA@ 100a8874     world.obj
 0002:0001487c       ??_C@_06DOBHIE@?$HLspit2?$AA@ 100a887c     world.obj
 0002:00014884       ??_C@_08KBGMNKJH@?$HLbproof1?$AA@ 100a8884     world.obj
 0002:00014890       ??_C@_0L@BMKNAKHM@?$HLgargstomp?$AA@ 100a8890     world.obj
 0002:0001489c       ??_C@_0L@LCBCMICA@?$HLsmscorch1?$AA@ 100a889c     world.obj
 0002:000148a8       ??_C@_0L@JJDPJLOD@?$HLsmscorch2?$AA@ 100a88a8     world.obj
 0002:000148b4       ??_C@_0L@IACEKKKC@?$HLsmscorch3?$AA@ 100a88b4     world.obj
 0002:000148c0       ??_C@_0L@KNNPHAP@?$HLmommablob?$AA@ 100a88c0     world.obj
 0002:000148cc       ??_C@_0M@BPCHFOPG@m_listCount?$AA@ 100a88cc     world.obj
 0002:000148d8       ??_C@_09DBABDCDH@levelName?$AA@ 100a88d8     world.obj
 0002:000148e4       ??_C@_05HDBKIDE@state?$AA@ 100a88e4     world.obj
 0002:000148f0       ??_7CWorld@@6B@            100a88f0     world.obj
 0002:000149dc       ??_7CDecal@@6B@            100a89dc     world.obj
 0002:00014ac4       ??_C@_0BF@BLPBHMHG@Can?8t?5find?5decal?5?$CFs?6?$AA@ 100a8ac4     world.obj
 0002:00014ae0       ??_7CCorpse@@6B@           100a8ae0     world.obj
 0002:00014bc8       ??_C@_07ILHJIGAO@bodyque?$AA@ 100a8bc8     world.obj
 0002:00014bd0       ??_C@_03GCDBBDDL@Off?$AA@  100a8bd0     world.obj
 0002:00014bd4       ??_C@_02IAAGKKDJ@On?$AA@   100a8bd4     world.obj
 0002:00014bd8       ??_C@_04NANCPOOO@Dead?$AA@ 100a8bd8     world.obj
 0002:00014be0       ??_C@_0P@FNEJMDKG@?9?9?5Globals?5?9?9?6?$AA@ 100a8be0     world.obj
 0002:00014bf0       ??_C@_0N@PLLFNHGM@?$CFs?3?5?$CFs?5?$CI?$CFs?$CJ?6?$AA@ 100a8bf0     world.obj
 0002:00014c00       ??_C@_06FNIPBJLB@GLOBAL?$AA@ 100a8c00     world.obj
 0002:00014c08       ??_C@_04NLBHBMCO@GENT?$AA@ 100a8c08     world.obj
 0002:00014c10       ??_C@_09NFOPKLIK@sv_cheats?$AA@ 100a8c10     world.obj
 0002:00014c1c       ??_C@_0M@CHJCFNBM@maps?1?$CFs?4txt?$AA@ 100a8c1c     world.obj
 0002:00014c28       ??_C@_0BB@OKAAGNGB@maps?1default?4txt?$AA@ 100a8c28     world.obj
 0002:00014c3c       ??_C@_03KILFEEKL@900?$AA@  100a8c3c     world.obj
 0002:00014c40       ??_C@_0M@NAINEIIC@sv_maxspeed?$AA@ 100a8c40     world.obj
 0002:00014c4c       ??_C@_02DCIIBFLB@18?$AA@   100a8c4c     world.obj
 0002:00014c50       ??_C@_09CFHPPHOC@room_type?$AA@ 100a8c50     world.obj
 0002:00014c5c       ??_C@_0BP@HCKPHKEP@?$CK?$CKCOULD?5NOT?5CREATE?5SOUNDENT?$CK?$CK?6?$AA@ 100a8c5c     world.obj
 0002:00014c7c       ??_C@_0BF@POAPOOGB@common?1bodydrop3?4wav?$AA@ 100a8c7c     world.obj
 0002:00014c94       ??_C@_0BF@ODAKNONJ@common?1bodydrop4?4wav?$AA@ 100a8c94     world.obj
 0002:00014cac       ??_C@_0M@GKCEILA@sv_language?$AA@ 100a8cac     world.obj
 0002:00014cb8       ??_C@_0BB@MNBCLJOD@weapons?1ric1?4wav?$AA@ 100a8cb8     world.obj
 0002:00014ccc       ??_C@_0BB@ELIGMLEN@weapons?1ric2?4wav?$AA@ 100a8ccc     world.obj
 0002:00014ce0       ??_C@_0BB@IANKBIOI@weapons?1ric3?4wav?$AA@ 100a8ce0     world.obj
 0002:00014cf4       ??_C@_0BB@JNNPCIFA@weapons?1ric4?4wav?$AA@ 100a8cf4     world.obj
 0002:00014d08       ??_C@_0BB@FGIDPLPF@weapons?1ric5?4wav?$AA@ 100a8d08     world.obj
 0002:00014d1c       ??_C@_0BH@DEGBLJEB@weapons?1ric_conc?91?4wav?$AA@ 100a8d1c     world.obj
 0002:00014d34       ??_C@_0BH@LCPFMLOP@weapons?1ric_conc?92?4wav?$AA@ 100a8d34     world.obj
 0002:00014d4c       ??_C@_0BI@OMKFAIJM@mmnmmommommnonmmonqnmmo?$AA@ 100a8d4c     world.obj
 0002:00014d64       ??_C@_0DE@PNCJLGMH@abcdefghijklmnopqrstuvwxyzyxwvut@ 100a8d64     world.obj
 0002:00014d98       ??_C@_0CD@OIDFFBDA@mmmmmaaaaammmmmaaaaaabcdefgabcde@ 100a8d98     world.obj
 0002:00014dbc       ??_C@_0N@OJLDIBEI@mamamamamama?$AA@ 100a8dbc     world.obj
 0002:00014dcc       ??_C@_0CC@NMKOOBOD@jklmnopqrstuvwxyzyxwvutsrqponmlk@ 100a8dcc     world.obj
 0002:00014df0       ??_C@_0BC@KJNLDMIN@nmonqnmomnmomomno?$AA@ 100a8df0     world.obj
 0002:00014e04       ??_C@_0BN@HIBFHKHI@mmmaaaabcdefgmmmmaaaammmaamm?$AA@ 100a8e04     world.obj
 0002:00014e24       ??_C@_0CL@JNLLPDGN@mmmaaammmaaammmabcdefaaaammmmabc@ 100a8e24     world.obj
 0002:00014e50       ??_C@_0BB@PBGKNKPK@aaaaaaaazzzzzzzz?$AA@ 100a8e50     world.obj
 0002:00014e64       ??_C@_0BK@KOPHNNOA@mmamammmmammamamaaamammma?$AA@ 100a8e64     world.obj
 0002:00014e80       ??_C@_0CF@FDHINAPJ@abcdefghijklmnopqrrqponmlkjihgfe@ 100a8e80     world.obj
 0002:00014ea8       ??_C@_0O@CLIHPPEL@mmnnmmnnnmmnn?$AA@ 100a8ea8     world.obj
 0002:00014eb8       ??_C@_0BK@HIINIOHF@?$CKError?5opening?5?4NOD?5file?6?$AA@ 100a8eb8     world.obj
 0002:00014ed4       ??_C@_0BB@EGBBPBGK@?6?$CKGraph?5Loaded?$CB?6?$AA@ 100a8ed4     world.obj
 0002:00014ee8       ??_C@_07BOLPGMIP@sv_zmax?$AA@ 100a8ee8     world.obj
 0002:00014ef0       ??_C@_0BD@JJMJHJEB@Chapter?5title?3?5?$CFs?6?$AA@ 100a8ef0     world.obj
 0002:00014f04       ??_C@_0M@BHOJAFLH@env_message?$AA@ 100a8f04     world.obj
 0002:00014f10       ??_C@_06COKHDAAL@v_dark?$AA@ 100a8f10     world.obj
 0002:00014f18       ??_C@_07OAIDGMCI@skyname?$AA@ 100a8f18     world.obj
 0002:00014f20       ??_C@_0L@NPFKENCH@sv_skyname?$AA@ 100a8f20     world.obj
 0002:00014f2c       ??_C@_0M@COFDEJEF@sv_wateramp?$AA@ 100a8f2c     world.obj
 0002:00014f38       ??_C@_08JOBCAEBO@MaxRange?$AA@ 100a8f38     world.obj
 0002:00014f44       ??_C@_0N@PNMHOEPJ@chaptertitle?$AA@ 100a8f44     world.obj
 0002:00014f54       ??_C@_09GFBFFKIC@startdark?$AA@ 100a8f54     world.obj
 0002:00014f60       ??_C@_07HGILGPPG@newunit?$AA@ 100a8f60     world.obj
 0002:00014f68       ??_C@_0L@EJFCEOPJ@sv_newunit?$AA@ 100a8f68     world.obj
 0002:00014f74       ??_C@_09EPLNALMJ@gametitle?$AA@ 100a8f74     world.obj
 0002:00014f80       ??_C@_08ECBFKIGG@mapteams?$AA@ 100a8f80     world.obj
 0002:00014f8c       ??_C@_0M@LIOFLGDM@defaultteam?$AA@ 100a8f8c     world.obj
 0002:00014f9c       ??_7CAK47@@6B@             100a8f9c     wpn_ak47.obj
 0002:00015114       ??_C@_0BC@ICPAAALK@models?1v_ak47?4mdl?$AA@ 100a9114     wpn_ak47.obj
 0002:00015128       ??_C@_0BD@JONFBFKM@weapons?1ak47?91?4wav?$AA@ 100a9128     wpn_ak47.obj
 0002:0001513c       ??_C@_0BD@BIEBGHAC@weapons?1ak47?92?4wav?$AA@ 100a913c     wpn_ak47.obj
 0002:00015150       ??_C@_0BJ@NDLHLDFB@weapons?1ak47_clipout?4wav?$AA@ 100a9150     wpn_ak47.obj
 0002:0001516c       ??_C@_0BI@LGOHFBK@weapons?1ak47_clipin?4wav?$AA@ 100a916c     wpn_ak47.obj
 0002:00015184       ??_C@_0BK@ILKOOLIO@weapons?1ak47_boltpull?4wav?$AA@ 100a9184     wpn_ak47.obj
 0002:000151a0       ??_C@_0BC@KIBCGLOL@models?1rshell?4mdl?$AA@ 100a91a0     wpn_ak47.obj
 0002:000151b4       ??_C@_0P@NGNKNEDH@events?1ak47?4sc?$AA@ 100a91b4     wpn_ak47.obj
 0002:000151c4       ??_C@_09KNGNPJEJ@?$CBHEV_AMO0?$AA@ 100a91c4     wpn_ak47.obj
 0002:000151d0       __real@3fa47ae147ae147b    100a91d0     wpn_ak47.obj
 0002:000151d8       __real@3fb1eb851eb851ec    100a91d8     wpn_ak47.obj
 0002:000151e0       __real@3ffe666666666666    100a91e0     wpn_ak47.obj
 0002:000151e8       __real@430c0000            100a91e8     wpn_ak47.obj
 0002:000151ec       __real@435d0000            100a91ec     wpn_ak47.obj
 0002:000151f4       ??_7CAUG@@6B@              100a91f4     wpn_aug.obj
 0002:0001536c       ??_C@_0BB@CCFCHIEI@models?1v_aug?4mdl?$AA@ 100a936c     wpn_aug.obj
 0002:00015380       ??_C@_0BC@EJGKKMIH@weapons?1aug?91?4wav?$AA@ 100a9380     wpn_aug.obj
 0002:00015394       ??_C@_0BI@GONMFBLI@weapons?1aug_clipout?4wav?$AA@ 100a9394     wpn_aug.obj
 0002:000153ac       ??_C@_0BH@NNHOIAOK@weapons?1aug_clipin?4wav?$AA@ 100a93ac     wpn_aug.obj
 0002:000153c4       ??_C@_0BJ@FCMFNKLA@weapons?1aug_boltpull?4wav?$AA@ 100a93c4     wpn_aug.obj
 0002:000153e0       ??_C@_0BJ@BNHPGPFF@weapons?1aug_boltslap?4wav?$AA@ 100a93e0     wpn_aug.obj
 0002:000153fc       ??_C@_0BI@KCHAECGH@weapons?1aug_forearm?4wav?$AA@ 100a93fc     wpn_aug.obj
 0002:00015414       ??_C@_0O@JNBEIOBF@events?1aug?4sc?$AA@ 100a9414     wpn_aug.obj
 0002:00015424       ??_C@_07FAINIJDJ@carbine?$AA@ 100a9424     wpn_aug.obj
 0002:00015430       __real@3f947ae147ae147b    100a9430     wpn_aug.obj
 0002:00015438       __real@3fa1eb851eb851ec    100a9438     wpn_aug.obj
 0002:00015444       ??_7CAWP@@6B@              100a9444     wpn_awp.obj
 0002:000155bc       ??_C@_0BB@GHFIGCBN@weapons?1awp1?4wav?$AA@ 100a95bc     wpn_awp.obj
 0002:000155d0       ??_C@_0BG@NLOLEBGM@weapons?1boltpull1?4wav?$AA@ 100a95d0     wpn_awp.obj
 0002:000155e8       ??_C@_0BD@LEHKILKO@weapons?1boltup?4wav?$AA@ 100a95e8     wpn_awp.obj
 0002:000155fc       ??_C@_0BF@JEDFCCKN@weapons?1boltdown?4wav?$AA@ 100a95fc     wpn_awp.obj
 0002:00015614       ??_C@_0BB@MEJLAIE@weapons?1zoom?4wav?$AA@ 100a9614     wpn_awp.obj
 0002:00015628       ??_C@_0BH@HGDOANNL@weapons?1awp_deploy?4wav?$AA@ 100a9628     wpn_awp.obj
 0002:00015640       ??_C@_0BH@PFGEOEMF@weapons?1awp_clipin?4wav?$AA@ 100a9640     wpn_awp.obj
 0002:00015658       ??_C@_0BI@MFCFHGIF@weapons?1awp_clipout?4wav?$AA@ 100a9658     wpn_awp.obj
 0002:00015670       ??_C@_0BG@OBMGBECE@models?1rshell_big?4mdl?$AA@ 100a9670     wpn_awp.obj
 0002:00015688       ??_C@_0O@CBMGEIM@events?1awp?4sc?$AA@ 100a9688     wpn_awp.obj
 0002:00015698       __real@3fb47ae147ae147b    100a9698     wpn_awp.obj
 0002:000156a0       __real@43520000            100a96a0     wpn_awp.obj
 0002:000156a8       ??_7CC4@@6B@               100a96a8     wpn_c4.obj
 0002:00015820       ??_C@_0BA@FMLLGIEJ@models?1v_c4?4mdl?$AA@ 100a9820     wpn_c4.obj
 0002:00015830       ??_C@_0BF@MOFLDAFH@weapons?1c4_click?4wav?$AA@ 100a9830     wpn_c4.obj
 0002:00015848       ??_C@_0BH@NLJFFMPK@?$CDC4_Plant_At_Bomb_Spot?$AA@ 100a9848     wpn_c4.obj
 0002:00015860       ??_C@_0BM@JDHDICEL@?$CDC4_Plant_Must_Be_On_Ground?$AA@ 100a9860     wpn_c4.obj
 0002:0001587c       ??_C@_0BF@FAKLJLHM@?$CDC4_Arming_Cancelled?$AA@ 100a987c     wpn_c4.obj
 0002:00015894       ??_C@_06OOAHNOJP@BOMBPL?$AA@ 100a9894     wpn_c4.obj
 0002:0001589c       ??_C@_0O@KMKFNNFA@?$CDBomb_Planted?$AA@ 100a989c     wpn_c4.obj
 0002:000158ac       ??_C@_0DG@NHBAOIAO@?$CC?$CFs?$DM?$CFi?$DO?$DM?$CFs?$DO?$DMTERRORIST?$DO?$CC?5triggere@ 100a98ac     wpn_c4.obj
 0002:000158e4       ??_C@_0O@DNIEPEFM@detonatedelay?$AA@ 100a98e4     wpn_c4.obj
 0002:000158f4       ??_C@_0P@DKHLNHCK@detonatetarget?$AA@ 100a98f4     wpn_c4.obj
 0002:00015904       ??_C@_0N@IMDHLACO@defusetarget?$AA@ 100a9904     wpn_c4.obj
 0002:00015918       ??_7CDEAGLE@@6B@           100a9918     wpn_deagle.obj
 0002:00015a90       ??_C@_0BE@PPJCJCL@models?1v_deagle?4mdl?$AA@ 100a9a90     wpn_deagle.obj
 0002:00015aa4       ??_C@_0CC@FNIHBKCA@models?1shield?1v_shield_deagle?4md@ 100a9aa4     wpn_deagle.obj
 0002:00015ac8       ??_C@_0BF@IJIPNAPG@weapons?1deagle?91?4wav?$AA@ 100a9ac8     wpn_deagle.obj
 0002:00015ae0       ??_C@_0BF@PBLKCFI@weapons?1deagle?92?4wav?$AA@ 100a9ae0     wpn_deagle.obj
 0002:00015af8       ??_C@_0BH@BGAIHIKC@weapons?1de_clipout?4wav?$AA@ 100a9af8     wpn_deagle.obj
 0002:00015b10       ??_C@_0BG@OJODIKC@weapons?1de_clipin?4wav?$AA@ 100a9b10     wpn_deagle.obj
 0002:00015b28       ??_C@_0BG@INMENBLM@weapons?1de_deploy?4wav?$AA@ 100a9b28     wpn_deagle.obj
 0002:00015b40       ??_C@_0BC@PAHONCCK@models?1pshell?4mdl?$AA@ 100a9b40     wpn_deagle.obj
 0002:00015b54       ??_C@_0BB@NNGIMDCI@events?1deagle?4sc?$AA@ 100a9b54     wpn_deagle.obj
 0002:00015b68       ??_C@_09JGAJOMPA@onehanded?$AA@ 100a9b68     wpn_deagle.obj
 0002:00015b78       __real@3fbd70a3d70a3d71    100a9b78     wpn_deagle.obj
 0002:00015b80       __real@3fc0a3d70a3d70a4    100a9b80     wpn_deagle.obj
 0002:00015b88       __real@3ffccccccccccccd    100a9b88     wpn_deagle.obj
 0002:00015b94       ??_7CELITE@@6B@            100a9b94     wpn_elite.obj
 0002:00015d0c       ??_C@_0BD@DNODAMHN@models?1v_elite?4mdl?$AA@ 100a9d0c     wpn_elite.obj
 0002:00015d20       ??_C@_0BH@NEIBHLLN@weapons?1elite_fire?4wav?$AA@ 100a9d20     wpn_elite.obj
 0002:00015d38       ??_C@_0BO@NCEABLHG@weapons?1elite_reloadstart?4wav?$AA@ 100a9d38     wpn_elite.obj
 0002:00015d58       ??_C@_0BN@HCFGIIHA@weapons?1elite_leftclipin?4wav?$AA@ 100a9d58     wpn_elite.obj
 0002:00015d78       ??_C@_0BK@KEFHPLFF@weapons?1elite_clipout?4wav?$AA@ 100a9d78     wpn_elite.obj
 0002:00015d94       ??_C@_0BP@OBONFEGO@weapons?1elite_sliderelease?4wav?$AA@ 100a9d94     wpn_elite.obj
 0002:00015db4       ??_C@_0BO@OENBKHHH@weapons?1elite_rightclipin?4wav?$AA@ 100a9db4     wpn_elite.obj
 0002:00015dd4       ??_C@_0BJ@GPEMAOAF@weapons?1elite_deploy?4wav?$AA@ 100a9dd4     wpn_elite.obj
 0002:00015df0       ??_C@_0BF@KEACDDJK@events?1elite_left?4sc?$AA@ 100a9df0     wpn_elite.obj
 0002:00015e08       ??_C@_0BG@OIICKGJA@events?1elite_right?4sc?$AA@ 100a9e08     wpn_elite.obj
 0002:00015e20       ??_C@_0M@LBHJNDEK@dualpistols?$AA@ 100a9e20     wpn_elite.obj
 0002:00015e30       __real@3fc6666666666666    100a9e30     wpn_elite.obj
 0002:00015e38       __real@3fd199999999999a    100a9e38     wpn_elite.obj
 0002:00015e40       __real@3fd4cccccccccccd    100a9e40     wpn_elite.obj
 0002:00015e48       __real@3fec28f5c28f5c29    100a9e48     wpn_elite.obj
 0002:00015e50       __real@3ff4cccccccccccd    100a9e50     wpn_elite.obj
 0002:00015e5c       ??_7CFamas@@6B@            100a9e5c     wpn_famas.obj
 0002:00015fd4       ??_C@_0BD@EDLIAMDM@models?1v_famas?4mdl?$AA@ 100a9fd4     wpn_famas.obj
 0002:00015fe8       ??_C@_0BE@DPKPHHNP@weapons?1famas?91?4wav?$AA@ 100a9fe8     wpn_famas.obj
 0002:00015ffc       ??_C@_0BE@LJDLAFHB@weapons?1famas?92?4wav?$AA@ 100a9ffc     wpn_famas.obj
 0002:00016010       ??_C@_0BK@GBMLJPLM@weapons?1famas_clipout?4wav?$AA@ 100aa010     wpn_famas.obj
 0002:0001602c       ??_C@_0BJ@MKEJLAKD@weapons?1famas_clipin?4wav?$AA@ 100aa02c     wpn_famas.obj
 0002:00016048       ??_C@_0BL@FFKHAJGH@weapons?1famas_boltpull?4wav?$AA@ 100aa048     wpn_famas.obj
 0002:00016064       ??_C@_0BL@BKBNLMIC@weapons?1famas_boltslap?4wav?$AA@ 100aa064     wpn_famas.obj
 0002:00016080       ??_C@_0BK@KNGHIMGD@weapons?1famas_forearm?4wav?$AA@ 100aa080     wpn_famas.obj
 0002:0001609c       ??_C@_0BI@FPFEOMEO@weapons?1famas?9burst?4wav?$AA@ 100aa09c     wpn_famas.obj
 0002:000160b4       ??_C@_0BA@IKECAOEF@events?1famas?4sc?$AA@ 100aa0b4     wpn_famas.obj
 0002:000160c4       ??_C@_0BE@NKFICKK@?$CDSwitch_To_FullAuto?$AA@ 100aa0c4     wpn_famas.obj
 0002:000160d8       ??_C@_0BF@NLHDPEPL@?$CDSwitch_To_BurstFire?$AA@ 100aa0d8     wpn_famas.obj
 0002:000160f0       __real@3f9eb851eb851eb8    100aa0f0     wpn_famas.obj
 0002:000160f8       __real@3ff199999999999a    100aa0f8     wpn_famas.obj
 0002:00016104       ??_7CFiveSeven@@6B@        100aa104     wpn_fiveseven.obj
 0002:0001627c       ??_C@_0BH@EAPMIAAO@models?1v_fiveseven?4mdl?$AA@ 100aa27c     wpn_fiveseven.obj
 0002:00016294       ??_C@_0CF@PHPFGLG@models?1shield?1v_shield_fiveseven@ 100aa294     wpn_fiveseven.obj
 0002:000162bc       ??_C@_0BI@JAILPLMG@weapons?1fiveseven?91?4wav?$AA@ 100aa2bc     wpn_fiveseven.obj
 0002:000162d4       ??_C@_0BO@MMHALDEI@weapons?1fiveseven_clipout?4wav?$AA@ 100aa2d4     wpn_fiveseven.obj
 0002:000162f4       ??_C@_0BN@BGONACMJ@weapons?1fiveseven_clipin?4wav?$AA@ 100aa2f4     wpn_fiveseven.obj
 0002:00016314       ??_C@_0CD@LHBLMGEF@weapons?1fiveseven_sliderelease?4w@ 100aa314     wpn_fiveseven.obj
 0002:00016338       ??_C@_0CA@GLKAPEOE@weapons?1fiveseven_slidepull?4wav?$AA@ 100aa338     wpn_fiveseven.obj
 0002:00016358       ??_C@_0BE@GFFILKPK@events?1fiveseven?4sc?$AA@ 100aa358     wpn_fiveseven.obj
 0002:00016370       __real@3fd051eb851eb852    100aa370     wpn_fiveseven.obj
 0002:00016378       __real@3fe7333333333333    100aa378     wpn_fiveseven.obj
 0002:00016380       __real@3fed70a3d70a3d71    100aa380     wpn_fiveseven.obj
 0002:00016388       __real@4008800000000000    100aa388     wpn_fiveseven.obj
 0002:00016394       ??_7CFlashbang@@6B@        100aa394     wpn_flashbang.obj
 0002:0001650c       ??_C@_0BH@ILEJBDDA@models?1v_flashbang?4mdl?$AA@ 100aa50c     wpn_flashbang.obj
 0002:00016524       ??_C@_0CF@MEMKMFII@models?1shield?1v_shield_flashbang@ 100aa524     wpn_flashbang.obj
 0002:0001654c       ??_C@_0BE@KCMGFPNE@weapons?1pinpull?4wav?$AA@ 100aa54c     wpn_flashbang.obj
 0002:00016560       ??_C@_0L@NJHGEADA@shieldgren?$AA@ 100aa560     wpn_flashbang.obj
 0002:0001656c       ??_C@_0BC@FPCDNMNC@?$CDFire_in_the_hole?$AA@ 100aa56c     wpn_flashbang.obj
 0002:00016580       ??_C@_0BC@LMCLEMBF@?$CF?$CBMRAD_FIREINHOLE?$AA@ 100aa580     wpn_flashbang.obj
 0002:00016598       __real@3fec71c71c71c71c    100aa598     wpn_flashbang.obj
 0002:000165a0       __real@3ff1c71c71c71c72    100aa5a0     wpn_flashbang.obj
 0002:000165a8       __real@4034000000000000    100aa5a8     wpn_flashbang.obj
 0002:000165b0       __real@443b8000            100aa5b0     wpn_flashbang.obj
 0002:000165b8       ??_7CG3SG1@@6B@            100aa5b8     wpn_g3sg1.obj
 0002:00016730       ??_C@_0BE@KFBNFCBE@weapons?1g3sg1?91?4wav?$AA@ 100aa730     wpn_g3sg1.obj
 0002:00016744       ??_C@_0BI@CDNEBMOP@weapons?1g3sg1_slide?4wav?$AA@ 100aa744     wpn_g3sg1.obj
 0002:0001675c       ??_C@_0BJ@IOBEHOIL@weapons?1g3sg1_clipin?4wav?$AA@ 100aa75c     wpn_g3sg1.obj
 0002:00016778       ??_C@_0BK@FEDKGKII@weapons?1g3sg1_clipout?4wav?$AA@ 100aa778     wpn_g3sg1.obj
 0002:00016794       ??_C@_0BA@EJLBOBBK@events?1g3sg1?4sc?$AA@ 100aa794     wpn_g3sg1.obj
 0002:000167a8       __real@3f9999999999999a    100aa7a8     wpn_g3sg1.obj
 0002:000167b4       ??_7CGalil@@6B@            100aa7b4     wpn_galil.obj
 0002:0001692c       ??_C@_0BD@KBLPJJLF@models?1v_galil?4mdl?$AA@ 100aa92c     wpn_galil.obj
 0002:00016940       ??_C@_0BE@FFILNBBB@weapons?1galil?91?4wav?$AA@ 100aa940     wpn_galil.obj
 0002:00016954       ??_C@_0BE@NDBPKDLP@weapons?1galil?92?4wav?$AA@ 100aa954     wpn_galil.obj
 0002:00016968       ??_C@_0BK@NPFOPMNB@weapons?1galil_clipout?4wav?$AA@ 100aa968     wpn_galil.obj
 0002:00016984       ??_C@_0BJ@FEDKMNNB@weapons?1galil_clipin?4wav?$AA@ 100aa984     wpn_galil.obj
 0002:000169a0       ??_C@_0BL@GGBKIBOB@weapons?1galil_boltpull?4wav?$AA@ 100aa9a0     wpn_galil.obj
 0002:000169bc       ??_C@_0BA@DFKNJDIM@events?1galil?4sc?$AA@ 100aa9bc     wpn_galil.obj
 0002:000169d0       __real@3fa3333333333333    100aa9d0     wpn_galil.obj
 0002:000169dc       ??_7CGLOCK18@@6B@          100aa9dc     wpn_glock18.obj
 0002:00016b54       ??_C@_0BF@EOJFLAJI@models?1v_glock18?4mdl?$AA@ 100aab54     wpn_glock18.obj
 0002:00016b6c       ??_C@_0CD@NJBFBHCD@models?1shield?1v_shield_glock18?4m@ 100aab6c     wpn_glock18.obj
 0002:00016b90       ??_C@_0BG@HNPBOLJC@weapons?1glock18?91?4wav?$AA@ 100aab90     wpn_glock18.obj
 0002:00016ba8       ??_C@_0BG@PLGFJJDM@weapons?1glock18?92?4wav?$AA@ 100aaba8     wpn_glock18.obj
 0002:00016bc0       ??_C@_0BF@OFJPDGGB@weapons?1clipout1?4wav?$AA@ 100aabc0     wpn_glock18.obj
 0002:00016bd8       ??_C@_0BE@EGFAPJIH@weapons?1clipin1?4wav?$AA@ 100aabd8     wpn_glock18.obj
 0002:00016bec       ??_C@_0BK@GJFNJPCF@weapons?1sliderelease1?4wav?$AA@ 100aabec     wpn_glock18.obj
 0002:00016c08       ??_C@_0BH@LDPEDGIJ@weapons?1slideback1?4wav?$AA@ 100aac08     wpn_glock18.obj
 0002:00016c20       ??_C@_0BG@FDJOBCGH@weapons?1357_cock1?4wav?$AA@ 100aac20     wpn_glock18.obj
 0002:00016c38       ??_C@_0BC@MKJOACLM@events?1glock18?4sc?$AA@ 100aac38     wpn_glock18.obj
 0002:00016c4c       ??_C@_0BE@GBPDCOLI@?$CDSwitch_To_SemiAuto?$AA@ 100aac4c     wpn_glock18.obj
 0002:00016c60       __real@3fb851eb851eb852    100aac60     wpn_glock18.obj
 0002:00016c68       __real@3fc51eb851eb851f    100aac68     wpn_glock18.obj
 0002:00016c70       __real@3fc7ae147ae147ae    100aac70     wpn_glock18.obj
 0002:00016c78       __real@400e000000000000    100aac78     wpn_glock18.obj
 0002:00016c84       ??_7CHEGrenade@@6B@        100aac84     wpn_hegrenade.obj
 0002:00016dfc       ??_C@_0BH@BDIGLAJJ@models?1v_hegrenade?4mdl?$AA@ 100aadfc     wpn_hegrenade.obj
 0002:00016e14       ??_C@_0CF@FMAFGGCB@models?1shield?1v_shield_hegrenade@ 100aae14     wpn_hegrenade.obj
 0002:00016e3c       ??_C@_0BI@IIFCIEMN@weapons?1hegrenade?91?4wav?$AA@ 100aae3c     wpn_hegrenade.obj
 0002:00016e54       ??_C@_0BI@OMGPGGD@weapons?1hegrenade?92?4wav?$AA@ 100aae54     wpn_hegrenade.obj
 0002:00016e6c       ??_C@_0BG@CPJBGJKL@events?1createexplo?4sc?$AA@ 100aae6c     wpn_hegrenade.obj
 0002:00016e88       ??_7CKnife@@6B@            100aae88     wpn_knife.obj
 0002:00017000       ??_C@_0BD@PNJNJJKP@models?1v_knife?4mdl?$AA@ 100ab000     wpn_knife.obj
 0002:00017014       ??_C@_0CB@OLEMKEBM@models?1shield?1v_shield_knife?4mdl@ 100ab014     wpn_knife.obj
 0002:00017038       ??_C@_0BK@IDANGKCD@weapons?1knife_deploy1?4wav?$AA@ 100ab038     wpn_knife.obj
 0002:00017054       ??_C@_0BH@ELCHAEP@weapons?1knife_hit1?4wav?$AA@ 100ab054     wpn_knife.obj
 0002:0001706c       ??_C@_0BH@ICCGACOB@weapons?1knife_hit2?4wav?$AA@ 100ab06c     wpn_knife.obj
 0002:00017084       ??_C@_0BH@EJHKNBEE@weapons?1knife_hit3?4wav?$AA@ 100ab084     wpn_knife.obj
 0002:0001709c       ??_C@_0BH@FEHPOBPM@weapons?1knife_hit4?4wav?$AA@ 100ab09c     wpn_knife.obj
 0002:000170b4       ??_C@_0BJ@GNEABCIJ@weapons?1knife_slash1?4wav?$AA@ 100ab0b4     wpn_knife.obj
 0002:000170d0       ??_C@_0BJ@OLNEGACH@weapons?1knife_slash2?4wav?$AA@ 100ab0d0     wpn_knife.obj
 0002:000170ec       ??_C@_0BH@HCGFEBCJ@weapons?1knife_stab?4wav?$AA@ 100ab0ec     wpn_knife.obj
 0002:00017104       ??_C@_0BL@DOKFJDGH@weapons?1knife_hitwall1?4wav?$AA@ 100ab104     wpn_knife.obj
 0002:00017120       ??_C@_0BA@KEMHINDH@events?1knife?4sc?$AA@ 100ab120     wpn_knife.obj
 0002:00017130       ??_C@_0M@KIJNINPG@shieldknife?$AA@ 100ab130     wpn_knife.obj
 0002:0001713c       __real@42820000            100ab13c     wpn_knife.obj
 0002:00017140       __real@43430000            100ab140     wpn_knife.obj
 0002:00017148       ??_7CM249@@6B@             100ab148     wpn_m249.obj
 0002:000172c0       ??_C@_0BC@BEKHHKDD@models?1v_m249?4mdl?$AA@ 100ab2c0     wpn_m249.obj
 0002:000172d4       ??_C@_0BD@MEEEDINL@weapons?1m249?91?4wav?$AA@ 100ab2d4     wpn_m249.obj
 0002:000172e8       ??_C@_0BD@ECNAEKHF@weapons?1m249?92?4wav?$AA@ 100ab2e8     wpn_m249.obj
 0002:000172fc       ??_C@_0BI@JIOLJPAO@weapons?1m249_boxout?4wav?$AA@ 100ab2fc     wpn_m249.obj
 0002:00017314       ??_C@_0BH@FDJGGNDP@weapons?1m249_boxin?4wav?$AA@ 100ab314     wpn_m249.obj
 0002:0001732c       ??_C@_0BH@LLMBEBMI@weapons?1m249_chain?4wav?$AA@ 100ab32c     wpn_m249.obj
 0002:00017344       ??_C@_0BJ@ENCJJFIM@weapons?1m249_coverup?4wav?$AA@ 100ab344     wpn_m249.obj
 0002:00017360       ??_C@_0BL@MJIIKALN@weapons?1m249_coverdown?4wav?$AA@ 100ab360     wpn_m249.obj
 0002:0001737c       ??_C@_0P@IIAINDHN@events?1m249?4sc?$AA@ 100ab37c     wpn_m249.obj
 0002:00017390       __real@3fa70a3d70a3d70a    100ab390     wpn_m249.obj
 0002:00017398       __real@3ff999999999999a    100ab398     wpn_m249.obj
 0002:000173a0       __real@435c0000            100ab3a0     wpn_m249.obj
 0002:000173a8       ??_7CM3@@6B@               100ab3a8     wpn_m3.obj
 0002:00017520       ??_C@_0BA@BBIBCDKM@models?1v_m3?4mdl?$AA@ 100ab520     wpn_m3.obj
 0002:00017530       ??_C@_0BI@IGNLAKKI@models?1shotgunshell?4mdl?$AA@ 100ab530     wpn_m3.obj
 0002:00017548       ??_C@_0BB@GOLJNFGJ@weapons?1m3?91?4wav?$AA@ 100ab548     wpn_m3.obj
 0002:0001755c       ??_C@_0BL@NNAEHAPG@weapons?1m3_insertshell?4wav?$AA@ 100ab55c     wpn_m3.obj
 0002:00017578       ??_C@_0BE@PPDCBGDE@weapons?1m3_pump?4wav?$AA@ 100ab578     wpn_m3.obj
 0002:0001758c       ??_C@_0BE@EIGFGEIO@weapons?1reload1?4wav?$AA@ 100ab58c     wpn_m3.obj
 0002:000175a0       ??_C@_0BE@FKNMFIF@weapons?1reload3?4wav?$AA@ 100ab5a0     wpn_m3.obj
 0002:000175b4       ??_C@_0N@HKIJFPPA@events?1m3?4sc?$AA@ 100ab5b4     wpn_m3.obj
 0002:000175c8       __real@3fdccccccccccccd    100ab5c8     wpn_m3.obj
 0002:000175d0       __real@3fec000000000000    100ab5d0     wpn_m3.obj
 0002:000175d8       __real@43660000            100ab5d8     wpn_m3.obj
 0002:000175e0       ??_7CM4A1@@6B@             100ab5e0     wpn_m4a1.obj
 0002:00017758       ??_C@_0BC@EPHGDHMJ@models?1v_m4a1?4mdl?$AA@ 100ab758     wpn_m4a1.obj
 0002:0001776c       ??_C@_0BD@CCHKFHBA@weapons?1m4a1?91?4wav?$AA@ 100ab76c     wpn_m4a1.obj
 0002:00017780       ??_C@_0BJ@PEGEKGL@weapons?1m4a1_unsil?91?4wav?$AA@ 100ab780     wpn_m4a1.obj
 0002:0001779c       ??_C@_0BJ@IJNCDIMF@weapons?1m4a1_unsil?92?4wav?$AA@ 100ab79c     wpn_m4a1.obj
 0002:000177b8       ??_C@_0BI@HFBAPLFA@weapons?1m4a1_clipin?4wav?$AA@ 100ab7b8     wpn_m4a1.obj
 0002:000177d0       ??_C@_0BJ@EFMAGFFB@weapons?1m4a1_clipout?4wav?$AA@ 100ab7d0     wpn_m4a1.obj
 0002:000177ec       ??_C@_0BK@ILDIJMFI@weapons?1m4a1_boltpull?4wav?$AA@ 100ab7ec     wpn_m4a1.obj
 0002:00017808       ??_C@_0BI@PGEKBCEO@weapons?1m4a1_deploy?4wav?$AA@ 100ab808     wpn_m4a1.obj
 0002:00017820       ??_C@_0BN@KEGGBGNA@weapons?1m4a1_silencer_on?4wav?$AA@ 100ab820     wpn_m4a1.obj
 0002:00017840       ??_C@_0BO@HGOOLMNI@weapons?1m4a1_silencer_off?4wav?$AA@ 100ab840     wpn_m4a1.obj
 0002:00017860       ??_C@_0P@IHOLDEMC@events?1m4a1?4sc?$AA@ 100ab860     wpn_m4a1.obj
 0002:00017874       ??_7CMAC10@@6B@            100ab874     wpn_mac10.obj
 0002:000179ec       ??_C@_0BD@EMLHEIM@models?1v_mac10?4mdl?$AA@ 100ab9ec     wpn_mac10.obj
 0002:00017a00       ??_C@_0BE@IFLEGHBK@weapons?1mac10?91?4wav?$AA@ 100aba00     wpn_mac10.obj
 0002:00017a14       ??_C@_0BK@PNPCMGB@weapons?1mac10_clipout?4wav?$AA@ 100aba14     wpn_mac10.obj
 0002:00017a30       ??_C@_0BJ@LFPMIKDE@weapons?1mac10_clipin?4wav?$AA@ 100aba30     wpn_mac10.obj
 0002:00017a4c       ??_C@_0BL@KNKLLDLN@weapons?1mac10_boltpull?4wav?$AA@ 100aba4c     wpn_mac10.obj
 0002:00017a68       ??_C@_0BA@ELPFMBKL@events?1mac10?4sc?$AA@ 100aba68     wpn_mac10.obj
 0002:00017a78       __real@3fd8000000000000    100aba78     wpn_mac10.obj
 0002:00017a84       ??_7CMP5N@@6B@             100aba84     wpn_mp5navy.obj
 0002:00017bfc       ??_C@_0BB@GGIDOLFM@models?1v_mp5?4mdl?$AA@ 100abbfc     wpn_mp5navy.obj
 0002:00017c10       ??_C@_0BC@OMCPNPN@weapons?1mp5?91?4wav?$AA@ 100abc10     wpn_mp5navy.obj
 0002:00017c24       ??_C@_0BC@IIFGIPFD@weapons?1mp5?92?4wav?$AA@ 100abc24     wpn_mp5navy.obj
 0002:00017c38       ??_C@_0BI@DMBMDDML@weapons?1mp5_clipout?4wav?$AA@ 100abc38     wpn_mp5navy.obj
 0002:00017c50       ??_C@_0BH@HFPOMFFJ@weapons?1mp5_clipin?4wav?$AA@ 100abc50     wpn_mp5navy.obj
 0002:00017c68       ??_C@_0BK@HDMFJFH@weapons?1mp5_slideback?4wav?$AA@ 100abc68     wpn_mp5navy.obj
 0002:00017c84       ??_C@_0P@BKPDHHFD@events?1mp5n?4sc?$AA@ 100abc84     wpn_mp5navy.obj
 0002:00017c98       ??_7CP228@@6B@             100abc98     wpn_p228.obj
 0002:00017e10       ??_C@_0BC@OBKEDJIK@models?1v_p228?4mdl?$AA@ 100abe10     wpn_p228.obj
 0002:00017e24       ??_C@_0CA@FMFGMPFF@models?1shield?1v_shield_p228?4mdl?$AA@ 100abe24     wpn_p228.obj
 0002:00017e44       ??_C@_0BD@BOJGMIAD@weapons?1p228?91?4wav?$AA@ 100abe44     wpn_p228.obj
 0002:00017e58       ??_C@_0BJ@CCAMEHNB@weapons?1p228_clipout?4wav?$AA@ 100abe58     wpn_p228.obj
 0002:00017e74       ??_C@_0BI@GEHILHML@weapons?1p228_clipin?4wav?$AA@ 100abe74     wpn_p228.obj
 0002:00017e8c       ??_C@_0BO@PPBPENIC@weapons?1p228_sliderelease?4wav?$AA@ 100abe8c     wpn_p228.obj
 0002:00017eac       ??_C@_0BL@HBPDBNMO@weapons?1p228_slidepull?4wav?$AA@ 100abeac     wpn_p228.obj
 0002:00017ec8       ??_C@_0P@IEIPDNCK@events?1p228?4sc?$AA@ 100abec8     wpn_p228.obj
 0002:00017edc       ??_7CP90@@6B@              100abedc     wpn_p90.obj
 0002:00018054       ??_C@_0BB@GDGOLP@models?1v_p90?4mdl?$AA@ 100ac054     wpn_p90.obj
 0002:00018068       ??_C@_0BC@OGEDEMJN@weapons?1p90?91?4wav?$AA@ 100ac068     wpn_p90.obj
 0002:0001807c       ??_C@_0BI@OLFLENHD@weapons?1p90_clipout?4wav?$AA@ 100ac07c     wpn_p90.obj
 0002:00018094       ??_C@_0BH@DPFCJDLI@weapons?1p90_clipin?4wav?$AA@ 100ac094     wpn_p90.obj
 0002:000180ac       ??_C@_0BJ@FOPGEGJE@weapons?1p90_boltpull?4wav?$AA@ 100ac0ac     wpn_p90.obj
 0002:000180c8       ??_C@_0BM@EMBOGJMI@weapons?1p90_cliprelease?4wav?$AA@ 100ac0c8     wpn_p90.obj
 0002:000180e4       ??_C@_0O@KOBEMAKD@events?1p90?4sc?$AA@ 100ac0e4     wpn_p90.obj
 0002:000180f4       __real@43750000            100ac0f4     wpn_p90.obj
 0002:000180fc       ??_7CSCOUT@@6B@            100ac0fc     wpn_scout.obj
 0002:00018274       ??_C@_0BJ@MENBILCC@weapons?1scout_fire?91?4wav?$AA@ 100ac274     wpn_scout.obj
 0002:00018290       ??_C@_0BH@NEFNGCGJ@weapons?1scout_bolt?4wav?$AA@ 100ac290     wpn_scout.obj
 0002:000182a8       ??_C@_0BJ@EPNOEIP@weapons?1scout_clipin?4wav?$AA@ 100ac2a8     wpn_scout.obj
 0002:000182c4       ??_C@_0BK@FDNNEHAL@weapons?1scout_clipout?4wav?$AA@ 100ac2c4     wpn_scout.obj
 0002:000182e0       ??_C@_0BA@JDMIIDLC@events?1scout?4sc?$AA@ 100ac2e0     wpn_scout.obj
 0002:000182f4       ??_7CSG550@@6B@            100ac2f4     wpn_sg550.obj
 0002:0001846c       ??_C@_0BE@GBMODELI@weapons?1sg550?91?4wav?$AA@ 100ac46c     wpn_sg550.obj
 0002:00018480       ??_C@_0BL@BNPKCFKC@weapons?1sg550_boltpull?4wav?$AA@ 100ac480     wpn_sg550.obj
 0002:0001849c       ??_C@_0BJ@FNHDNOA@weapons?1sg550_clipin?4wav?$AA@ 100ac49c     wpn_sg550.obj
 0002:000184b8       ??_C@_0BK@IONBBBBL@weapons?1sg550_clipout?4wav?$AA@ 100ac4b8     wpn_sg550.obj
 0002:000184d4       ??_C@_0BA@DCAMMPFE@events?1sg550?4sc?$AA@ 100ac4d4     wpn_sg550.obj
 0002:000184e8       ??_7CSG552@@6B@            100ac4e8     wpn_sg552.obj
 0002:00018660       ??_C@_0BD@GEHIMDAE@models?1v_sg552?4mdl?$AA@ 100ac660     wpn_sg552.obj
 0002:00018674       ??_C@_0BE@CDOLDDMF@weapons?1sg552?91?4wav?$AA@ 100ac674     wpn_sg552.obj
 0002:00018688       ??_C@_0BE@KFHPEBGL@weapons?1sg552?92?4wav?$AA@ 100ac688     wpn_sg552.obj
 0002:0001869c       ??_C@_0BK@GPLPNFLG@weapons?1sg552_clipout?4wav?$AA@ 100ac69c     wpn_sg552.obj
 0002:000186b8       ??_C@_0BJ@GFILIIKL@weapons?1sg552_clipin?4wav?$AA@ 100ac6b8     wpn_sg552.obj
 0002:000186d4       ??_C@_0BL@LFHMJEDD@weapons?1sg552_boltpull?4wav?$AA@ 100ac6d4     wpn_sg552.obj
 0002:000186f0       ??_C@_0BA@EIMMJMDE@events?1sg552?4sc?$AA@ 100ac6f0     wpn_sg552.obj
 0002:00018700       __real@436b0000            100ac700     wpn_sg552.obj
 0002:00018708       ??_7CSmokeGrenade@@6B@     100ac708     wpn_smokegrenade.obj
 0002:00018880       ??_C@_0BK@MAMDFOGN@models?1v_smokegrenade?4mdl?$AA@ 100ac880     wpn_smokegrenade.obj
 0002:0001889c       ??_C@_0CI@KIFNEBIJ@models?1shield?1v_shield_smokegren@ 100ac89c     wpn_smokegrenade.obj
 0002:000188c4       ??_C@_0BG@CDDKJCB@events?1createsmoke?4sc?$AA@ 100ac8c4     wpn_smokegrenade.obj
 0002:000188e0       ??_7CTMP@@6B@              100ac8e0     wpn_tmp.obj
 0002:00018a58       ??_C@_0BB@FMOLKHIN@models?1v_tmp?4mdl?$AA@ 100aca58     wpn_tmp.obj
 0002:00018a6c       ??_C@_0BC@OJILDOHA@weapons?1tmp?91?4wav?$AA@ 100aca6c     wpn_tmp.obj
 0002:00018a80       ??_C@_0BC@GPBPEMNO@weapons?1tmp?92?4wav?$AA@ 100aca80     wpn_tmp.obj
 0002:00018a94       ??_C@_0O@JFLHPGBI@events?1tmp?4sc?$AA@ 100aca94     wpn_tmp.obj
 0002:00018aa8       ??_7CUMP45@@6B@            100acaa8     wpn_ump45.obj
 0002:00018c20       ??_C@_0BD@CGEHMOFI@models?1v_ump45?4mdl?$AA@ 100acc20     wpn_ump45.obj
 0002:00018c34       ??_C@_0BE@ELFEBPBP@weapons?1ump45?91?4wav?$AA@ 100acc34     wpn_ump45.obj
 0002:00018c48       ??_C@_0BK@NLPOOMKO@weapons?1ump45_clipout?4wav?$AA@ 100acc48     wpn_ump45.obj
 0002:00018c64       ??_C@_0BJ@CPAMKHFH@weapons?1ump45_clipin?4wav?$AA@ 100acc64     wpn_ump45.obj
 0002:00018c80       ??_C@_0BL@OJBOPILJ@weapons?1ump45_boltslap?4wav?$AA@ 100acc80     wpn_ump45.obj
 0002:00018c9c       ??_C@_0BA@MFFJKMBN@events?1ump45?4sc?$AA@ 100acc9c     wpn_ump45.obj
 0002:00018cb0       __real@3fceb851eb851eb8    100accb0     wpn_ump45.obj
 0002:00018cbc       ??_7CUSP@@6B@              100accbc     wpn_usp.obj
 0002:00018e34       ??_C@_0BB@KHKAEAIA@models?1v_usp?4mdl?$AA@ 100ace34     wpn_usp.obj
 0002:00018e48       ??_C@_0BP@OIKEIDHA@models?1shield?1v_shield_usp?4mdl?$AA@ 100ace48     wpn_usp.obj
 0002:00018e68       ??_C@_0BB@BCDOHPJK@weapons?1usp1?4wav?$AA@ 100ace68     wpn_usp.obj
 0002:00018e7c       ??_C@_0BB@JEKKANDE@weapons?1usp2?4wav?$AA@ 100ace7c     wpn_usp.obj
 0002:00018e90       ??_C@_0BI@DHMJEOMF@weapons?1usp_unsil?91?4wav?$AA@ 100ace90     wpn_usp.obj
 0002:00018ea8       ??_C@_0BI@HNEPGBPP@weapons?1usp_clipout?4wav?$AA@ 100acea8     wpn_usp.obj
 0002:00018ec0       ??_C@_0BH@CCNGJBPC@weapons?1usp_clipin?4wav?$AA@ 100acec0     wpn_usp.obj
 0002:00018ed8       ??_C@_0BM@JKMCOMCA@weapons?1usp_silencer_on?4wav?$AA@ 100aced8     wpn_usp.obj
 0002:00018ef4       ??_C@_0BN@MLGNOKDO@weapons?1usp_silencer_off?4wav?$AA@ 100acef4     wpn_usp.obj
 0002:00018f14       ??_C@_0BN@ELEIFOAH@weapons?1usp_sliderelease?4wav?$AA@ 100acf14     wpn_usp.obj
 0002:00018f34       ??_C@_0BK@DJHDNLCL@weapons?1usp_slideback?4wav?$AA@ 100acf34     wpn_usp.obj
 0002:00018f50       ??_C@_0O@KBMJOEH@events?1usp?4sc?$AA@ 100acf50     wpn_usp.obj
 0002:00018f60       __real@3fcccccccccccccd    100acf60     wpn_usp.obj
 0002:00018f6c       ??_7CXM1014@@6B@           100acf6c     wpn_xm1014.obj
 0002:000190e4       ??_C@_0BE@BAKDNHFP@models?1v_xm1014?4mdl?$AA@ 100ad0e4     wpn_xm1014.obj
 0002:000190f8       ??_C@_0BF@JINJKMEF@weapons?1xm1014?91?4wav?$AA@ 100ad0f8     wpn_xm1014.obj
 0002:00019110       ??_C@_0BB@FNBFNJPL@events?1xm1014?4sc?$AA@ 100ad110     wpn_xm1014.obj
 0002:00019128       __real@4002000000000000    100ad128     wpn_xm1014.obj
 0002:00019134       ??_7type_info@@6B@         100ad134     LIBCMT:std_type_info_static.obj
 0002:00019138       __pRawDllMain              100ad138     LIBCMT:dll_dllmain.obj
 0002:00019138       __pDefaultRawDllMain       100ad138     LIBCMT:dll_dllmain.obj
 0002:00019140       ??_7exception@std@@6B@     100ad140     LIBCMT:throw_bad_alloc.obj
 0002:00019148       ??_C@_0BC@EOODALEL@Unknown?5exception?$AA@ 100ad148     LIBCMT:throw_bad_alloc.obj
 0002:00019160       ??_7bad_alloc@std@@6B@     100ad160     LIBCMT:throw_bad_alloc.obj
 0002:00019168       ??_C@_0P@GHFPNOJB@bad?5allocation?$AA@ 100ad168     LIBCMT:throw_bad_alloc.obj
 0002:0001917c       ??_7bad_array_new_length@std@@6B@ 100ad17c     LIBCMT:throw_bad_alloc.obj
 0002:00019184       ??_C@_0BF@KINCDENJ@bad?5array?5new?5length?$AA@ 100ad184     LIBCMT:throw_bad_alloc.obj
 0002:000191c8       ??_7bad_exception@std@@6B@ 100ad1c8     libvcruntime:frame.obj
 0002:000191d0       ??_C@_0O@DPKOEFFH@bad?5exception?$AA@ 100ad1d0     libvcruntime:frame.obj
 0002:000191ec       ??_C@_1DM@KHCHBNEB@?$AAa?$AAp?$AAi?$AA?9?$AAm?$AAs?$AA?9?$AAw?$AAi?$AAn?$AA?9?$AAc?$AAo?$AAr?$AAe?$AA?9?$AAf?$AAi?$AAb?$AAe?$AAr?$AAs?$AA?9?$AAl?$AA1?$AA?9?$AA1?$AA?9?$AA1?$AA?$AA@ 100ad1ec     libvcruntime:winapi_downlevel.obj
 0002:00019228       ??_C@_1DK@LPPGFMPP@?$AAa?$AAp?$AAi?$AA?9?$AAm?$AAs?$AA?9?$AAw?$AAi?$AAn?$AA?9?$AAc?$AAo?$AAr?$AAe?$AA?9?$AAs?$AAy?$AAn?$AAc?$AAh?$AA?9?$AAl?$AA1?$AA?9?$AA2?$AA?9?$AA0?$AA?$AA@ 100ad228     libvcruntime:winapi_downlevel.obj
 0002:00019264       ??_C@_1BC@GDMECMAK@?$AAk?$AAe?$AAr?$AAn?$AAe?$AAl?$AA3?$AA2?$AA?$AA@ 100ad264     libvcruntime:winapi_downlevel.obj
 0002:00019278       ??_C@_1BA@PFFKHIOG@?$AAa?$AAp?$AAi?$AA?9?$AAm?$AAs?$AA?9?$AA?$AA@ 100ad278     libvcruntime:winapi_downlevel.obj
 0002:00019288       ??_C@_1BA@IAIFMGEF@?$AAe?$AAx?$AAt?$AA?9?$AAm?$AAs?$AA?9?$AA?$AA@ 100ad288     libvcruntime:winapi_downlevel.obj
 0002:000192a0       ??_C@_08KNHFBNJ@FlsAlloc?$AA@ 100ad2a0     libvcruntime:winapi_downlevel.obj
 0002:000192b4       ??_C@_07PEJMOBNF@FlsFree?$AA@ 100ad2b4     libvcruntime:winapi_downlevel.obj
 0002:000192c4       ??_C@_0M@GDNOONDI@FlsGetValue?$AA@ 100ad2c4     libvcruntime:winapi_downlevel.obj
 0002:000192d8       ??_C@_0M@JCPCPOEF@FlsSetValue?$AA@ 100ad2d8     libvcruntime:winapi_downlevel.obj
 0002:000192ec       ??_C@_0BM@HCFOFFN@InitializeCriticalSectionEx?$AA@ 100ad2ec     libvcruntime:winapi_downlevel.obj
 0002:0001949c       ??_C@_08EHJDFFNH@__based?$CI?$AA@ 100ad49c     libvcruntime:undname.obj
 0002:000194a8       ??_C@_07KOLFKCDI@__cdecl?$AA@ 100ad4a8     libvcruntime:undname.obj
 0002:000194b0       ??_C@_08GHMPAG@__pascal?$AA@ 100ad4b0     libvcruntime:undname.obj
 0002:000194bc       ??_C@_09IFJBGAPI@__stdcall?$AA@ 100ad4bc     libvcruntime:undname.obj
 0002:000194c8       ??_C@_0L@NPHFGOKO@__thiscall?$AA@ 100ad4c8     libvcruntime:undname.obj
 0002:000194d4       ??_C@_0L@JMKHOMEK@__fastcall?$AA@ 100ad4d4     libvcruntime:undname.obj
 0002:000194e0       ??_C@_0N@BCKKPABJ@__vectorcall?$AA@ 100ad4e0     libvcruntime:undname.obj
 0002:000194f0       ??_C@_09HIJEGCPM@__clrcall?$AA@ 100ad4f0     libvcruntime:undname.obj
 0002:000194fc       ??_C@_06GHPCKEAG@__eabi?$AA@ 100ad4fc     libvcruntime:undname.obj
 0002:00019504       ??_C@_07JOMMBBKO@__ptr64?$AA@ 100ad504     libvcruntime:undname.obj
 0002:0001950c       ??_C@_0L@PILCLIHE@__restrict?$AA@ 100ad50c     libvcruntime:undname.obj
 0002:00019518       ??_C@_0M@GFIIJFMG@__unaligned?$AA@ 100ad518     libvcruntime:undname.obj
 0002:00019524       ??_C@_09DHDLOLLB@restrict?$CI?$AA@ 100ad524     libvcruntime:undname.obj
 0002:00019530       ??_C@_04NIHEBCM@?5new?$AA@ 100ad530     libvcruntime:undname.obj
 0002:00019538       ??_C@_07FPCDHGMM@?5delete?$AA@ 100ad538     libvcruntime:undname.obj
 0002:00019540       ??_C@_01NEMOKFLO@?$DN?$AA@ 100ad540     libvcruntime:undname.obj
 0002:00019544       ??_C@_02GPIOPFAK@?$DO?$DO?$AA@ 100ad544     libvcruntime:undname.obj
 0002:00019548       ??_C@_02FODMEDOG@?$DM?$DM?$AA@ 100ad548     libvcruntime:undname.obj
 0002:0001954c       ??_C@_01DCLJPIOD@?$CB?$AA@ 100ad54c     libvcruntime:undname.obj
 0002:00019550       ??_C@_02EGOFBIJA@?$DN?$DN?$AA@ 100ad550     libvcruntime:undname.obj
 0002:00019554       ??_C@_02FDNJECIE@?$CB?$DN?$AA@ 100ad554     libvcruntime:undname.obj
 0002:00019558       ??_C@_02GPECMEKF@?$FL?$FN?$AA@ 100ad558     libvcruntime:undname.obj
 0002:0001955c       ??_C@_08LHJFAFGD@operator?$AA@ 100ad55c     libvcruntime:undname.obj
 0002:00019568       ??_C@_02HBOOOICD@?9?$DO?$AA@ 100ad568     libvcruntime:undname.obj
 0002:0001956c       ??_C@_01NBENCBCI@?$CK?$AA@ 100ad56c     libvcruntime:undname.obj
 0002:00019570       ??_C@_02ECNGHCIF@?$CL?$CL?$AA@ 100ad570     libvcruntime:undname.obj
 0002:00019574       ??_C@_02BAABKJLB@?9?9?$AA@ 100ad574     libvcruntime:undname.obj
 0002:00019578       ??_C@_01JOAMLHOP@?9?$AA@   100ad578     libvcruntime:undname.obj
 0002:0001957c       ??_C@_01MIFGBAGJ@?$CL?$AA@ 100ad57c     libvcruntime:undname.obj
 0002:00019580       ??_C@_01HNPIGOCE@?$CG?$AA@ 100ad580     libvcruntime:undname.obj
 0002:00019584       ??_C@_03MNHNFDLC@?9?$DO?$CK?$AA@ 100ad584     libvcruntime:undname.obj
 0002:00019588       ??_C@_01KMDKNFGN@?1?$AA@   100ad588     libvcruntime:undname.obj
 0002:0001958c       ??_C@_01FGNFDNOH@?$CF?$AA@ 100ad58c     libvcruntime:undname.obj
 0002:00019590       ??_C@_01MNNFJEPP@?$DM?$AA@ 100ad590     libvcruntime:undname.obj
 0002:00019594       ??_C@_02EHCHHCKH@?$DM?$DN?$AA@ 100ad594     libvcruntime:undname.obj
 0002:00019598       ??_C@_01PPODPGHN@?$DO?$AA@ 100ad598     libvcruntime:undname.obj
 0002:0001959c       ??_C@_02EEKDKGMJ@?$DO?$DN?$AA@ 100ad59c     libvcruntime:undname.obj
 0002:000195a0       ??_C@_01IHBHIGKO@?0?$AA@   100ad5a0     libvcruntime:undname.obj
 0002:000195a4       ??_C@_02HCKGKOFO@?$CI?$CJ?$AA@ 100ad5a4     libvcruntime:undname.obj
 0002:000195a8       ??_C@_01PJKLJHI@?$HO?$AA@  100ad5a8     libvcruntime:undname.obj
 0002:000195ac       ??_C@_01JKBOJNNK@?$FO?$AA@ 100ad5ac     libvcruntime:undname.obj
 0002:000195b0       ??_C@_01DNKMNLPK@?$HM?$AA@ 100ad5b0     libvcruntime:undname.obj
 0002:000195b4       ??_C@_02PPKAJPJL@?$CG?$CG?$AA@ 100ad5b4     libvcruntime:undname.obj
 0002:000195b8       ??_C@_02NONPIBCD@?$HM?$HM?$AA@ 100ad5b8     libvcruntime:undname.obj
 0002:000195bc       ??_C@_02FPIMKNGF@?$CK?$DN?$AA@ 100ad5bc     libvcruntime:undname.obj
 0002:000195c0       ??_C@_02FOEOMHFC@?$CL?$DN?$AA@ 100ad5c0     libvcruntime:undname.obj
 0002:000195c4       ??_C@_02FKMDLLOA@?9?$DN?$AA@ 100ad5c4     libvcruntime:undname.obj
 0002:000195c8       ??_C@_02FJEHGPIO@?1?$DN?$AA@ 100ad5c8     libvcruntime:undname.obj
 0002:000195cc       ??_C@_02FENAOKFI@?$CF?$DN?$AA@ 100ad5cc     libvcruntime:undname.obj
 0002:000195d0       ??_C@_03IKFCCPFF@?$DO?$DO?$DN?$AA@ 100ad5d0     libvcruntime:undname.obj
 0002:000195d4       ??_C@_03CDNPDDLA@?$DM?$DM?$DN?$AA@ 100ad5d4     libvcruntime:undname.obj
 0002:000195d8       ??_C@_02FGJGFEAB@?$CG?$DN?$AA@ 100ad5d8     libvcruntime:undname.obj
 0002:000195dc       ??_C@_02DHLNPPGH@?$HM?$DN?$AA@ 100ad5dc     libvcruntime:undname.obj
 0002:000195e0       ??_C@_02MHEGNOJ@?$FO?$DN?$AA@ 100ad5e0     libvcruntime:undname.obj
 0002:000195e4       ??_C@_09IFPLHPGF@?$GAvftable?8?$AA@ 100ad5e4     libvcruntime:undname.obj
 0002:000195f0       ??_C@_09BLBHBJP@?$GAvbtable?8?$AA@ 100ad5f0     libvcruntime:undname.obj
 0002:000195fc       ??_C@_07FEEIOKP@?$GAvcall?8?$AA@ 100ad5fc     libvcruntime:undname.obj
 0002:00019604       ??_C@_08LLFFHHDJ@?$GAtypeof?8?$AA@ 100ad604     libvcruntime:undname.obj
 0002:00019610       ??_C@_0BF@KDPPACIK@?$GAlocal?5static?5guard?8?$AA@ 100ad610     libvcruntime:undname.obj
 0002:00019628       ??_C@_08OBABFOLI@?$GAstring?8?$AA@ 100ad628     libvcruntime:undname.obj
 0002:00019634       ??_C@_0BD@JDLKDPAB@?$GAvbase?5destructor?8?$AA@ 100ad634     libvcruntime:undname.obj
 0002:00019648       ??_C@_0BN@DEGPLNFK@?$GAvector?5deleting?5destructor?8?$AA@ 100ad648     libvcruntime:undname.obj
 0002:00019668       ??_C@_0BO@OBMKPJIG@?$GAdefault?5constructor?5closure?8?$AA@ 100ad668     libvcruntime:undname.obj
 0002:00019688       ??_C@_0BN@IMDCHIKM@?$GAscalar?5deleting?5destructor?8?$AA@ 100ad688     libvcruntime:undname.obj
 0002:000196a8       ??_C@_0BO@PFGOCPJJ@?$GAvector?5constructor?5iterator?8?$AA@ 100ad6a8     libvcruntime:undname.obj
 0002:000196c8       ??_C@_0BN@LFPFMEDL@?$GAvector?5destructor?5iterator?8?$AA@ 100ad6c8     libvcruntime:undname.obj
 0002:000196e8       ??_C@_0CE@IKBNEHA@?$GAvector?5vbase?5constructor?5iterat@ 100ad6e8     libvcruntime:undname.obj
 0002:0001970c       ??_C@_0BL@NILFHHPC@?$GAvirtual?5displacement?5map?8?$AA@ 100ad70c     libvcruntime:undname.obj
 0002:00019728       ??_C@_0CB@JONCMFFK@?$GAeh?5vector?5constructor?5iterator?8@ 100ad728     libvcruntime:undname.obj
 0002:0001974c       ??_C@_0CA@GCEOPDGL@?$GAeh?5vector?5destructor?5iterator?8?$AA@ 100ad74c     libvcruntime:undname.obj
 0002:0001976c       ??_C@_0CH@OOJPLCPH@?$GAeh?5vector?5vbase?5constructor?5ite@ 100ad76c     libvcruntime:undname.obj
 0002:00019794       ??_C@_0BL@LLKPOHJI@?$GAcopy?5constructor?5closure?8?$AA@ 100ad794     libvcruntime:undname.obj
 0002:000197b0       ??_C@_0BA@KBCDOMBN@?$GAudt?5returning?8?$AA@ 100ad7b0     libvcruntime:undname.obj
 0002:000197c0       ??_C@_03KLGMFNMG@?$GAEH?$AA@ 100ad7c0     libvcruntime:undname.obj
 0002:000197c4       ??_C@_05KHLCHHI@?$GARTTI?$AA@ 100ad7c4     libvcruntime:undname.obj
 0002:000197cc       ??_C@_0BA@KKLDJDLB@?$GAlocal?5vftable?8?$AA@ 100ad7cc     libvcruntime:undname.obj
 0002:000197dc       ??_C@_0CE@IIHCMGGL@?$GAlocal?5vftable?5constructor?5closu@ 100ad7dc     libvcruntime:undname.obj
 0002:00019800       ??_C@_06FHBGPFGH@?5new?$FL?$FN?$AA@ 100ad800     libvcruntime:undname.obj
 0002:00019808       ??_C@_09LBNFPBCA@?5delete?$FL?$FN?$AA@ 100ad808     libvcruntime:undname.obj
 0002:00019814       ??_C@_0P@HJKNJFNN@?$GAomni?5callsig?8?$AA@ 100ad814     libvcruntime:undname.obj
 0002:00019824       ??_C@_0BL@CNOONJFP@?$GAplacement?5delete?5closure?8?$AA@ 100ad824     libvcruntime:undname.obj
 0002:00019840       ??_C@_0BN@CKNJLHMB@?$GAplacement?5delete?$FL?$FN?5closure?8?$AA@ 100ad840     libvcruntime:undname.obj
 0002:00019860       ??_C@_0CG@CFDHKGGD@?$GAmanaged?5vector?5constructor?5iter@ 100ad860     libvcruntime:undname.obj
 0002:00019888       ??_C@_0CF@IMGKMJNO@?$GAmanaged?5vector?5destructor?5itera@ 100ad888     libvcruntime:undname.obj
 0002:000198b0       ??_C@_0CG@HLDDJMAG@?$GAeh?5vector?5copy?5constructor?5iter@ 100ad8b0     libvcruntime:undname.obj
 0002:000198d8       ??_C@_0CM@FCBBDIGB@?$GAeh?5vector?5vbase?5copy?5constructo@ 100ad8d8     libvcruntime:undname.obj
 0002:00019904       ??_C@_0BL@CLIPGLGB@?$GAdynamic?5initializer?5for?5?8?$AA@ 100ad904     libvcruntime:undname.obj
 0002:00019920       ??_C@_0CB@PDBIFEP@?$GAdynamic?5atexit?5destructor?5for?5?8@ 100ad920     libvcruntime:undname.obj
 0002:00019944       ??_C@_0CD@CGAJBKEJ@?$GAvector?5copy?5constructor?5iterato@ 100ad944     libvcruntime:undname.obj
 0002:00019968       ??_C@_0CJ@GJELGAMM@?$GAvector?5vbase?5copy?5constructor?5i@ 100ad968     libvcruntime:undname.obj
 0002:00019994       ??_C@_0CL@FGIJHLCE@?$GAmanaged?5vector?5copy?5constructor@ 100ad994     libvcruntime:undname.obj
 0002:000199c0       ??_C@_0BM@PMGGMLDN@?$GAlocal?5static?5thread?5guard?8?$AA@ 100ad9c0     libvcruntime:undname.obj
 0002:000199dc       ??_C@_0N@BDNMDMOL@operator?5?$CC?$CC?5?$AA@ 100ad9dc     libvcruntime:undname.obj
 0002:000199ec       ??_C@_0BC@GGEBGALA@operator?5co_await?$AA@ 100ad9ec     libvcruntime:undname.obj
 0002:00019a00       ??_C@_0BC@DAFEJGAK@?5Type?5Descriptor?8?$AA@ 100ada00     libvcruntime:undname.obj
 0002:00019a14       ??_C@_0BM@LDKODKLH@?5Base?5Class?5Descriptor?5at?5?$CI?$AA@ 100ada14     libvcruntime:undname.obj
 0002:00019a30       ??_C@_0BD@LGICGFMM@?5Base?5Class?5Array?8?$AA@ 100ada30     libvcruntime:undname.obj
 0002:00019a44       ??_C@_0BN@MECKDCOJ@?5Class?5Hierarchy?5Descriptor?8?$AA@ 100ada44     libvcruntime:undname.obj
 0002:00019a64       ??_C@_0BK@CFCOFLF@?5Complete?5Object?5Locator?8?$AA@ 100ada64     libvcruntime:undname.obj
 0002:00019a80       __pDestructExceptionObject 100ada80     libvcruntime:ehhelpers.obj
 0002:00019a88       _standard_lookup_table     100ada88     libucrt:output.obj
 0002:00019ae4       ??_C@_06OJHGLDPL@?$CInull?$CJ?$AA@ 100adae4     libucrt:output.obj
 0002:00019aec       ??_C@_1O@CEDCILHN@?$AA?$CI?$AAn?$AAu?$AAl?$AAl?$AA?$CJ?$AA?$AA@ 100adaec     libucrt:output.obj
 0002:00019b00       ?large_power_data@?1??multiply_by_power_of_ten@__crt_strtox@@YA_NAAUbig_integer@2@I@Z@4QBIB 100adb00     libucrt:input.obj
 0002:0001a408       ?large_power_indices@?1??multiply_by_power_of_ten@__crt_strtox@@YA_NAAUbig_integer@2@I@Z@4QBUunpack_index@?1??12@YA_N0I@Z@B 100ae408     libucrt:input.obj
 0002:0001a4a0       ?small_powers_of_ten@?6??multiply_by_power_of_ten@__crt_strtox@@YA_NAAUbig_integer@2@I@Z@4QBIB 100ae4a0     libucrt:input.obj
 0002:0001a4c8       ??_C@_1GE@DPGDJKLM@?$AAm?$AAi?$AAn?$AAk?$AAe?$AAr?$AAn?$AAe?$AAl?$AA?2?$AAc?$AAr?$AAt?$AAs?$AA?2?$AAu?$AAc?$AAr?$AAt?$AA?2?$AAi?$AAn?$AAc?$AA?2?$AAc?$AAo?$AAr?$AAe?$AAc?$AAr?$AAt?$AA_@ 100ae4c8     libucrt:input.obj
 0002:0001a530       ??_C@_1FM@FELNCOBF@?$AA_?$AA_?$AAc?$AAr?$AAt?$AA_?$AAs?$AAt?$AAr?$AAt?$AAo?$AAx?$AA?3?$AA?3?$AAf?$AAl?$AAo?$AAa?$AAt?$AAi?$AAn?$AAg?$AA_?$AAp?$AAo?$AAi?$AAn?$AAt?$AA_?$AAv?$AAa?$AAl@ 100ae530     libucrt:input.obj
 0002:0001a58c       ??_C@_1BG@GEMHBGAF@?$AA_?$AAi?$AAs?$AA_?$AAd?$AAo?$AAu?$AAb?$AAl?$AAe?$AA?$AA@ 100ae58c     libucrt:input.obj
 0002:0001a5a8       ??_C@_1FK@JOJELFFO@?$AA_?$AA_?$AAc?$AAr?$AAt?$AA_?$AAs?$AAt?$AAr?$AAt?$AAo?$AAx?$AA?3?$AA?3?$AAf?$AAl?$AAo?$AAa?$AAt?$AAi?$AAn?$AAg?$AA_?$AAp?$AAo?$AAi?$AAn?$AAt?$AA_?$AAv?$AAa?$AAl@ 100ae5a8     libucrt:input.obj
 0002:0001a604       ??_C@_1BI@BANMPGJI@?$AA?$CB?$AA_?$AAi?$AAs?$AA_?$AAd?$AAo?$AAu?$AAb?$AAl?$AAe?$AA?$AA@ 100ae604     libucrt:input.obj
 0002:0001a620       ?constraints@?1??is_length_valid@__crt_stdio_input@@YA_NW4conversion_mode@2@W4length_modifier@2@@Z@4QAY0M@$$CBEA 100ae620     libucrt:input.obj
 0002:0001a698       ?inf_uppercase@?2???$parse_floating_point_possible_infinity@DV?$input_adapter_character_source@V?$string_input_adapter@D@__crt_stdio_input@@@__crt_strtox@@_K@__crt_strtox@@YA?AW4floating_point_parse_result@1@AADAAV?$input_adapter_character_source@V?$string_input_adapter@D@__crt_stdio_input@@@1@_K@Z@4QBDB 100ae698     libucrt:input.obj
 0002:0001a69c       ?inf_lowercase@?2???$parse_floating_point_possible_infinity@DV?$input_adapter_character_source@V?$string_input_adapter@D@__crt_stdio_input@@@__crt_strtox@@_K@__crt_strtox@@YA?AW4floating_point_parse_result@1@AADAAV?$input_adapter_character_source@V?$string_input_adapter@D@__crt_stdio_input@@@1@_K@Z@4QBDB 100ae69c     libucrt:input.obj
 0002:0001a6a0       ?inity_uppercase@?5???$parse_floating_point_possible_infinity@DV?$input_adapter_character_source@V?$string_input_adapter@D@__crt_stdio_input@@@__crt_strtox@@_K@__crt_strtox@@YA?AW4floating_point_parse_result@1@AADAAV?$input_adapter_character_source@V?$string_input_adapter@D@__crt_stdio_input@@@1@_K@Z@4QBDB 100ae6a0     libucrt:input.obj
 0002:0001a6a8       ?inity_lowercase@?5???$parse_floating_point_possible_infinity@DV?$input_adapter_character_source@V?$string_input_adapter@D@__crt_stdio_input@@@__crt_strtox@@_K@__crt_strtox@@YA?AW4floating_point_parse_result@1@AADAAV?$input_adapter_character_source@V?$string_input_adapter@D@__crt_stdio_input@@@1@_K@Z@4QBDB 100ae6a8     libucrt:input.obj
 0002:0001a6b0       ?uppercase@?2???$parse_floating_point_possible_nan@DV?$input_adapter_character_source@V?$string_input_adapter@D@__crt_stdio_input@@@__crt_strtox@@_K@__crt_strtox@@YA?AW4floating_point_parse_result@1@AADAAV?$input_adapter_character_source@V?$string_input_adapter@D@__crt_stdio_input@@@1@_K@Z@4QBDB 100ae6b0     libucrt:input.obj
 0002:0001a6b4       ?lowercase@?2???$parse_floating_point_possible_nan@DV?$input_adapter_character_source@V?$string_input_adapter@D@__crt_stdio_input@@@__crt_strtox@@_K@__crt_strtox@@YA?AW4floating_point_parse_result@1@AADAAV?$input_adapter_character_source@V?$string_input_adapter@D@__crt_stdio_input@@@1@_K@Z@4QBDB 100ae6b4     libucrt:input.obj
 0002:0001a6b8       ?uppercase@?1???$parse_floating_point_possible_nan_is_snan@DV?$input_adapter_character_source@V?$string_input_adapter@D@__crt_stdio_input@@@__crt_strtox@@@__crt_strtox@@YA_NAADAAV?$input_adapter_character_source@V?$string_input_adapter@D@__crt_stdio_input@@@1@@Z@4QBDB 100ae6b8     libucrt:input.obj
 0002:0001a6c0       ?lowercase@?1???$parse_floating_point_possible_nan_is_snan@DV?$input_adapter_character_source@V?$string_input_adapter@D@__crt_stdio_input@@@__crt_strtox@@@__crt_strtox@@YA_NAADAAV?$input_adapter_character_source@V?$string_input_adapter@D@__crt_stdio_input@@@1@@Z@4QBDB 100ae6c0     libucrt:input.obj
 0002:0001a6c8       ?uppercase@?1???$parse_floating_point_possible_nan_is_ind@DV?$input_adapter_character_source@V?$string_input_adapter@D@__crt_stdio_input@@@__crt_strtox@@@__crt_strtox@@YA_NAADAAV?$input_adapter_character_source@V?$string_input_adapter@D@__crt_stdio_input@@@1@@Z@4QBDB 100ae6c8     libucrt:input.obj
 0002:0001a6cc       ?lowercase@?1???$parse_floating_point_possible_nan_is_ind@DV?$input_adapter_character_source@V?$string_input_adapter@D@__crt_stdio_input@@@__crt_strtox@@@__crt_strtox@@YA_NAADAAV?$input_adapter_character_source@V?$string_input_adapter@D@__crt_stdio_input@@@1@@Z@4QBDB 100ae6cc     libucrt:input.obj
 0002:0001a940       ?inf_uppercase@?2???$parse_floating_point_possible_infinity@DV?$c_string_character_source@D@__crt_strtox@@PBD@__crt_strtox@@YA?AW4floating_point_parse_result@1@AADAAV?$c_string_character_source@D@1@PBD@Z@4QBDB 100ae940     libucrt:atof.obj
 0002:0001a944       ?inf_lowercase@?2???$parse_floating_point_possible_infinity@DV?$c_string_character_source@D@__crt_strtox@@PBD@__crt_strtox@@YA?AW4floating_point_parse_result@1@AADAAV?$c_string_character_source@D@1@PBD@Z@4QBDB 100ae944     libucrt:atof.obj
 0002:0001a948       ?inity_uppercase@?5???$parse_floating_point_possible_infinity@DV?$c_string_character_source@D@__crt_strtox@@PBD@__crt_strtox@@YA?AW4floating_point_parse_result@1@AADAAV?$c_string_character_source@D@1@PBD@Z@4QBDB 100ae948     libucrt:atof.obj
 0002:0001a950       ?inity_lowercase@?5???$parse_floating_point_possible_infinity@DV?$c_string_character_source@D@__crt_strtox@@PBD@__crt_strtox@@YA?AW4floating_point_parse_result@1@AADAAV?$c_string_character_source@D@1@PBD@Z@4QBDB 100ae950     libucrt:atof.obj
 0002:0001a958       ?uppercase@?2???$parse_floating_point_possible_nan@DV?$c_string_character_source@D@__crt_strtox@@PBD@__crt_strtox@@YA?AW4floating_point_parse_result@1@AADAAV?$c_string_character_source@D@1@PBD@Z@4QBDB 100ae958     libucrt:atof.obj
 0002:0001a95c       ?lowercase@?2???$parse_floating_point_possible_nan@DV?$c_string_character_source@D@__crt_strtox@@PBD@__crt_strtox@@YA?AW4floating_point_parse_result@1@AADAAV?$c_string_character_source@D@1@PBD@Z@4QBDB 100ae95c     libucrt:atof.obj
 0002:0001a960       ?uppercase@?1???$parse_floating_point_possible_nan_is_snan@DV?$c_string_character_source@D@__crt_strtox@@@__crt_strtox@@YA_NAADAAV?$c_string_character_source@D@1@@Z@4QBDB 100ae960     libucrt:atof.obj
 0002:0001a968       ?lowercase@?1???$parse_floating_point_possible_nan_is_snan@DV?$c_string_character_source@D@__crt_strtox@@@__crt_strtox@@YA_NAADAAV?$c_string_character_source@D@1@@Z@4QBDB 100ae968     libucrt:atof.obj
 0002:0001a970       ?uppercase@?1???$parse_floating_point_possible_nan_is_ind@DV?$c_string_character_source@D@__crt_strtox@@@__crt_strtox@@YA_NAADAAV?$c_string_character_source@D@1@@Z@4QBDB 100ae970     libucrt:atof.obj
 0002:0001a974       ?lowercase@?1???$parse_floating_point_possible_nan_is_ind@DV?$c_string_character_source@D@__crt_strtox@@@__crt_strtox@@YA_NAADAAV?$c_string_character_source@D@1@@Z@4QBDB 100ae974     libucrt:atof.obj
 0002:0001aa40       __OP_FMODjmptab            100aea40     libucrt:87fmod.obj
 0002:0001ab30       ___acrt_exception_action_table 100aeb30     libucrt:exception_filter.obj
 0002:0001abc0       ___acrt_signal_action_table_count 100aebc0     libucrt:exception_filter.obj
 0002:0001abc4       ___acrt_signal_action_first_fpe_index 100aebc4     libucrt:exception_filter.obj
 0002:0001abc8       ___acrt_signal_action_fpe_count 100aebc8     libucrt:exception_filter.obj
 0002:0001abcc       ??_C@_1BI@BGOHAHKC@?$AAm?$AAs?$AAc?$AAo?$AAr?$AAe?$AAe?$AA?4?$AAd?$AAl?$AAl?$AA?$AA@ 100aebcc     libucrt:exit.obj
 0002:0001abe4       ??_C@_0P@MIGLKIOC@CorExitProcess?$AA@ 100aebe4     libucrt:exit.obj
 0002:0001add8       ??_C@_03OEIAHPBN@INF?$AA@  100aedd8     libucrt:cvt.obj
 0002:0001addc       ??_C@_03OJHLLCGB@inf?$AA@  100aeddc     libucrt:cvt.obj
 0002:0001ade0       ??_C@_03LKNCIKJB@NAN?$AA@  100aede0     libucrt:cvt.obj
 0002:0001ade4       ??_C@_03LHCJEHON@nan?$AA@  100aede4     libucrt:cvt.obj
 0002:0001ade8       ??_C@_09OFJJIMPC@NAN?$CISNAN?$CJ?$AA@ 100aede8     libucrt:cvt.obj
 0002:0001adf4       ??_C@_09IPFBKMDL@nan?$CIsnan?$CJ?$AA@ 100aedf4     libucrt:cvt.obj
 0002:0001ae00       ??_C@_08IKHNHAJ@NAN?$CIIND?$CJ?$AA@ 100aee00     libucrt:cvt.obj
 0002:0001ae0c       ??_C@_08OFCDMILK@nan?$CIind?$CJ?$AA@ 100aee0c     libucrt:cvt.obj
 0002:0001ae18       ??_C@_05KLBDPFGC@e?$CL000?$AA@ 100aee18     libucrt:cvt.obj
 0002:0001ae20       ??_C@_03KOEHGMDN@Sun?$AA@  100aee20     libucrt:nlsdata.obj
 0002:0001ae24       ??_C@_03PDAGKDH@Mon?$AA@   100aee24     libucrt:nlsdata.obj
 0002:0001ae28       ??_C@_03NAGEINEP@Tue?$AA@  100aee28     libucrt:nlsdata.obj
 0002:0001ae2c       ??_C@_03MHOMLAJA@Wed?$AA@  100aee2c     libucrt:nlsdata.obj
 0002:0001ae30       ??_C@_03IOFIKPDN@Thu?$AA@  100aee30     libucrt:nlsdata.obj
 0002:0001ae34       ??_C@_03IDIOELNC@Fri?$AA@  100aee34     libucrt:nlsdata.obj
 0002:0001ae38       ??_C@_03FEFJNEK@Sat?$AA@   100aee38     libucrt:nlsdata.obj
 0002:0001ae3c       ??_C@_06OOPIFAJ@Sunday?$AA@ 100aee3c     libucrt:nlsdata.obj
 0002:0001ae44       ??_C@_06JLEDEDGH@Monday?$AA@ 100aee44     libucrt:nlsdata.obj
 0002:0001ae4c       ??_C@_07BAAGCFCM@Tuesday?$AA@ 100aee4c     libucrt:nlsdata.obj
 0002:0001ae54       ??_C@_09DLIGFAKA@Wednesday?$AA@ 100aee54     libucrt:nlsdata.obj
 0002:0001ae60       ??_C@_08HACCIKIA@Thursday?$AA@ 100aee60     libucrt:nlsdata.obj
 0002:0001ae6c       ??_C@_06JECMNKMI@Friday?$AA@ 100aee6c     libucrt:nlsdata.obj
 0002:0001ae74       ??_C@_08INBOOONO@Saturday?$AA@ 100aee74     libucrt:nlsdata.obj
 0002:0001ae80       ??_C@_03JIHJHPIE@Jan?$AA@  100aee80     libucrt:nlsdata.obj
 0002:0001ae84       ??_C@_03HJBDCHOM@Feb?$AA@  100aee84     libucrt:nlsdata.obj
 0002:0001ae88       ??_C@_03ODNJBKGA@Mar?$AA@  100aee88     libucrt:nlsdata.obj
 0002:0001ae8c       ??_C@_03LEOLGMJP@Apr?$AA@  100aee8c     libucrt:nlsdata.obj
 0002:0001ae90       ??_C@_03CNMDKL@May?$AA@    100aee90     libucrt:nlsdata.obj
 0002:0001ae94       ??_C@_03IDFGHECI@Jun?$AA@  100aee94     libucrt:nlsdata.obj
 0002:0001ae98       ??_C@_03LBGABGKK@Jul?$AA@  100aee98     libucrt:nlsdata.obj
 0002:0001ae9c       ??_C@_03IFJFEIGA@Aug?$AA@  100aee9c     libucrt:nlsdata.obj
 0002:0001aea0       ??_C@_03GGCAPAJC@Sep?$AA@  100aeea0     libucrt:nlsdata.obj
 0002:0001aea4       ??_C@_03BMAOKBAD@Oct?$AA@  100aeea4     libucrt:nlsdata.obj
 0002:0001aea8       ??_C@_03JPJOFNIA@Nov?$AA@  100aeea8     libucrt:nlsdata.obj
 0002:0001aeac       ??_C@_03MKABNOCG@Dec?$AA@  100aeeac     libucrt:nlsdata.obj
 0002:0001aeb0       ??_C@_07CGJPFGJA@January?$AA@ 100aeeb0     libucrt:nlsdata.obj
 0002:0001aeb8       ??_C@_08GNJGEPFN@February?$AA@ 100aeeb8     libucrt:nlsdata.obj
 0002:0001aec4       ??_C@_05HPCKOFNC@March?$AA@ 100aeec4     libucrt:nlsdata.obj
 0002:0001aecc       ??_C@_05DMJDNLEJ@April?$AA@ 100aeecc     libucrt:nlsdata.obj
 0002:0001aed4       ??_C@_04CNLMGBGM@June?$AA@ 100aeed4     libucrt:nlsdata.obj
 0002:0001aedc       ??_C@_04MIEPOIFP@July?$AA@ 100aeedc     libucrt:nlsdata.obj
 0002:0001aee4       ??_C@_06LBBHFDDG@August?$AA@ 100aeee4     libucrt:nlsdata.obj
 0002:0001aeec       ??_C@_09BHHEALKD@September?$AA@ 100aeeec     libucrt:nlsdata.obj
 0002:0001aef8       ??_C@_07JJNFCEND@October?$AA@ 100aeef8     libucrt:nlsdata.obj
 0002:0001af00       ??_C@_08HCHEGEOA@November?$AA@ 100aef00     libucrt:nlsdata.obj
 0002:0001af0c       ??_C@_08EDHMEBNP@December?$AA@ 100aef0c     libucrt:nlsdata.obj
 0002:0001af18       ??_C@_02DEDBPAFC@AM?$AA@   100aef18     libucrt:nlsdata.obj
 0002:0001af1c       ??_C@_02CJNFDJBF@PM?$AA@   100aef1c     libucrt:nlsdata.obj
 0002:0001af20       ??_C@_08BPBNCDIB@MM?1dd?1yy?$AA@ 100aef20     libucrt:nlsdata.obj
 0002:0001af2c       ??_C@_0BE@CKGJFCPC@dddd?0?5MMMM?5dd?0?5yyyy?$AA@ 100aef2c     libucrt:nlsdata.obj
 0002:0001af40       ??_C@_08JCCMCCIL@HH?3mm?3ss?$AA@ 100aef40     libucrt:nlsdata.obj
 0002:0001af4c       ??_C@_17MBGCMIPB@?$AAS?$AAu?$AAn?$AA?$AA@ 100aef4c     libucrt:nlsdata.obj
 0002:0001af54       ??_C@_17KBOMKBF@?$AAM?$AAo?$AAn?$AA?$AA@ 100aef54     libucrt:nlsdata.obj
 0002:0001af5c       ??_C@_17BMKGEGOJ@?$AAT?$AAu?$AAe?$AA?$AA@ 100aef5c     libucrt:nlsdata.obj
 0002:0001af64       ??_C@_17CJEDCEPE@?$AAW?$AAe?$AAd?$AA?$AA@ 100aef64     libucrt:nlsdata.obj
 0002:0001af6c       ??_C@_17PDPHAADD@?$AAT?$AAh?$AAu?$AA?$AA@ 100aef6c     libucrt:nlsdata.obj
 0002:0001af74       ??_C@_17HFOLPPLP@?$AAF?$AAr?$AAi?$AA?$AA@ 100aef74     libucrt:nlsdata.obj
 0002:0001af7c       ??_C@_17GGIBDPIH@?$AAS?$AAa?$AAt?$AA?$AA@ 100aef7c     libucrt:nlsdata.obj
 0002:0001af84       ??_C@_1O@IHNHDHPB@?$AAS?$AAu?$AAn?$AAd?$AAa?$AAy?$AA?$AA@ 100aef84     libucrt:nlsdata.obj
 0002:0001af94       ??_C@_1O@MMNBFLIA@?$AAM?$AAo?$AAn?$AAd?$AAa?$AAy?$AA?$AA@ 100aef94     libucrt:nlsdata.obj
 0002:0001afa4       ??_C@_1BA@ENFBFFEK@?$AAT?$AAu?$AAe?$AAs?$AAd?$AAa?$AAy?$AA?$AA@ 100aefa4     libucrt:nlsdata.obj
 0002:0001afb4       ??_C@_1BE@EBOGMDOH@?$AAW?$AAe?$AAd?$AAn?$AAe?$AAs?$AAd?$AAa?$AAy?$AA?$AA@ 100aefb4     libucrt:nlsdata.obj
 0002:0001afc8       ??_C@_1BC@HHMNLIHE@?$AAT?$AAh?$AAu?$AAr?$AAs?$AAd?$AAa?$AAy?$AA?$AA@ 100aefc8     libucrt:nlsdata.obj
 0002:0001afdc       ??_C@_1O@PDICJHAG@?$AAF?$AAr?$AAi?$AAd?$AAa?$AAy?$AA?$AA@ 100aefdc     libucrt:nlsdata.obj
 0002:0001afec       ??_C@_1BC@ENMNNPAJ@?$AAS?$AAa?$AAt?$AAu?$AAr?$AAd?$AAa?$AAy?$AA?$AA@ 100aefec     libucrt:nlsdata.obj
 0002:0001b000       ??_C@_17DKNBKCHM@?$AAJ?$AAa?$AAn?$AA?$AA@ 100af000     libucrt:nlsdata.obj
 0002:0001b008       ??_C@_17LMDJEKJN@?$AAF?$AAe?$AAb?$AA?$AA@ 100af008     libucrt:nlsdata.obj
 0002:0001b010       ??_C@_17CKNLEDEC@?$AAM?$AAa?$AAr?$AA?$AA@ 100af010     libucrt:nlsdata.obj
 0002:0001b018       ??_C@_17LFPOIHDD@?$AAA?$AAp?$AAr?$AA?$AA@ 100af018     libucrt:nlsdata.obj
 0002:0001b020       ??_C@_17PNNKMEED@?$AAM?$AAa?$AAy?$AA?$AA@ 100af020     libucrt:nlsdata.obj
 0002:0001b028       ??_C@_17KCJGOCPB@?$AAJ?$AAu?$AAn?$AA?$AA@ 100af028     libucrt:nlsdata.obj
 0002:0001b030       ??_C@_17IJPCKHK@?$AAJ?$AAu?$AAl?$AA?$AA@ 100af030     libucrt:nlsdata.obj
 0002:0001b038       ??_C@_17ICPELBCN@?$AAA?$AAu?$AAg?$AA?$AA@ 100af038     libucrt:nlsdata.obj
 0002:0001b040       ??_C@_17HCHCOKMG@?$AAS?$AAe?$AAp?$AA?$AA@ 100af040     libucrt:nlsdata.obj
 0002:0001b048       ??_C@_17FNLKOI@?$AAO?$AAc?$AAt?$AA?$AA@ 100af048     libucrt:nlsdata.obj
 0002:0001b050       ??_C@_17BBDMLCIG@?$AAN?$AAo?$AAv?$AA?$AA@ 100af050     libucrt:nlsdata.obj
 0002:0001b058       ??_C@_17EGKACKIF@?$AAD?$AAe?$AAc?$AA?$AA@ 100af058     libucrt:nlsdata.obj
 0002:0001b060       ??_C@_1BA@EFMEIEBA@?$AAJ?$AAa?$AAn?$AAu?$AAa?$AAr?$AAy?$AA?$AA@ 100af060     libucrt:nlsdata.obj
 0002:0001b070       ??_C@_1BC@JGDDFFAM@?$AAF?$AAe?$AAb?$AAr?$AAu?$AAa?$AAr?$AAy?$AA?$AA@ 100af070     libucrt:nlsdata.obj
 0002:0001b084       ??_C@_1M@IKEENEDF@?$AAM?$AAa?$AAr?$AAc?$AAh?$AA?$AA@ 100af084     libucrt:nlsdata.obj
 0002:0001b090       ??_C@_1M@GJNLMHFD@?$AAA?$AAp?$AAr?$AAi?$AAl?$AA?$AA@ 100af090     libucrt:nlsdata.obj
 0002:0001b09c       ??_C@_19EPFLPGAP@?$AAJ?$AAu?$AAn?$AAe?$AA?$AA@ 100af09c     libucrt:nlsdata.obj
 0002:0001b0a8       ??_C@_19BIFMLPCD@?$AAJ?$AAu?$AAl?$AAy?$AA?$AA@ 100af0a8     libucrt:nlsdata.obj
 0002:0001b0b4       ??_C@_1O@PAHLKOAC@?$AAA?$AAu?$AAg?$AAu?$AAs?$AAt?$AA?$AA@ 100af0b4     libucrt:nlsdata.obj
 0002:0001b0c4       ??_C@_1BE@DKAAMBJL@?$AAS?$AAe?$AAp?$AAt?$AAe?$AAm?$AAb?$AAe?$AAr?$AA?$AA@ 100af0c4     libucrt:nlsdata.obj
 0002:0001b0d8       ??_C@_1BA@EPANDLNG@?$AAO?$AAc?$AAt?$AAo?$AAb?$AAe?$AAr?$AA?$AA@ 100af0d8     libucrt:nlsdata.obj
 0002:0001b0e8       ??_C@_1BC@BGLIFPF@?$AAN?$AAo?$AAv?$AAe?$AAm?$AAb?$AAe?$AAr?$AA?$AA@ 100af0e8     libucrt:nlsdata.obj
 0002:0001b0fc       ??_C@_1BC@FEMKIFH@?$AAD?$AAe?$AAc?$AAe?$AAm?$AAb?$AAe?$AAr?$AA?$AA@ 100af0fc     libucrt:nlsdata.obj
 0002:0001b110       ??_C@_15ODEHAHHF@?$AAA?$AAM?$AA?$AA@ 100af110     libucrt:nlsdata.obj
 0002:0001b118       ??_C@_15CLMNNGEL@?$AAP?$AAM?$AA?$AA@ 100af118     libucrt:nlsdata.obj
 0002:0001b120       ??_C@_1BC@IEBCMHCM@?$AAM?$AAM?$AA?1?$AAd?$AAd?$AA?1?$AAy?$AAy?$AA?$AA@ 100af120     libucrt:nlsdata.obj
 0002:0001b134       ??_C@_1CI@KNAKOEBC@?$AAd?$AAd?$AAd?$AAd?$AA?0?$AA?5?$AAM?$AAM?$AAM?$AAM?$AA?5?$AAd?$AAd?$AA?0?$AA?5?$AAy?$AAy?$AAy?$AAy?$AA?$AA@ 100af134     libucrt:nlsdata.obj
 0002:0001b15c       ??_C@_1BC@GDGBMEMK@?$AAH?$AAH?$AA?3?$AAm?$AAm?$AA?3?$AAs?$AAs?$AA?$AA@ 100af15c     libucrt:nlsdata.obj
 0002:0001b170       ??_C@_1M@BMHNFIME@?$AAe?$AAn?$AA?9?$AAU?$AAS?$AA?$AA@ 100af170     libucrt:nlsdata.obj
 0002:0001b180       ___lc_time_c               100af180     libucrt:nlsdata.obj
 0002:0001b2e8       ___newctype                100af2e8     libucrt:ctype.obj
 0002:0001b5e8       ___newclmap                100af5e8     libucrt:ctype.obj
 0002:0001b768       ___newcumap                100af768     libucrt:ctype.obj
 0002:0001b8f0       __OP_ATAN2jmptab           100af8f0     libucrt:87triga.obj
 0002:0001b970       ??_C@_03MGHMBJCF@log?$AA@  100af970     libucrt:libm_error.obj
 0002:0001b974       ??_C@_05HGHHAHAP@log10?$AA@ 100af974     libucrt:libm_error.obj
 0002:0001b97c       ??_C@_03KHJOGHMM@exp?$AA@  100af97c     libucrt:libm_error.obj
 0002:0001b980       ??_C@_03JGHBODFD@pow?$AA@  100af980     libucrt:libm_error.obj
 0002:0001b984       ??_C@_04FIHNOPOL@asin?$AA@ 100af984     libucrt:libm_error.obj
 0002:0001b98c       ??_C@_04PDIFKINK@acos?$AA@ 100af98c     libucrt:libm_error.obj
 0002:0001b994       ??_C@_04EIAKFFMI@sqrt?$AA@ 100af994     libucrt:libm_error.obj
 0002:0001b9b0       ___acrt_acos_asin_tbl_addr 100af9b0     libucrt:acos_asin_tbl_addr.obj
 0002:0001c8b0       ___acrt_acos_asin_t_table  100b08b0     libucrt:acos_asin_t_table.obj
 0002:0001d0c0       ___acrt_cos_sin_ctable     100b10c0     libucrt:cos_sin_ctable.obj
 0002:0001d8e4       __half                     100b18e4     libucrt:pow.obj
 0002:0001d8f0       ___acrt_pow_rcp_t1         100b18f0     libucrt:pow_tables.obj
 0002:0001dd00       ___acrt_pow_log2_t1        100b1d00     libucrt:pow_tables.obj
 0002:0001e510       ___acrt_pow_rcp_t2         100b2510     libucrt:pow_tables.obj
 0002:0001e920       ___acrt_pow_log2_t2        100b2920     libucrt:pow_tables.obj
 0002:0001f130       ___acrt_pow_rcp_t3         100b3130     libucrt:pow_tables.obj
 0002:0001f940       ___acrt_pow_log2_t3        100b3940     libucrt:pow_tables.obj
 0002:00020950       ___acrt_pow_clv            100b4950     libucrt:pow_tables.obj
 0002:00020970       ___acrt_pow_exp2_tbl       100b4970     libucrt:pow_tables.obj
 0002:00021170       __indefinite               100b5170     libucrt:87disp.obj
 0002:0002117a       __piby2                    100b517a     libucrt:87disp.obj
 0002:00021184       __piby4                    100b5184     libucrt:87disp.obj
 0002:000211c0       ___acrt_tan_ctable         100b51c0     libucrt:tan_tables.obj
 0002:00022810       ??_C@_1EG@CNNIPFIM@?$AAa?$AAp?$AAi?$AA?9?$AAm?$AAs?$AA?9?$AAw?$AAi?$AAn?$AA?9?$AAa?$AAp?$AAp?$AAm?$AAo?$AAd?$AAe?$AAl?$AA?9?$AAr?$AAu?$AAn?$AAt?$AAi?$AAm?$AAe?$AA?9?$AAl?$AA1?$AA?9?$AA1@ 100b6810     libucrt:winapi_thunks.obj
 0002:00022858       ??_C@_1EA@JGEFHKEI@?$AAa?$AAp?$AAi?$AA?9?$AAm?$AAs?$AA?9?$AAw?$AAi?$AAn?$AA?9?$AAc?$AAo?$AAr?$AAe?$AA?9?$AAd?$AAa?$AAt?$AAe?$AAt?$AAi?$AAm?$AAe?$AA?9?$AAl?$AA1?$AA?9?$AA1?$AA?9?$AA1?$AA?$AA@ 100b6858     libucrt:winapi_thunks.obj
 0002:00022898       ??_C@_1DI@GCIAAENM@?$AAa?$AAp?$AAi?$AA?9?$AAm?$AAs?$AA?9?$AAw?$AAi?$AAn?$AA?9?$AAc?$AAo?$AAr?$AAe?$AA?9?$AAf?$AAi?$AAl?$AAe?$AA?9?$AAl?$AA2?$AA?9?$AA1?$AA?9?$AA1?$AA?$AA@ 100b6898     libucrt:winapi_thunks.obj
 0002:000228d0       ??_C@_1EI@MPIAOHOC@?$AAa?$AAp?$AAi?$AA?9?$AAm?$AAs?$AA?9?$AAw?$AAi?$AAn?$AA?9?$AAc?$AAo?$AAr?$AAe?$AA?9?$AAl?$AAo?$AAc?$AAa?$AAl?$AAi?$AAz?$AAa?$AAt?$AAi?$AAo?$AAn?$AA?9?$AAl?$AA1?$AA?9@ 100b68d0     libucrt:winapi_thunks.obj
 0002:00022918       ??_C@_1FK@FPHCKFIE@?$AAa?$AAp?$AAi?$AA?9?$AAm?$AAs?$AA?9?$AAw?$AAi?$AAn?$AA?9?$AAc?$AAo?$AAr?$AAe?$AA?9?$AAl?$AAo?$AAc?$AAa?$AAl?$AAi?$AAz?$AAa?$AAt?$AAi?$AAo?$AAn?$AA?9?$AAo?$AAb?$AAs@ 100b6918     libucrt:winapi_thunks.obj
 0002:00022978       ??_C@_1EM@DILCGIIO@?$AAa?$AAp?$AAi?$AA?9?$AAm?$AAs?$AA?9?$AAw?$AAi?$AAn?$AA?9?$AAc?$AAo?$AAr?$AAe?$AA?9?$AAp?$AAr?$AAo?$AAc?$AAe?$AAs?$AAs?$AAt?$AAh?$AAr?$AAe?$AAa?$AAd?$AAs?$AA?9?$AAl@ 100b6978     libucrt:winapi_thunks.obj
 0002:000229c4       ??_C@_1DM@LNCGDDPN@?$AAa?$AAp?$AAi?$AA?9?$AAm?$AAs?$AA?9?$AAw?$AAi?$AAn?$AA?9?$AAc?$AAo?$AAr?$AAe?$AA?9?$AAs?$AAt?$AAr?$AAi?$AAn?$AAg?$AA?9?$AAl?$AA1?$AA?9?$AA1?$AA?9?$AA0?$AA?$AA@ 100b69c4     libucrt:winapi_thunks.obj
 0002:00022a00       ??_C@_1DO@FPAPJEMD@?$AAa?$AAp?$AAi?$AA?9?$AAm?$AAs?$AA?9?$AAw?$AAi?$AAn?$AA?9?$AAc?$AAo?$AAr?$AAe?$AA?9?$AAs?$AAy?$AAs?$AAi?$AAn?$AAf?$AAo?$AA?9?$AAl?$AA1?$AA?9?$AA2?$AA?9?$AA1?$AA?$AA@ 100b6a00     libucrt:winapi_thunks.obj
 0002:00022a40       ??_C@_1DK@NDHNAHIO@?$AAa?$AAp?$AAi?$AA?9?$AAm?$AAs?$AA?9?$AAw?$AAi?$AAn?$AA?9?$AAc?$AAo?$AAr?$AAe?$AA?9?$AAw?$AAi?$AAn?$AAr?$AAt?$AA?9?$AAl?$AA1?$AA?9?$AA1?$AA?9?$AA0?$AA?$AA@ 100b6a40     libucrt:winapi_thunks.obj
 0002:00022a7c       ??_C@_1DM@KGHDGBCM@?$AAa?$AAp?$AAi?$AA?9?$AAm?$AAs?$AA?9?$AAw?$AAi?$AAn?$AA?9?$AAc?$AAo?$AAr?$AAe?$AA?9?$AAx?$AAs?$AAt?$AAa?$AAt?$AAe?$AA?9?$AAl?$AA2?$AA?9?$AA1?$AA?9?$AA0?$AA?$AA@ 100b6a7c     libucrt:winapi_thunks.obj
 0002:00022ab8       ??_C@_1EO@IJIOEFOH@?$AAa?$AAp?$AAi?$AA?9?$AAm?$AAs?$AA?9?$AAw?$AAi?$AAn?$AA?9?$AAr?$AAt?$AAc?$AAo?$AAr?$AAe?$AA?9?$AAn?$AAt?$AAu?$AAs?$AAe?$AAr?$AA?9?$AAw?$AAi?$AAn?$AAd?$AAo?$AAw?$AA?9@ 100b6ab8     libucrt:winapi_thunks.obj
 0002:00022b08       ??_C@_1FG@HHGEKANL@?$AAa?$AAp?$AAi?$AA?9?$AAm?$AAs?$AA?9?$AAw?$AAi?$AAn?$AA?9?$AAs?$AAe?$AAc?$AAu?$AAr?$AAi?$AAt?$AAy?$AA?9?$AAs?$AAy?$AAs?$AAt?$AAe?$AAm?$AAf?$AAu?$AAn?$AAc?$AAt?$AAi@ 100b6b08     libucrt:winapi_thunks.obj
 0002:00022b60       ??_C@_1FG@NCKKOLKO@?$AAe?$AAx?$AAt?$AA?9?$AAm?$AAs?$AA?9?$AAw?$AAi?$AAn?$AA?9?$AAk?$AAe?$AAr?$AAn?$AAe?$AAl?$AA3?$AA2?$AA?9?$AAp?$AAa?$AAc?$AAk?$AAa?$AAg?$AAe?$AA?9?$AAc?$AAu?$AAr?$AAr@ 100b6b60     libucrt:winapi_thunks.obj
 0002:00022bb8       ??_C@_1EG@DBIOJECG@?$AAe?$AAx?$AAt?$AA?9?$AAm?$AAs?$AA?9?$AAw?$AAi?$AAn?$AA?9?$AAn?$AAt?$AAu?$AAs?$AAe?$AAr?$AA?9?$AAd?$AAi?$AAa?$AAl?$AAo?$AAg?$AAb?$AAo?$AAx?$AA?9?$AAl?$AA1?$AA?9?$AA1@ 100b6bb8     libucrt:winapi_thunks.obj
 0002:00022c00       ??_C@_1EO@FIHMJCLF@?$AAe?$AAx?$AAt?$AA?9?$AAm?$AAs?$AA?9?$AAw?$AAi?$AAn?$AA?9?$AAn?$AAt?$AAu?$AAs?$AAe?$AAr?$AA?9?$AAw?$AAi?$AAn?$AAd?$AAo?$AAw?$AAs?$AAt?$AAa?$AAt?$AAi?$AAo?$AAn?$AA?9@ 100b6c00     libucrt:winapi_thunks.obj
 0002:00022c50       ??_C@_1BC@DNHGCMLG@?$AAa?$AAd?$AAv?$AAa?$AAp?$AAi?$AA3?$AA2?$AA?$AA@ 100b6c50     libucrt:winapi_thunks.obj
 0002:00022c64       ??_C@_1O@BCCLBEOE@?$AAu?$AAs?$AAe?$AAr?$AA3?$AA2?$AA?$AA@ 100b6c64     libucrt:winapi_thunks.obj
 0002:00022c78       ??_C@_0BA@FHFNEAED@AreFileApisANSI?$AA@ 100b6c78     libucrt:winapi_thunks.obj
 0002:00022cb0       ??_C@_0BE@JOGNEJCI@GetCurrentPackageId?$AA@ 100b6cb0     libucrt:winapi_thunks.obj
 0002:00022cd4       ??_C@_0O@KKBNKAPF@LCMapStringEx?$AA@ 100b6cd4     libucrt:winapi_thunks.obj
 0002:00022cec       ??_C@_0BB@HBDEELFH@LocaleNameToLCID?$AA@ 100b6cec     libucrt:winapi_thunks.obj
 0002:00022d10       ??_C@_1M@HPNHIDJI@?$AAj?$AAa?$AA?9?$AAJ?$AAP?$AA?$AA@ 100b6d10     libucrt:mbctype.obj
 0002:00022d1c       ??_C@_1M@BIBDDEMK@?$AAz?$AAh?$AA?9?$AAC?$AAN?$AA?$AA@ 100b6d1c     libucrt:mbctype.obj
 0002:00022d28       ??_C@_1M@JLOOOEGK@?$AAk?$AAo?$AA?9?$AAK?$AAR?$AA?$AA@ 100b6d28     libucrt:mbctype.obj
 0002:00022d34       ??_C@_1M@CLNBBOPM@?$AAz?$AAh?$AA?9?$AAT?$AAW?$AA?$AA@ 100b6d34     libucrt:mbctype.obj
 0002:00022d40       ??_C@_05DNEBIAHO@1?$CDINF?$AA@ 100b6d40     libucrt:cfout.obj
 0002:00022d48       ??_C@_06IMKFLFPG@1?$CDQNAN?$AA@ 100b6d48     libucrt:cfout.obj
 0002:00022d50       ??_C@_06PGGFOGJG@1?$CDSNAN?$AA@ 100b6d50     libucrt:cfout.obj
 0002:00022d58       ??_C@_05PHHOCPM@1?$CDIND?$AA@ 100b6d58     libucrt:cfout.obj
 0002:00022d60       ??_C@_15PJPFLCCM@?$AAu?$AAk?$AA?$AA@ 100b6d60     libucrt:get_qualified_locale.obj
 0002:00022e98       __DEFAULT_CW_in_mem        100b6e98     libucrt:common.obj
 0002:00022e9a       __pi_by_2_to_61            100b6e9a     libucrt:common.obj
 0002:000230f0       __infinity                 100b70f0     libucrt:87tran.obj
 0002:000230fa       __minfinity                100b70fa     libucrt:87tran.obj
 0002:00023104       __logemax                  100b7104     libucrt:87tran.obj
 0002:0002312a       __OP_EXPjmptab             100b712a     libucrt:87tran.obj
 0002:00023910       ??_C@_15EMKDOKLE@?$AAa?$AAr?$AA?$AA@ 100b7910     libucrt:lcidtoname_downlevel.obj
 0002:00023918       ??_C@_15KNPADPLH@?$AAb?$AAg?$AA?$AA@ 100b7918     libucrt:lcidtoname_downlevel.obj
 0002:00023920       ??_C@_15EDMHLDMO@?$AAc?$AAa?$AA?$AA@ 100b7920     libucrt:lcidtoname_downlevel.obj
 0002:00023928       ??_C@_1O@BPEAJADD@?$AAz?$AAh?$AA?9?$AAC?$AAH?$AAS?$AA?$AA@ 100b7928     libucrt:lcidtoname_downlevel.obj
 0002:00023938       ??_C@_15LJNHCMNK@?$AAc?$AAs?$AA?$AA@ 100b7938     libucrt:lcidtoname_downlevel.obj
 0002:00023940       ??_C@_15FOMCIDHG@?$AAd?$AAa?$AA?$AA@ 100b7940     libucrt:lcidtoname_downlevel.obj
 0002:00023948       ??_C@_15NBKABECB@?$AAd?$AAe?$AA?$AA@ 100b7948     libucrt:lcidtoname_downlevel.obj
 0002:00023950       ??_C@_15GHPEIIAO@?$AAe?$AAl?$AA?$AA@ 100b7950     libucrt:lcidtoname_downlevel.obj
 0002:00023958       ??_C@_15MNPNEAIF@?$AAe?$AAn?$AA?$AA@ 100b7958     libucrt:lcidtoname_downlevel.obj
 0002:00023960       ??_C@_15GPIOMPMH@?$AAe?$AAs?$AA?$AA@ 100b7960     libucrt:lcidtoname_downlevel.obj
 0002:00023968       ??_C@_15NGLOAKJC@?$AAf?$AAi?$AA?$AA@ 100b7968     libucrt:lcidtoname_downlevel.obj
 0002:00023970       ??_C@_15FBKGNKAM@?$AAf?$AAr?$AA?$AA@ 100b7970     libucrt:lcidtoname_downlevel.obj
 0002:00023978       ??_C@_15KGGCNEFK@?$AAh?$AAe?$AA?$AA@ 100b7978     libucrt:lcidtoname_downlevel.obj
 0002:00023980       ??_C@_15PGHLIDMF@?$AAh?$AAu?$AA?$AA@ 100b7980     libucrt:lcidtoname_downlevel.obj
 0002:00023988       ??_C@_15BIEMAPLM@?$AAi?$AAs?$AA?$AA@ 100b7988     libucrt:lcidtoname_downlevel.obj
 0002:00023990       ??_C@_15IFJLDHAF@?$AAi?$AAt?$AA?$AA@ 100b7990     libucrt:lcidtoname_downlevel.obj
 0002:00023998       ??_C@_15GEMIOCAG@?$AAj?$AAa?$AA?$AA@ 100b7998     libucrt:lcidtoname_downlevel.obj
 0002:000239a0       ??_C@_15EPELEGJA@?$AAk?$AAo?$AA?$AA@ 100b79a0     libucrt:lcidtoname_downlevel.obj
 0002:000239a8       ??_C@_15NDDHIMN@?$AAn?$AAl?$AA?$AA@ 100b79a8     libucrt:lcidtoname_downlevel.obj
 0002:000239b0       ??_C@_15BPIGNHCD@?$AAn?$AAo?$AA?$AA@ 100b79b0     libucrt:lcidtoname_downlevel.obj
 0002:000239b8       ??_C@_15DEOPBLCG@?$AAp?$AAl?$AA?$AA@ 100b79b8     libucrt:lcidtoname_downlevel.obj
 0002:000239c0       ??_C@_15KBECGEFG@?$AAp?$AAt?$AA?$AA@ 100b79c0     libucrt:lcidtoname_downlevel.obj
 0002:000239c8       ??_C@_15GLJCBFMD@?$AAr?$AAo?$AA?$AA@ 100b79c8     libucrt:lcidtoname_downlevel.obj
 0002:000239d0       ??_C@_15FEDGKCDI@?$AAr?$AAu?$AA?$AA@ 100b79d0     libucrt:lcidtoname_downlevel.obj
 0002:000239d8       ??_C@_15GLKMLLHM@?$AAh?$AAr?$AA?$AA@ 100b79d8     libucrt:lcidtoname_downlevel.obj
 0002:000239e0       ??_C@_15CPKMFBDB@?$AAs?$AAk?$AA?$AA@ 100b79e0     libucrt:lcidtoname_downlevel.obj
 0002:000239e8       ??_C@_15BAAIOGMK@?$AAs?$AAq?$AA?$AA@ 100b79e8     libucrt:lcidtoname_downlevel.obj
 0002:000239f0       ??_C@_15INNPNOHD@?$AAs?$AAv?$AA?$AA@ 100b79f0     libucrt:lcidtoname_downlevel.obj
 0002:000239f8       ??_C@_15CABMMOGH@?$AAt?$AAh?$AA?$AA@ 100b79f8     libucrt:lcidtoname_downlevel.obj
 0002:00023a00       ??_C@_15BPLIHJJM@?$AAt?$AAr?$AA?$AA@ 100b7a00     libucrt:lcidtoname_downlevel.obj
 0002:00023a08       ??_C@_15NEOEKKDJ@?$AAu?$AAr?$AA?$AA@ 100b7a08     libucrt:lcidtoname_downlevel.obj
 0002:00023a10       ??_C@_15NFICGAJK@?$AAi?$AAd?$AA?$AA@ 100b7a10     libucrt:lcidtoname_downlevel.obj
 0002:00023a18       ??_C@_15HPJPHDM@?$AAb?$AAe?$AA?$AA@ 100b7a18     libucrt:lcidtoname_downlevel.obj
 0002:00023a20       ??_C@_15LCHLGJII@?$AAs?$AAl?$AA?$AA@ 100b7a20     libucrt:lcidtoname_downlevel.obj
 0002:00023a28       ??_C@_15PCFJPHHO@?$AAe?$AAt?$AA?$AA@ 100b7a28     libucrt:lcidtoname_downlevel.obj
 0002:00023a30       ??_C@_15HPFPGODN@?$AAl?$AAv?$AA?$AA@ 100b7a30     libucrt:lcidtoname_downlevel.obj
 0002:00023a38       ??_C@_15NFFGKGLG@?$AAl?$AAt?$AA?$AA@ 100b7a38     libucrt:lcidtoname_downlevel.obj
 0002:00023a40       ??_C@_15BDAKCCHN@?$AAf?$AAa?$AA?$AA@ 100b7a40     libucrt:lcidtoname_downlevel.obj
 0002:00023a48       ??_C@_15NFGIAIAJ@?$AAv?$AAi?$AA?$AA@ 100b7a48     libucrt:lcidtoname_downlevel.obj
 0002:00023a50       ??_C@_15LMKNDMHN@?$AAh?$AAy?$AA?$AA@ 100b7a50     libucrt:lcidtoname_downlevel.obj
 0002:00023a58       ??_C@_15IJBHMCFL@?$AAa?$AAz?$AA?$AA@ 100b7a58     libucrt:lcidtoname_downlevel.obj
 0002:00023a60       ??_C@_15EKOFJABL@?$AAe?$AAu?$AA?$AA@ 100b7a60     libucrt:lcidtoname_downlevel.obj
 0002:00023a68       ??_C@_15BGHADCNK@?$AAm?$AAk?$AA?$AA@ 100b7a68     libucrt:lcidtoname_downlevel.obj
 0002:00023a70       ??_C@_15JDNICKHM@?$AAa?$AAf?$AA?$AA@ 100b7a70     libucrt:lcidtoname_downlevel.obj
 0002:00023a78       ??_C@_15KPJEDBKD@?$AAk?$AAa?$AA?$AA@ 100b7a78     libucrt:lcidtoname_downlevel.obj
 0002:00023a80       ??_C@_15PDNFFFEO@?$AAf?$AAo?$AA?$AA@ 100b7a80     libucrt:lcidtoname_downlevel.obj
 0002:00023a88       ??_C@_15OMLEGLOC@?$AAh?$AAi?$AA?$AA@ 100b7a88     libucrt:lcidtoname_downlevel.obj
 0002:00023a90       ??_C@_15IDNNENKK@?$AAm?$AAs?$AA?$AA@ 100b7a90     libucrt:lcidtoname_downlevel.obj
 0002:00023a98       ??_C@_15MACJNBMH@?$AAk?$AAk?$AA?$AA@ 100b7a98     libucrt:lcidtoname_downlevel.obj
 0002:00023aa0       ??_C@_15DKDJEOND@?$AAk?$AAy?$AA?$AA@ 100b7aa0     libucrt:lcidtoname_downlevel.obj
 0002:00023aa8       ??_C@_15DFGDLJBG@?$AAs?$AAw?$AA?$AA@ 100b7aa8     libucrt:lcidtoname_downlevel.obj
 0002:00023ab0       ??_C@_15BBFAICNG@?$AAu?$AAz?$AA?$AA@ 100b7ab0     libucrt:lcidtoname_downlevel.obj
 0002:00023ab8       ??_C@_15DKNDCGEA@?$AAt?$AAt?$AA?$AA@ 100b7ab8     libucrt:lcidtoname_downlevel.obj
 0002:00023ac0       ??_C@_15MGIFMDPL@?$AAp?$AAa?$AA?$AA@ 100b7ac0     libucrt:lcidtoname_downlevel.obj
 0002:00023ac8       ??_C@_15HCNDBBA@?$AAg?$AAu?$AA?$AA@ 100b7ac8     libucrt:lcidtoname_downlevel.obj
 0002:00023ad0       ??_C@_15FNBEIBON@?$AAt?$AAa?$AA?$AA@ 100b7ad0     libucrt:lcidtoname_downlevel.obj
 0002:00023ad8       ??_C@_15NCHGBGLK@?$AAt?$AAe?$AA?$AA@ 100b7ad8     libucrt:lcidtoname_downlevel.obj
 0002:00023ae0       ??_C@_15PHPHCBPF@?$AAk?$AAn?$AA?$AA@ 100b7ae0     libucrt:lcidtoname_downlevel.obj
 0002:00023ae8       ??_C@_15DLGBCKMP@?$AAm?$AAr?$AA?$AA@ 100b7ae8     libucrt:lcidtoname_downlevel.obj
 0002:00023af0       ??_C@_15EABBLBFF@?$AAs?$AAa?$AA?$AA@ 100b7af0     libucrt:lcidtoname_downlevel.obj
 0002:00023af8       ??_C@_15CBKOMCOI@?$AAm?$AAn?$AA?$AA@ 100b7af8     libucrt:lcidtoname_downlevel.obj
 0002:00023b00       ??_C@_15CKDMCJAF@?$AAg?$AAl?$AA?$AA@ 100b7b00     libucrt:lcidtoname_downlevel.obj
 0002:00023b08       ??_C@_17CNJFBPG@?$AAk?$AAo?$AAk?$AA?$AA@ 100b7b08     libucrt:lcidtoname_downlevel.obj
 0002:00023b10       ??_C@_17FFBJICPL@?$AAs?$AAy?$AAr?$AA?$AA@ 100b7b10     libucrt:lcidtoname_downlevel.obj
 0002:00023b18       ??_C@_17KPNDCPAF@?$AAd?$AAi?$AAv?$AA?$AA@ 100b7b18     libucrt:lcidtoname_downlevel.obj
 0002:00023b20       ??_C@_11LOCGONAA@?$AA?$AA@ 100b7b20     libucrt:lcidtoname_downlevel.obj
 0002:00023b24       ??_C@_1M@OKAHONE@?$AAa?$AAr?$AA?9?$AAS?$AAA?$AA?$AA@ 100b7b24     libucrt:lcidtoname_downlevel.obj
 0002:00023b30       ??_C@_1M@FFFIGIGK@?$AAb?$AAg?$AA?9?$AAB?$AAG?$AA?$AA@ 100b7b30     libucrt:lcidtoname_downlevel.obj
 0002:00023b3c       ??_C@_1M@BJNKEDC@?$AAc?$AAa?$AA?9?$AAE?$AAS?$AA?$AA@ 100b7b3c     libucrt:lcidtoname_downlevel.obj
 0002:00023b48       ??_C@_1M@IJJHFJHA@?$AAc?$AAs?$AA?9?$AAC?$AAZ?$AA?$AA@ 100b7b48     libucrt:lcidtoname_downlevel.obj
 0002:00023b54       ??_C@_1M@CLPEOBGI@?$AAd?$AAa?$AA?9?$AAD?$AAK?$AA?$AA@ 100b7b54     libucrt:lcidtoname_downlevel.obj
 0002:00023b60       ??_C@_1M@MCMADGCB@?$AAd?$AAe?$AA?9?$AAD?$AAE?$AA?$AA@ 100b7b60     libucrt:lcidtoname_downlevel.obj
 0002:00023b6c       ??_C@_1M@OOCKEMAM@?$AAe?$AAl?$AA?9?$AAG?$AAR?$AA?$AA@ 100b7b6c     libucrt:lcidtoname_downlevel.obj
 0002:00023b78       ??_C@_1M@DDNJFGID@?$AAf?$AAi?$AA?9?$AAF?$AAI?$AA?$AA@ 100b7b78     libucrt:lcidtoname_downlevel.obj
 0002:00023b84       ??_C@_1M@GLIPPMAC@?$AAf?$AAr?$AA?9?$AAF?$AAR?$AA?$AA@ 100b7b84     libucrt:lcidtoname_downlevel.obj
 0002:00023b90       ??_C@_1M@GFMCHPE@?$AAh?$AAe?$AA?9?$AAI?$AAL?$AA?$AA@ 100b7b90     libucrt:lcidtoname_downlevel.obj
 0002:00023b9c       ??_C@_1M@MHLPGNKM@?$AAh?$AAu?$AA?9?$AAH?$AAU?$AA?$AA@ 100b7b9c     libucrt:lcidtoname_downlevel.obj
 0002:00023ba8       ??_C@_1M@LPDDNNPN@?$AAi?$AAs?$AA?9?$AAI?$AAS?$AA?$AA@ 100b7ba8     libucrt:lcidtoname_downlevel.obj
 0002:00023bb4       ??_C@_1M@MADIPODN@?$AAi?$AAt?$AA?9?$AAI?$AAT?$AA?$AA@ 100b7bb4     libucrt:lcidtoname_downlevel.obj
 0002:00023bc0       ??_C@_1M@IHBJJGG@?$AAn?$AAl?$AA?9?$AAN?$AAL?$AA?$AA@ 100b7bc0     libucrt:lcidtoname_downlevel.obj
 0002:00023bcc       ??_C@_1M@EANAGDL@?$AAn?$AAb?$AA?9?$AAN?$AAO?$AA?$AA@ 100b7bcc     libucrt:lcidtoname_downlevel.obj
 0002:00023bd8       ??_C@_1M@NEIEMEGP@?$AAp?$AAl?$AA?9?$AAP?$AAL?$AA?$AA@ 100b7bd8     libucrt:lcidtoname_downlevel.obj
 0002:00023be4       ??_C@_1M@BOCFIGEP@?$AAp?$AAt?$AA?9?$AAB?$AAR?$AA?$AA@ 100b7be4     libucrt:lcidtoname_downlevel.obj
 0002:00023bf0       ??_C@_1M@IMPFOPBG@?$AAr?$AAo?$AA?9?$AAR?$AAO?$AA?$AA@ 100b7bf0     libucrt:lcidtoname_downlevel.obj
 0002:00023bfc       ??_C@_1M@IDNNEJMM@?$AAr?$AAu?$AA?9?$AAR?$AAU?$AA?$AA@ 100b7bfc     libucrt:lcidtoname_downlevel.obj
 0002:00023c08       ??_C@_1M@LILEEOGM@?$AAh?$AAr?$AA?9?$AAH?$AAR?$AA?$AA@ 100b7c08     libucrt:lcidtoname_downlevel.obj
 0002:00023c14       ??_C@_1M@FKIFEHPB@?$AAs?$AAk?$AA?9?$AAS?$AAK?$AA?$AA@ 100b7c14     libucrt:lcidtoname_downlevel.obj
 0002:00023c20       ??_C@_1M@LJMAMNPJ@?$AAs?$AAq?$AA?9?$AAA?$AAL?$AA?$AA@ 100b7c20     libucrt:lcidtoname_downlevel.obj
 0002:00023c2c       ??_C@_1M@GIAKDKJK@?$AAs?$AAv?$AA?9?$AAS?$AAE?$AA?$AA@ 100b7c2c     libucrt:lcidtoname_downlevel.obj
 0002:00023c38       ??_C@_1M@MKJKIKCL@?$AAt?$AAh?$AA?9?$AAT?$AAH?$AA?$AA@ 100b7c38     libucrt:lcidtoname_downlevel.obj
 0002:00023c44       ??_C@_1M@MFLCCMPB@?$AAt?$AAr?$AA?9?$AAT?$AAR?$AA?$AA@ 100b7c44     libucrt:lcidtoname_downlevel.obj
 0002:00023c50       ??_C@_1M@OIJHDKJN@?$AAu?$AAr?$AA?9?$AAP?$AAK?$AA?$AA@ 100b7c50     libucrt:lcidtoname_downlevel.obj
 0002:00023c5c       ??_C@_1M@LHIPCIEK@?$AAi?$AAd?$AA?9?$AAI?$AAD?$AA?$AA@ 100b7c5c     libucrt:lcidtoname_downlevel.obj
 0002:00023c68       ??_C@_1M@MFMOBGI@?$AAu?$AAk?$AA?9?$AAU?$AAA?$AA?$AA@ 100b7c68     libucrt:lcidtoname_downlevel.obj
 0002:00023c74       ??_C@_1M@OBGLJIPL@?$AAb?$AAe?$AA?9?$AAB?$AAY?$AA?$AA@ 100b7c74     libucrt:lcidtoname_downlevel.obj
 0002:00023c80       ??_C@_1M@BCFAJEAD@?$AAs?$AAl?$AA?9?$AAS?$AAI?$AA?$AA@ 100b7c80     libucrt:lcidtoname_downlevel.obj
 0002:00023c8c       ??_C@_1M@FKFFEDDN@?$AAe?$AAt?$AA?9?$AAE?$AAE?$AA?$AA@ 100b7c8c     libucrt:lcidtoname_downlevel.obj
 0002:00023c98       ??_C@_1M@KGKKAACI@?$AAl?$AAv?$AA?9?$AAL?$AAV?$AA?$AA@ 100b7c98     libucrt:lcidtoname_downlevel.obj
 0002:00023ca4       ??_C@_1M@IFGBIJO@?$AAl?$AAt?$AA?9?$AAL?$AAT?$AA?$AA@ 100b7ca4     libucrt:lcidtoname_downlevel.obj
 0002:00023cb0       ??_C@_1M@FGEAHEDM@?$AAf?$AAa?$AA?9?$AAI?$AAR?$AA?$AA@ 100b7cb0     libucrt:lcidtoname_downlevel.obj
 0002:00023cbc       ??_C@_1M@KBMAIBFN@?$AAv?$AAi?$AA?9?$AAV?$AAN?$AA?$AA@ 100b7cbc     libucrt:lcidtoname_downlevel.obj
 0002:00023cc8       ??_C@_1M@GPCBKDJK@?$AAh?$AAy?$AA?9?$AAA?$AAM?$AA?$AA@ 100b7cc8     libucrt:lcidtoname_downlevel.obj
 0002:00023cd4       ??_C@_1BG@BECMDDJB@?$AAa?$AAz?$AA?9?$AAA?$AAZ?$AA?9?$AAL?$AAa?$AAt?$AAn?$AA?$AA@ 100b7cd4     libucrt:lcidtoname_downlevel.obj
 0002:00023cec       ??_C@_1M@MAOFCAEA@?$AAe?$AAu?$AA?9?$AAE?$AAS?$AA?$AA@ 100b7cec     libucrt:lcidtoname_downlevel.obj
 0002:00023cf8       ??_C@_1M@IGHABKPI@?$AAm?$AAk?$AA?9?$AAM?$AAK?$AA?$AA@ 100b7cf8     libucrt:lcidtoname_downlevel.obj
 0002:00023d04       ??_C@_1M@IAIGNEJG@?$AAt?$AAn?$AA?9?$AAZ?$AAA?$AA?$AA@ 100b7d04     libucrt:lcidtoname_downlevel.obj
 0002:00023d10       ??_C@_1M@IIJCOJFA@?$AAx?$AAh?$AA?9?$AAZ?$AAA?$AA?$AA@ 100b7d10     libucrt:lcidtoname_downlevel.obj
 0002:00023d1c       ??_C@_1M@LGPJHNJH@?$AAz?$AAu?$AA?9?$AAZ?$AAA?$AA?$AA@ 100b7d1c     libucrt:lcidtoname_downlevel.obj
 0002:00023d28       ??_C@_1M@HOKAOIO@?$AAa?$AAf?$AA?9?$AAZ?$AAA?$AA?$AA@ 100b7d28     libucrt:lcidtoname_downlevel.obj
 0002:00023d34       ??_C@_1M@DPCLHLIE@?$AAk?$AAa?$AA?9?$AAG?$AAE?$AA?$AA@ 100b7d34     libucrt:lcidtoname_downlevel.obj
 0002:00023d40       ??_C@_1M@BLKMHJBI@?$AAf?$AAo?$AA?9?$AAF?$AAO?$AA?$AA@ 100b7d40     libucrt:lcidtoname_downlevel.obj
 0002:00023d4c       ??_C@_1M@LGGJAPPB@?$AAh?$AAi?$AA?9?$AAI?$AAN?$AA?$AA@ 100b7d4c     libucrt:lcidtoname_downlevel.obj
 0002:00023d58       ??_C@_1M@FIKPIHFE@?$AAm?$AAt?$AA?9?$AAM?$AAT?$AA?$AA@ 100b7d58     libucrt:lcidtoname_downlevel.obj
 0002:00023d64       ??_C@_1M@HEGGPBFA@?$AAs?$AAe?$AA?9?$AAN?$AAO?$AA?$AA@ 100b7d64     libucrt:lcidtoname_downlevel.obj
 0002:00023d70       ??_C@_1M@EIBJEEPA@?$AAm?$AAs?$AA?9?$AAM?$AAY?$AA?$AA@ 100b7d70     libucrt:lcidtoname_downlevel.obj
 0002:00023d7c       ??_C@_1M@FHLBGMPP@?$AAk?$AAk?$AA?9?$AAK?$AAZ?$AA?$AA@ 100b7d7c     libucrt:lcidtoname_downlevel.obj
 0002:00023d88       ??_C@_1M@NGJJLCGI@?$AAk?$AAy?$AA?9?$AAK?$AAG?$AA?$AA@ 100b7d88     libucrt:lcidtoname_downlevel.obj
 0002:00023d94       ??_C@_1M@GIENNBFC@?$AAs?$AAw?$AA?9?$AAK?$AAE?$AA?$AA@ 100b7d94     libucrt:lcidtoname_downlevel.obj
 0002:00023da0       ??_C@_1BG@NDGMJIMJ@?$AAu?$AAz?$AA?9?$AAU?$AAZ?$AA?9?$AAL?$AAa?$AAt?$AAn?$AA?$AA@ 100b7da0     libucrt:lcidtoname_downlevel.obj
 0002:00023db8       ??_C@_1M@IDCCIHBC@?$AAt?$AAt?$AA?9?$AAR?$AAU?$AA?$AA@ 100b7db8     libucrt:lcidtoname_downlevel.obj
 0002:00023dc4       ??_C@_1M@LOICPMOJ@?$AAb?$AAn?$AA?9?$AAI?$AAN?$AA?$AA@ 100b7dc4     libucrt:lcidtoname_downlevel.obj
 0002:00023dd0       ??_C@_1M@KPKKNEAH@?$AAp?$AAa?$AA?9?$AAI?$AAN?$AA?$AA@ 100b7dd0     libucrt:lcidtoname_downlevel.obj
 0002:00023ddc       ??_C@_1M@PJGPPBOG@?$AAg?$AAu?$AA?9?$AAI?$AAN?$AA?$AA@ 100b7ddc     libucrt:lcidtoname_downlevel.obj
 0002:00023de8       ??_C@_1M@KMKMOPHI@?$AAt?$AAa?$AA?9?$AAI?$AAN?$AA?$AA@ 100b7de8     libucrt:lcidtoname_downlevel.obj
 0002:00023df4       ??_C@_1M@KFEHEPAC@?$AAt?$AAe?$AA?9?$AAI?$AAN?$AA?$AA@ 100b7df4     libucrt:lcidtoname_downlevel.obj
 0002:00023e00       ??_C@_1M@CDCLMGHI@?$AAk?$AAn?$AA?9?$AAI?$AAN?$AA?$AA@ 100b7e00     libucrt:lcidtoname_downlevel.obj
 0002:00023e0c       ??_C@_1M@MIODLDKF@?$AAm?$AAl?$AA?9?$AAI?$AAN?$AA?$AA@ 100b7e0c     libucrt:lcidtoname_downlevel.obj
 0002:00023e18       ??_C@_1M@PBIEACPO@?$AAm?$AAr?$AA?9?$AAI?$AAN?$AA?$AA@ 100b7e18     libucrt:lcidtoname_downlevel.obj
 0002:00023e24       ??_C@_1M@NIDEAGPH@?$AAs?$AAa?$AA?9?$AAI?$AAN?$AA?$AA@ 100b7e24     libucrt:lcidtoname_downlevel.obj
 0002:00023e30       ??_C@_1M@FHIHCBIO@?$AAm?$AAn?$AA?9?$AAM?$AAN?$AA?$AA@ 100b7e30     libucrt:lcidtoname_downlevel.obj
 0002:00023e3c       ??_C@_1M@JAIJPENP@?$AAc?$AAy?$AA?9?$AAG?$AAB?$AA?$AA@ 100b7e3c     libucrt:lcidtoname_downlevel.obj
 0002:00023e48       ??_C@_1M@PHGFBEPN@?$AAg?$AAl?$AA?9?$AAE?$AAS?$AA?$AA@ 100b7e48     libucrt:lcidtoname_downlevel.obj
 0002:00023e54       ??_C@_1O@KPIPDNCP@?$AAk?$AAo?$AAk?$AA?9?$AAI?$AAN?$AA?$AA@ 100b7e54     libucrt:lcidtoname_downlevel.obj
 0002:00023e64       ??_C@_1O@KNHJLDJA@?$AAs?$AAy?$AAr?$AA?9?$AAS?$AAY?$AA?$AA@ 100b7e64     libucrt:lcidtoname_downlevel.obj
 0002:00023e74       ??_C@_1O@MKEKBLAH@?$AAd?$AAi?$AAv?$AA?9?$AAM?$AAV?$AA?$AA@ 100b7e74     libucrt:lcidtoname_downlevel.obj
 0002:00023e84       ??_C@_1O@OHDCKDDF@?$AAq?$AAu?$AAz?$AA?9?$AAB?$AAO?$AA?$AA@ 100b7e84     libucrt:lcidtoname_downlevel.obj
 0002:00023e94       ??_C@_1M@LEPJNLFD@?$AAn?$AAs?$AA?9?$AAZ?$AAA?$AA?$AA@ 100b7e94     libucrt:lcidtoname_downlevel.obj
 0002:00023ea0       ??_C@_1M@OMLEIIJB@?$AAm?$AAi?$AA?9?$AAN?$AAZ?$AA?$AA@ 100b7ea0     libucrt:lcidtoname_downlevel.obj
 0002:00023eac       ??_C@_1M@PMPEAILG@?$AAa?$AAr?$AA?9?$AAI?$AAQ?$AA?$AA@ 100b7eac     libucrt:lcidtoname_downlevel.obj
 0002:00023eb8       ??_C@_1M@CNKPNOEE@?$AAd?$AAe?$AA?9?$AAC?$AAH?$AA?$AA@ 100b7eb8     libucrt:lcidtoname_downlevel.obj
 0002:00023ec4       ??_C@_1M@LKMGMLKO@?$AAe?$AAn?$AA?9?$AAG?$AAB?$AA?$AA@ 100b7ec4     libucrt:lcidtoname_downlevel.obj
 0002:00023ed0       ??_C@_1M@PGKJFFGL@?$AAe?$AAs?$AA?9?$AAM?$AAX?$AA?$AA@ 100b7ed0     libucrt:lcidtoname_downlevel.obj
 0002:00023edc       ??_C@_1M@DNNANBDC@?$AAf?$AAr?$AA?9?$AAB?$AAE?$AA?$AA@ 100b7edc     libucrt:lcidtoname_downlevel.obj
 0002:00023ee8       ??_C@_1M@HLGMDFHM@?$AAi?$AAt?$AA?9?$AAC?$AAH?$AA?$AA@ 100b7ee8     libucrt:lcidtoname_downlevel.obj
 0002:00023ef4       ??_C@_1M@CLLBGJH@?$AAn?$AAl?$AA?9?$AAB?$AAE?$AA?$AA@ 100b7ef4     libucrt:lcidtoname_downlevel.obj
 0002:00023f00       ??_C@_1M@BODBOGLF@?$AAn?$AAn?$AA?9?$AAN?$AAO?$AA?$AA@ 100b7f00     libucrt:lcidtoname_downlevel.obj
 0002:00023f0c       ??_C@_1M@HFFAHKAD@?$AAp?$AAt?$AA?9?$AAP?$AAT?$AA?$AA@ 100b7f0c     libucrt:lcidtoname_downlevel.obj
 0002:00023f18       ??_C@_1BG@LNOAKHIE@?$AAs?$AAr?$AA?9?$AAS?$AAP?$AA?9?$AAL?$AAa?$AAt?$AAn?$AA?$AA@ 100b7f18     libucrt:lcidtoname_downlevel.obj
 0002:00023f30       ??_C@_1M@HBMHBGAK@?$AAs?$AAv?$AA?9?$AAF?$AAI?$AA?$AA@ 100b7f30     libucrt:lcidtoname_downlevel.obj
 0002:00023f3c       ??_C@_1BG@DGCJGJBE@?$AAa?$AAz?$AA?9?$AAA?$AAZ?$AA?9?$AAC?$AAy?$AAr?$AAl?$AA?$AA@ 100b7f3c     libucrt:lcidtoname_downlevel.obj
 0002:00023f54       ??_C@_1M@KEJDAAHB@?$AAs?$AAe?$AA?9?$AAS?$AAE?$AA?$AA@ 100b7f54     libucrt:lcidtoname_downlevel.obj
 0002:00023f60       ??_C@_1M@HEIBJJAD@?$AAm?$AAs?$AA?9?$AAB?$AAN?$AA?$AA@ 100b7f60     libucrt:lcidtoname_downlevel.obj
 0002:00023f6c       ??_C@_1BG@PBGJMCEM@?$AAu?$AAz?$AA?9?$AAU?$AAZ?$AA?9?$AAC?$AAy?$AAr?$AAl?$AA?$AA@ 100b7f6c     libucrt:lcidtoname_downlevel.obj
 0002:00023f84       ??_C@_1O@LAOBCMDF@?$AAq?$AAu?$AAz?$AA?9?$AAE?$AAC?$AA?$AA@ 100b7f84     libucrt:lcidtoname_downlevel.obj
 0002:00023f94       ??_C@_1M@POEEMAIO@?$AAa?$AAr?$AA?9?$AAE?$AAG?$AA?$AA@ 100b7f94     libucrt:lcidtoname_downlevel.obj
 0002:00023fa0       ??_C@_1M@EFAKDEDL@?$AAz?$AAh?$AA?9?$AAH?$AAK?$AA?$AA@ 100b7fa0     libucrt:lcidtoname_downlevel.obj
 0002:00023fac       ??_C@_1M@HKKIJHGI@?$AAd?$AAe?$AA?9?$AAA?$AAT?$AA?$AA@ 100b7fac     libucrt:lcidtoname_downlevel.obj
 0002:00023fb8       ??_C@_1M@KBFBEHJF@?$AAe?$AAn?$AA?9?$AAA?$AAU?$AA?$AA@ 100b7fb8     libucrt:lcidtoname_downlevel.obj
 0002:00023fc4       ??_C@_1M@MNPLFAAH@?$AAe?$AAs?$AA?9?$AAE?$AAS?$AA?$AA@ 100b7fc4     libucrt:lcidtoname_downlevel.obj
 0002:00023fd0       ??_C@_1M@HJOOJFMA@?$AAf?$AAr?$AA?9?$AAC?$AAA?$AA?$AA@ 100b7fd0     libucrt:lcidtoname_downlevel.obj
 0002:00023fdc       ??_C@_1BG@JPOFPNAB@?$AAs?$AAr?$AA?9?$AAS?$AAP?$AA?9?$AAC?$AAy?$AAr?$AAl?$AA?$AA@ 100b7fdc     libucrt:lcidtoname_downlevel.obj
 0002:00023ff4       ??_C@_1M@LNFOCMOB@?$AAs?$AAe?$AA?9?$AAF?$AAI?$AA?$AA@ 100b7ff4     libucrt:lcidtoname_downlevel.obj
 0002:00024000       ??_C@_1O@MGJBOAMB@?$AAq?$AAu?$AAz?$AA?9?$AAP?$AAE?$AA?$AA@ 100b8000     libucrt:lcidtoname_downlevel.obj
 0002:00024010       ??_C@_1M@GJINLBOK@?$AAa?$AAr?$AA?9?$AAL?$AAY?$AA?$AA@ 100b8010     libucrt:lcidtoname_downlevel.obj
 0002:0002401c       ??_C@_1M@GGMNHJNL@?$AAz?$AAh?$AA?9?$AAS?$AAG?$AA?$AA@ 100b801c     libucrt:lcidtoname_downlevel.obj
 0002:00024028       ??_C@_1M@HOIKODND@?$AAd?$AAe?$AA?9?$AAL?$AAU?$AA?$AA@ 100b8028     libucrt:lcidtoname_downlevel.obj
 0002:00024034       ??_C@_1M@DDOCCGFG@?$AAe?$AAn?$AA?9?$AAC?$AAA?$AA?$AA@ 100b8034     libucrt:lcidtoname_downlevel.obj
 0002:00024040       ??_C@_1M@BNOEMJLF@?$AAe?$AAs?$AA?9?$AAG?$AAT?$AA?$AA@ 100b8040     libucrt:lcidtoname_downlevel.obj
 0002:0002404c       ??_C@_1M@EOGNKEK@?$AAf?$AAr?$AA?9?$AAC?$AAH?$AA?$AA@ 100b804c     libucrt:lcidtoname_downlevel.obj
 0002:00024058       ??_C@_1M@FLIDJFHL@?$AAh?$AAr?$AA?9?$AAB?$AAA?$AA?$AA@ 100b8058     libucrt:lcidtoname_downlevel.obj
 0002:00024064       ??_C@_1O@FMCELNAJ@?$AAs?$AAm?$AAj?$AA?9?$AAN?$AAO?$AA?$AA@ 100b8064     libucrt:lcidtoname_downlevel.obj
 0002:00024074       ??_C@_1M@JHGLJMGJ@?$AAa?$AAr?$AA?9?$AAD?$AAZ?$AA?$AA@ 100b8074     libucrt:lcidtoname_downlevel.obj
 0002:00024080       ??_C@_1M@JKKFDCNP@?$AAz?$AAh?$AA?9?$AAM?$AAO?$AA?$AA@ 100b8080     libucrt:lcidtoname_downlevel.obj
 0002:0002408c       ??_C@_1M@GEEFALPE@?$AAd?$AAe?$AA?9?$AAL?$AAI?$AA?$AA@ 100b808c     libucrt:lcidtoname_downlevel.obj
 0002:00024098       ??_C@_1M@IGEOFBG@?$AAe?$AAn?$AA?9?$AAN?$AAZ?$AA?$AA@ 100b8098     libucrt:lcidtoname_downlevel.obj
 0002:000240a4       ??_C@_1M@KDBONEHP@?$AAe?$AAs?$AA?9?$AAC?$AAR?$AA?$AA@ 100b80a4     libucrt:lcidtoname_downlevel.obj
 0002:000240b0       ??_C@_1M@FHMDOHNN@?$AAf?$AAr?$AA?9?$AAL?$AAU?$AA?$AA@ 100b80b0     libucrt:lcidtoname_downlevel.obj
 0002:000240bc       ??_C@_1BG@NFKKMAFG@?$AAb?$AAs?$AA?9?$AAB?$AAA?$AA?9?$AAL?$AAa?$AAt?$AAn?$AA?$AA@ 100b80bc     libucrt:lcidtoname_downlevel.obj
 0002:000240d4       ??_C@_1O@IMNBEMCI@?$AAs?$AAm?$AAj?$AA?9?$AAS?$AAE?$AA?$AA@ 100b80d4     libucrt:lcidtoname_downlevel.obj
 0002:000240e4       ??_C@_1M@DHHMBNDP@?$AAa?$AAr?$AA?9?$AAM?$AAA?$AA?$AA@ 100b80e4     libucrt:lcidtoname_downlevel.obj
 0002:000240f0       ??_C@_1M@BNBLJCGH@?$AAe?$AAn?$AA?9?$AAI?$AAE?$AA?$AA@ 100b80f0     libucrt:lcidtoname_downlevel.obj
 0002:000240fc       ??_C@_1M@GEPAFMDL@?$AAe?$AAs?$AA?9?$AAP?$AAA?$AA?$AA@ 100b80fc     libucrt:lcidtoname_downlevel.obj
 0002:00024108       ??_C@_1M@OJONDMDL@?$AAf?$AAr?$AA?9?$AAM?$AAC?$AA?$AA@ 100b8108     libucrt:lcidtoname_downlevel.obj
 0002:00024114       ??_C@_1BG@OBCNFJB@?$AAs?$AAr?$AA?9?$AAB?$AAA?$AA?9?$AAL?$AAa?$AAt?$AAn?$AA?$AA@ 100b8114     libucrt:lcidtoname_downlevel.obj
 0002:0002412c       ??_C@_1O@KEMEEGPO@?$AAs?$AAm?$AAa?$AA?9?$AAN?$AAO?$AA?$AA@ 100b812c     libucrt:lcidtoname_downlevel.obj
 0002:0002413c       ??_C@_1M@ELMGFODK@?$AAa?$AAr?$AA?9?$AAT?$AAN?$AA?$AA@ 100b813c     libucrt:lcidtoname_downlevel.obj
 0002:00024148       ??_C@_1M@BHDLHFAF@?$AAe?$AAn?$AA?9?$AAZ?$AAA?$AA?$AA@ 100b8148     libucrt:lcidtoname_downlevel.obj
 0002:00024154       ??_C@_1M@BMGIGLIF@?$AAe?$AAs?$AA?9?$AAD?$AAO?$AA?$AA@ 100b8154     libucrt:lcidtoname_downlevel.obj
 0002:00024160       ??_C@_1BG@CMBHIPBE@?$AAs?$AAr?$AA?9?$AAB?$AAA?$AA?9?$AAC?$AAy?$AAr?$AAl?$AA?$AA@ 100b8160     libucrt:lcidtoname_downlevel.obj
 0002:00024178       ??_C@_1O@HEDBLHNP@?$AAs?$AAm?$AAa?$AA?9?$AAS?$AAE?$AA?$AA@ 100b8178     libucrt:lcidtoname_downlevel.obj
 0002:00024188       ??_C@_1M@DAGCADIM@?$AAa?$AAr?$AA?9?$AAO?$AAM?$AA?$AA@ 100b8188     libucrt:lcidtoname_downlevel.obj
 0002:00024194       ??_C@_1M@FODLMICG@?$AAe?$AAn?$AA?9?$AAJ?$AAM?$AA?$AA@ 100b8194     libucrt:lcidtoname_downlevel.obj
 0002:000241a0       ??_C@_1M@DNMLCIHB@?$AAe?$AAs?$AA?9?$AAV?$AAE?$AA?$AA@ 100b81a0     libucrt:lcidtoname_downlevel.obj
 0002:000241ac       ??_C@_1O@EOKHMKJK@?$AAs?$AAm?$AAs?$AA?9?$AAF?$AAI?$AA?$AA@ 100b81ac     libucrt:lcidtoname_downlevel.obj
 0002:000241bc       ??_C@_1M@CAFJMKOF@?$AAa?$AAr?$AA?9?$AAY?$AAE?$AA?$AA@ 100b81bc     libucrt:lcidtoname_downlevel.obj
 0002:000241c8       ??_C@_1M@CBFHIJLI@?$AAe?$AAn?$AA?9?$AAC?$AAB?$AA?$AA@ 100b81c8     libucrt:lcidtoname_downlevel.obj
 0002:000241d4       ??_C@_1M@BGNFLDN@?$AAe?$AAs?$AA?9?$AAC?$AAO?$AA?$AA@ 100b81d4     libucrt:lcidtoname_downlevel.obj
 0002:000241e0       ??_C@_1O@JMPHMAMC@?$AAs?$AAm?$AAn?$AA?9?$AAF?$AAI?$AA?$AA@ 100b81e0     libucrt:lcidtoname_downlevel.obj
 0002:000241f0       ??_C@_1M@JLANABKE@?$AAa?$AAr?$AA?9?$AAS?$AAY?$AA?$AA@ 100b81f0     libucrt:lcidtoname_downlevel.obj
 0002:000241fc       ??_C@_1M@HPKGCFGN@?$AAe?$AAn?$AA?9?$AAB?$AAZ?$AA?$AA@ 100b81fc     libucrt:lcidtoname_downlevel.obj
 0002:00024208       ??_C@_1M@OLJCMLGM@?$AAe?$AAs?$AA?9?$AAP?$AAE?$AA?$AA@ 100b8208     libucrt:lcidtoname_downlevel.obj
 0002:00024214       ??_C@_1M@MKKGFKLE@?$AAa?$AAr?$AA?9?$AAJ?$AAO?$AA?$AA@ 100b8214     libucrt:lcidtoname_downlevel.obj
 0002:00024220       ??_C@_1M@EKPGLDNI@?$AAe?$AAn?$AA?9?$AAT?$AAT?$AA?$AA@ 100b8220     libucrt:lcidtoname_downlevel.obj
 0002:0002422c       ??_C@_1M@OONGHFHE@?$AAe?$AAs?$AA?9?$AAA?$AAR?$AA?$AA@ 100b822c     libucrt:lcidtoname_downlevel.obj
 0002:00024238       ??_C@_1M@OOJFGBHE@?$AAa?$AAr?$AA?9?$AAL?$AAB?$AA?$AA@ 100b8238     libucrt:lcidtoname_downlevel.obj
 0002:00024244       ??_C@_1M@GCEJHNEG@?$AAe?$AAn?$AA?9?$AAZ?$AAW?$AA?$AA@ 100b8244     libucrt:lcidtoname_downlevel.obj
 0002:00024250       ??_C@_1M@JNOCAHJI@?$AAe?$AAs?$AA?9?$AAE?$AAC?$AA?$AA@ 100b8250     libucrt:lcidtoname_downlevel.obj
 0002:0002425c       ??_C@_1M@JEFHPGGB@?$AAa?$AAr?$AA?9?$AAK?$AAW?$AA?$AA@ 100b825c     libucrt:lcidtoname_downlevel.obj
 0002:00024268       ??_C@_1M@MLKIBJOJ@?$AAe?$AAn?$AA?9?$AAP?$AAH?$AA?$AA@ 100b8268     libucrt:lcidtoname_downlevel.obj
 0002:00024274       ??_C@_1M@BDNIPEND@?$AAe?$AAs?$AA?9?$AAC?$AAL?$AA?$AA@ 100b8274     libucrt:lcidtoname_downlevel.obj
 0002:00024280       ??_C@_1M@MPNMEKBD@?$AAa?$AAr?$AA?9?$AAA?$AAE?$AA?$AA@ 100b8280     libucrt:lcidtoname_downlevel.obj
 0002:0002428c       ??_C@_1M@KBJALCPI@?$AAe?$AAs?$AA?9?$AAU?$AAY?$AA?$AA@ 100b828c     libucrt:lcidtoname_downlevel.obj
 0002:00024298       ??_C@_1M@LLCCOAGA@?$AAa?$AAr?$AA?9?$AAB?$AAH?$AA?$AA@ 100b8298     libucrt:lcidtoname_downlevel.obj
 0002:000242a4       ??_C@_1M@PBFNCDEL@?$AAe?$AAs?$AA?9?$AAP?$AAY?$AA?$AA@ 100b82a4     libucrt:lcidtoname_downlevel.obj
 0002:000242b0       ??_C@_1M@EDGINPNP@?$AAa?$AAr?$AA?9?$AAQ?$AAA?$AA?$AA@ 100b82b0     libucrt:lcidtoname_downlevel.obj
 0002:000242bc       ??_C@_1M@MKDBIIJI@?$AAe?$AAs?$AA?9?$AAB?$AAO?$AA?$AA@ 100b82bc     libucrt:lcidtoname_downlevel.obj
 0002:000242c8       ??_C@_1M@CPKKEBLD@?$AAe?$AAs?$AA?9?$AAS?$AAV?$AA?$AA@ 100b82c8     libucrt:lcidtoname_downlevel.obj
 0002:000242d4       ??_C@_1M@NDBGMMJL@?$AAe?$AAs?$AA?9?$AAH?$AAN?$AA?$AA@ 100b82d4     libucrt:lcidtoname_downlevel.obj
 0002:000242e0       ??_C@_1M@JIJIBHDP@?$AAe?$AAs?$AA?9?$AAN?$AAI?$AA?$AA@ 100b82e0     libucrt:lcidtoname_downlevel.obj
 0002:000242ec       ??_C@_1M@CGFMKEEK@?$AAe?$AAs?$AA?9?$AAP?$AAR?$AA?$AA@ 100b82ec     libucrt:lcidtoname_downlevel.obj
 0002:000242f8       ??_C@_1O@ICJHKIIK@?$AAz?$AAh?$AA?9?$AAC?$AAH?$AAT?$AA?$AA@ 100b82f8     libucrt:lcidtoname_downlevel.obj
 0002:00024308       ??_C@_15CLNEJCE@?$AAs?$AAr?$AA?$AA@ 100b8308     libucrt:lcidtoname_downlevel.obj
 0002:00024a30       ??_C@_1M@KAHEKEIG@?$AAa?$AAf?$AA?9?$AAz?$AAa?$AA?$AA@ 100b8a30     libucrt:lcidtoname_downlevel.obj
 0002:00024a3c       ??_C@_1M@GIECOABL@?$AAa?$AAr?$AA?9?$AAa?$AAe?$AA?$AA@ 100b8a3c     libucrt:lcidtoname_downlevel.obj
 0002:00024a48       ??_C@_1M@BMLMEKGI@?$AAa?$AAr?$AA?9?$AAb?$AAh?$AA?$AA@ 100b8a48     libucrt:lcidtoname_downlevel.obj
 0002:00024a54       ??_C@_1M@DAPFDGGB@?$AAa?$AAr?$AA?9?$AAd?$AAz?$AA?$AA@ 100b8a54     libucrt:lcidtoname_downlevel.obj
 0002:00024a60       ??_C@_1M@FJNKGKIG@?$AAa?$AAr?$AA?9?$AAe?$AAg?$AA?$AA@ 100b8a60     libucrt:lcidtoname_downlevel.obj
 0002:00024a6c       ??_C@_1M@FLGKKCLO@?$AAa?$AAr?$AA?9?$AAi?$AAq?$AA?$AA@ 100b8a6c     libucrt:lcidtoname_downlevel.obj
 0002:00024a78       ??_C@_1M@GNDIPALM@?$AAa?$AAr?$AA?9?$AAj?$AAo?$AA?$AA@ 100b8a78     libucrt:lcidtoname_downlevel.obj
 0002:00024a84       ??_C@_1M@DDMJFMGJ@?$AAa?$AAr?$AA?9?$AAk?$AAw?$AA?$AA@ 100b8a84     libucrt:lcidtoname_downlevel.obj
 0002:00024a90       ??_C@_1M@EJALMLHM@?$AAa?$AAr?$AA?9?$AAl?$AAb?$AA?$AA@ 100b8a90     libucrt:lcidtoname_downlevel.obj
 0002:00024a9c       ??_C@_1M@MOBDBLOC@?$AAa?$AAr?$AA?9?$AAl?$AAy?$AA?$AA@ 100b8a9c     libucrt:lcidtoname_downlevel.obj
 0002:00024aa8       ??_C@_1M@JAOCLHDH@?$AAa?$AAr?$AA?9?$AAm?$AAa?$AA?$AA@ 100b8aa8     libucrt:lcidtoname_downlevel.obj
 0002:00024ab4       ??_C@_1M@JHPMKJIE@?$AAa?$AAr?$AA?9?$AAo?$AAm?$AA?$AA@ 100b8ab4     libucrt:lcidtoname_downlevel.obj
 0002:00024ac0       ??_C@_1M@OEPGHFNH@?$AAa?$AAr?$AA?9?$AAq?$AAa?$AA?$AA@ 100b8ac0     libucrt:lcidtoname_downlevel.obj
 0002:00024acc       ??_C@_1M@KJDONENM@?$AAa?$AAr?$AA?9?$AAs?$AAa?$AA?$AA@ 100b8acc     libucrt:lcidtoname_downlevel.obj
 0002:00024ad8       ??_C@_1M@DMJDKLKM@?$AAa?$AAr?$AA?9?$AAs?$AAy?$AA?$AA@ 100b8ad8     libucrt:lcidtoname_downlevel.obj
 0002:00024ae4       ??_C@_1M@OMFIPEDC@?$AAa?$AAr?$AA?9?$AAt?$AAn?$AA?$AA@ 100b8ae4     libucrt:lcidtoname_downlevel.obj
 0002:00024af0       ??_C@_1M@IHMHGAON@?$AAa?$AAr?$AA?9?$AAy?$AAe?$AA?$AA@ 100b8af0     libucrt:lcidtoname_downlevel.obj
 0002:00024afc       ??_C@_1BG@KDCPGJGB@?$AAa?$AAz?$AA?9?$AAa?$AAz?$AA?9?$AAc?$AAy?$AAr?$AAl?$AA?$AA@ 100b8afc     libucrt:lcidtoname_downlevel.obj
 0002:00024b14       ??_C@_1BG@IBCKDDOE@?$AAa?$AAz?$AA?9?$AAa?$AAz?$AA?9?$AAl?$AAa?$AAt?$AAn?$AA?$AA@ 100b8b14     libucrt:lcidtoname_downlevel.obj
 0002:00024b2c       ??_C@_1M@EGPFDCPD@?$AAb?$AAe?$AA?9?$AAb?$AAy?$AA?$AA@ 100b8b2c     libucrt:lcidtoname_downlevel.obj
 0002:00024b38       ??_C@_1M@PCMGMCGC@?$AAb?$AAg?$AA?9?$AAb?$AAg?$AA?$AA@ 100b8b38     libucrt:lcidtoname_downlevel.obj
 0002:00024b44       ??_C@_1M@BJBMFGOB@?$AAb?$AAn?$AA?9?$AAi?$AAn?$AA?$AA@ 100b8b44     libucrt:lcidtoname_downlevel.obj
 0002:00024b50       ??_C@_1BG@EAKMMACD@?$AAb?$AAs?$AA?9?$AAb?$AAa?$AA?9?$AAl?$AAa?$AAt?$AAn?$AA?$AA@ 100b8b50     libucrt:lcidtoname_downlevel.obj
 0002:00024b68       ??_C@_1M@KGADAODK@?$AAc?$AAa?$AA?9?$AAe?$AAs?$AA?$AA@ 100b8b68     libucrt:lcidtoname_downlevel.obj
 0002:00024b74       ??_C@_1M@COAJPDHI@?$AAc?$AAs?$AA?9?$AAc?$AAz?$AA?$AA@ 100b8b74     libucrt:lcidtoname_downlevel.obj
 0002:00024b80       ??_C@_1M@DHBHFONH@?$AAc?$AAy?$AA?9?$AAg?$AAb?$AA?$AA@ 100b8b80     libucrt:lcidtoname_downlevel.obj
 0002:00024b8c       ??_C@_1M@IMGKELGA@?$AAd?$AAa?$AA?9?$AAd?$AAk?$AA?$AA@ 100b8b8c     libucrt:lcidtoname_downlevel.obj
 0002:00024b98       ??_C@_1M@NNDGDNGA@?$AAd?$AAe?$AA?9?$AAa?$AAt?$AA?$AA@ 100b8b98     libucrt:lcidtoname_downlevel.obj
 0002:00024ba4       ??_C@_1M@IKDBHEEM@?$AAd?$AAe?$AA?9?$AAc?$AAh?$AA?$AA@ 100b8ba4     libucrt:lcidtoname_downlevel.obj
 0002:00024bb0       ??_C@_1M@GFFOJMCJ@?$AAd?$AAe?$AA?9?$AAd?$AAe?$AA?$AA@ 100b8bb0     libucrt:lcidtoname_downlevel.obj
 0002:00024bbc       ??_C@_1M@MDNLKBPM@?$AAd?$AAe?$AA?9?$AAl?$AAi?$AA?$AA@ 100b8bbc     libucrt:lcidtoname_downlevel.obj
 0002:00024bc8       ??_C@_1M@NJBEEJNL@?$AAd?$AAe?$AA?9?$AAl?$AAu?$AA?$AA@ 100b8bc8     libucrt:lcidtoname_downlevel.obj
 0002:00024bd4       ??_C@_1O@GNNELBAP@?$AAd?$AAi?$AAv?$AA?9?$AAm?$AAv?$AA?$AA@ 100b8bd4     libucrt:lcidtoname_downlevel.obj
 0002:00024be4       ??_C@_1M@EJLEOGAE@?$AAe?$AAl?$AA?9?$AAg?$AAr?$AA?$AA@ 100b8be4     libucrt:lcidtoname_downlevel.obj
 0002:00024bf0       ??_C@_1M@GMPONJN@?$AAe?$AAn?$AA?9?$AAa?$AAu?$AA?$AA@ 100b8bf0     libucrt:lcidtoname_downlevel.obj
 0002:00024bfc       ??_C@_1M@NIDIIPGF@?$AAe?$AAn?$AA?9?$AAb?$AAz?$AA?$AA@ 100b8bfc     libucrt:lcidtoname_downlevel.obj
 0002:00024c08       ??_C@_1M@JEHMIMFO@?$AAe?$AAn?$AA?9?$AAc?$AAa?$AA?$AA@ 100b8c08     libucrt:lcidtoname_downlevel.obj
 0002:00024c14       ??_C@_1M@IGMJCDLA@?$AAe?$AAn?$AA?9?$AAc?$AAb?$AA?$AA@ 100b8c14     libucrt:lcidtoname_downlevel.obj
 0002:00024c20       ??_C@_1M@BNFIGBKG@?$AAe?$AAn?$AA?9?$AAg?$AAb?$AA?$AA@ 100b8c20     libucrt:lcidtoname_downlevel.obj
 0002:00024c2c       ??_C@_1M@LKIFDIGP@?$AAe?$AAn?$AA?9?$AAi?$AAe?$AA?$AA@ 100b8c2c     libucrt:lcidtoname_downlevel.obj
 0002:00024c38       ??_C@_1M@PJKFGCCO@?$AAe?$AAn?$AA?9?$AAj?$AAm?$AA?$AA@ 100b8c38     libucrt:lcidtoname_downlevel.obj
 0002:00024c44       ??_C@_1M@KPPKEPBO@?$AAe?$AAn?$AA?9?$AAn?$AAz?$AA?$AA@ 100b8c44     libucrt:lcidtoname_downlevel.obj
 0002:00024c50       ??_C@_1M@GMDGLDOB@?$AAe?$AAn?$AA?9?$AAp?$AAh?$AA?$AA@ 100b8c50     libucrt:lcidtoname_downlevel.obj
 0002:00024c5c       ??_C@_1M@ONGIBJNA@?$AAe?$AAn?$AA?9?$AAt?$AAt?$AA?$AA@ 100b8c5c     libucrt:lcidtoname_downlevel.obj
 0002:00024c68       ??_C@_1M@LLODPCMM@?$AAe?$AAn?$AA?9?$AAu?$AAs?$AA?$AA@ 100b8c68     libucrt:lcidtoname_downlevel.obj
 0002:00024c74       ??_C@_1M@LAKFNPAN@?$AAe?$AAn?$AA?9?$AAz?$AAa?$AA?$AA@ 100b8c74     libucrt:lcidtoname_downlevel.obj
 0002:00024c80       ??_C@_1M@MFNHNHEO@?$AAe?$AAn?$AA?9?$AAz?$AAw?$AA?$AA@ 100b8c80     libucrt:lcidtoname_downlevel.obj
 0002:00024c8c       ??_C@_1M@EJEINPHM@?$AAe?$AAs?$AA?9?$AAa?$AAr?$AA?$AA@ 100b8c8c     libucrt:lcidtoname_downlevel.obj
 0002:00024c98       ??_C@_1M@GNKPCCJA@?$AAe?$AAs?$AA?9?$AAb?$AAo?$AA?$AA@ 100b8c98     libucrt:lcidtoname_downlevel.obj
 0002:00024ca4       ??_C@_1M@LEEGFONL@?$AAe?$AAs?$AA?9?$AAc?$AAl?$AA?$AA@ 100b8ca4     libucrt:lcidtoname_downlevel.obj
 0002:00024cb0       ??_C@_1M@KGPDPBDF@?$AAe?$AAs?$AA?9?$AAc?$AAo?$AA?$AA@ 100b8cb0     libucrt:lcidtoname_downlevel.obj
 0002:00024cbc       ??_C@_1M@EIAHOHH@?$AAe?$AAs?$AA?9?$AAc?$AAr?$AA?$AA@ 100b8cbc     libucrt:lcidtoname_downlevel.obj
 0002:00024cc8       ??_C@_1M@LLPGMBIN@?$AAe?$AAs?$AA?9?$AAd?$AAo?$AA?$AA@ 100b8cc8     libucrt:lcidtoname_downlevel.obj
 0002:00024cd4       ??_C@_1M@DKHMKNJA@?$AAe?$AAs?$AA?9?$AAe?$AAc?$AA?$AA@ 100b8cd4     libucrt:lcidtoname_downlevel.obj
 0002:00024ce0       ??_C@_1M@GKGFPKAP@?$AAe?$AAs?$AA?9?$AAe?$AAs?$AA?$AA@ 100b8ce0     libucrt:lcidtoname_downlevel.obj
 0002:00024cec       ??_C@_1M@LKHKGDLN@?$AAe?$AAs?$AA?9?$AAg?$AAt?$AA?$AA@ 100b8cec     libucrt:lcidtoname_downlevel.obj
 0002:00024cf8       ??_C@_1M@HEIIGGJD@?$AAe?$AAs?$AA?9?$AAh?$AAn?$AA?$AA@ 100b8cf8     libucrt:lcidtoname_downlevel.obj
 0002:00024d04       ??_C@_1M@FBDHPPGD@?$AAe?$AAs?$AA?9?$AAm?$AAx?$AA?$AA@ 100b8d04     libucrt:lcidtoname_downlevel.obj
 0002:00024d10       ??_C@_1M@DPAGLNDH@?$AAe?$AAs?$AA?9?$AAn?$AAi?$AA?$AA@ 100b8d10     libucrt:lcidtoname_downlevel.obj
 0002:00024d1c       ??_C@_1M@MDGOPGDD@?$AAe?$AAs?$AA?9?$AAp?$AAa?$AA?$AA@ 100b8d1c     libucrt:lcidtoname_downlevel.obj
 0002:00024d28       ??_C@_1M@EMAMGBGE@?$AAe?$AAs?$AA?9?$AAp?$AAe?$AA?$AA@ 100b8d28     libucrt:lcidtoname_downlevel.obj
 0002:00024d34       ??_C@_1M@IBMCAOEC@?$AAe?$AAs?$AA?9?$AAp?$AAr?$AA?$AA@ 100b8d34     libucrt:lcidtoname_downlevel.obj
 0002:00024d40       ??_C@_1M@FGMDIJED@?$AAe?$AAs?$AA?9?$AAp?$AAy?$AA?$AA@ 100b8d40     libucrt:lcidtoname_downlevel.obj
 0002:00024d4c       ??_C@_1M@IIDEOLLL@?$AAe?$AAs?$AA?9?$AAs?$AAv?$AA?$AA@ 100b8d4c     libucrt:lcidtoname_downlevel.obj
 0002:00024d58       ??_C@_1M@GAOBIPA@?$AAe?$AAs?$AA?9?$AAu?$AAy?$AA?$AA@ 100b8d58     libucrt:lcidtoname_downlevel.obj
 0002:00024d64       ??_C@_1M@JKFFICHJ@?$AAe?$AAs?$AA?9?$AAv?$AAe?$AA?$AA@ 100b8d64     libucrt:lcidtoname_downlevel.obj
 0002:00024d70       ??_C@_1M@PNMLOJDF@?$AAe?$AAt?$AA?9?$AAe?$AAe?$AA?$AA@ 100b8d70     libucrt:lcidtoname_downlevel.obj
 0002:00024d7c       ??_C@_1M@GHHLIKEI@?$AAe?$AAu?$AA?9?$AAe?$AAs?$AA?$AA@ 100b8d7c     libucrt:lcidtoname_downlevel.obj
 0002:00024d88       ??_C@_1M@PBNONODE@?$AAf?$AAa?$AA?9?$AAi?$AAr?$AA?$AA@ 100b8d88     libucrt:lcidtoname_downlevel.obj
 0002:00024d94       ??_C@_1M@JEEHPMIL@?$AAf?$AAi?$AA?9?$AAf?$AAi?$AA?$AA@ 100b8d94     libucrt:lcidtoname_downlevel.obj
 0002:00024da0       ??_C@_1M@LMDCNDBA@?$AAf?$AAo?$AA?9?$AAf?$AAo?$AA?$AA@ 100b8da0     libucrt:lcidtoname_downlevel.obj
 0002:00024dac       ??_C@_1M@JKEOHLDK@?$AAf?$AAr?$AA?9?$AAb?$AAe?$AA?$AA@ 100b8dac     libucrt:lcidtoname_downlevel.obj
 0002:00024db8       ??_C@_1M@NOHADPMI@?$AAf?$AAr?$AA?9?$AAc?$AAa?$AA?$AA@ 100b8db8     libucrt:lcidtoname_downlevel.obj
 0002:00024dc4       ??_C@_1M@KDHIHAEC@?$AAf?$AAr?$AA?9?$AAc?$AAh?$AA?$AA@ 100b8dc4     libucrt:lcidtoname_downlevel.obj
 0002:00024dd0       ??_C@_1M@MMBBFGAK@?$AAf?$AAr?$AA?9?$AAf?$AAr?$AA?$AA@ 100b8dd0     libucrt:lcidtoname_downlevel.obj
 0002:00024ddc       ??_C@_1M@PAFNENNF@?$AAf?$AAr?$AA?9?$AAl?$AAu?$AA?$AA@ 100b8ddc     libucrt:lcidtoname_downlevel.obj
 0002:00024de8       ??_C@_1M@EOHDJGDD@?$AAf?$AAr?$AA?9?$AAm?$AAc?$AA?$AA@ 100b8de8     libucrt:lcidtoname_downlevel.obj
 0002:00024df4       ??_C@_1M@FAPLLOPF@?$AAg?$AAl?$AA?9?$AAe?$AAs?$AA?$AA@ 100b8df4     libucrt:lcidtoname_downlevel.obj
 0002:00024e00       ??_C@_1M@FOPBFLOO@?$AAg?$AAu?$AA?9?$AAi?$AAn?$AA?$AA@ 100b8e00     libucrt:lcidtoname_downlevel.obj
 0002:00024e0c       ??_C@_1M@KBMCINPM@?$AAh?$AAe?$AA?9?$AAi?$AAl?$AA?$AA@ 100b8e0c     libucrt:lcidtoname_downlevel.obj
 0002:00024e18       ??_C@_1M@BBPHKFPJ@?$AAh?$AAi?$AA?9?$AAi?$AAn?$AA?$AA@ 100b8e18     libucrt:lcidtoname_downlevel.obj
 0002:00024e24       ??_C@_1M@PMBNDPHD@?$AAh?$AAr?$AA?9?$AAb?$AAa?$AA?$AA@ 100b8e24     libucrt:lcidtoname_downlevel.obj
 0002:00024e30       ??_C@_1M@BPCKOEGE@?$AAh?$AAr?$AA?9?$AAh?$AAr?$AA?$AA@ 100b8e30     libucrt:lcidtoname_downlevel.obj
 0002:00024e3c       ??_C@_1M@GACBMHKE@?$AAh?$AAu?$AA?9?$AAh?$AAu?$AA?$AA@ 100b8e3c     libucrt:lcidtoname_downlevel.obj
 0002:00024e48       ??_C@_1M@MILPAJJC@?$AAh?$AAy?$AA?9?$AAa?$AAm?$AA?$AA@ 100b8e48     libucrt:lcidtoname_downlevel.obj
 0002:00024e54       ??_C@_1M@BABBICEC@?$AAi?$AAd?$AA?9?$AAi?$AAd?$AA?$AA@ 100b8e54     libucrt:lcidtoname_downlevel.obj
 0002:00024e60       ??_C@_1M@BIKNHHPF@?$AAi?$AAs?$AA?9?$AAi?$AAs?$AA?$AA@ 100b8e60     libucrt:lcidtoname_downlevel.obj
 0002:00024e6c       ??_C@_1M@NMPCJPHE@?$AAi?$AAt?$AA?9?$AAc?$AAh?$AA?$AA@ 100b8e6c     libucrt:lcidtoname_downlevel.obj
 0002:00024e78       ??_C@_1M@GHKGFEDF@?$AAi?$AAt?$AA?9?$AAi?$AAt?$AA?$AA@ 100b8e78     libucrt:lcidtoname_downlevel.obj
 0002:00024e84       ??_C@_1M@NIEJCJJA@?$AAj?$AAa?$AA?9?$AAj?$AAp?$AA?$AA@ 100b8e84     libucrt:lcidtoname_downlevel.obj
 0002:00024e90       ??_C@_1M@JILFNBIM@?$AAk?$AAa?$AA?9?$AAg?$AAe?$AA?$AA@ 100b8e90     libucrt:lcidtoname_downlevel.obj
 0002:00024e9c       ??_C@_1M@PACPMGPH@?$AAk?$AAk?$AA?9?$AAk?$AAz?$AA?$AA@ 100b8e9c     libucrt:lcidtoname_downlevel.obj
 0002:00024ea8       ??_C@_1M@IELFGMHA@?$AAk?$AAn?$AA?9?$AAi?$AAn?$AA?$AA@ 100b8ea8     libucrt:lcidtoname_downlevel.obj
 0002:00024eb4       ??_C@_1O@IBBJHCH@?$AAk?$AAo?$AAk?$AA?9?$AAi?$AAn?$AA?$AA@ 100b8eb4     libucrt:lcidtoname_downlevel.obj
 0002:00024ec4       ??_C@_1M@DMHAEOGC@?$AAk?$AAo?$AA?9?$AAk?$AAr?$AA?$AA@ 100b8ec4     libucrt:lcidtoname_downlevel.obj
 0002:00024ed0       ??_C@_1M@HBAHBIGA@?$AAk?$AAy?$AA?9?$AAk?$AAg?$AA?$AA@ 100b8ed0     libucrt:lcidtoname_downlevel.obj
 0002:00024edc       ??_C@_1M@KPMILCJG@?$AAl?$AAt?$AA?9?$AAl?$AAt?$AA?$AA@ 100b8edc     libucrt:lcidtoname_downlevel.obj
 0002:00024ee8       ??_C@_1M@BDEKKCA@?$AAl?$AAv?$AA?9?$AAl?$AAv?$AA?$AA@ 100b8ee8     libucrt:lcidtoname_downlevel.obj
 0002:00024ef4       ??_C@_1M@ELCKCCJJ@?$AAm?$AAi?$AA?9?$AAn?$AAz?$AA?$AA@ 100b8ef4     libucrt:lcidtoname_downlevel.obj
 0002:00024f00       ??_C@_1M@CBOOLAPA@?$AAm?$AAk?$AA?9?$AAm?$AAk?$AA?$AA@ 100b8f00     libucrt:lcidtoname_downlevel.obj
 0002:00024f0c       ??_C@_1M@GPHNBJKN@?$AAm?$AAl?$AA?9?$AAi?$AAn?$AA?$AA@ 100b8f0c     libucrt:lcidtoname_downlevel.obj
 0002:00024f18       ??_C@_1M@PABJILIG@?$AAm?$AAn?$AA?9?$AAm?$AAn?$AA?$AA@ 100b8f18     libucrt:lcidtoname_downlevel.obj
 0002:00024f24       ??_C@_1M@FGBKKIPG@?$AAm?$AAr?$AA?9?$AAi?$AAn?$AA?$AA@ 100b8f24     libucrt:lcidtoname_downlevel.obj
 0002:00024f30       ??_C@_1M@NDBPDDAL@?$AAm?$AAs?$AA?9?$AAb?$AAn?$AA?$AA@ 100b8f30     libucrt:lcidtoname_downlevel.obj
 0002:00024f3c       ??_C@_1M@OPIHOOPI@?$AAm?$AAs?$AA?9?$AAm?$AAy?$AA?$AA@ 100b8f3c     libucrt:lcidtoname_downlevel.obj
 0002:00024f48       ??_C@_1M@PPDBCNFM@?$AAm?$AAt?$AA?9?$AAm?$AAt?$AA?$AA@ 100b8f48     libucrt:lcidtoname_downlevel.obj
 0002:00024f54       ??_C@_1M@KDJDKMDD@?$AAn?$AAb?$AA?9?$AAn?$AAo?$AA?$AA@ 100b8f54     libucrt:lcidtoname_downlevel.obj
 0002:00024f60       ??_C@_1M@KFCFLMJP@?$AAn?$AAl?$AA?9?$AAb?$AAe?$AA?$AA@ 100b8f60     libucrt:lcidtoname_downlevel.obj
 0002:00024f6c       ??_C@_1M@KPOPDDGO@?$AAn?$AAl?$AA?9?$AAn?$AAl?$AA?$AA@ 100b8f6c     libucrt:lcidtoname_downlevel.obj
 0002:00024f78       ??_C@_1M@LJKPEMLN@?$AAn?$AAn?$AA?9?$AAn?$AAo?$AA?$AA@ 100b8f78     libucrt:lcidtoname_downlevel.obj
 0002:00024f84       ??_C@_1M@BDGHHBFL@?$AAn?$AAs?$AA?9?$AAz?$AAa?$AA?$AA@ 100b8f84     libucrt:lcidtoname_downlevel.obj
 0002:00024f90       ??_C@_1M@IDEHOAP@?$AAp?$AAa?$AA?9?$AAi?$AAn?$AA?$AA@ 100b8f90     libucrt:lcidtoname_downlevel.obj
 0002:00024f9c       ??_C@_1M@HDBKGOGH@?$AAp?$AAl?$AA?9?$AAp?$AAl?$AA?$AA@ 100b8f9c     libucrt:lcidtoname_downlevel.obj
 0002:00024fa8       ??_C@_1M@LJLLCMEH@?$AAp?$AAt?$AA?9?$AAb?$AAr?$AA?$AA@ 100b8fa8     libucrt:lcidtoname_downlevel.obj
 0002:00024fb4       ??_C@_1M@NCMONAAL@?$AAp?$AAt?$AA?9?$AAp?$AAt?$AA?$AA@ 100b8fb4     libucrt:lcidtoname_downlevel.obj
 0002:00024fc0       ??_C@_1O@EAKMAJDN@?$AAq?$AAu?$AAz?$AA?9?$AAb?$AAo?$AA?$AA@ 100b8fc0     libucrt:lcidtoname_downlevel.obj
 0002:00024fd0       ??_C@_1O@BHHPIGDN@?$AAq?$AAu?$AAz?$AA?9?$AAe?$AAc?$AA?$AA@ 100b8fd0     libucrt:lcidtoname_downlevel.obj
 0002:00024fe0       ??_C@_1O@GBAPEKMJ@?$AAq?$AAu?$AAz?$AA?9?$AAp?$AAe?$AA?$AA@ 100b8fe0     libucrt:lcidtoname_downlevel.obj
 0002:00024ff0       ??_C@_1M@CLGLEFBO@?$AAr?$AAo?$AA?9?$AAr?$AAo?$AA?$AA@ 100b8ff0     libucrt:lcidtoname_downlevel.obj
 0002:00024ffc       ??_C@_1M@CEEDODME@?$AAr?$AAu?$AA?9?$AAr?$AAu?$AA?$AA@ 100b8ffc     libucrt:lcidtoname_downlevel.obj
 0002:00025008       ??_C@_1M@HPKKKMPP@?$AAs?$AAa?$AA?9?$AAi?$AAn?$AA?$AA@ 100b9008     libucrt:lcidtoname_downlevel.obj
 0002:00025014       ??_C@_1M@BKMAIGOJ@?$AAs?$AAe?$AA?9?$AAf?$AAi?$AA?$AA@ 100b9014     libucrt:lcidtoname_downlevel.obj
 0002:00025020       ??_C@_1M@NDPIFLFI@?$AAs?$AAe?$AA?9?$AAn?$AAo?$AA?$AA@ 100b9020     libucrt:lcidtoname_downlevel.obj
 0002:0002502c       ??_C@_1M@DANKKHJ@?$AAs?$AAe?$AA?9?$AAs?$AAe?$AA?$AA@ 100b902c     libucrt:lcidtoname_downlevel.obj
 0002:00025038       ??_C@_1M@PNBLONPJ@?$AAs?$AAk?$AA?9?$AAs?$AAk?$AA?$AA@ 100b9038     libucrt:lcidtoname_downlevel.obj
 0002:00025044       ??_C@_1M@LFMODOAL@?$AAs?$AAl?$AA?9?$AAs?$AAi?$AA?$AA@ 100b9044     libucrt:lcidtoname_downlevel.obj
 0002:00025050       ??_C@_1O@DFKOMPG@?$AAs?$AAm?$AAa?$AA?9?$AAn?$AAo?$AA?$AA@ 100b9050     libucrt:lcidtoname_downlevel.obj
 0002:00025060       ??_C@_1O@NDKPBNNH@?$AAs?$AAm?$AAa?$AA?9?$AAs?$AAe?$AA?$AA@ 100b9060     libucrt:lcidtoname_downlevel.obj
 0002:00025070       ??_C@_1O@PLLKBHAB@?$AAs?$AAm?$AAj?$AA?9?$AAn?$AAo?$AA?$AA@ 100b9070     libucrt:lcidtoname_downlevel.obj
 0002:00025080       ??_C@_1O@CLEPOGCA@?$AAs?$AAm?$AAj?$AA?9?$AAs?$AAe?$AA?$AA@ 100b9080     libucrt:lcidtoname_downlevel.obj
 0002:00025090       ??_C@_1O@DLGJGKMK@?$AAs?$AAm?$AAn?$AA?9?$AAf?$AAi?$AA?$AA@ 100b9090     libucrt:lcidtoname_downlevel.obj
 0002:000250a0       ??_C@_1O@OJDJGAJC@?$AAs?$AAm?$AAs?$AA?9?$AAf?$AAi?$AA?$AA@ 100b90a0     libucrt:lcidtoname_downlevel.obj
 0002:000250b0       ??_C@_1M@BOFOGHPB@?$AAs?$AAq?$AA?9?$AAa?$AAl?$AA?$AA@ 100b90b0     libucrt:lcidtoname_downlevel.obj
 0002:000250bc       ??_C@_1BG@LJBBIPGB@?$AAs?$AAr?$AA?9?$AAb?$AAa?$AA?9?$AAc?$AAy?$AAr?$AAl?$AA?$AA@ 100b90bc     libucrt:lcidtoname_downlevel.obj
 0002:000250d4       ??_C@_1BG@JLBENFOE@?$AAs?$AAr?$AA?9?$AAb?$AAa?$AA?9?$AAl?$AAa?$AAt?$AAn?$AA?$AA@ 100b90d4     libucrt:lcidtoname_downlevel.obj
 0002:000250ec       ??_C@_1BG@KODPNHE@?$AAs?$AAr?$AA?9?$AAs?$AAp?$AA?9?$AAc?$AAy?$AAr?$AAl?$AA?$AA@ 100b90ec     libucrt:lcidtoname_downlevel.obj
 0002:00025104       ??_C@_1BG@CIOGKHPB@?$AAs?$AAr?$AA?9?$AAs?$AAp?$AA?9?$AAl?$AAa?$AAt?$AAn?$AA?$AA@ 100b9104     libucrt:lcidtoname_downlevel.obj
 0002:0002511c       ??_C@_1M@NGFJLMAC@?$AAs?$AAv?$AA?9?$AAf?$AAi?$AA?$AA@ 100b911c     libucrt:lcidtoname_downlevel.obj
 0002:00025128       ??_C@_1M@MPJEJAJC@?$AAs?$AAv?$AA?9?$AAs?$AAe?$AA?$AA@ 100b9128     libucrt:lcidtoname_downlevel.obj
 0002:00025134       ??_C@_1M@MPNDHLFK@?$AAs?$AAw?$AA?9?$AAk?$AAe?$AA?$AA@ 100b9134     libucrt:lcidtoname_downlevel.obj
 0002:00025140       ??_C@_1O@KOHBJJI@?$AAs?$AAy?$AAr?$AA?9?$AAs?$AAy?$AA?$AA@ 100b9140     libucrt:lcidtoname_downlevel.obj
 0002:00025150       ??_C@_1M@LDCEFHA@?$AAt?$AAa?$AA?9?$AAi?$AAn?$AA?$AA@ 100b9150     libucrt:lcidtoname_downlevel.obj
 0002:0002515c       ??_C@_1M@CNJOFAK@?$AAt?$AAe?$AA?9?$AAi?$AAn?$AA?$AA@ 100b915c     libucrt:lcidtoname_downlevel.obj
 0002:00025168       ??_C@_1M@GNAECACD@?$AAt?$AAh?$AA?9?$AAt?$AAh?$AA?$AA@ 100b9168     libucrt:lcidtoname_downlevel.obj
 0002:00025174       ??_C@_1M@CHBIHOJO@?$AAt?$AAn?$AA?9?$AAz?$AAa?$AA?$AA@ 100b9174     libucrt:lcidtoname_downlevel.obj
 0002:00025180       ??_C@_1M@GCCMIGPJ@?$AAt?$AAr?$AA?9?$AAt?$AAr?$AA?$AA@ 100b9180     libucrt:lcidtoname_downlevel.obj
 0002:0002518c       ??_C@_1M@CELMCNBK@?$AAt?$AAt?$AA?9?$AAr?$AAu?$AA?$AA@ 100b918c     libucrt:lcidtoname_downlevel.obj
 0002:00025198       ??_C@_1M@KLMCELGA@?$AAu?$AAk?$AA?9?$AAu?$AAa?$AA?$AA@ 100b9198     libucrt:lcidtoname_downlevel.obj
 0002:000251a4       ??_C@_1M@EPAJJAJF@?$AAu?$AAr?$AA?9?$AAp?$AAk?$AA?$AA@ 100b91a4     libucrt:lcidtoname_downlevel.obj
 0002:000251b0       ??_C@_1BG@GEGPMCDJ@?$AAu?$AAz?$AA?9?$AAu?$AAz?$AA?9?$AAc?$AAy?$AAr?$AAl?$AA?$AA@ 100b91b0     libucrt:lcidtoname_downlevel.obj
 0002:000251c8       ??_C@_1BG@EGGKJILM@?$AAu?$AAz?$AA?9?$AAu?$AAz?$AA?9?$AAl?$AAa?$AAt?$AAn?$AA?$AA@ 100b91c8     libucrt:lcidtoname_downlevel.obj
 0002:000251e0       ??_C@_1M@GFOCLFF@?$AAv?$AAi?$AA?9?$AAv?$AAn?$AA?$AA@ 100b91e0     libucrt:lcidtoname_downlevel.obj
 0002:000251ec       ??_C@_1M@CPAMEDFI@?$AAx?$AAh?$AA?9?$AAz?$AAa?$AA?$AA@ 100b91ec     libucrt:lcidtoname_downlevel.obj
 0002:000251f8       ??_C@_1O@EBKIFIGN@?$AAz?$AAh?$AA?9?$AAc?$AAh?$AAs?$AA?$AA@ 100b91f8     libucrt:lcidtoname_downlevel.obj
 0002:00025208       ??_C@_1O@NMHPGANE@?$AAz?$AAh?$AA?9?$AAc?$AAh?$AAt?$AA?$AA@ 100b9208     libucrt:lcidtoname_downlevel.obj
 0002:00025218       ??_C@_1M@LPINJOMC@?$AAz?$AAh?$AA?9?$AAc?$AAn?$AA?$AA@ 100b9218     libucrt:lcidtoname_downlevel.obj
 0002:00025224       ??_C@_1M@OCJEJODD@?$AAz?$AAh?$AA?9?$AAh?$AAk?$AA?$AA@ 100b9224     libucrt:lcidtoname_downlevel.obj
 0002:00025230       ??_C@_1M@DNDLJINH@?$AAz?$AAh?$AA?9?$AAm?$AAo?$AA?$AA@ 100b9230     libucrt:lcidtoname_downlevel.obj
 0002:0002523c       ??_C@_1M@MBFDNDND@?$AAz?$AAh?$AA?9?$AAs?$AAg?$AA?$AA@ 100b923c     libucrt:lcidtoname_downlevel.obj
 0002:00025248       ??_C@_1M@IMEPLEPE@?$AAz?$AAh?$AA?9?$AAt?$AAw?$AA?$AA@ 100b9248     libucrt:lcidtoname_downlevel.obj
 0002:00025254       ??_C@_1M@BBGHNHJP@?$AAz?$AAu?$AA?9?$AAz?$AAa?$AA?$AA@ 100b9254     libucrt:lcidtoname_downlevel.obj
 0002:000252b8       ??_C@_04FJHINJAO@tanh?$AA@ 100b92b8     libucrt:fpexcept.obj
 0002:000252c0       ??_C@_04MLLJIGOK@atan?$AA@ 100b92c0     libucrt:fpexcept.obj
 0002:000252c8       ??_C@_05KNGEOGJB@atan2?$AA@ 100b92c8     libucrt:fpexcept.obj
 0002:000252d0       ??_C@_03BLEJJJBH@sin?$AA@  100b92d0     libucrt:fpexcept.obj
 0002:000252d4       ??_C@_03LALBNOCG@cos?$AA@  100b92d4     libucrt:fpexcept.obj
 0002:000252d8       ??_C@_03IIINPABG@tan?$AA@  100b92d8     libucrt:fpexcept.obj
 0002:000252dc       ??_C@_04GFPJNGEK@ceil?$AA@ 100b92dc     libucrt:fpexcept.obj
 0002:000252e4       ??_C@_05PBJFFIGL@floor?$AA@ 100b92e4     libucrt:fpexcept.obj
 0002:000252ec       ??_C@_04ODHECPBC@fabs?$AA@ 100b92ec     libucrt:fpexcept.obj
 0002:000252f4       ??_C@_04EHEDPDJG@modf?$AA@ 100b92f4     libucrt:fpexcept.obj
 0002:000252fc       ??_C@_05CEJMAHNP@ldexp?$AA@ 100b92fc     libucrt:fpexcept.obj
 0002:00025304       ??_C@_05KBKMEMPO@_cabs?$AA@ 100b9304     libucrt:fpexcept.obj
 0002:0002530c       ??_C@_06MEIMCGCF@_hypot?$AA@ 100b930c     libucrt:fpexcept.obj
 0002:00025314       ??_C@_04KEPJIHGP@fmod?$AA@ 100b9314     libucrt:fpexcept.obj
 0002:0002531c       ??_C@_05GKKHEGJL@frexp?$AA@ 100b931c     libucrt:fpexcept.obj
 0002:00025324       ??_C@_03MJLDFKDL@_y0?$AA@  100b9324     libucrt:fpexcept.obj
 0002:00025328       ??_C@_03NAKIGLHK@_y1?$AA@  100b9328     libucrt:fpexcept.obj
 0002:0002532c       ??_C@_03ONILCKOB@_yn?$AA@  100b932c     libucrt:fpexcept.obj
 0002:00025330       ??_C@_05JGDBENOH@_logb?$AA@ 100b9330     libucrt:fpexcept.obj
 0002:00025338       ??_C@_0L@KDOEJCKC@_nextafter?$AA@ 100b9338     libucrt:fpexcept.obj
 0002:00025430       ??_C@_04COOMCNPB@sinh?$AA@ 100b9430     libucrt:fpexcept.obj
 0002:00025438       ??_C@_04HPJJNFIM@cosh?$AA@ 100b9438     libucrt:fpexcept.obj
 0002:00025458       __d_inf                    100b9458     libucrt:util.obj
 0002:00025460       __d_max                    100b9460     libucrt:util.obj
 0002:00025468       __d_mzero                  100b9468     libucrt:util.obj
 0002:00025570       ___acrt_log10_table_t      100b9570     libucrt:log10_tables.obj
 0002:00025980       ___acrt_log10_table_cb     100b9980     libucrt:log10_tables.obj
 0002:00025d90       ??_C@_1BA@BALFACEM@?$AAC?$AAO?$AAN?$AAO?$AAU?$AAT?$AA$?$AA?$AA@ 100b9d90     libucrt:initcon.obj
 0002:00025df8       __load_config_used         100b9df8     LIBCMT:loadcfg.obj
 0002:00025e90       ??_R4CVoiceGameMgr@@6B@    100b9e90     voice_gamemgr.obj
 0002:00025ea4       ??_R3CVoiceGameMgr@@8      100b9ea4     voice_gamemgr.obj
 0002:00025eb4       ??_R2CVoiceGameMgr@@8      100b9eb4     voice_gamemgr.obj
 0002:00025ebc       ??_R1A@?0A@EA@CVoiceGameMgr@@8 100b9ebc     voice_gamemgr.obj
 0002:00025ed8       ??_R4CBaseEntity@@6B@      100b9ed8     airtank.obj
 0002:00025eec       ??_R3CBaseEntity@@8        100b9eec     airtank.obj
 0002:00025efc       ??_R2CBaseEntity@@8        100b9efc     airtank.obj
 0002:00025f04       ??_R1A@?0A@EA@CBaseEntity@@8 100b9f04     airtank.obj
 0002:00025f20       ??_R4CBaseMonster@@6B@     100b9f20     airtank.obj
 0002:00025f34       ??_R3CBaseMonster@@8       100b9f34     airtank.obj
 0002:00025f44       ??_R2CBaseMonster@@8       100b9f44     airtank.obj
 0002:00025f5c       ??_R1A@?0A@EA@CBaseMonster@@8 100b9f5c     airtank.obj
 0002:00025f78       ??_R1A@?0A@EA@CBaseToggle@@8 100b9f78     airtank.obj
 0002:00025f94       ??_R3CBaseToggle@@8        100b9f94     airtank.obj
 0002:00025fa4       ??_R2CBaseToggle@@8        100b9fa4     airtank.obj
 0002:00025fb8       ??_R1A@?0A@EA@CBaseAnimating@@8 100b9fb8     airtank.obj
 0002:00025fd4       ??_R3CBaseAnimating@@8     100b9fd4     airtank.obj
 0002:00025fe4       ??_R2CBaseAnimating@@8     100b9fe4     airtank.obj
 0002:00025ff4       ??_R1A@?0A@EA@CBaseDelay@@8 100b9ff4     airtank.obj
 0002:00026010       ??_R3CBaseDelay@@8         100ba010     airtank.obj
 0002:00026020       ??_R2CBaseDelay@@8         100ba020     airtank.obj
 0002:0002602c       ??_R4CBaseDelay@@6B@       100ba02c     airtank.obj
 0002:00026040       ??_R4CBaseToggle@@6B@      100ba040     airtank.obj
 0002:00026054       ??_R4CGrenade@@6B@         100ba054     airtank.obj
 0002:00026068       ??_R3CGrenade@@8           100ba068     airtank.obj
 0002:00026078       ??_R2CGrenade@@8           100ba078     airtank.obj
 0002:00026094       ??_R1A@?0A@EA@CGrenade@@8  100ba094     airtank.obj
 0002:000260b0       ??_R4CAirtank@@6B@         100ba0b0     airtank.obj
 0002:000260c4       ??_R3CAirtank@@8           100ba0c4     airtank.obj
 0002:000260d4       ??_R2CAirtank@@8           100ba0d4     airtank.obj
 0002:000260f4       ??_R1A@?0A@EA@CAirtank@@8  100ba0f4     airtank.obj
 0002:00026110       ??_R3CBasePlayerAmmo@@8    100ba110     ammo.obj
 0002:00026120       ??_R2CBasePlayerAmmo@@8    100ba120     ammo.obj
 0002:0002612c       ??_R1A@?0A@EA@CBasePlayerAmmo@@8 100ba12c     ammo.obj
 0002:00026148       ??_R4C9MMAmmo@@6B@         100ba148     ammo.obj
 0002:0002615c       ??_R3C9MMAmmo@@8           100ba15c     ammo.obj
 0002:0002616c       ??_R2C9MMAmmo@@8           100ba16c     ammo.obj
 0002:0002617c       ??_R1A@?0A@EA@C9MMAmmo@@8  100ba17c     ammo.obj
 0002:00026198       ??_R4CBuckShotAmmo@@6B@    100ba198     ammo.obj
 0002:000261ac       ??_R3CBuckShotAmmo@@8      100ba1ac     ammo.obj
 0002:000261bc       ??_R2CBuckShotAmmo@@8      100ba1bc     ammo.obj
 0002:000261cc       ??_R1A@?0A@EA@CBuckShotAmmo@@8 100ba1cc     ammo.obj
 0002:000261e8       ??_R4C556NatoAmmo@@6B@     100ba1e8     ammo.obj
 0002:000261fc       ??_R3C556NatoAmmo@@8       100ba1fc     ammo.obj
 0002:0002620c       ??_R2C556NatoAmmo@@8       100ba20c     ammo.obj
 0002:0002621c       ??_R1A@?0A@EA@C556NatoAmmo@@8 100ba21c     ammo.obj
 0002:00026238       ??_R4C556NatoBox@@6B@      100ba238     ammo.obj
 0002:0002624c       ??_R3C556NatoBox@@8        100ba24c     ammo.obj
 0002:0002625c       ??_R2C556NatoBox@@8        100ba25c     ammo.obj
 0002:0002626c       ??_R1A@?0A@EA@C556NatoBox@@8 100ba26c     ammo.obj
 0002:00026288       ??_R4C762NatoAmmo@@6B@     100ba288     ammo.obj
 0002:0002629c       ??_R3C762NatoAmmo@@8       100ba29c     ammo.obj
 0002:000262ac       ??_R2C762NatoAmmo@@8       100ba2ac     ammo.obj
 0002:000262bc       ??_R1A@?0A@EA@C762NatoAmmo@@8 100ba2bc     ammo.obj
 0002:000262d8       ??_R4C45ACPAmmo@@6B@       100ba2d8     ammo.obj
 0002:000262ec       ??_R3C45ACPAmmo@@8         100ba2ec     ammo.obj
 0002:000262fc       ??_R2C45ACPAmmo@@8         100ba2fc     ammo.obj
 0002:0002630c       ??_R1A@?0A@EA@C45ACPAmmo@@8 100ba30c     ammo.obj
 0002:00026328       ??_R4C50AEAmmo@@6B@        100ba328     ammo.obj
 0002:0002633c       ??_R3C50AEAmmo@@8          100ba33c     ammo.obj
 0002:0002634c       ??_R2C50AEAmmo@@8          100ba34c     ammo.obj
 0002:0002635c       ??_R1A@?0A@EA@C50AEAmmo@@8 100ba35c     ammo.obj
 0002:00026378       ??_R4C338MagnumAmmo@@6B@   100ba378     ammo.obj
 0002:0002638c       ??_R3C338MagnumAmmo@@8     100ba38c     ammo.obj
 0002:0002639c       ??_R2C338MagnumAmmo@@8     100ba39c     ammo.obj
 0002:000263ac       ??_R1A@?0A@EA@C338MagnumAmmo@@8 100ba3ac     ammo.obj
 0002:000263c8       ??_R4C57MMAmmo@@6B@        100ba3c8     ammo.obj
 0002:000263dc       ??_R3C57MMAmmo@@8          100ba3dc     ammo.obj
 0002:000263ec       ??_R2C57MMAmmo@@8          100ba3ec     ammo.obj
 0002:000263fc       ??_R1A@?0A@EA@C57MMAmmo@@8 100ba3fc     ammo.obj
 0002:00026418       ??_R4C357SIGAmmo@@6B@      100ba418     ammo.obj
 0002:0002642c       ??_R3C357SIGAmmo@@8        100ba42c     ammo.obj
 0002:0002643c       ??_R2C357SIGAmmo@@8        100ba43c     ammo.obj
 0002:0002644c       ??_R1A@?0A@EA@C357SIGAmmo@@8 100ba44c     ammo.obj
 0002:00026468       ??_R4CFuncWall@@6B@        100ba468     bmodels.obj
 0002:0002647c       ??_R3CFuncWall@@8          100ba47c     bmodels.obj
 0002:0002648c       ??_R2CFuncWall@@8          100ba48c     bmodels.obj
 0002:00026498       ??_R1A@?0A@EA@CFuncWall@@8 100ba498     bmodels.obj
 0002:000264b4       ??_R4CFuncWallToggle@@6B@  100ba4b4     bmodels.obj
 0002:000264c8       ??_R3CFuncWallToggle@@8    100ba4c8     bmodels.obj
 0002:000264d8       ??_R2CFuncWallToggle@@8    100ba4d8     bmodels.obj
 0002:000264e8       ??_R1A@?0A@EA@CFuncWallToggle@@8 100ba4e8     bmodels.obj
 0002:00026504       ??_R4CFuncConveyor@@6B@    100ba504     bmodels.obj
 0002:00026518       ??_R3CFuncConveyor@@8      100ba518     bmodels.obj
 0002:00026528       ??_R2CFuncConveyor@@8      100ba528     bmodels.obj
 0002:00026538       ??_R1A@?0A@EA@CFuncConveyor@@8 100ba538     bmodels.obj
 0002:00026554       ??_R4CFuncIllusionary@@6B@ 100ba554     bmodels.obj
 0002:00026568       ??_R3CFuncIllusionary@@8   100ba568     bmodels.obj
 0002:00026578       ??_R2CFuncIllusionary@@8   100ba578     bmodels.obj
 0002:00026590       ??_R1A@?0A@EA@CFuncIllusionary@@8 100ba590     bmodels.obj
 0002:000265ac       ??_R4CFuncMonsterClip@@6B@ 100ba5ac     bmodels.obj
 0002:000265c0       ??_R3CFuncMonsterClip@@8   100ba5c0     bmodels.obj
 0002:000265d0       ??_R2CFuncMonsterClip@@8   100ba5d0     bmodels.obj
 0002:000265e0       ??_R1A@?0A@EA@CFuncMonsterClip@@8 100ba5e0     bmodels.obj
 0002:000265fc       ??_R4CFuncRotating@@6B@    100ba5fc     bmodels.obj
 0002:00026610       ??_R3CFuncRotating@@8      100ba610     bmodels.obj
 0002:00026620       ??_R2CFuncRotating@@8      100ba620     bmodels.obj
 0002:0002662c       ??_R1A@?0A@EA@CFuncRotating@@8 100ba62c     bmodels.obj
 0002:00026648       ??_R4CPendulum@@6B@        100ba648     bmodels.obj
 0002:0002665c       ??_R3CPendulum@@8          100ba65c     bmodels.obj
 0002:0002666c       ??_R2CPendulum@@8          100ba66c     bmodels.obj
 0002:00026678       ??_R1A@?0A@EA@CPendulum@@8 100ba678     bmodels.obj
 0002:00026694       ??_R4CPointEntity@@6B@     100ba694     buttons.obj
 0002:000266a8       ??_R3CPointEntity@@8       100ba6a8     buttons.obj
 0002:000266b8       ??_R2CPointEntity@@8       100ba6b8     buttons.obj
 0002:000266c4       ??_R1A@?0A@EA@CPointEntity@@8 100ba6c4     buttons.obj
 0002:000266e0       ??_R4CMultiSource@@6B@     100ba6e0     buttons.obj
 0002:000266f4       ??_R3CMultiSource@@8       100ba6f4     buttons.obj
 0002:00026704       ??_R2CMultiSource@@8       100ba704     buttons.obj
 0002:00026714       ??_R1A@?0A@EA@CMultiSource@@8 100ba714     buttons.obj
 0002:00026730       ??_R4CBaseButton@@6B@      100ba730     buttons.obj
 0002:00026744       ??_R3CBaseButton@@8        100ba744     buttons.obj
 0002:00026754       ??_R2CBaseButton@@8        100ba754     buttons.obj
 0002:0002676c       ??_R1A@?0A@EA@CBaseButton@@8 100ba76c     buttons.obj
 0002:00026788       ??_R4CEnvGlobal@@6B@       100ba788     buttons.obj
 0002:0002679c       ??_R3CEnvGlobal@@8         100ba79c     buttons.obj
 0002:000267ac       ??_R2CEnvGlobal@@8         100ba7ac     buttons.obj
 0002:000267bc       ??_R1A@?0A@EA@CEnvGlobal@@8 100ba7bc     buttons.obj
 0002:000267d8       ??_R4CRotButton@@6B@       100ba7d8     buttons.obj
 0002:000267ec       ??_R3CRotButton@@8         100ba7ec     buttons.obj
 0002:000267fc       ??_R2CRotButton@@8         100ba7fc     buttons.obj
 0002:00026818       ??_R1A@?0A@EA@CRotButton@@8 100ba818     buttons.obj
 0002:00026834       ??_R4CMomentaryRotButton@@6B@ 100ba834     buttons.obj
 0002:00026848       ??_R3CMomentaryRotButton@@8 100ba848     buttons.obj
 0002:00026858       ??_R2CMomentaryRotButton@@8 100ba858     buttons.obj
 0002:00026870       ??_R1A@?0A@EA@CMomentaryRotButton@@8 100ba870     buttons.obj
 0002:0002688c       ??_R4CEnvSpark@@6B@        100ba88c     buttons.obj
 0002:000268a0       ??_R3CEnvSpark@@8          100ba8a0     buttons.obj
 0002:000268b0       ??_R2CEnvSpark@@8          100ba8b0     buttons.obj
 0002:000268bc       ??_R1A@?0A@EA@CEnvSpark@@8 100ba8bc     buttons.obj
 0002:000268d8       ??_R4CButtonTarget@@6B@    100ba8d8     buttons.obj
 0002:000268ec       ??_R3CButtonTarget@@8      100ba8ec     buttons.obj
 0002:000268fc       ??_R2CButtonTarget@@8      100ba8fc     buttons.obj
 0002:00026908       ??_R1A@?0A@EA@CButtonTarget@@8 100ba908     buttons.obj
 0002:00026924       ??_R4CSave@@6B@            100ba924     cbase.obj
 0002:00026938       ??_R3CSave@@8              100ba938     cbase.obj
 0002:00026948       ??_R2CSave@@8              100ba948     cbase.obj
 0002:00026954       ??_R1A@?0A@EA@CSave@@8     100ba954     cbase.obj
 0002:00026970       ??_R1A@?0A@EA@CSaveRestoreBuffer@@8 100ba970     cbase.obj
 0002:0002698c       ??_R3CSaveRestoreBuffer@@8 100ba98c     cbase.obj
 0002:0002699c       ??_R2CSaveRestoreBuffer@@8 100ba99c     cbase.obj
 0002:000269a4       ??_R4CRestore@@6B@         100ba9a4     cbase.obj
 0002:000269b8       ??_R3CRestore@@8           100ba9b8     cbase.obj
 0002:000269c8       ??_R2CRestore@@8           100ba9c8     cbase.obj
 0002:000269d4       ??_R1A@?0A@EA@CRestore@@8  100ba9d4     cbase.obj
 0002:000269f0       ??_R4CBasePlayer@@6B@      100ba9f0     client.obj
 0002:00026a04       ??_R3CBasePlayer@@8        100baa04     client.obj
 0002:00026a14       ??_R2CBasePlayer@@8        100baa14     client.obj
 0002:00026a30       ??_R1A@?0A@EA@CBasePlayer@@8 100baa30     client.obj
 0002:00026a4c       ??_R4CGib@@6B@             100baa4c     combat.obj
 0002:00026a60       ??_R3CGib@@8               100baa60     combat.obj
 0002:00026a70       ??_R2CGib@@8               100baa70     combat.obj
 0002:00026a7c       ??_R1A@?0A@EA@CGib@@8      100baa7c     combat.obj
 0002:00026a98       ??_R4CBaseDoor@@6B@        100baa98     doors.obj
 0002:00026aac       ??_R3CBaseDoor@@8          100baaac     doors.obj
 0002:00026abc       ??_R2CBaseDoor@@8          100baabc     doors.obj
 0002:00026ad4       ??_R1A@?0A@EA@CBaseDoor@@8 100baad4     doors.obj
 0002:00026af0       ??_R4CRotDoor@@6B@         100baaf0     doors.obj
 0002:00026b04       ??_R3CRotDoor@@8           100bab04     doors.obj
 0002:00026b14       ??_R2CRotDoor@@8           100bab14     doors.obj
 0002:00026b30       ??_R1A@?0A@EA@CRotDoor@@8  100bab30     doors.obj
 0002:00026b4c       ??_R4CMomentaryDoor@@6B@   100bab4c     doors.obj
 0002:00026b60       ??_R3CMomentaryDoor@@8     100bab60     doors.obj
 0002:00026b70       ??_R2CMomentaryDoor@@8     100bab70     doors.obj
 0002:00026b88       ??_R1A@?0A@EA@CMomentaryDoor@@8 100bab88     doors.obj
 0002:00026ba4       ??_R4CSprite@@6B@          100baba4     effects.obj
 0002:00026bb8       ??_R3CSprite@@8            100babb8     effects.obj
 0002:00026bc8       ??_R2CSprite@@8            100babc8     effects.obj
 0002:00026bd8       ??_R1A@?0A@EA@CSprite@@8   100babd8     effects.obj
 0002:00026bf4       ??_R4CBeam@@6B@            100babf4     effects.obj
 0002:00026c08       ??_R3CBeam@@8              100bac08     effects.obj
 0002:00026c18       ??_R2CBeam@@8              100bac18     effects.obj
 0002:00026c24       ??_R1A@?0A@EA@CBeam@@8     100bac24     effects.obj
 0002:00026c40       ??_R4CLaser@@6B@           100bac40     effects.obj
 0002:00026c54       ??_R3CLaser@@8             100bac54     effects.obj
 0002:00026c64       ??_R2CLaser@@8             100bac64     effects.obj
 0002:00026c74       ??_R1A@?0A@EA@CLaser@@8    100bac74     effects.obj
 0002:00026c90       ??_R4CBubbling@@6B@        100bac90     effects.obj
 0002:00026ca4       ??_R3CBubbling@@8          100baca4     effects.obj
 0002:00026cb4       ??_R2CBubbling@@8          100bacb4     effects.obj
 0002:00026cc0       ??_R1A@?0A@EA@CBubbling@@8 100bacc0     effects.obj
 0002:00026cdc       ??_R4CLightning@@6B@       100bacdc     effects.obj
 0002:00026cf0       ??_R3CLightning@@8         100bacf0     effects.obj
 0002:00026d00       ??_R2CLightning@@8         100bad00     effects.obj
 0002:00026d10       ??_R1A@?0A@EA@CLightning@@8 100bad10     effects.obj
 0002:00026d2c       ??_R4CGlow@@6B@            100bad2c     effects.obj
 0002:00026d40       ??_R3CGlow@@8              100bad40     effects.obj
 0002:00026d50       ??_R2CGlow@@8              100bad50     effects.obj
 0002:00026d60       ??_R1A@?0A@EA@CGlow@@8     100bad60     effects.obj
 0002:00026d7c       ??_R4CBombGlow@@6B@        100bad7c     effects.obj
 0002:00026d90       ??_R3CBombGlow@@8          100bad90     effects.obj
 0002:00026da0       ??_R2CBombGlow@@8          100bada0     effects.obj
 0002:00026db4       ??_R1A@?0A@EA@CBombGlow@@8 100badb4     effects.obj
 0002:00026dd0       ??_R4CGibShooter@@6B@      100badd0     effects.obj
 0002:00026de4       ??_R3CGibShooter@@8        100bade4     effects.obj
 0002:00026df4       ??_R2CGibShooter@@8        100badf4     effects.obj
 0002:00026e04       ??_R1A@?0A@EA@CGibShooter@@8 100bae04     effects.obj
 0002:00026e20       ??_R4CEnvShooter@@6B@      100bae20     effects.obj
 0002:00026e34       ??_R3CEnvShooter@@8        100bae34     effects.obj
 0002:00026e44       ??_R2CEnvShooter@@8        100bae44     effects.obj
 0002:00026e58       ??_R1A@?0A@EA@CEnvShooter@@8 100bae58     effects.obj
 0002:00026e74       ??_R4CTestEffect@@6B@      100bae74     effects.obj
 0002:00026e88       ??_R3CTestEffect@@8        100bae88     effects.obj
 0002:00026e98       ??_R2CTestEffect@@8        100bae98     effects.obj
 0002:00026ea8       ??_R1A@?0A@EA@CTestEffect@@8 100baea8     effects.obj
 0002:00026ec4       ??_R4CBlood@@6B@           100baec4     effects.obj
 0002:00026ed8       ??_R3CBlood@@8             100baed8     effects.obj
 0002:00026ee8       ??_R2CBlood@@8             100baee8     effects.obj
 0002:00026ef8       ??_R1A@?0A@EA@CBlood@@8    100baef8     effects.obj
 0002:00026f14       ??_R4CShake@@6B@           100baf14     effects.obj
 0002:00026f28       ??_R3CShake@@8             100baf28     effects.obj
 0002:00026f38       ??_R2CShake@@8             100baf38     effects.obj
 0002:00026f48       ??_R1A@?0A@EA@CShake@@8    100baf48     effects.obj
 0002:00026f64       ??_R4CFade@@6B@            100baf64     effects.obj
 0002:00026f78       ??_R3CFade@@8              100baf78     effects.obj
 0002:00026f88       ??_R2CFade@@8              100baf88     effects.obj
 0002:00026f98       ??_R1A@?0A@EA@CFade@@8     100baf98     effects.obj
 0002:00026fb4       ??_R4CMessage@@6B@         100bafb4     effects.obj
 0002:00026fc8       ??_R3CMessage@@8           100bafc8     effects.obj
 0002:00026fd8       ??_R2CMessage@@8           100bafd8     effects.obj
 0002:00026fe8       ??_R1A@?0A@EA@CMessage@@8  100bafe8     effects.obj
 0002:00027004       ??_R4CEnvFunnel@@6B@       100bb004     effects.obj
 0002:00027018       ??_R3CEnvFunnel@@8         100bb018     effects.obj
 0002:00027028       ??_R2CEnvFunnel@@8         100bb028     effects.obj
 0002:00027038       ??_R1A@?0A@EA@CEnvFunnel@@8 100bb038     effects.obj
 0002:00027054       ??_R4CEnvBeverage@@6B@     100bb054     effects.obj
 0002:00027068       ??_R3CEnvBeverage@@8       100bb068     effects.obj
 0002:00027078       ??_R2CEnvBeverage@@8       100bb078     effects.obj
 0002:00027088       ??_R1A@?0A@EA@CEnvBeverage@@8 100bb088     effects.obj
 0002:000270a4       ??_R4CItemSoda@@6B@        100bb0a4     effects.obj
 0002:000270b8       ??_R3CItemSoda@@8          100bb0b8     effects.obj
 0002:000270c8       ??_R2CItemSoda@@8          100bb0c8     effects.obj
 0002:000270d4       ??_R1A@?0A@EA@CItemSoda@@8 100bb0d4     effects.obj
 0002:000270f0       ??_R4CShower@@6B@          100bb0f0     explode.obj
 0002:00027104       ??_R3CShower@@8            100bb104     explode.obj
 0002:00027114       ??_R2CShower@@8            100bb114     explode.obj
 0002:00027120       ??_R1A@?0A@EA@CShower@@8   100bb120     explode.obj
 0002:0002713c       ??_R4CEnvExplosion@@6B@    100bb13c     explode.obj
 0002:00027150       ??_R3CEnvExplosion@@8      100bb150     explode.obj
 0002:00027160       ??_R2CEnvExplosion@@8      100bb160     explode.obj
 0002:0002717c       ??_R1A@?0A@EA@CEnvExplosion@@8 100bb17c     explode.obj
 0002:00027198       ??_R4CBreakable@@6B@       100bb198     func_break.obj
 0002:000271ac       ??_R3CBreakable@@8         100bb1ac     func_break.obj
 0002:000271bc       ??_R2CBreakable@@8         100bb1bc     func_break.obj
 0002:000271cc       ??_R1A@?0A@EA@CBreakable@@8 100bb1cc     func_break.obj
 0002:000271e8       ??_R4CPushable@@6B@        100bb1e8     func_break.obj
 0002:000271fc       ??_R3CPushable@@8          100bb1fc     func_break.obj
 0002:0002720c       ??_R2CPushable@@8          100bb20c     func_break.obj
 0002:00027220       ??_R1A@?0A@EA@CPushable@@8 100bb220     func_break.obj
 0002:0002723c       ??_R4CFuncTank@@6B@        100bb23c     func_tank.obj
 0002:00027250       ??_R3CFuncTank@@8          100bb250     func_tank.obj
 0002:00027260       ??_R2CFuncTank@@8          100bb260     func_tank.obj
 0002:0002726c       ??_R1A@?0A@EA@CFuncTank@@8 100bb26c     func_tank.obj
 0002:00027288       ??_R4CFuncTankGun@@6B@     100bb288     func_tank.obj
 0002:0002729c       ??_R3CFuncTankGun@@8       100bb29c     func_tank.obj
 0002:000272ac       ??_R2CFuncTankGun@@8       100bb2ac     func_tank.obj
 0002:000272bc       ??_R1A@?0A@EA@CFuncTankGun@@8 100bb2bc     func_tank.obj
 0002:000272d8       ??_R4CFuncTankLaser@@6B@   100bb2d8     func_tank.obj
 0002:000272ec       ??_R3CFuncTankLaser@@8     100bb2ec     func_tank.obj
 0002:000272fc       ??_R2CFuncTankLaser@@8     100bb2fc     func_tank.obj
 0002:0002730c       ??_R1A@?0A@EA@CFuncTankLaser@@8 100bb30c     func_tank.obj
 0002:00027328       ??_R4CFuncTankRocket@@6B@  100bb328     func_tank.obj
 0002:0002733c       ??_R3CFuncTankRocket@@8    100bb33c     func_tank.obj
 0002:0002734c       ??_R2CFuncTankRocket@@8    100bb34c     func_tank.obj
 0002:0002735c       ??_R1A@?0A@EA@CFuncTankRocket@@8 100bb35c     func_tank.obj
 0002:00027378       ??_R4CFuncTankMortar@@6B@  100bb378     func_tank.obj
 0002:0002738c       ??_R3CFuncTankMortar@@8    100bb38c     func_tank.obj
 0002:0002739c       ??_R2CFuncTankMortar@@8    100bb39c     func_tank.obj
 0002:000273ac       ??_R1A@?0A@EA@CFuncTankMortar@@8 100bb3ac     func_tank.obj
 0002:000273c8       ??_R4CFuncTankControls@@6B@ 100bb3c8     func_tank.obj
 0002:000273dc       ??_R3CFuncTankControls@@8  100bb3dc     func_tank.obj
 0002:000273ec       ??_R2CFuncTankControls@@8  100bb3ec     func_tank.obj
 0002:000273f8       ??_R1A@?0A@EA@CFuncTankControls@@8 100bb3f8     func_tank.obj
 0002:00027414       ??_R3CItem@@8              100bb414     healthkit.obj
 0002:00027424       ??_R2CItem@@8              100bb424     healthkit.obj
 0002:00027430       ??_R1A@?0A@EA@CItem@@8     100bb430     healthkit.obj
 0002:0002744c       ??_R4CHealthKit@@6B@       100bb44c     healthkit.obj
 0002:00027460       ??_R3CHealthKit@@8         100bb460     healthkit.obj
 0002:00027470       ??_R2CHealthKit@@8         100bb470     healthkit.obj
 0002:00027480       ??_R1A@?0A@EA@CHealthKit@@8 100bb480     healthkit.obj
 0002:0002749c       ??_R4CWallHealth@@6B@      100bb49c     healthkit.obj
 0002:000274b0       ??_R3CWallHealth@@8        100bb4b0     healthkit.obj
 0002:000274c0       ??_R2CWallHealth@@8        100bb4c0     healthkit.obj
 0002:000274d8       ??_R1A@?0A@EA@CWallHealth@@8 100bb4d8     healthkit.obj
 0002:000274f4       ??_R4CHostage@@6B@         100bb4f4     hostage.obj
 0002:00027508       ??_R3CHostage@@8           100bb508     hostage.obj
 0002:00027518       ??_R2CHostage@@8           100bb518     hostage.obj
 0002:00027534       ??_R1A@?0A@EA@CHostage@@8  100bb534     hostage.obj
 0002:00027550       ??_R4CRecharge@@6B@        100bb550     h_battery.obj
 0002:00027564       ??_R3CRecharge@@8          100bb564     h_battery.obj
 0002:00027574       ??_R2CRecharge@@8          100bb574     h_battery.obj
 0002:0002758c       ??_R1A@?0A@EA@CRecharge@@8 100bb58c     h_battery.obj
 0002:000275a8       ??_R3CBasePlayerItem@@8    100bb5a8     h_cycler.obj
 0002:000275b8       ??_R2CBasePlayerItem@@8    100bb5b8     h_cycler.obj
 0002:000275cc       ??_R1A@?0A@EA@CBasePlayerItem@@8 100bb5cc     h_cycler.obj
 0002:000275e8       ??_R3CBasePlayerWeapon@@8  100bb5e8     h_cycler.obj
 0002:000275f8       ??_R2CBasePlayerWeapon@@8  100bb5f8     h_cycler.obj
 0002:00027610       ??_R1A@?0A@EA@CBasePlayerWeapon@@8 100bb610     h_cycler.obj
 0002:0002762c       ??_R3CCycler@@8            100bb62c     h_cycler.obj
 0002:0002763c       ??_R2CCycler@@8            100bb63c     h_cycler.obj
 0002:00027658       ??_R1A@?0A@EA@CCycler@@8   100bb658     h_cycler.obj
 0002:00027674       ??_R4CGenericCycler@@6B@   100bb674     h_cycler.obj
 0002:00027688       ??_R3CGenericCycler@@8     100bb688     h_cycler.obj
 0002:00027698       ??_R2CGenericCycler@@8     100bb698     h_cycler.obj
 0002:000276b8       ??_R1A@?0A@EA@CGenericCycler@@8 100bb6b8     h_cycler.obj
 0002:000276d4       ??_R4CCyclerProbe@@6B@     100bb6d4     h_cycler.obj
 0002:000276e8       ??_R3CCyclerProbe@@8       100bb6e8     h_cycler.obj
 0002:000276f8       ??_R2CCyclerProbe@@8       100bb6f8     h_cycler.obj
 0002:00027718       ??_R1A@?0A@EA@CCyclerProbe@@8 100bb718     h_cycler.obj
 0002:00027734       ??_R4CCyclerSprite@@6B@    100bb734     h_cycler.obj
 0002:00027748       ??_R3CCyclerSprite@@8      100bb748     h_cycler.obj
 0002:00027758       ??_R2CCyclerSprite@@8      100bb758     h_cycler.obj
 0002:00027764       ??_R1A@?0A@EA@CCyclerSprite@@8 100bb764     h_cycler.obj
 0002:00027780       ??_R4CWeaponCycler@@6B@    100bb780     h_cycler.obj
 0002:00027794       ??_R3CWeaponCycler@@8      100bb794     h_cycler.obj
 0002:000277a4       ??_R2CWeaponCycler@@8      100bb7a4     h_cycler.obj
 0002:000277c0       ??_R1A@?0A@EA@CWeaponCycler@@8 100bb7c0     h_cycler.obj
 0002:000277dc       ??_R4CWreckage@@6B@        100bb7dc     h_cycler.obj
 0002:000277f0       ??_R3CWreckage@@8          100bb7f0     h_cycler.obj
 0002:00027800       ??_R2CWreckage@@8          100bb800     h_cycler.obj
 0002:0002781c       ??_R1A@?0A@EA@CWreckage@@8 100bb81c     h_cycler.obj
 0002:00027838       ??_R4CWorldItem@@6B@       100bb838     items.obj
 0002:0002784c       ??_R3CWorldItem@@8         100bb84c     items.obj
 0002:0002785c       ??_R2CWorldItem@@8         100bb85c     items.obj
 0002:00027868       ??_R1A@?0A@EA@CWorldItem@@8 100bb868     items.obj
 0002:00027884       ??_R4CItemSuit@@6B@        100bb884     items.obj
 0002:00027898       ??_R3CItemSuit@@8          100bb898     items.obj
 0002:000278a8       ??_R2CItemSuit@@8          100bb8a8     items.obj
 0002:000278b8       ??_R1A@?0A@EA@CItemSuit@@8 100bb8b8     items.obj
 0002:000278d4       ??_R4CItemBattery@@6B@     100bb8d4     items.obj
 0002:000278e8       ??_R3CItemBattery@@8       100bb8e8     items.obj
 0002:000278f8       ??_R2CItemBattery@@8       100bb8f8     items.obj
 0002:00027908       ??_R1A@?0A@EA@CItemBattery@@8 100bb908     items.obj
 0002:00027924       ??_R4CItemAntidote@@6B@    100bb924     items.obj
 0002:00027938       ??_R3CItemAntidote@@8      100bb938     items.obj
 0002:00027948       ??_R2CItemAntidote@@8      100bb948     items.obj
 0002:00027958       ??_R1A@?0A@EA@CItemAntidote@@8 100bb958     items.obj
 0002:00027974       ??_R4CItemSecurity@@6B@    100bb974     items.obj
 0002:00027988       ??_R3CItemSecurity@@8      100bb988     items.obj
 0002:00027998       ??_R2CItemSecurity@@8      100bb998     items.obj
 0002:000279a8       ??_R1A@?0A@EA@CItemSecurity@@8 100bb9a8     items.obj
 0002:000279c4       ??_R4CItemLongJump@@6B@    100bb9c4     items.obj
 0002:000279d8       ??_R3CItemLongJump@@8      100bb9d8     items.obj
 0002:000279e8       ??_R2CItemLongJump@@8      100bb9e8     items.obj
 0002:000279f8       ??_R1A@?0A@EA@CItemLongJump@@8 100bb9f8     items.obj
 0002:00027a14       ??_R4CItemKevlar@@6B@      100bba14     items.obj
 0002:00027a28       ??_R3CItemKevlar@@8        100bba28     items.obj
 0002:00027a38       ??_R2CItemKevlar@@8        100bba38     items.obj
 0002:00027a48       ??_R1A@?0A@EA@CItemKevlar@@8 100bba48     items.obj
 0002:00027a64       ??_R4CItemAssaultSuit@@6B@ 100bba64     items.obj
 0002:00027a78       ??_R3CItemAssaultSuit@@8   100bba78     items.obj
 0002:00027a88       ??_R2CItemAssaultSuit@@8   100bba88     items.obj
 0002:00027a98       ??_R1A@?0A@EA@CItemAssaultSuit@@8 100bba98     items.obj
 0002:00027ab4       ??_R4CItemThighPack@@6B@   100bbab4     items.obj
 0002:00027ac8       ??_R3CItemThighPack@@8     100bbac8     items.obj
 0002:00027ad8       ??_R2CItemThighPack@@8     100bbad8     items.obj
 0002:00027ae8       ??_R1A@?0A@EA@CItemThighPack@@8 100bbae8     items.obj
 0002:00027b04       ??_R4CLight@@6B@           100bbb04     lights.obj
 0002:00027b18       ??_R3CLight@@8             100bbb18     lights.obj
 0002:00027b28       ??_R2CLight@@8             100bbb28     lights.obj
 0002:00027b38       ??_R1A@?0A@EA@CLight@@8    100bbb38     lights.obj
 0002:00027b54       ??_R4CEnvLight@@6B@        100bbb54     lights.obj
 0002:00027b68       ??_R3CEnvLight@@8          100bbb68     lights.obj
 0002:00027b78       ??_R2CEnvLight@@8          100bbb78     lights.obj
 0002:00027b8c       ??_R1A@?0A@EA@CEnvLight@@8 100bbb8c     lights.obj
 0002:00027ba8       ??_R4CMapInfo@@6B@         100bbba8     mapinfo.obj
 0002:00027bbc       ??_R3CMapInfo@@8           100bbbbc     mapinfo.obj
 0002:00027bcc       ??_R2CMapInfo@@8           100bbbcc     mapinfo.obj
 0002:00027bdc       ??_R1A@?0A@EA@CMapInfo@@8  100bbbdc     mapinfo.obj
 0002:00027bf8       ??_R3CRuleEntity@@8        100bbbf8     maprules.obj
 0002:00027c08       ??_R2CRuleEntity@@8        100bbc08     maprules.obj
 0002:00027c14       ??_R1A@?0A@EA@CRuleEntity@@8 100bbc14     maprules.obj
 0002:00027c30       ??_R3CRulePointEntity@@8   100bbc30     maprules.obj
 0002:00027c40       ??_R2CRulePointEntity@@8   100bbc40     maprules.obj
 0002:00027c50       ??_R1A@?0A@EA@CRulePointEntity@@8 100bbc50     maprules.obj
 0002:00027c6c       ??_R3CRuleBrushEntity@@8   100bbc6c     maprules.obj
 0002:00027c7c       ??_R2CRuleBrushEntity@@8   100bbc7c     maprules.obj
 0002:00027c8c       ??_R1A@?0A@EA@CRuleBrushEntity@@8 100bbc8c     maprules.obj
 0002:00027ca8       ??_R4CGameScore@@6B@       100bbca8     maprules.obj
 0002:00027cbc       ??_R3CGameScore@@8         100bbcbc     maprules.obj
 0002:00027ccc       ??_R2CGameScore@@8         100bbccc     maprules.obj
 0002:00027ce0       ??_R1A@?0A@EA@CGameScore@@8 100bbce0     maprules.obj
 0002:00027cfc       ??_R4CGameEnd@@6B@         100bbcfc     maprules.obj
 0002:00027d10       ??_R3CGameEnd@@8           100bbd10     maprules.obj
 0002:00027d20       ??_R2CGameEnd@@8           100bbd20     maprules.obj
 0002:00027d34       ??_R1A@?0A@EA@CGameEnd@@8  100bbd34     maprules.obj
 0002:00027d50       ??_R4CGameText@@6B@        100bbd50     maprules.obj
 0002:00027d64       ??_R3CGameText@@8          100bbd64     maprules.obj
 0002:00027d74       ??_R2CGameText@@8          100bbd74     maprules.obj
 0002:00027d88       ??_R1A@?0A@EA@CGameText@@8 100bbd88     maprules.obj
 0002:00027da4       ??_R4CGameTeamMaster@@6B@  100bbda4     maprules.obj
 0002:00027db8       ??_R3CGameTeamMaster@@8    100bbdb8     maprules.obj
 0002:00027dc8       ??_R2CGameTeamMaster@@8    100bbdc8     maprules.obj
 0002:00027ddc       ??_R1A@?0A@EA@CGameTeamMaster@@8 100bbddc     maprules.obj
 0002:00027df8       ??_R4CGameTeamSet@@6B@     100bbdf8     maprules.obj
 0002:00027e0c       ??_R3CGameTeamSet@@8       100bbe0c     maprules.obj
 0002:00027e1c       ??_R2CGameTeamSet@@8       100bbe1c     maprules.obj
 0002:00027e30       ??_R1A@?0A@EA@CGameTeamSet@@8 100bbe30     maprules.obj
 0002:00027e4c       ??_R4CGamePlayerZone@@6B@  100bbe4c     maprules.obj
 0002:00027e60       ??_R3CGamePlayerZone@@8    100bbe60     maprules.obj
 0002:00027e70       ??_R2CGamePlayerZone@@8    100bbe70     maprules.obj
 0002:00027e84       ??_R1A@?0A@EA@CGamePlayerZone@@8 100bbe84     maprules.obj
 0002:00027ea0       ??_R4CGamePlayerHurt@@6B@  100bbea0     maprules.obj
 0002:00027eb4       ??_R3CGamePlayerHurt@@8    100bbeb4     maprules.obj
 0002:00027ec4       ??_R2CGamePlayerHurt@@8    100bbec4     maprules.obj
 0002:00027ed8       ??_R1A@?0A@EA@CGamePlayerHurt@@8 100bbed8     maprules.obj
 0002:00027ef4       ??_R4CGameCounter@@6B@     100bbef4     maprules.obj
 0002:00027f08       ??_R3CGameCounter@@8       100bbf08     maprules.obj
 0002:00027f18       ??_R2CGameCounter@@8       100bbf18     maprules.obj
 0002:00027f2c       ??_R1A@?0A@EA@CGameCounter@@8 100bbf2c     maprules.obj
 0002:00027f48       ??_R4CGameCounterSet@@6B@  100bbf48     maprules.obj
 0002:00027f5c       ??_R3CGameCounterSet@@8    100bbf5c     maprules.obj
 0002:00027f6c       ??_R2CGameCounterSet@@8    100bbf6c     maprules.obj
 0002:00027f80       ??_R1A@?0A@EA@CGameCounterSet@@8 100bbf80     maprules.obj
 0002:00027f9c       ??_R4CGamePlayerEquip@@6B@ 100bbf9c     maprules.obj
 0002:00027fb0       ??_R3CGamePlayerEquip@@8   100bbfb0     maprules.obj
 0002:00027fc0       ??_R2CGamePlayerEquip@@8   100bbfc0     maprules.obj
 0002:00027fd4       ??_R1A@?0A@EA@CGamePlayerEquip@@8 100bbfd4     maprules.obj
 0002:00027ff0       ??_R4CGamePlayerTeam@@6B@  100bbff0     maprules.obj
 0002:00028004       ??_R3CGamePlayerTeam@@8    100bc004     maprules.obj
 0002:00028014       ??_R2CGamePlayerTeam@@8    100bc014     maprules.obj
 0002:00028028       ??_R1A@?0A@EA@CGamePlayerTeam@@8 100bc028     maprules.obj
 0002:00028044       ??_R4CFuncMortarField@@6B@ 100bc044     mortar.obj
 0002:00028058       ??_R3CFuncMortarField@@8   100bc058     mortar.obj
 0002:00028068       ??_R2CFuncMortarField@@8   100bc068     mortar.obj
 0002:00028080       ??_R1A@?0A@EA@CFuncMortarField@@8 100bc080     mortar.obj
 0002:0002809c       ??_R4CMortar@@6B@          100bc09c     mortar.obj
 0002:000280b0       ??_R3CMortar@@8            100bc0b0     mortar.obj
 0002:000280c0       ??_R2CMortar@@8            100bc0c0     mortar.obj
 0002:000280e0       ??_R1A@?0A@EA@CMortar@@8   100bc0e0     mortar.obj
 0002:000280fc       ??_R4IVoiceGameMgrHelper@@6B@ 100bc0fc     multiplay_gamerules.obj
 0002:00028110       ??_R3IVoiceGameMgrHelper@@8 100bc110     multiplay_gamerules.obj
 0002:00028120       ??_R2IVoiceGameMgrHelper@@8 100bc120     multiplay_gamerules.obj
 0002:00028128       ??_R1A@?0A@EA@IVoiceGameMgrHelper@@8 100bc128     multiplay_gamerules.obj
 0002:00028144       ??_R4CCStrikeGameMgrHelper@@6B@ 100bc144     multiplay_gamerules.obj
 0002:00028158       ??_R3CCStrikeGameMgrHelper@@8 100bc158     multiplay_gamerules.obj
 0002:00028168       ??_R2CCStrikeGameMgrHelper@@8 100bc168     multiplay_gamerules.obj
 0002:00028174       ??_R1A@?0A@EA@CCStrikeGameMgrHelper@@8 100bc174     multiplay_gamerules.obj
 0002:00028190       ??_R3CGameRules@@8         100bc190     multiplay_gamerules.obj
 0002:000281a0       ??_R2CGameRules@@8         100bc1a0     multiplay_gamerules.obj
 0002:000281a8       ??_R1A@?0A@EA@CGameRules@@8 100bc1a8     multiplay_gamerules.obj
 0002:000281c4       ??_R4CHalfLifeMultiplay@@6B@ 100bc1c4     multiplay_gamerules.obj
 0002:000281d8       ??_R3CHalfLifeMultiplay@@8 100bc1d8     multiplay_gamerules.obj
 0002:000281e8       ??_R2CHalfLifeMultiplay@@8 100bc1e8     multiplay_gamerules.obj
 0002:000281f4       ??_R1A@?0A@EA@CHalfLifeMultiplay@@8 100bc1f4     multiplay_gamerules.obj
 0002:00028210       ??_R4CPathTrack@@6B@       100bc210     pathcorner.obj
 0002:00028224       ??_R3CPathTrack@@8         100bc224     pathcorner.obj
 0002:00028234       ??_R2CPathTrack@@8         100bc234     pathcorner.obj
 0002:00028244       ??_R1A@?0A@EA@CPathTrack@@8 100bc244     pathcorner.obj
 0002:00028260       ??_R4CPathCorner@@6B@      100bc260     pathcorner.obj
 0002:00028274       ??_R3CPathCorner@@8        100bc274     pathcorner.obj
 0002:00028284       ??_R2CPathCorner@@8        100bc284     pathcorner.obj
 0002:00028294       ??_R1A@?0A@EA@CPathCorner@@8 100bc294     pathcorner.obj
 0002:000282b0       ??_R4CFuncTrackTrain@@6B@  100bc2b0     plats.obj
 0002:000282c4       ??_R3CFuncTrackTrain@@8    100bc2c4     plats.obj
 0002:000282d4       ??_R2CFuncTrackTrain@@8    100bc2d4     plats.obj
 0002:000282e0       ??_R1A@?0A@EA@CFuncTrackTrain@@8 100bc2e0     plats.obj
 0002:000282fc       ??_R3CBasePlatTrain@@8     100bc2fc     plats.obj
 0002:0002830c       ??_R2CBasePlatTrain@@8     100bc30c     plats.obj
 0002:00028324       ??_R1A@?0A@EA@CBasePlatTrain@@8 100bc324     plats.obj
 0002:00028340       ??_R4CFuncPlat@@6B@        100bc340     plats.obj
 0002:00028354       ??_R3CFuncPlat@@8          100bc354     plats.obj
 0002:00028364       ??_R2CFuncPlat@@8          100bc364     plats.obj
 0002:00028380       ??_R1A@?0A@EA@CFuncPlat@@8 100bc380     plats.obj
 0002:0002839c       ??_R4CPlatTrigger@@6B@     100bc39c     plats.obj
 0002:000283b0       ??_R3CPlatTrigger@@8       100bc3b0     plats.obj
 0002:000283c0       ??_R2CPlatTrigger@@8       100bc3c0     plats.obj
 0002:000283cc       ??_R1A@?0A@EA@CPlatTrigger@@8 100bc3cc     plats.obj
 0002:000283e8       ??_R4CFuncPlatRot@@6B@     100bc3e8     plats.obj
 0002:000283fc       ??_R3CFuncPlatRot@@8       100bc3fc     plats.obj
 0002:0002840c       ??_R2CFuncPlatRot@@8       100bc40c     plats.obj
 0002:0002842c       ??_R1A@?0A@EA@CFuncPlatRot@@8 100bc42c     plats.obj
 0002:00028448       ??_R4CFuncTrain@@6B@       100bc448     plats.obj
 0002:0002845c       ??_R3CFuncTrain@@8         100bc45c     plats.obj
 0002:0002846c       ??_R2CFuncTrain@@8         100bc46c     plats.obj
 0002:00028488       ??_R1A@?0A@EA@CFuncTrain@@8 100bc488     plats.obj
 0002:000284a4       ??_R4CFuncTrainControls@@6B@ 100bc4a4     plats.obj
 0002:000284b8       ??_R3CFuncTrainControls@@8 100bc4b8     plats.obj
 0002:000284c8       ??_R2CFuncTrainControls@@8 100bc4c8     plats.obj
 0002:000284d4       ??_R1A@?0A@EA@CFuncTrainControls@@8 100bc4d4     plats.obj
 0002:000284f0       ??_R4CFuncTrackChange@@6B@ 100bc4f0     plats.obj
 0002:00028504       ??_R3CFuncTrackChange@@8   100bc504     plats.obj
 0002:00028514       ??_R2CFuncTrackChange@@8   100bc514     plats.obj
 0002:00028538       ??_R1A@?0A@EA@CFuncTrackChange@@8 100bc538     plats.obj
 0002:00028554       ??_R4CFuncTrackAuto@@6B@   100bc554     plats.obj
 0002:00028568       ??_R3CFuncTrackAuto@@8     100bc568     plats.obj
 0002:00028578       ??_R2CFuncTrackAuto@@8     100bc578     plats.obj
 0002:000285a0       ??_R1A@?0A@EA@CFuncTrackAuto@@8 100bc5a0     plats.obj
 0002:000285bc       ??_R4CGunTarget@@6B@       100bc5bc     plats.obj
 0002:000285d0       ??_R3CGunTarget@@8         100bc5d0     plats.obj
 0002:000285e0       ??_R2CGunTarget@@8         100bc5e0     plats.obj
 0002:000285fc       ??_R1A@?0A@EA@CGunTarget@@8 100bc5fc     plats.obj
 0002:00028618       ??_R4CWShield@@6B@         100bc618     player.obj
 0002:0002862c       ??_R3CWShield@@8           100bc62c     player.obj
 0002:0002863c       ??_R2CWShield@@8           100bc63c     player.obj
 0002:00028648       ??_R1A@?0A@EA@CWShield@@8  100bc648     player.obj
 0002:00028664       ??_R4CSprayCan@@6B@        100bc664     player.obj
 0002:00028678       ??_R3CSprayCan@@8          100bc678     player.obj
 0002:00028688       ??_R2CSprayCan@@8          100bc688     player.obj
 0002:00028694       ??_R1A@?0A@EA@CSprayCan@@8 100bc694     player.obj
 0002:000286b0       ??_R4CBloodSplat@@6B@      100bc6b0     player.obj
 0002:000286c4       ??_R3CBloodSplat@@8        100bc6c4     player.obj
 0002:000286d4       ??_R2CBloodSplat@@8        100bc6d4     player.obj
 0002:000286e0       ??_R1A@?0A@EA@CBloodSplat@@8 100bc6e0     player.obj
 0002:000286fc       ??_R4CDeadHEV@@6B@         100bc6fc     player.obj
 0002:00028710       ??_R3CDeadHEV@@8           100bc710     player.obj
 0002:00028720       ??_R2CDeadHEV@@8           100bc720     player.obj
 0002:0002873c       ??_R1A@?0A@EA@CDeadHEV@@8  100bc73c     player.obj
 0002:00028758       ??_R4CStripWeapons@@6B@    100bc758     player.obj
 0002:0002876c       ??_R3CStripWeapons@@8      100bc76c     player.obj
 0002:0002877c       ??_R2CStripWeapons@@8      100bc77c     player.obj
 0002:0002878c       ??_R1A@?0A@EA@CStripWeapons@@8 100bc78c     player.obj
 0002:000287a8       ??_R4CRevertSaved@@6B@     100bc7a8     player.obj
 0002:000287bc       ??_R3CRevertSaved@@8       100bc7bc     player.obj
 0002:000287cc       ??_R2CRevertSaved@@8       100bc7cc     player.obj
 0002:000287dc       ??_R1A@?0A@EA@CRevertSaved@@8 100bc7dc     player.obj
 0002:000287f8       ??_R4CInfoIntermission@@6B@ 100bc7f8     player.obj
 0002:0002880c       ??_R3CInfoIntermission@@8  100bc80c     player.obj
 0002:0002881c       ??_R2CInfoIntermission@@8  100bc81c     player.obj
 0002:0002882c       ??_R1A@?0A@EA@CInfoIntermission@@8 100bc82c     player.obj
 0002:00028848       ??_R4CAmbientGeneric@@6B@  100bc848     sound.obj
 0002:0002885c       ??_R3CAmbientGeneric@@8    100bc85c     sound.obj
 0002:0002886c       ??_R2CAmbientGeneric@@8    100bc86c     sound.obj
 0002:00028878       ??_R1A@?0A@EA@CAmbientGeneric@@8 100bc878     sound.obj
 0002:00028894       ??_R4CEnvSound@@6B@        100bc894     sound.obj
 0002:000288a8       ??_R3CEnvSound@@8          100bc8a8     sound.obj
 0002:000288b8       ??_R2CEnvSound@@8          100bc8b8     sound.obj
 0002:000288c8       ??_R1A@?0A@EA@CEnvSound@@8 100bc8c8     sound.obj
 0002:000288e4       ??_R4CSpeaker@@6B@         100bc8e4     sound.obj
 0002:000288f8       ??_R3CSpeaker@@8           100bc8f8     sound.obj
 0002:00028908       ??_R2CSpeaker@@8           100bc908     sound.obj
 0002:00028914       ??_R1A@?0A@EA@CSpeaker@@8  100bc914     sound.obj
 0002:00028930       ??_R4CSoundEnt@@6B@        100bc930     soundent.obj
 0002:00028944       ??_R3CSoundEnt@@8          100bc944     soundent.obj
 0002:00028954       ??_R2CSoundEnt@@8          100bc954     soundent.obj
 0002:00028960       ??_R1A@?0A@EA@CSoundEnt@@8 100bc960     soundent.obj
 0002:0002897c       ??_R4CNullEntity@@6B@      100bc97c     subs.obj
 0002:00028990       ??_R3CNullEntity@@8        100bc990     subs.obj
 0002:000289a0       ??_R2CNullEntity@@8        100bc9a0     subs.obj
 0002:000289ac       ??_R1A@?0A@EA@CNullEntity@@8 100bc9ac     subs.obj
 0002:000289c8       ??_R4CBaseDMStart@@6B@     100bc9c8     subs.obj
 0002:000289dc       ??_R3CBaseDMStart@@8       100bc9dc     subs.obj
 0002:000289ec       ??_R2CBaseDMStart@@8       100bc9ec     subs.obj
 0002:000289fc       ??_R1A@?0A@EA@CBaseDMStart@@8 100bc9fc     subs.obj
 0002:00028a18       ??_R4CHalfLifeTraining@@6B@ 100bca18     training_gamerules.obj
 0002:00028a2c       ??_R3CHalfLifeTraining@@8  100bca2c     training_gamerules.obj
 0002:00028a3c       ??_R2CHalfLifeTraining@@8  100bca3c     training_gamerules.obj
 0002:00028a4c       ??_R1A@?0A@EA@CHalfLifeTraining@@8 100bca4c     training_gamerules.obj
 0002:00028a68       ??_R4CClientFog@@6B@       100bca68     triggers.obj
 0002:00028a7c       ??_R3CClientFog@@8         100bca7c     triggers.obj
 0002:00028a8c       ??_R2CClientFog@@8         100bca8c     triggers.obj
 0002:00028a98       ??_R1A@?0A@EA@CClientFog@@8 100bca98     triggers.obj
 0002:00028ab4       ??_R4CBaseGrenCatch@@6B@   100bcab4     triggers.obj
 0002:00028ac8       ??_R3CBaseGrenCatch@@8     100bcac8     triggers.obj
 0002:00028ad8       ??_R2CBaseGrenCatch@@8     100bcad8     triggers.obj
 0002:00028ae4       ??_R1A@?0A@EA@CBaseGrenCatch@@8 100bcae4     triggers.obj
 0002:00028b00       ??_R4CFuncWeaponCheck@@6B@ 100bcb00     triggers.obj
 0002:00028b14       ??_R3CFuncWeaponCheck@@8   100bcb14     triggers.obj
 0002:00028b24       ??_R2CFuncWeaponCheck@@8   100bcb24     triggers.obj
 0002:00028b30       ??_R1A@?0A@EA@CFuncWeaponCheck@@8 100bcb30     triggers.obj
 0002:00028b4c       ??_R4CFrictionModifier@@6B@ 100bcb4c     triggers.obj
 0002:00028b60       ??_R3CFrictionModifier@@8  100bcb60     triggers.obj
 0002:00028b70       ??_R2CFrictionModifier@@8  100bcb70     triggers.obj
 0002:00028b7c       ??_R1A@?0A@EA@CFrictionModifier@@8 100bcb7c     triggers.obj
 0002:00028b98       ??_R4CAutoTrigger@@6B@     100bcb98     triggers.obj
 0002:00028bac       ??_R3CAutoTrigger@@8       100bcbac     triggers.obj
 0002:00028bbc       ??_R2CAutoTrigger@@8       100bcbbc     triggers.obj
 0002:00028bcc       ??_R1A@?0A@EA@CAutoTrigger@@8 100bcbcc     triggers.obj
 0002:00028be8       ??_R4CTriggerRelay@@6B@    100bcbe8     triggers.obj
 0002:00028bfc       ??_R3CTriggerRelay@@8      100bcbfc     triggers.obj
 0002:00028c0c       ??_R2CTriggerRelay@@8      100bcc0c     triggers.obj
 0002:00028c1c       ??_R1A@?0A@EA@CTriggerRelay@@8 100bcc1c     triggers.obj
 0002:00028c38       ??_R4CMultiManager@@6B@    100bcc38     triggers.obj
 0002:00028c4c       ??_R3CMultiManager@@8      100bcc4c     triggers.obj
 0002:00028c5c       ??_R2CMultiManager@@8      100bcc5c     triggers.obj
 0002:00028c74       ??_R1A@?0A@EA@CMultiManager@@8 100bcc74     triggers.obj
 0002:00028c90       ??_R4CRenderFxManager@@6B@ 100bcc90     triggers.obj
 0002:00028ca4       ??_R3CRenderFxManager@@8   100bcca4     triggers.obj
 0002:00028cb4       ??_R2CRenderFxManager@@8   100bccb4     triggers.obj
 0002:00028cc0       ??_R1A@?0A@EA@CRenderFxManager@@8 100bccc0     triggers.obj
 0002:00028cdc       ??_R4CBaseTrigger@@6B@     100bccdc     triggers.obj
 0002:00028cf0       ??_R3CBaseTrigger@@8       100bccf0     triggers.obj
 0002:00028d00       ??_R2CBaseTrigger@@8       100bcd00     triggers.obj
 0002:00028d18       ??_R1A@?0A@EA@CBaseTrigger@@8 100bcd18     triggers.obj
 0002:00028d34       ??_R4CTriggerHurt@@6B@     100bcd34     triggers.obj
 0002:00028d48       ??_R3CTriggerHurt@@8       100bcd48     triggers.obj
 0002:00028d58       ??_R2CTriggerHurt@@8       100bcd58     triggers.obj
 0002:00028d74       ??_R1A@?0A@EA@CTriggerHurt@@8 100bcd74     triggers.obj
 0002:00028d90       ??_R4CTriggerMonsterJump@@6B@ 100bcd90     triggers.obj
 0002:00028da4       ??_R3CTriggerMonsterJump@@8 100bcda4     triggers.obj
 0002:00028db4       ??_R2CTriggerMonsterJump@@8 100bcdb4     triggers.obj
 0002:00028dd0       ??_R1A@?0A@EA@CTriggerMonsterJump@@8 100bcdd0     triggers.obj
 0002:00028dec       ??_R4CTriggerCDAudio@@6B@  100bcdec     triggers.obj
 0002:00028e00       ??_R3CTriggerCDAudio@@8    100bce00     triggers.obj
 0002:00028e10       ??_R2CTriggerCDAudio@@8    100bce10     triggers.obj
 0002:00028e2c       ??_R1A@?0A@EA@CTriggerCDAudio@@8 100bce2c     triggers.obj
 0002:00028e48       ??_R4CTargetCDAudio@@6B@   100bce48     triggers.obj
 0002:00028e5c       ??_R3CTargetCDAudio@@8     100bce5c     triggers.obj
 0002:00028e6c       ??_R2CTargetCDAudio@@8     100bce6c     triggers.obj
 0002:00028e7c       ??_R1A@?0A@EA@CTargetCDAudio@@8 100bce7c     triggers.obj
 0002:00028e98       ??_R4CTriggerMultiple@@6B@ 100bce98     triggers.obj
 0002:00028eac       ??_R3CTriggerMultiple@@8   100bceac     triggers.obj
 0002:00028ebc       ??_R2CTriggerMultiple@@8   100bcebc     triggers.obj
 0002:00028ed8       ??_R1A@?0A@EA@CTriggerMultiple@@8 100bced8     triggers.obj
 0002:00028ef4       ??_R4CTriggerOnce@@6B@     100bcef4     triggers.obj
 0002:00028f08       ??_R3CTriggerOnce@@8       100bcf08     triggers.obj
 0002:00028f18       ??_R2CTriggerOnce@@8       100bcf18     triggers.obj
 0002:00028f38       ??_R1A@?0A@EA@CTriggerOnce@@8 100bcf38     triggers.obj
 0002:00028f54       ??_R4CTriggerCounter@@6B@  100bcf54     triggers.obj
 0002:00028f68       ??_R3CTriggerCounter@@8    100bcf68     triggers.obj
 0002:00028f78       ??_R2CTriggerCounter@@8    100bcf78     triggers.obj
 0002:00028f94       ??_R1A@?0A@EA@CTriggerCounter@@8 100bcf94     triggers.obj
 0002:00028fb0       ??_R4CTriggerVolume@@6B@   100bcfb0     triggers.obj
 0002:00028fc4       ??_R3CTriggerVolume@@8     100bcfc4     triggers.obj
 0002:00028fd4       ??_R2CTriggerVolume@@8     100bcfd4     triggers.obj
 0002:00028fe4       ??_R1A@?0A@EA@CTriggerVolume@@8 100bcfe4     triggers.obj
 0002:00029000       ??_R4CFireAndDie@@6B@      100bd000     triggers.obj
 0002:00029014       ??_R3CFireAndDie@@8        100bd014     triggers.obj
 0002:00029024       ??_R2CFireAndDie@@8        100bd024     triggers.obj
 0002:00029034       ??_R1A@?0A@EA@CFireAndDie@@8 100bd034     triggers.obj
 0002:00029050       ??_R4CChangeLevel@@6B@     100bd050     triggers.obj
 0002:00029064       ??_R3CChangeLevel@@8       100bd064     triggers.obj
 0002:00029074       ??_R2CChangeLevel@@8       100bd074     triggers.obj
 0002:00029090       ??_R1A@?0A@EA@CChangeLevel@@8 100bd090     triggers.obj
 0002:000290ac       ??_R4CLadder@@6B@          100bd0ac     triggers.obj
 0002:000290c0       ??_R3CLadder@@8            100bd0c0     triggers.obj
 0002:000290d0       ??_R2CLadder@@8            100bd0d0     triggers.obj
 0002:000290ec       ??_R1A@?0A@EA@CLadder@@8   100bd0ec     triggers.obj
 0002:00029108       ??_R4CTriggerPush@@6B@     100bd108     triggers.obj
 0002:0002911c       ??_R3CTriggerPush@@8       100bd11c     triggers.obj
 0002:0002912c       ??_R2CTriggerPush@@8       100bd12c     triggers.obj
 0002:00029148       ??_R1A@?0A@EA@CTriggerPush@@8 100bd148     triggers.obj
 0002:00029164       ??_R4CTriggerTeleport@@6B@ 100bd164     triggers.obj
 0002:00029178       ??_R3CTriggerTeleport@@8   100bd178     triggers.obj
 0002:00029188       ??_R2CTriggerTeleport@@8   100bd188     triggers.obj
 0002:000291a4       ??_R1A@?0A@EA@CTriggerTeleport@@8 100bd1a4     triggers.obj
 0002:000291c0       ??_R4CBuyZone@@6B@         100bd1c0     triggers.obj
 0002:000291d4       ??_R3CBuyZone@@8           100bd1d4     triggers.obj
 0002:000291e4       ??_R2CBuyZone@@8           100bd1e4     triggers.obj
 0002:00029200       ??_R1A@?0A@EA@CBuyZone@@8  100bd200     triggers.obj
 0002:0002921c       ??_R4CBombTarget@@6B@      100bd21c     triggers.obj
 0002:00029230       ??_R3CBombTarget@@8        100bd230     triggers.obj
 0002:00029240       ??_R2CBombTarget@@8        100bd240     triggers.obj
 0002:0002925c       ??_R1A@?0A@EA@CBombTarget@@8 100bd25c     triggers.obj
 0002:00029278       ??_R4CHostageRescue@@6B@   100bd278     triggers.obj
 0002:0002928c       ??_R3CHostageRescue@@8     100bd28c     triggers.obj
 0002:0002929c       ??_R2CHostageRescue@@8     100bd29c     triggers.obj
 0002:000292b8       ??_R1A@?0A@EA@CHostageRescue@@8 100bd2b8     triggers.obj
 0002:000292d4       ??_R4CEscapeZone@@6B@      100bd2d4     triggers.obj
 0002:000292e8       ??_R3CEscapeZone@@8        100bd2e8     triggers.obj
 0002:000292f8       ??_R2CEscapeZone@@8        100bd2f8     triggers.obj
 0002:00029314       ??_R1A@?0A@EA@CEscapeZone@@8 100bd314     triggers.obj
 0002:00029330       ??_R4CVIP_SafetyZone@@6B@  100bd330     triggers.obj
 0002:00029344       ??_R3CVIP_SafetyZone@@8    100bd344     triggers.obj
 0002:00029354       ??_R2CVIP_SafetyZone@@8    100bd354     triggers.obj
 0002:00029370       ??_R1A@?0A@EA@CVIP_SafetyZone@@8 100bd370     triggers.obj
 0002:0002938c       ??_R4CTriggerSave@@6B@     100bd38c     triggers.obj
 0002:000293a0       ??_R3CTriggerSave@@8       100bd3a0     triggers.obj
 0002:000293b0       ??_R2CTriggerSave@@8       100bd3b0     triggers.obj
 0002:000293cc       ??_R1A@?0A@EA@CTriggerSave@@8 100bd3cc     triggers.obj
 0002:000293e8       ??_R4CTriggerEndSection@@6B@ 100bd3e8     triggers.obj
 0002:000293fc       ??_R3CTriggerEndSection@@8 100bd3fc     triggers.obj
 0002:0002940c       ??_R2CTriggerEndSection@@8 100bd40c     triggers.obj
 0002:00029428       ??_R1A@?0A@EA@CTriggerEndSection@@8 100bd428     triggers.obj
 0002:00029444       ??_R4CTriggerGravity@@6B@  100bd444     triggers.obj
 0002:00029458       ??_R3CTriggerGravity@@8    100bd458     triggers.obj
 0002:00029468       ??_R2CTriggerGravity@@8    100bd468     triggers.obj
 0002:00029484       ??_R1A@?0A@EA@CTriggerGravity@@8 100bd484     triggers.obj
 0002:000294a0       ??_R4CTriggerChangeTarget@@6B@ 100bd4a0     triggers.obj
 0002:000294b4       ??_R3CTriggerChangeTarget@@8 100bd4b4     triggers.obj
 0002:000294c4       ??_R2CTriggerChangeTarget@@8 100bd4c4     triggers.obj
 0002:000294d4       ??_R1A@?0A@EA@CTriggerChangeTarget@@8 100bd4d4     triggers.obj
 0002:000294f0       ??_R4CTriggerCamera@@6B@   100bd4f0     triggers.obj
 0002:00029504       ??_R3CTriggerCamera@@8     100bd504     triggers.obj
 0002:00029514       ??_R2CTriggerCamera@@8     100bd514     triggers.obj
 0002:00029524       ??_R1A@?0A@EA@CTriggerCamera@@8 100bd524     triggers.obj
 0002:00029540       ??_R4CWeather@@6B@         100bd540     triggers.obj
 0002:00029554       ??_R3CWeather@@8           100bd554     triggers.obj
 0002:00029564       ??_R2CWeather@@8           100bd564     triggers.obj
 0002:00029580       ??_R1A@?0A@EA@CWeather@@8  100bd580     triggers.obj
 0002:0002959c       ??_R4CSaveRestoreBuffer@@6B@ 100bd59c     util.obj
 0002:000295b0       ??_R4CFuncVehicle@@6B@     100bd5b0     vehicle.obj
 0002:000295c4       ??_R3CFuncVehicle@@8       100bd5c4     vehicle.obj
 0002:000295d4       ??_R2CFuncVehicle@@8       100bd5d4     vehicle.obj
 0002:000295e0       ??_R1A@?0A@EA@CFuncVehicle@@8 100bd5e0     vehicle.obj
 0002:000295fc       ??_R4CFuncVehicleControls@@6B@ 100bd5fc     vehicle.obj
 0002:00029610       ??_R3CFuncVehicleControls@@8 100bd610     vehicle.obj
 0002:00029620       ??_R2CFuncVehicleControls@@8 100bd620     vehicle.obj
 0002:0002962c       ??_R1A@?0A@EA@CFuncVehicleControls@@8 100bd62c     vehicle.obj
 0002:00029648       ??_R4CWeaponBox@@6B@       100bd648     weapons.obj
 0002:0002965c       ??_R3CWeaponBox@@8         100bd65c     weapons.obj
 0002:0002966c       ??_R2CWeaponBox@@8         100bd66c     weapons.obj
 0002:00029678       ??_R1A@?0A@EA@CWeaponBox@@8 100bd678     weapons.obj
 0002:00029694       ??_R4CArmoury@@6B@         100bd694     weapons.obj
 0002:000296a8       ??_R3CArmoury@@8           100bd6a8     weapons.obj
 0002:000296b8       ??_R2CArmoury@@8           100bd6b8     weapons.obj
 0002:000296c4       ??_R1A@?0A@EA@CArmoury@@8  100bd6c4     weapons.obj
 0002:000296e0       ??_R4CWorld@@6B@           100bd6e0     world.obj
 0002:000296f4       ??_R3CWorld@@8             100bd6f4     world.obj
 0002:00029704       ??_R2CWorld@@8             100bd704     world.obj
 0002:00029710       ??_R1A@?0A@EA@CWorld@@8    100bd710     world.obj
 0002:0002972c       ??_R4CDecal@@6B@           100bd72c     world.obj
 0002:00029740       ??_R3CDecal@@8             100bd740     world.obj
 0002:00029750       ??_R2CDecal@@8             100bd750     world.obj
 0002:0002975c       ??_R1A@?0A@EA@CDecal@@8    100bd75c     world.obj
 0002:00029778       ??_R4CCorpse@@6B@          100bd778     world.obj
 0002:0002978c       ??_R3CCorpse@@8            100bd78c     world.obj
 0002:0002979c       ??_R2CCorpse@@8            100bd79c     world.obj
 0002:000297a8       ??_R1A@?0A@EA@CCorpse@@8   100bd7a8     world.obj
 0002:000297c4       ??_R4CAK47@@6B@            100bd7c4     wpn_ak47.obj
 0002:000297d8       ??_R3CAK47@@8              100bd7d8     wpn_ak47.obj
 0002:000297e8       ??_R2CAK47@@8              100bd7e8     wpn_ak47.obj
 0002:00029804       ??_R1A@?0A@EA@CAK47@@8     100bd804     wpn_ak47.obj
 0002:00029820       ??_R4CAUG@@6B@             100bd820     wpn_aug.obj
 0002:00029834       ??_R3CAUG@@8               100bd834     wpn_aug.obj
 0002:00029844       ??_R2CAUG@@8               100bd844     wpn_aug.obj
 0002:00029860       ??_R1A@?0A@EA@CAUG@@8      100bd860     wpn_aug.obj
 0002:0002987c       ??_R4CAWP@@6B@             100bd87c     wpn_awp.obj
 0002:00029890       ??_R3CAWP@@8               100bd890     wpn_awp.obj
 0002:000298a0       ??_R2CAWP@@8               100bd8a0     wpn_awp.obj
 0002:000298bc       ??_R1A@?0A@EA@CAWP@@8      100bd8bc     wpn_awp.obj
 0002:000298d8       ??_R4CC4@@6B@              100bd8d8     wpn_c4.obj
 0002:000298ec       ??_R3CC4@@8                100bd8ec     wpn_c4.obj
 0002:000298fc       ??_R2CC4@@8                100bd8fc     wpn_c4.obj
 0002:00029918       ??_R1A@?0A@EA@CC4@@8       100bd918     wpn_c4.obj
 0002:00029934       ??_R4CDEAGLE@@6B@          100bd934     wpn_deagle.obj
 0002:00029948       ??_R3CDEAGLE@@8            100bd948     wpn_deagle.obj
 0002:00029958       ??_R2CDEAGLE@@8            100bd958     wpn_deagle.obj
 0002:00029974       ??_R1A@?0A@EA@CDEAGLE@@8   100bd974     wpn_deagle.obj
 0002:00029990       ??_R4CELITE@@6B@           100bd990     wpn_elite.obj
 0002:000299a4       ??_R3CELITE@@8             100bd9a4     wpn_elite.obj
 0002:000299b4       ??_R2CELITE@@8             100bd9b4     wpn_elite.obj
 0002:000299d0       ??_R1A@?0A@EA@CELITE@@8    100bd9d0     wpn_elite.obj
 0002:000299ec       ??_R4CFamas@@6B@           100bd9ec     wpn_famas.obj
 0002:00029a00       ??_R3CFamas@@8             100bda00     wpn_famas.obj
 0002:00029a10       ??_R2CFamas@@8             100bda10     wpn_famas.obj
 0002:00029a2c       ??_R1A@?0A@EA@CFamas@@8    100bda2c     wpn_famas.obj
 0002:00029a48       ??_R4CFiveSeven@@6B@       100bda48     wpn_fiveseven.obj
 0002:00029a5c       ??_R3CFiveSeven@@8         100bda5c     wpn_fiveseven.obj
 0002:00029a6c       ??_R2CFiveSeven@@8         100bda6c     wpn_fiveseven.obj
 0002:00029a88       ??_R1A@?0A@EA@CFiveSeven@@8 100bda88     wpn_fiveseven.obj
 0002:00029aa4       ??_R4CFlashbang@@6B@       100bdaa4     wpn_flashbang.obj
 0002:00029ab8       ??_R3CFlashbang@@8         100bdab8     wpn_flashbang.obj
 0002:00029ac8       ??_R2CFlashbang@@8         100bdac8     wpn_flashbang.obj
 0002:00029ae4       ??_R1A@?0A@EA@CFlashbang@@8 100bdae4     wpn_flashbang.obj
 0002:00029b00       ??_R4CG3SG1@@6B@           100bdb00     wpn_g3sg1.obj
 0002:00029b14       ??_R3CG3SG1@@8             100bdb14     wpn_g3sg1.obj
 0002:00029b24       ??_R2CG3SG1@@8             100bdb24     wpn_g3sg1.obj
 0002:00029b40       ??_R1A@?0A@EA@CG3SG1@@8    100bdb40     wpn_g3sg1.obj
 0002:00029b5c       ??_R4CGalil@@6B@           100bdb5c     wpn_galil.obj
 0002:00029b70       ??_R3CGalil@@8             100bdb70     wpn_galil.obj
 0002:00029b80       ??_R2CGalil@@8             100bdb80     wpn_galil.obj
 0002:00029b9c       ??_R1A@?0A@EA@CGalil@@8    100bdb9c     wpn_galil.obj
 0002:00029bb8       ??_R4CGLOCK18@@6B@         100bdbb8     wpn_glock18.obj
 0002:00029bcc       ??_R3CGLOCK18@@8           100bdbcc     wpn_glock18.obj
 0002:00029bdc       ??_R2CGLOCK18@@8           100bdbdc     wpn_glock18.obj
 0002:00029bf8       ??_R1A@?0A@EA@CGLOCK18@@8  100bdbf8     wpn_glock18.obj
 0002:00029c14       ??_R4CHEGrenade@@6B@       100bdc14     wpn_hegrenade.obj
 0002:00029c28       ??_R3CHEGrenade@@8         100bdc28     wpn_hegrenade.obj
 0002:00029c38       ??_R2CHEGrenade@@8         100bdc38     wpn_hegrenade.obj
 0002:00029c54       ??_R1A@?0A@EA@CHEGrenade@@8 100bdc54     wpn_hegrenade.obj
 0002:00029c70       ??_R4CKnife@@6B@           100bdc70     wpn_knife.obj
 0002:00029c84       ??_R3CKnife@@8             100bdc84     wpn_knife.obj
 0002:00029c94       ??_R2CKnife@@8             100bdc94     wpn_knife.obj
 0002:00029cb0       ??_R1A@?0A@EA@CKnife@@8    100bdcb0     wpn_knife.obj
 0002:00029ccc       ??_R4CM249@@6B@            100bdccc     wpn_m249.obj
 0002:00029ce0       ??_R3CM249@@8              100bdce0     wpn_m249.obj
 0002:00029cf0       ??_R2CM249@@8              100bdcf0     wpn_m249.obj
 0002:00029d0c       ??_R1A@?0A@EA@CM249@@8     100bdd0c     wpn_m249.obj
 0002:00029d28       ??_R4CM3@@6B@              100bdd28     wpn_m3.obj
 0002:00029d3c       ??_R3CM3@@8                100bdd3c     wpn_m3.obj
 0002:00029d4c       ??_R2CM3@@8                100bdd4c     wpn_m3.obj
 0002:00029d68       ??_R1A@?0A@EA@CM3@@8       100bdd68     wpn_m3.obj
 0002:00029d84       ??_R4CM4A1@@6B@            100bdd84     wpn_m4a1.obj
 0002:00029d98       ??_R3CM4A1@@8              100bdd98     wpn_m4a1.obj
 0002:00029da8       ??_R2CM4A1@@8              100bdda8     wpn_m4a1.obj
 0002:00029dc4       ??_R1A@?0A@EA@CM4A1@@8     100bddc4     wpn_m4a1.obj
 0002:00029de0       ??_R4CMAC10@@6B@           100bdde0     wpn_mac10.obj
 0002:00029df4       ??_R3CMAC10@@8             100bddf4     wpn_mac10.obj
 0002:00029e04       ??_R2CMAC10@@8             100bde04     wpn_mac10.obj
 0002:00029e20       ??_R1A@?0A@EA@CMAC10@@8    100bde20     wpn_mac10.obj
 0002:00029e3c       ??_R4CMP5N@@6B@            100bde3c     wpn_mp5navy.obj
 0002:00029e50       ??_R3CMP5N@@8              100bde50     wpn_mp5navy.obj
 0002:00029e60       ??_R2CMP5N@@8              100bde60     wpn_mp5navy.obj
 0002:00029e7c       ??_R1A@?0A@EA@CMP5N@@8     100bde7c     wpn_mp5navy.obj
 0002:00029e98       ??_R4CP228@@6B@            100bde98     wpn_p228.obj
 0002:00029eac       ??_R3CP228@@8              100bdeac     wpn_p228.obj
 0002:00029ebc       ??_R2CP228@@8              100bdebc     wpn_p228.obj
 0002:00029ed8       ??_R1A@?0A@EA@CP228@@8     100bded8     wpn_p228.obj
 0002:00029ef4       ??_R4CP90@@6B@             100bdef4     wpn_p90.obj
 0002:00029f08       ??_R3CP90@@8               100bdf08     wpn_p90.obj
 0002:00029f18       ??_R2CP90@@8               100bdf18     wpn_p90.obj
 0002:00029f34       ??_R1A@?0A@EA@CP90@@8      100bdf34     wpn_p90.obj
 0002:00029f50       ??_R4CSCOUT@@6B@           100bdf50     wpn_scout.obj
 0002:00029f64       ??_R3CSCOUT@@8             100bdf64     wpn_scout.obj
 0002:00029f74       ??_R2CSCOUT@@8             100bdf74     wpn_scout.obj
 0002:00029f90       ??_R1A@?0A@EA@CSCOUT@@8    100bdf90     wpn_scout.obj
 0002:00029fac       ??_R4CSG550@@6B@           100bdfac     wpn_sg550.obj
 0002:00029fc0       ??_R3CSG550@@8             100bdfc0     wpn_sg550.obj
 0002:00029fd0       ??_R2CSG550@@8             100bdfd0     wpn_sg550.obj
 0002:00029fec       ??_R1A@?0A@EA@CSG550@@8    100bdfec     wpn_sg550.obj
 0002:0002a008       ??_R4CSG552@@6B@           100be008     wpn_sg552.obj
 0002:0002a01c       ??_R3CSG552@@8             100be01c     wpn_sg552.obj
 0002:0002a02c       ??_R2CSG552@@8             100be02c     wpn_sg552.obj
 0002:0002a048       ??_R1A@?0A@EA@CSG552@@8    100be048     wpn_sg552.obj
 0002:0002a064       ??_R4CSmokeGrenade@@6B@    100be064     wpn_smokegrenade.obj
 0002:0002a078       ??_R3CSmokeGrenade@@8      100be078     wpn_smokegrenade.obj
 0002:0002a088       ??_R2CSmokeGrenade@@8      100be088     wpn_smokegrenade.obj
 0002:0002a0a4       ??_R1A@?0A@EA@CSmokeGrenade@@8 100be0a4     wpn_smokegrenade.obj
 0002:0002a0c0       ??_R4CTMP@@6B@             100be0c0     wpn_tmp.obj
 0002:0002a0d4       ??_R3CTMP@@8               100be0d4     wpn_tmp.obj
 0002:0002a0e4       ??_R2CTMP@@8               100be0e4     wpn_tmp.obj
 0002:0002a100       ??_R1A@?0A@EA@CTMP@@8      100be100     wpn_tmp.obj
 0002:0002a11c       ??_R4CUMP45@@6B@           100be11c     wpn_ump45.obj
 0002:0002a130       ??_R3CUMP45@@8             100be130     wpn_ump45.obj
 0002:0002a140       ??_R2CUMP45@@8             100be140     wpn_ump45.obj
 0002:0002a15c       ??_R1A@?0A@EA@CUMP45@@8    100be15c     wpn_ump45.obj
 0002:0002a178       ??_R4CUSP@@6B@             100be178     wpn_usp.obj
 0002:0002a18c       ??_R3CUSP@@8               100be18c     wpn_usp.obj
 0002:0002a19c       ??_R2CUSP@@8               100be19c     wpn_usp.obj
 0002:0002a1b8       ??_R1A@?0A@EA@CUSP@@8      100be1b8     wpn_usp.obj
 0002:0002a1d4       ??_R4CXM1014@@6B@          100be1d4     wpn_xm1014.obj
 0002:0002a1e8       ??_R3CXM1014@@8            100be1e8     wpn_xm1014.obj
 0002:0002a1f8       ??_R2CXM1014@@8            100be1f8     wpn_xm1014.obj
 0002:0002a214       ??_R1A@?0A@EA@CXM1014@@8   100be214     wpn_xm1014.obj
 0002:0002a230       ??_R4type_info@@6B@        100be230     LIBCMT:std_type_info_static.obj
 0002:0002a244       ??_R3type_info@@8          100be244     LIBCMT:std_type_info_static.obj
 0002:0002a254       ??_R2type_info@@8          100be254     LIBCMT:std_type_info_static.obj
 0002:0002a25c       ??_R1A@?0A@EA@type_info@@8 100be25c     LIBCMT:std_type_info_static.obj
 0002:0002a278       ??_R4exception@std@@6B@    100be278     LIBCMT:throw_bad_alloc.obj
 0002:0002a28c       ??_R3exception@std@@8      100be28c     LIBCMT:throw_bad_alloc.obj
 0002:0002a29c       ??_R2exception@std@@8      100be29c     LIBCMT:throw_bad_alloc.obj
 0002:0002a2a4       ??_R1A@?0A@EA@exception@std@@8 100be2a4     LIBCMT:throw_bad_alloc.obj
 0002:0002a2c0       ??_R4bad_alloc@std@@6B@    100be2c0     LIBCMT:throw_bad_alloc.obj
 0002:0002a2d4       ??_R3bad_alloc@std@@8      100be2d4     LIBCMT:throw_bad_alloc.obj
 0002:0002a2e4       ??_R2bad_alloc@std@@8      100be2e4     LIBCMT:throw_bad_alloc.obj
 0002:0002a2f0       ??_R1A@?0A@EA@bad_alloc@std@@8 100be2f0     LIBCMT:throw_bad_alloc.obj
 0002:0002a30c       ??_R4bad_array_new_length@std@@6B@ 100be30c     LIBCMT:throw_bad_alloc.obj
 0002:0002a320       ??_R3bad_array_new_length@std@@8 100be320     LIBCMT:throw_bad_alloc.obj
 0002:0002a330       ??_R2bad_array_new_length@std@@8 100be330     LIBCMT:throw_bad_alloc.obj
 0002:0002a340       ??_R1A@?0A@EA@bad_array_new_length@std@@8 100be340     LIBCMT:throw_bad_alloc.obj
 0002:0002a35c       ??_R4bad_exception@std@@6B@ 100be35c     libvcruntime:frame.obj
 0002:0002a370       ??_R3bad_exception@std@@8  100be370     libvcruntime:frame.obj
 0002:0002a380       ??_R2bad_exception@std@@8  100be380     libvcruntime:frame.obj
 0002:0002a38c       ??_R1A@?0A@EA@bad_exception@std@@8 100be38c     libvcruntime:frame.obj
 0002:0002a3b0       ___safe_se_handler_table   100be3b0     <linker-defined>
 0002:0002a720       ___rtc_iaa                 100be720     LIBCMT:_initsect_.obj
 0002:0002a724       ___rtc_izz                 100be724     LIBCMT:_initsect_.obj
 0002:0002a728       ___rtc_taa                 100be728     LIBCMT:_initsect_.obj
 0002:0002a72c       ___rtc_tzz                 100be72c     LIBCMT:_initsect_.obj
 0002:0002a94c       __TI2?AVbad_alloc@std@@    100be94c     LIBCMT:throw_bad_alloc.obj
 0002:0002a95c       __CTA2?AVbad_alloc@std@@   100be95c     LIBCMT:throw_bad_alloc.obj
 0002:0002a968       __CT??_R0?AVbad_alloc@std@@@8??0bad_alloc@std@@QAE@ABV01@@Z12 100be968     LIBCMT:throw_bad_alloc.obj
 0002:0002a984       __CT??_R0?AVexception@std@@@8??0exception@std@@QAE@ABV01@@Z12 100be984     LIBCMT:throw_bad_alloc.obj
 0002:0002a9a0       __TI3?AVbad_array_new_length@std@@ 100be9a0     LIBCMT:throw_bad_alloc.obj
 0002:0002a9b0       __CTA3?AVbad_array_new_length@std@@ 100be9b0     LIBCMT:throw_bad_alloc.obj
 0002:0002a9c0       __CT??_R0?AVbad_array_new_length@std@@@8??0bad_array_new_length@std@@QAE@ABV01@@Z12 100be9c0     LIBCMT:throw_bad_alloc.obj
 0002:0002aac4       __TI2?AVbad_exception@std@@ 100beac4     libvcruntime:frame.obj
 0002:0002aad4       __CTA2?AVbad_exception@std@@ 100bead4     libvcruntime:frame.obj
 0002:0002aae0       __CT??_R0?AVbad_exception@std@@@8??0bad_exception@std@@QAE@ABV01@@Z12 100beae0     libvcruntime:frame.obj
 0002:0002de7c       __IMPORT_DESCRIPTOR_KERNEL32 100c1e7c     kernel32:KERNEL32.dll
 0002:0002de90       __NULL_IMPORT_DESCRIPTOR   100c1e90     kernel32:KERNEL32.dll
 0003:00000000       ?voice_serverdebug@@3Ucvar_s@@A 100c3000     voice_gamemgr.obj
 0003:00000014       ?sv_alltalk@@3Ucvar_s@@A   100c3014     voice_gamemgr.obj
 0003:00000088       _nanmask                   100c3088     pm_math.obj
 0003:000000d8       ?m_SaveData@CAirtank@@2PAUTYPEDESCRIPTION@@A 100c30d8     airtank.obj
 0003:000000e8       ?m_SaveData@CBaseAnimating@@2PAUTYPEDESCRIPTION@@A 100c30e8     animating.obj
 0003:00000138       ?activity_map@@3PAUactivity_map_t@@A 100c3138     animation.obj
 0003:00000460       ?svBlending@@3Usv_blending_interface_s@@A 100c3460     animation.obj
 0003:00000468       ?m_SaveData@CFuncRotating@@2PAUTYPEDESCRIPTION@@A 100c3468     bmodels.obj
 0003:000004b8       ?m_SaveData@CPendulum@@2PAUTYPEDESCRIPTION@@A 100c34b8     bmodels.obj
 0003:00000538       ?m_SaveData@CMomentaryRotButton@@2PAUTYPEDESCRIPTION@@A 100c3538     buttons.obj
 0003:00000598       ?m_SaveData@CEnvSpark@@2PAUTYPEDESCRIPTION@@A 100c3598     buttons.obj
 0003:000005a8       ?m_SaveData@CMultiSource@@2PAUTYPEDESCRIPTION@@A 100c35a8     buttons.obj
 0003:000005e8       ?m_SaveData@CBaseButton@@2PAUTYPEDESCRIPTION@@A 100c35e8     buttons.obj
 0003:00000668       ?m_SaveData@CEnvGlobal@@2PAUTYPEDESCRIPTION@@A 100c3668     buttons.obj
 0003:00000698       ?m_SaveData@CBaseEntity@@2PAUTYPEDESCRIPTION@@A 100c3698     cbase.obj
 0003:000007c8       ?sPlayerModelFiles@@3PAPADA 100c37c8     client.obj
 0003:000007f0       ?g_bClientPrintEnable@@3HA 100c37f0     client.obj
 0003:00000940       ?custom_entity_field_alias@@3PAUentity_field_alias_t@@A 100c3940     client.obj
 0003:00000a88       ?m_SaveData@CMomentaryDoor@@2PAUTYPEDESCRIPTION@@A 100c3a88     doors.obj
 0003:00000a98       ?m_SaveData@CBaseDoor@@2PAUTYPEDESCRIPTION@@A 100c3a98     doors.obj
 0003:00000b08       ?m_SaveData@CSprite@@2PAUTYPEDESCRIPTION@@A 100c3b08     effects.obj
 0003:00000b28       ?m_SaveData@CGlow@@2PAUTYPEDESCRIPTION@@A 100c3b28     effects.obj
 0003:00000b48       ?m_SaveData@CLaser@@2PAUTYPEDESCRIPTION@@A 100c3b48     effects.obj
 0003:00000b78       ?m_SaveData@CGibShooter@@2PAUTYPEDESCRIPTION@@A 100c3b78     effects.obj
 0003:00000be8       ?m_SaveData@CBubbling@@2PAUTYPEDESCRIPTION@@A 100c3be8     effects.obj
 0003:00000c18       ?m_SaveData@CLightning@@2PAUTYPEDESCRIPTION@@A 100c3c18     effects.obj
 0003:00000ce8       ?m_SaveData@CEnvExplosion@@2PAUTYPEDESCRIPTION@@A 100c3ce8     explode.obj
 0003:00000d08       ?pSoundsWood@CBreakable@@2PAPBDA 100c3d08     func_break.obj
 0003:00000d14       ?pSoundsFlesh@CBreakable@@2PAPBDA 100c3d14     func_break.obj
 0003:00000d2c       ?pSoundsGlass@CBreakable@@2PAPBDA 100c3d2c     func_break.obj
 0003:00000d38       ?pSoundsMetal@CBreakable@@2PAPBDA 100c3d38     func_break.obj
 0003:00000d44       ?pSoundsConcrete@CBreakable@@2PAPBDA 100c3d44     func_break.obj
 0003:00000d50       ?pSpawnObjects@CBreakable@@2PAPBDA 100c3d50     func_break.obj
 0003:00000dd0       ?m_SaveData@CBreakable@@2PAUTYPEDESCRIPTION@@A 100c3dd0     func_break.obj
 0003:00000e20       ?m_SaveData@CPushable@@2PAUTYPEDESCRIPTION@@A 100c3e20     func_break.obj
 0003:00000e40       ?m_soundNames@CPushable@@2PAPADA 100c3e40     func_break.obj
 0003:00000e50       ?m_SaveData@CFuncTank@@2PAUTYPEDESCRIPTION@@A 100c3e50     func_tank.obj
 0003:00000ff0       ?m_SaveData@CFuncTankLaser@@2PAUTYPEDESCRIPTION@@A 100c3ff0     func_tank.obj
 0003:00001010       ?m_SaveData@CFuncTankControls@@2PAUTYPEDESCRIPTION@@A 100c4010     func_tank.obj
 0003:0000105c       ?displaysoundlist@@3Ucvar_s@@A 100c405c     game.obj
 0003:00001070       ?timelimit@@3Ucvar_s@@A    100c4070     game.obj
 0003:00001084       ?friendlyfire@@3Ucvar_s@@A 100c4084     game.obj
 0003:00001098       ?flashlight@@3Ucvar_s@@A   100c4098     game.obj
 0003:000010ac       ?decalfrequency@@3Ucvar_s@@A 100c40ac     game.obj
 0003:000010c0       ?allowmonsters@@3Ucvar_s@@A 100c40c0     game.obj
 0003:000010d4       ?roundtime@@3Ucvar_s@@A    100c40d4     game.obj
 0003:000010e8       ?buytime@@3Ucvar_s@@A      100c40e8     game.obj
 0003:000010fc       ?freezetime@@3Ucvar_s@@A   100c40fc     game.obj
 0003:00001110       ?c4timer@@3Ucvar_s@@A      100c4110     game.obj
 0003:00001124       ?ghostfrequency@@3Ucvar_s@@A 100c4124     game.obj
 0003:00001138       ?autokick@@3Ucvar_s@@A     100c4138     game.obj
 0003:0000114c       ?restartround@@3Ucvar_s@@A 100c414c     game.obj
 0003:00001160       ?sv_restart@@3Ucvar_s@@A   100c4160     game.obj
 0003:00001174       ?limitteams@@3Ucvar_s@@A   100c4174     game.obj
 0003:00001188       ?autoteambalance@@3Ucvar_s@@A 100c4188     game.obj
 0003:0000119c       ?tkpunish@@3Ucvar_s@@A     100c419c     game.obj
 0003:000011b0       ?hostagepenalty@@3Ucvar_s@@A 100c41b0     game.obj
 0003:000011c4       ?mirrordamage@@3Ucvar_s@@A 100c41c4     game.obj
 0003:000011d8       ?logmessages@@3Ucvar_s@@A  100c41d8     game.obj
 0003:000011ec       ?forcecamera@@3Ucvar_s@@A  100c41ec     game.obj
 0003:00001200       ?forcechasecam@@3Ucvar_s@@A 100c4200     game.obj
 0003:00001214       ?mapvoteratio@@3Ucvar_s@@A 100c4214     game.obj
 0003:00001228       ?logdetail@@3Ucvar_s@@A    100c4228     game.obj
 0003:0000123c       ?startmoney@@3Ucvar_s@@A   100c423c     game.obj
 0003:00001250       ?maxrounds@@3Ucvar_s@@A    100c4250     game.obj
 0003:00001264       ?fadetoblack@@3Ucvar_s@@A  100c4264     game.obj
 0003:00001278       ?playerid@@3Ucvar_s@@A     100c4278     game.obj
 0003:0000128c       ?winlimit@@3Ucvar_s@@A     100c428c     game.obj
 0003:000012a0       ?allow_spectators@@3Ucvar_s@@A 100c42a0     game.obj
 0003:000012b4       ?mp_chattime@@3Ucvar_s@@A  100c42b4     game.obj
 0003:000012c8       ?kick_percent@@3Ucvar_s@@A 100c42c8     game.obj
 0003:000012dc       ?fragsleft@@3Ucvar_s@@A    100c42dc     game.obj
 0003:000012f0       ?timeleft@@3Ucvar_s@@A     100c42f0     game.obj
 0003:00001304       ?humans_join_team@@3Ucvar_s@@A 100c4304     game.obj
 0003:00001318       ?windifference@@3Ucvar_s@@A 100c4318     game.obj
 0003:0000132c       ?sk_agrunt_health1@@3Ucvar_s@@A 100c432c     game.obj
 0003:00001340       ?sk_agrunt_health2@@3Ucvar_s@@A 100c4340     game.obj
 0003:00001354       ?sk_agrunt_health3@@3Ucvar_s@@A 100c4354     game.obj
 0003:00001368       ?sk_agrunt_dmg_punch1@@3Ucvar_s@@A 100c4368     game.obj
 0003:0000137c       ?sk_agrunt_dmg_punch2@@3Ucvar_s@@A 100c437c     game.obj
 0003:00001390       ?sk_agrunt_dmg_punch3@@3Ucvar_s@@A 100c4390     game.obj
 0003:000013a4       ?sk_apache_health1@@3Ucvar_s@@A 100c43a4     game.obj
 0003:000013b8       ?sk_apache_health2@@3Ucvar_s@@A 100c43b8     game.obj
 0003:000013cc       ?sk_apache_health3@@3Ucvar_s@@A 100c43cc     game.obj
 0003:000013e0       ?sk_barney_health1@@3Ucvar_s@@A 100c43e0     game.obj
 0003:000013f4       ?sk_barney_health2@@3Ucvar_s@@A 100c43f4     game.obj
 0003:00001408       ?sk_barney_health3@@3Ucvar_s@@A 100c4408     game.obj
 0003:0000141c       ?sk_bullsquid_health1@@3Ucvar_s@@A 100c441c     game.obj
 0003:00001430       ?sk_bullsquid_health2@@3Ucvar_s@@A 100c4430     game.obj
 0003:00001444       ?sk_bullsquid_health3@@3Ucvar_s@@A 100c4444     game.obj
 0003:00001458       ?sk_bullsquid_dmg_bite1@@3Ucvar_s@@A 100c4458     game.obj
 0003:0000146c       ?sk_bullsquid_dmg_bite2@@3Ucvar_s@@A 100c446c     game.obj
 0003:00001480       ?sk_bullsquid_dmg_bite3@@3Ucvar_s@@A 100c4480     game.obj
 0003:00001494       ?sk_bullsquid_dmg_whip1@@3Ucvar_s@@A 100c4494     game.obj
 0003:000014a8       ?sk_bullsquid_dmg_whip2@@3Ucvar_s@@A 100c44a8     game.obj
 0003:000014bc       ?sk_bullsquid_dmg_whip3@@3Ucvar_s@@A 100c44bc     game.obj
 0003:000014d0       ?sk_bullsquid_dmg_spit1@@3Ucvar_s@@A 100c44d0     game.obj
 0003:000014e4       ?sk_bullsquid_dmg_spit2@@3Ucvar_s@@A 100c44e4     game.obj
 0003:000014f8       ?sk_bullsquid_dmg_spit3@@3Ucvar_s@@A 100c44f8     game.obj
 0003:0000150c       ?sk_bigmomma_health_factor1@@3Ucvar_s@@A 100c450c     game.obj
 0003:00001520       ?sk_bigmomma_health_factor2@@3Ucvar_s@@A 100c4520     game.obj
 0003:00001534       ?sk_bigmomma_health_factor3@@3Ucvar_s@@A 100c4534     game.obj
 0003:00001548       ?sk_bigmomma_dmg_slash1@@3Ucvar_s@@A 100c4548     game.obj
 0003:0000155c       ?sk_bigmomma_dmg_slash2@@3Ucvar_s@@A 100c455c     game.obj
 0003:00001570       ?sk_bigmomma_dmg_slash3@@3Ucvar_s@@A 100c4570     game.obj
 0003:00001584       ?sk_bigmomma_dmg_blast1@@3Ucvar_s@@A 100c4584     game.obj
 0003:00001598       ?sk_bigmomma_dmg_blast2@@3Ucvar_s@@A 100c4598     game.obj
 0003:000015ac       ?sk_bigmomma_dmg_blast3@@3Ucvar_s@@A 100c45ac     game.obj
 0003:000015c0       ?sk_bigmomma_radius_blast1@@3Ucvar_s@@A 100c45c0     game.obj
 0003:000015d4       ?sk_bigmomma_radius_blast2@@3Ucvar_s@@A 100c45d4     game.obj
 0003:000015e8       ?sk_bigmomma_radius_blast3@@3Ucvar_s@@A 100c45e8     game.obj
 0003:000015fc       ?sk_gargantua_health1@@3Ucvar_s@@A 100c45fc     game.obj
 0003:00001610       ?sk_gargantua_health2@@3Ucvar_s@@A 100c4610     game.obj
 0003:00001624       ?sk_gargantua_health3@@3Ucvar_s@@A 100c4624     game.obj
 0003:00001638       ?sk_gargantua_dmg_slash1@@3Ucvar_s@@A 100c4638     game.obj
 0003:0000164c       ?sk_gargantua_dmg_slash2@@3Ucvar_s@@A 100c464c     game.obj
 0003:00001660       ?sk_gargantua_dmg_slash3@@3Ucvar_s@@A 100c4660     game.obj
 0003:00001674       ?sk_gargantua_dmg_fire1@@3Ucvar_s@@A 100c4674     game.obj
 0003:00001688       ?sk_gargantua_dmg_fire2@@3Ucvar_s@@A 100c4688     game.obj
 0003:0000169c       ?sk_gargantua_dmg_fire3@@3Ucvar_s@@A 100c469c     game.obj
 0003:000016b0       ?sk_gargantua_dmg_stomp1@@3Ucvar_s@@A 100c46b0     game.obj
 0003:000016c4       ?sk_gargantua_dmg_stomp2@@3Ucvar_s@@A 100c46c4     game.obj
 0003:000016d8       ?sk_gargantua_dmg_stomp3@@3Ucvar_s@@A 100c46d8     game.obj
 0003:000016ec       ?sk_hassassin_health1@@3Ucvar_s@@A 100c46ec     game.obj
 0003:00001700       ?sk_hassassin_health2@@3Ucvar_s@@A 100c4700     game.obj
 0003:00001714       ?sk_hassassin_health3@@3Ucvar_s@@A 100c4714     game.obj
 0003:00001728       ?sk_headcrab_health1@@3Ucvar_s@@A 100c4728     game.obj
 0003:0000173c       ?sk_headcrab_health2@@3Ucvar_s@@A 100c473c     game.obj
 0003:00001750       ?sk_headcrab_health3@@3Ucvar_s@@A 100c4750     game.obj
 0003:00001764       ?sk_headcrab_dmg_bite1@@3Ucvar_s@@A 100c4764     game.obj
 0003:00001778       ?sk_headcrab_dmg_bite2@@3Ucvar_s@@A 100c4778     game.obj
 0003:0000178c       ?sk_headcrab_dmg_bite3@@3Ucvar_s@@A 100c478c     game.obj
 0003:000017a0       ?sk_hgrunt_health1@@3Ucvar_s@@A 100c47a0     game.obj
 0003:000017b4       ?sk_hgrunt_health2@@3Ucvar_s@@A 100c47b4     game.obj
 0003:000017c8       ?sk_hgrunt_health3@@3Ucvar_s@@A 100c47c8     game.obj
 0003:000017dc       ?sk_hgrunt_kick1@@3Ucvar_s@@A 100c47dc     game.obj
 0003:000017f0       ?sk_hgrunt_kick2@@3Ucvar_s@@A 100c47f0     game.obj
 0003:00001804       ?sk_hgrunt_kick3@@3Ucvar_s@@A 100c4804     game.obj
 0003:00001818       ?sk_hgrunt_pellets1@@3Ucvar_s@@A 100c4818     game.obj
 0003:0000182c       ?sk_hgrunt_pellets2@@3Ucvar_s@@A 100c482c     game.obj
 0003:00001840       ?sk_hgrunt_pellets3@@3Ucvar_s@@A 100c4840     game.obj
 0003:00001854       ?sk_hgrunt_gspeed1@@3Ucvar_s@@A 100c4854     game.obj
 0003:00001868       ?sk_hgrunt_gspeed2@@3Ucvar_s@@A 100c4868     game.obj
 0003:0000187c       ?sk_hgrunt_gspeed3@@3Ucvar_s@@A 100c487c     game.obj
 0003:00001890       ?sk_houndeye_health1@@3Ucvar_s@@A 100c4890     game.obj
 0003:000018a4       ?sk_houndeye_health2@@3Ucvar_s@@A 100c48a4     game.obj
 0003:000018b8       ?sk_houndeye_health3@@3Ucvar_s@@A 100c48b8     game.obj
 0003:000018cc       ?sk_houndeye_dmg_blast1@@3Ucvar_s@@A 100c48cc     game.obj
 0003:000018e0       ?sk_houndeye_dmg_blast2@@3Ucvar_s@@A 100c48e0     game.obj
 0003:000018f4       ?sk_houndeye_dmg_blast3@@3Ucvar_s@@A 100c48f4     game.obj
 0003:00001908       ?sk_islave_health1@@3Ucvar_s@@A 100c4908     game.obj
 0003:0000191c       ?sk_islave_health2@@3Ucvar_s@@A 100c491c     game.obj
 0003:00001930       ?sk_islave_health3@@3Ucvar_s@@A 100c4930     game.obj
 0003:00001944       ?sk_islave_dmg_claw1@@3Ucvar_s@@A 100c4944     game.obj
 0003:00001958       ?sk_islave_dmg_claw2@@3Ucvar_s@@A 100c4958     game.obj
 0003:0000196c       ?sk_islave_dmg_claw3@@3Ucvar_s@@A 100c496c     game.obj
 0003:00001980       ?sk_islave_dmg_clawrake1@@3Ucvar_s@@A 100c4980     game.obj
 0003:00001994       ?sk_islave_dmg_clawrake2@@3Ucvar_s@@A 100c4994     game.obj
 0003:000019a8       ?sk_islave_dmg_clawrake3@@3Ucvar_s@@A 100c49a8     game.obj
 0003:000019bc       ?sk_islave_dmg_zap1@@3Ucvar_s@@A 100c49bc     game.obj
 0003:000019d0       ?sk_islave_dmg_zap2@@3Ucvar_s@@A 100c49d0     game.obj
 0003:000019e4       ?sk_islave_dmg_zap3@@3Ucvar_s@@A 100c49e4     game.obj
 0003:000019f8       ?sk_ichthyosaur_health1@@3Ucvar_s@@A 100c49f8     game.obj
 0003:00001a0c       ?sk_ichthyosaur_health2@@3Ucvar_s@@A 100c4a0c     game.obj
 0003:00001a20       ?sk_ichthyosaur_health3@@3Ucvar_s@@A 100c4a20     game.obj
 0003:00001a34       ?sk_ichthyosaur_shake1@@3Ucvar_s@@A 100c4a34     game.obj
 0003:00001a48       ?sk_ichthyosaur_shake2@@3Ucvar_s@@A 100c4a48     game.obj
 0003:00001a5c       ?sk_ichthyosaur_shake3@@3Ucvar_s@@A 100c4a5c     game.obj
 0003:00001a70       ?sk_leech_health1@@3Ucvar_s@@A 100c4a70     game.obj
 0003:00001a84       ?sk_leech_health2@@3Ucvar_s@@A 100c4a84     game.obj
 0003:00001a98       ?sk_leech_health3@@3Ucvar_s@@A 100c4a98     game.obj
 0003:00001aac       ?sk_leech_dmg_bite1@@3Ucvar_s@@A 100c4aac     game.obj
 0003:00001ac0       ?sk_leech_dmg_bite2@@3Ucvar_s@@A 100c4ac0     game.obj
 0003:00001ad4       ?sk_leech_dmg_bite3@@3Ucvar_s@@A 100c4ad4     game.obj
 0003:00001ae8       ?sk_controller_health1@@3Ucvar_s@@A 100c4ae8     game.obj
 0003:00001afc       ?sk_controller_health2@@3Ucvar_s@@A 100c4afc     game.obj
 0003:00001b10       ?sk_controller_health3@@3Ucvar_s@@A 100c4b10     game.obj
 0003:00001b24       ?sk_controller_dmgzap1@@3Ucvar_s@@A 100c4b24     game.obj
 0003:00001b38       ?sk_controller_dmgzap2@@3Ucvar_s@@A 100c4b38     game.obj
 0003:00001b4c       ?sk_controller_dmgzap3@@3Ucvar_s@@A 100c4b4c     game.obj
 0003:00001b60       ?sk_controller_speedball1@@3Ucvar_s@@A 100c4b60     game.obj
 0003:00001b74       ?sk_controller_speedball2@@3Ucvar_s@@A 100c4b74     game.obj
 0003:00001b88       ?sk_controller_speedball3@@3Ucvar_s@@A 100c4b88     game.obj
 0003:00001b9c       ?sk_controller_dmgball1@@3Ucvar_s@@A 100c4b9c     game.obj
 0003:00001bb0       ?sk_controller_dmgball2@@3Ucvar_s@@A 100c4bb0     game.obj
 0003:00001bc4       ?sk_controller_dmgball3@@3Ucvar_s@@A 100c4bc4     game.obj
 0003:00001bd8       ?sk_nihilanth_health1@@3Ucvar_s@@A 100c4bd8     game.obj
 0003:00001bec       ?sk_nihilanth_health2@@3Ucvar_s@@A 100c4bec     game.obj
 0003:00001c00       ?sk_nihilanth_health3@@3Ucvar_s@@A 100c4c00     game.obj
 0003:00001c14       ?sk_nihilanth_zap1@@3Ucvar_s@@A 100c4c14     game.obj
 0003:00001c28       ?sk_nihilanth_zap2@@3Ucvar_s@@A 100c4c28     game.obj
 0003:00001c3c       ?sk_nihilanth_zap3@@3Ucvar_s@@A 100c4c3c     game.obj
 0003:00001c50       ?sk_scientist_health1@@3Ucvar_s@@A 100c4c50     game.obj
 0003:00001c64       ?sk_scientist_health2@@3Ucvar_s@@A 100c4c64     game.obj
 0003:00001c78       ?sk_scientist_health3@@3Ucvar_s@@A 100c4c78     game.obj
 0003:00001c8c       ?sk_snark_health1@@3Ucvar_s@@A 100c4c8c     game.obj
 0003:00001ca0       ?sk_snark_health2@@3Ucvar_s@@A 100c4ca0     game.obj
 0003:00001cb4       ?sk_snark_health3@@3Ucvar_s@@A 100c4cb4     game.obj
 0003:00001cc8       ?sk_snark_dmg_bite1@@3Ucvar_s@@A 100c4cc8     game.obj
 0003:00001cdc       ?sk_snark_dmg_bite2@@3Ucvar_s@@A 100c4cdc     game.obj
 0003:00001cf0       ?sk_snark_dmg_bite3@@3Ucvar_s@@A 100c4cf0     game.obj
 0003:00001d04       ?sk_snark_dmg_pop1@@3Ucvar_s@@A 100c4d04     game.obj
 0003:00001d18       ?sk_snark_dmg_pop2@@3Ucvar_s@@A 100c4d18     game.obj
 0003:00001d2c       ?sk_snark_dmg_pop3@@3Ucvar_s@@A 100c4d2c     game.obj
 0003:00001d40       ?sk_zombie_health1@@3Ucvar_s@@A 100c4d40     game.obj
 0003:00001d54       ?sk_zombie_health2@@3Ucvar_s@@A 100c4d54     game.obj
 0003:00001d68       ?sk_zombie_health3@@3Ucvar_s@@A 100c4d68     game.obj
 0003:00001d7c       ?sk_zombie_dmg_one_slash1@@3Ucvar_s@@A 100c4d7c     game.obj
 0003:00001d90       ?sk_zombie_dmg_one_slash2@@3Ucvar_s@@A 100c4d90     game.obj
 0003:00001da4       ?sk_zombie_dmg_one_slash3@@3Ucvar_s@@A 100c4da4     game.obj
 0003:00001db8       ?sk_zombie_dmg_both_slash1@@3Ucvar_s@@A 100c4db8     game.obj
 0003:00001dcc       ?sk_zombie_dmg_both_slash2@@3Ucvar_s@@A 100c4dcc     game.obj
 0003:00001de0       ?sk_zombie_dmg_both_slash3@@3Ucvar_s@@A 100c4de0     game.obj
 0003:00001df4       ?sk_turret_health1@@3Ucvar_s@@A 100c4df4     game.obj
 0003:00001e08       ?sk_turret_health2@@3Ucvar_s@@A 100c4e08     game.obj
 0003:00001e1c       ?sk_turret_health3@@3Ucvar_s@@A 100c4e1c     game.obj
 0003:00001e30       ?sk_miniturret_health1@@3Ucvar_s@@A 100c4e30     game.obj
 0003:00001e44       ?sk_miniturret_health2@@3Ucvar_s@@A 100c4e44     game.obj
 0003:00001e58       ?sk_miniturret_health3@@3Ucvar_s@@A 100c4e58     game.obj
 0003:00001e6c       ?sk_sentry_health1@@3Ucvar_s@@A 100c4e6c     game.obj
 0003:00001e80       ?sk_sentry_health2@@3Ucvar_s@@A 100c4e80     game.obj
 0003:00001e94       ?sk_sentry_health3@@3Ucvar_s@@A 100c4e94     game.obj
 0003:00001ea8       ?sk_plr_crowbar1@@3Ucvar_s@@A 100c4ea8     game.obj
 0003:00001ebc       ?sk_plr_crowbar2@@3Ucvar_s@@A 100c4ebc     game.obj
 0003:00001ed0       ?sk_plr_crowbar3@@3Ucvar_s@@A 100c4ed0     game.obj
 0003:00001ee4       ?sk_plr_9mm_bullet1@@3Ucvar_s@@A 100c4ee4     game.obj
 0003:00001ef8       ?sk_plr_9mm_bullet2@@3Ucvar_s@@A 100c4ef8     game.obj
 0003:00001f0c       ?sk_plr_9mm_bullet3@@3Ucvar_s@@A 100c4f0c     game.obj
 0003:00001f20       ?sk_plr_357_bullet1@@3Ucvar_s@@A 100c4f20     game.obj
 0003:00001f34       ?sk_plr_357_bullet2@@3Ucvar_s@@A 100c4f34     game.obj
 0003:00001f48       ?sk_plr_357_bullet3@@3Ucvar_s@@A 100c4f48     game.obj
 0003:00001f5c       ?sk_plr_9mmAR_bullet1@@3Ucvar_s@@A 100c4f5c     game.obj
 0003:00001f70       ?sk_plr_9mmAR_bullet2@@3Ucvar_s@@A 100c4f70     game.obj
 0003:00001f84       ?sk_plr_9mmAR_bullet3@@3Ucvar_s@@A 100c4f84     game.obj
 0003:00001f98       ?sk_plr_9mmAR_grenade1@@3Ucvar_s@@A 100c4f98     game.obj
 0003:00001fac       ?sk_plr_9mmAR_grenade2@@3Ucvar_s@@A 100c4fac     game.obj
 0003:00001fc0       ?sk_plr_9mmAR_grenade3@@3Ucvar_s@@A 100c4fc0     game.obj
 0003:00001fd4       ?sk_plr_buckshot1@@3Ucvar_s@@A 100c4fd4     game.obj
 0003:00001fe8       ?sk_plr_buckshot2@@3Ucvar_s@@A 100c4fe8     game.obj
 0003:00001ffc       ?sk_plr_buckshot3@@3Ucvar_s@@A 100c4ffc     game.obj
 0003:00002010       ?sk_plr_xbow_bolt_client1@@3Ucvar_s@@A 100c5010     game.obj
 0003:00002024       ?sk_plr_xbow_bolt_client2@@3Ucvar_s@@A 100c5024     game.obj
 0003:00002038       ?sk_plr_xbow_bolt_client3@@3Ucvar_s@@A 100c5038     game.obj
 0003:0000204c       ?sk_plr_xbow_bolt_monster1@@3Ucvar_s@@A 100c504c     game.obj
 0003:00002060       ?sk_plr_xbow_bolt_monster2@@3Ucvar_s@@A 100c5060     game.obj
 0003:00002074       ?sk_plr_xbow_bolt_monster3@@3Ucvar_s@@A 100c5074     game.obj
 0003:00002088       ?sk_plr_rpg1@@3Ucvar_s@@A  100c5088     game.obj
 0003:0000209c       ?sk_plr_rpg2@@3Ucvar_s@@A  100c509c     game.obj
 0003:000020b0       ?sk_plr_rpg3@@3Ucvar_s@@A  100c50b0     game.obj
 0003:000020c4       ?sk_plr_gauss1@@3Ucvar_s@@A 100c50c4     game.obj
 0003:000020d8       ?sk_plr_gauss2@@3Ucvar_s@@A 100c50d8     game.obj
 0003:000020ec       ?sk_plr_gauss3@@3Ucvar_s@@A 100c50ec     game.obj
 0003:00002100       ?sk_plr_egon_narrow1@@3Ucvar_s@@A 100c5100     game.obj
 0003:00002114       ?sk_plr_egon_narrow2@@3Ucvar_s@@A 100c5114     game.obj
 0003:00002128       ?sk_plr_egon_narrow3@@3Ucvar_s@@A 100c5128     game.obj
 0003:0000213c       ?sk_plr_egon_wide1@@3Ucvar_s@@A 100c513c     game.obj
 0003:00002150       ?sk_plr_egon_wide2@@3Ucvar_s@@A 100c5150     game.obj
 0003:00002164       ?sk_plr_egon_wide3@@3Ucvar_s@@A 100c5164     game.obj
 0003:00002178       ?sk_plr_hand_grenade1@@3Ucvar_s@@A 100c5178     game.obj
 0003:0000218c       ?sk_plr_hand_grenade2@@3Ucvar_s@@A 100c518c     game.obj
 0003:000021a0       ?sk_plr_hand_grenade3@@3Ucvar_s@@A 100c51a0     game.obj
 0003:000021b4       ?sk_plr_satchel1@@3Ucvar_s@@A 100c51b4     game.obj
 0003:000021c8       ?sk_plr_satchel2@@3Ucvar_s@@A 100c51c8     game.obj
 0003:000021dc       ?sk_plr_satchel3@@3Ucvar_s@@A 100c51dc     game.obj
 0003:000021f0       ?sk_plr_tripmine1@@3Ucvar_s@@A 100c51f0     game.obj
 0003:00002204       ?sk_plr_tripmine2@@3Ucvar_s@@A 100c5204     game.obj
 0003:00002218       ?sk_plr_tripmine3@@3Ucvar_s@@A 100c5218     game.obj
 0003:0000222c       ?sk_12mm_bullet1@@3Ucvar_s@@A 100c522c     game.obj
 0003:00002240       ?sk_12mm_bullet2@@3Ucvar_s@@A 100c5240     game.obj
 0003:00002254       ?sk_12mm_bullet3@@3Ucvar_s@@A 100c5254     game.obj
 0003:00002268       ?sk_9mmAR_bullet1@@3Ucvar_s@@A 100c5268     game.obj
 0003:0000227c       ?sk_9mmAR_bullet2@@3Ucvar_s@@A 100c527c     game.obj
 0003:00002290       ?sk_9mmAR_bullet3@@3Ucvar_s@@A 100c5290     game.obj
 0003:000022a4       ?sk_9mm_bullet1@@3Ucvar_s@@A 100c52a4     game.obj
 0003:000022b8       ?sk_9mm_bullet2@@3Ucvar_s@@A 100c52b8     game.obj
 0003:000022cc       ?sk_9mm_bullet3@@3Ucvar_s@@A 100c52cc     game.obj
 0003:000022e0       ?sk_hornet_dmg1@@3Ucvar_s@@A 100c52e0     game.obj
 0003:000022f4       ?sk_hornet_dmg2@@3Ucvar_s@@A 100c52f4     game.obj
 0003:00002308       ?sk_hornet_dmg3@@3Ucvar_s@@A 100c5308     game.obj
 0003:0000231c       ?sk_suitcharger1@@3Ucvar_s@@A 100c531c     game.obj
 0003:00002330       ?sk_suitcharger2@@3Ucvar_s@@A 100c5330     game.obj
 0003:00002344       ?sk_suitcharger3@@3Ucvar_s@@A 100c5344     game.obj
 0003:00002358       ?sk_battery1@@3Ucvar_s@@A  100c5358     game.obj
 0003:0000236c       ?sk_battery2@@3Ucvar_s@@A  100c536c     game.obj
 0003:00002380       ?sk_battery3@@3Ucvar_s@@A  100c5380     game.obj
 0003:00002394       ?sk_healthcharger1@@3Ucvar_s@@A 100c5394     game.obj
 0003:000023a8       ?sk_healthcharger2@@3Ucvar_s@@A 100c53a8     game.obj
 0003:000023bc       ?sk_healthcharger3@@3Ucvar_s@@A 100c53bc     game.obj
 0003:000023d0       ?sk_healthkit1@@3Ucvar_s@@A 100c53d0     game.obj
 0003:000023e4       ?sk_healthkit2@@3Ucvar_s@@A 100c53e4     game.obj
 0003:000023f8       ?sk_healthkit3@@3Ucvar_s@@A 100c53f8     game.obj
 0003:0000240c       ?sk_scientist_heal1@@3Ucvar_s@@A 100c540c     game.obj
 0003:00002420       ?sk_scientist_heal2@@3Ucvar_s@@A 100c5420     game.obj
 0003:00002434       ?sk_scientist_heal3@@3Ucvar_s@@A 100c5434     game.obj
 0003:00002448       ?sk_monster_head1@@3Ucvar_s@@A 100c5448     game.obj
 0003:0000245c       ?sk_monster_head2@@3Ucvar_s@@A 100c545c     game.obj
 0003:00002470       ?sk_monster_head3@@3Ucvar_s@@A 100c5470     game.obj
 0003:00002484       ?sk_monster_chest1@@3Ucvar_s@@A 100c5484     game.obj
 0003:00002498       ?sk_monster_chest2@@3Ucvar_s@@A 100c5498     game.obj
 0003:000024ac       ?sk_monster_chest3@@3Ucvar_s@@A 100c54ac     game.obj
 0003:000024c0       ?sk_monster_stomach1@@3Ucvar_s@@A 100c54c0     game.obj
 0003:000024d4       ?sk_monster_stomach2@@3Ucvar_s@@A 100c54d4     game.obj
 0003:000024e8       ?sk_monster_stomach3@@3Ucvar_s@@A 100c54e8     game.obj
 0003:000024fc       ?sk_monster_arm1@@3Ucvar_s@@A 100c54fc     game.obj
 0003:00002510       ?sk_monster_arm2@@3Ucvar_s@@A 100c5510     game.obj
 0003:00002524       ?sk_monster_arm3@@3Ucvar_s@@A 100c5524     game.obj
 0003:00002538       ?sk_monster_leg1@@3Ucvar_s@@A 100c5538     game.obj
 0003:0000254c       ?sk_monster_leg2@@3Ucvar_s@@A 100c554c     game.obj
 0003:00002560       ?sk_monster_leg3@@3Ucvar_s@@A 100c5560     game.obj
 0003:00002574       ?sk_player_head1@@3Ucvar_s@@A 100c5574     game.obj
 0003:00002588       ?sk_player_head2@@3Ucvar_s@@A 100c5588     game.obj
 0003:0000259c       ?sk_player_head3@@3Ucvar_s@@A 100c559c     game.obj
 0003:000025b0       ?sk_player_chest1@@3Ucvar_s@@A 100c55b0     game.obj
 0003:000025c4       ?sk_player_chest2@@3Ucvar_s@@A 100c55c4     game.obj
 0003:000025d8       ?sk_player_chest3@@3Ucvar_s@@A 100c55d8     game.obj
 0003:000025ec       ?sk_player_stomach1@@3Ucvar_s@@A 100c55ec     game.obj
 0003:00002600       ?sk_player_stomach2@@3Ucvar_s@@A 100c5600     game.obj
 0003:00002614       ?sk_player_stomach3@@3Ucvar_s@@A 100c5614     game.obj
 0003:00002628       ?sk_player_arm1@@3Ucvar_s@@A 100c5628     game.obj
 0003:0000263c       ?sk_player_arm2@@3Ucvar_s@@A 100c563c     game.obj
 0003:00002650       ?sk_player_arm3@@3Ucvar_s@@A 100c5650     game.obj
 0003:00002664       ?sk_player_leg1@@3Ucvar_s@@A 100c5664     game.obj
 0003:00002678       ?sk_player_leg2@@3Ucvar_s@@A 100c5678     game.obj
 0003:0000268c       ?sk_player_leg3@@3Ucvar_s@@A 100c568c     game.obj
 0003:000026a0       ?m_SaveData@CGrenade@@2PAUTYPEDESCRIPTION@@A 100c56a0     ggrenade.obj
 0003:00002790       ?m_SaveData@CWallHealth@@2PAUTYPEDESCRIPTION@@A 100c5790     healthkit.obj
 0003:000027e0       ?m_SaveData@CRecharge@@2PAUTYPEDESCRIPTION@@A 100c57e0     h_battery.obj
 0003:00002830       ?m_SaveData@CCycler@@2PAUTYPEDESCRIPTION@@A 100c5830     h_cycler.obj
 0003:00002840       ?m_SaveData@CCyclerSprite@@2PAUTYPEDESCRIPTION@@A 100c5840     h_cycler.obj
 0003:00002870       ?m_SaveData@CWreckage@@2PAUTYPEDESCRIPTION@@A 100c5870     h_cycler.obj
 0003:00002880       ?m_SaveData@CLight@@2PAUTYPEDESCRIPTION@@A 100c5880     lights.obj
 0003:000028a0       ?m_SaveData@CRuleEntity@@2PAUTYPEDESCRIPTION@@A 100c58a0     maprules.obj
 0003:000028b0       ?m_SaveData@CGameText@@2PAUTYPEDESCRIPTION@@A 100c58b0     maprules.obj
 0003:000028c0       ?m_SaveData@CGamePlayerZone@@2PAUTYPEDESCRIPTION@@A 100c58c0     maprules.obj
 0003:00002900       ?m_SaveData@CFuncMortarField@@2PAUTYPEDESCRIPTION@@A 100c5900     mortar.obj
 0003:00002c70       ?g_GameMgrHelper@@3VCCStrikeGameMgrHelper@@A 100c5c70     multiplay_gamerules.obj
 0003:00002c78       ?m_SaveData@CPathCorner@@2PAUTYPEDESCRIPTION@@A 100c5c78     pathcorner.obj
 0003:00002c88       ?m_SaveData@CPathTrack@@2PAUTYPEDESCRIPTION@@A 100c5c88     pathcorner.obj
 0003:00002ce0       ?m_SaveData@CFuncTrackTrain@@2PAUTYPEDESCRIPTION@@A 100c5ce0     plats.obj
 0003:00002da0       ?m_SaveData@CBasePlatTrain@@2PAUTYPEDESCRIPTION@@A 100c5da0     plats.obj
 0003:00002dd0       ?m_SaveData@CFuncPlatRot@@2PAUTYPEDESCRIPTION@@A 100c5dd0     plats.obj
 0003:00002df0       ?m_SaveData@CFuncTrain@@2PAUTYPEDESCRIPTION@@A 100c5df0     plats.obj
 0003:00002e20       ?m_SaveData@CFuncTrackChange@@2PAUTYPEDESCRIPTION@@A 100c5e20     plats.obj
 0003:00002eb0       ?m_SaveData@CGunTarget@@2PAUTYPEDESCRIPTION@@A 100c5eb0     plats.obj
 0003:00002ec0       ?m_szPoses@CDeadHEV@@2PAPADA 100c5ec0     player.obj
 0003:00002ed0       ?m_SaveData@CRevertSaved@@2PAUTYPEDESCRIPTION@@A 100c5ed0     player.obj
 0003:00002ef0       ?m_playerSaveData@CBasePlayer@@2PAUTYPEDESCRIPTION@@A 100c5ef0     player.obj
 0003:00003170       ?weaponAliasInfo@@3PAUWeaponAliasInfo@@A 100c6170     player.obj
 0003:000032a8       ?weaponBuyAliasInfo@@3PAUWeaponBuyAliasInfo@@A 100c62a8     player.obj
 0003:000034ac       ?gInitHUD@@3HA             100c64ac     player.obj
 0003:000034b0       ?weaponClassAliasInfo@@3PAUWeaponClassAliasInfo@@A 100c64b0     player.obj
 0003:00003628       ?g_autoBuyInfo@@3PAUAutoBuyInfoStruct@@A 100c6628     player.obj
 0003:000037d0       ?weaponInfo@@3PAUWeaponInfoStruct@@A 100c67d0     player.obj
 0003:00003b30       ?m_SaveData@CSpeaker@@2PAUTYPEDESCRIPTION@@A 100c6b30     sound.obj
 0003:00003b40       ?rgdpvpreset@@3PAUdynpitchvol@@A 100c6b40     sound.obj
 0003:000045d0       ?m_SaveData@CAmbientGeneric@@2PAUTYPEDESCRIPTION@@A 100c75d0     sound.obj
 0003:00004610       ?m_SaveData@CEnvSound@@2PAUTYPEDESCRIPTION@@A 100c7610     sound.obj
 0003:00004630       ?m_SaveData@CBaseDelay@@2PAUTYPEDESCRIPTION@@A 100c7630     subs.obj
 0003:00004650       ?m_SaveData@CBaseToggle@@2PAUTYPEDESCRIPTION@@A 100c7650     subs.obj
 0003:00004780       ?m_SaveData@CChangeLevel@@2PAUTYPEDESCRIPTION@@A 100c7780     triggers.obj
 0003:000047c0       ?m_SaveData@CBaseGrenCatch@@2PAUTYPEDESCRIPTION@@A 100c77c0     triggers.obj
 0003:00004810       ?m_SaveData@CFuncWeaponCheck@@2PAUTYPEDESCRIPTION@@A 100c7810     triggers.obj
 0003:00004870       ?m_SaveData@CTriggerChangeTarget@@2PAUTYPEDESCRIPTION@@A 100c7870     triggers.obj
 0003:00004880       ?m_SaveData@CTriggerCamera@@2PAUTYPEDESCRIPTION@@A 100c7880     triggers.obj
 0003:00004950       ?m_SaveData@CFrictionModifier@@2PAUTYPEDESCRIPTION@@A 100c7950     triggers.obj
 0003:00004960       ?m_SaveData@CAutoTrigger@@2PAUTYPEDESCRIPTION@@A 100c7960     triggers.obj
 0003:00004980       ?m_SaveData@CTriggerRelay@@2PAUTYPEDESCRIPTION@@A 100c7980     triggers.obj
 0003:00004990       ?m_SaveData@CMultiManager@@2PAUTYPEDESCRIPTION@@A 100c7990     triggers.obj
 0003:000049e0       ?seed_table@@3PAIA         100c79e0     util.obj
 0003:00004de0       ?gEntvarsDescription@@3PAUTYPEDESCRIPTION@@A 100c7de0     util.obj
 0003:00005388       ?m_SaveData@CFuncVehicle@@2PAUTYPEDESCRIPTION@@A 100c8388     vehicle.obj
 0003:00005448       ?m_SaveData@CBasePlayerItem@@2PAUTYPEDESCRIPTION@@A 100c8448     weapons.obj
 0003:00005478       ?m_SaveData@CBasePlayerWeapon@@2PAUTYPEDESCRIPTION@@A 100c8478     weapons.obj
 0003:000054e8       ?g_pModelNameLaser@@3PBDB  100c84e8     weapons.obj
 0003:000054f0       ?m_SaveData@CWeaponBox@@2PAUTYPEDESCRIPTION@@A 100c84f0     weapons.obj
 0003:00005530       ?gDecals@@3PAUDLL_DECALLIST@@A 100c8530     world.obj
 0003:00005680       ?m_SaveData@CGlobalState@@2PAUTYPEDESCRIPTION@@A 100c8680     world.obj
 0003:00005690       ?gGlobalEntitySaveData@@3PAUTYPEDESCRIPTION@@A 100c8690     world.obj
 0003:000056d0       __fltused                  100c86d0     LIBCMT:fltused.obj
 0003:000056d4       ___scrt_native_dllmain_reason 100c86d4     LIBCMT:utility.obj
 0003:000056e0       ___isa_enabled             100c86e0     LIBCMT:_cpu_disp_.obj
 0003:000056f0       ___security_cookie         100c86f0     LIBCMT:gs_cookie.obj
 0003:000056f4       ___security_cookie_complement 100c86f4     LIBCMT:gs_cookie.obj
 0003:00005710       __NLG_Destination          100c8710     libvcruntime:_exsup_.obj
 0003:00005720       ___abort_behavior          100c8720     libucrt:abort.obj
 0003:00005730       __iob                      100c8730     libucrt:_file.obj
 0003:000057d8       ___acrt_initial_locale_data 100c87d8     libucrt:nlsdata.obj
 0003:00005890       ___acrt_initial_locale_pointers 100c8890     libucrt:nlsdata.obj
 0003:00005898       ___acrt_wide_c_locale_string 100c8898     libucrt:nlsdata.obj
 0003:00005998       __mbctype                  100c8998     libucrt:mbctype.obj
 0003:00005aa0       __mbcasemap                100c8aa0     libucrt:mbctype.obj
 0003:00005ba0       ___acrt_initial_multibyte_data 100c8ba0     libucrt:mbctype.obj
 0003:00005dc0       ___acrt_current_multibyte_data 100c8dc0     libucrt:mbctype.obj
 0003:00005dd0       ___globallocalestatus      100c8dd0     libucrt:glstatus.obj
 0003:00005dd4       ___acrt_lconv_static_decimal 100c8dd4     libucrt:localeconv.obj
 0003:00005dd8       ___acrt_lconv_static_W_decimal 100c8dd8     libucrt:localeconv.obj
 0003:00005de0       ___acrt_lconv_c            100c8de0     libucrt:localeconv.obj
 0003:00005e30       ___dcrt_lowio_console_output_handle 100c8e30     libucrt:initcon.obj
 0003:00005e40       ??_R0?AVCVoiceGameMgr@@@8  100c8e40     voice_gamemgr.obj
 0003:00005e5c       ??_R0?AVCBaseEntity@@@8    100c8e5c     airtank.obj
 0003:00005e78       ??_R0?AVCBaseMonster@@@8   100c8e78     airtank.obj
 0003:00005e94       ??_R0?AVCBaseToggle@@@8    100c8e94     airtank.obj
 0003:00005eb0       ??_R0?AVCBaseAnimating@@@8 100c8eb0     airtank.obj
 0003:00005ed0       ??_R0?AVCBaseDelay@@@8     100c8ed0     airtank.obj
 0003:00005eec       ??_R0?AVCGrenade@@@8       100c8eec     airtank.obj
 0003:00005f04       ??_R0?AVCAirtank@@@8       100c8f04     airtank.obj
 0003:00005f1c       ??_R0?AVCBasePlayerAmmo@@@8 100c8f1c     ammo.obj
 0003:00005f3c       ??_R0?AVC9MMAmmo@@@8       100c8f3c     ammo.obj
 0003:00005f54       ??_R0?AVCBuckShotAmmo@@@8  100c8f54     ammo.obj
 0003:00005f70       ??_R0?AVC556NatoAmmo@@@8   100c8f70     ammo.obj
 0003:00005f8c       ??_R0?AVC556NatoBox@@@8    100c8f8c     ammo.obj
 0003:00005fa8       ??_R0?AVC762NatoAmmo@@@8   100c8fa8     ammo.obj
 0003:00005fc4       ??_R0?AVC45ACPAmmo@@@8     100c8fc4     ammo.obj
 0003:00005fe0       ??_R0?AVC50AEAmmo@@@8      100c8fe0     ammo.obj
 0003:00005ff8       ??_R0?AVC338MagnumAmmo@@@8 100c8ff8     ammo.obj
 0003:00006018       ??_R0?AVC57MMAmmo@@@8      100c9018     ammo.obj
 0003:00006030       ??_R0?AVC357SIGAmmo@@@8    100c9030     ammo.obj
 0003:0000604c       ??_R0?AVCFuncWall@@@8      100c904c     bmodels.obj
 0003:00006064       ??_R0?AVCFuncWallToggle@@@8 100c9064     bmodels.obj
 0003:00006084       ??_R0?AVCFuncConveyor@@@8  100c9084     bmodels.obj
 0003:000060a0       ??_R0?AVCFuncIllusionary@@@8 100c90a0     bmodels.obj
 0003:000060c0       ??_R0?AVCFuncMonsterClip@@@8 100c90c0     bmodels.obj
 0003:000060e0       ??_R0?AVCFuncRotating@@@8  100c90e0     bmodels.obj
 0003:000060fc       ??_R0?AVCPendulum@@@8      100c90fc     bmodels.obj
 0003:00006114       ??_R0?AVCPointEntity@@@8   100c9114     buttons.obj
 0003:00006130       ??_R0?AVCMultiSource@@@8   100c9130     buttons.obj
 0003:0000614c       ??_R0?AVCBaseButton@@@8    100c914c     buttons.obj
 0003:00006168       ??_R0?AVCEnvGlobal@@@8     100c9168     buttons.obj
 0003:00006184       ??_R0?AVCRotButton@@@8     100c9184     buttons.obj
 0003:000061a0       ??_R0?AVCMomentaryRotButton@@@8 100c91a0     buttons.obj
 0003:000061c4       ??_R0?AVCEnvSpark@@@8      100c91c4     buttons.obj
 0003:000061dc       ??_R0?AVCButtonTarget@@@8  100c91dc     buttons.obj
 0003:000061f8       ??_R0?AVCSave@@@8          100c91f8     cbase.obj
 0003:0000620c       ??_R0?AVCSaveRestoreBuffer@@@8 100c920c     cbase.obj
 0003:00006230       ??_R0?AVCRestore@@@8       100c9230     cbase.obj
 0003:00006248       ??_R0?AVCBasePlayer@@@8    100c9248     client.obj
 0003:00006264       ??_R0?AVCGib@@@8           100c9264     combat.obj
 0003:00006278       ??_R0?AVCBaseDoor@@@8      100c9278     doors.obj
 0003:00006290       ??_R0?AVCRotDoor@@@8       100c9290     doors.obj
 0003:000062a8       ??_R0?AVCMomentaryDoor@@@8 100c92a8     doors.obj
 0003:000062c8       ??_R0?AVCSprite@@@8        100c92c8     effects.obj
 0003:000062e0       ??_R0?AVCBeam@@@8          100c92e0     effects.obj
 0003:000062f4       ??_R0?AVCLaser@@@8         100c92f4     effects.obj
 0003:0000630c       ??_R0?AVCBubbling@@@8      100c930c     effects.obj
 0003:00006324       ??_R0?AVCLightning@@@8     100c9324     effects.obj
 0003:00006340       ??_R0?AVCGlow@@@8          100c9340     effects.obj
 0003:00006354       ??_R0?AVCBombGlow@@@8      100c9354     effects.obj
 0003:0000636c       ??_R0?AVCGibShooter@@@8    100c936c     effects.obj
 0003:00006388       ??_R0?AVCEnvShooter@@@8    100c9388     effects.obj
 0003:000063a4       ??_R0?AVCTestEffect@@@8    100c93a4     effects.obj
 0003:000063c0       ??_R0?AVCBlood@@@8         100c93c0     effects.obj
 0003:000063d8       ??_R0?AVCShake@@@8         100c93d8     effects.obj
 0003:000063f0       ??_R0?AVCFade@@@8          100c93f0     effects.obj
 0003:00006404       ??_R0?AVCMessage@@@8       100c9404     effects.obj
 0003:0000641c       ??_R0?AVCEnvFunnel@@@8     100c941c     effects.obj
 0003:00006438       ??_R0?AVCEnvBeverage@@@8   100c9438     effects.obj
 0003:00006454       ??_R0?AVCItemSoda@@@8      100c9454     effects.obj
 0003:0000646c       ??_R0?AVCShower@@@8        100c946c     explode.obj
 0003:00006484       ??_R0?AVCEnvExplosion@@@8  100c9484     explode.obj
 0003:000064a0       ??_R0?AVCBreakable@@@8     100c94a0     func_break.obj
 0003:000064bc       ??_R0?AVCPushable@@@8      100c94bc     func_break.obj
 0003:000064d4       ??_R0?AVCFuncTank@@@8      100c94d4     func_tank.obj
 0003:000064ec       ??_R0?AVCFuncTankGun@@@8   100c94ec     func_tank.obj
 0003:00006508       ??_R0?AVCFuncTankLaser@@@8 100c9508     func_tank.obj
 0003:00006528       ??_R0?AVCFuncTankRocket@@@8 100c9528     func_tank.obj
 0003:00006548       ??_R0?AVCFuncTankMortar@@@8 100c9548     func_tank.obj
 0003:00006568       ??_R0?AVCFuncTankControls@@@8 100c9568     func_tank.obj
 0003:00006588       ??_R0?AVCItem@@@8          100c9588     healthkit.obj
 0003:0000659c       ??_R0?AVCHealthKit@@@8     100c959c     healthkit.obj
 0003:000065b8       ??_R0?AVCWallHealth@@@8    100c95b8     healthkit.obj
 0003:000065d4       ??_R0?AVCHostage@@@8       100c95d4     hostage.obj
 0003:000065ec       ??_R0?AVCRecharge@@@8      100c95ec     h_battery.obj
 0003:00006604       ??_R0?AVCBasePlayerItem@@@8 100c9604     h_cycler.obj
 0003:00006624       ??_R0?AVCBasePlayerWeapon@@@8 100c9624     h_cycler.obj
 0003:00006644       ??_R0?AVCCycler@@@8        100c9644     h_cycler.obj
 0003:0000665c       ??_R0?AVCGenericCycler@@@8 100c965c     h_cycler.obj
 0003:0000667c       ??_R0?AVCCyclerProbe@@@8   100c967c     h_cycler.obj
 0003:00006698       ??_R0?AVCCyclerSprite@@@8  100c9698     h_cycler.obj
 0003:000066b4       ??_R0?AVCWeaponCycler@@@8  100c96b4     h_cycler.obj
 0003:000066d0       ??_R0?AVCWreckage@@@8      100c96d0     h_cycler.obj
 0003:000066e8       ??_R0?AVCWorldItem@@@8     100c96e8     items.obj
 0003:00006704       ??_R0?AVCItemSuit@@@8      100c9704     items.obj
 0003:0000671c       ??_R0?AVCItemBattery@@@8   100c971c     items.obj
 0003:00006738       ??_R0?AVCItemAntidote@@@8  100c9738     items.obj
 0003:00006754       ??_R0?AVCItemSecurity@@@8  100c9754     items.obj
 0003:00006770       ??_R0?AVCItemLongJump@@@8  100c9770     items.obj
 0003:0000678c       ??_R0?AVCItemKevlar@@@8    100c978c     items.obj
 0003:000067a8       ??_R0?AVCItemAssaultSuit@@@8 100c97a8     items.obj
 0003:000067c8       ??_R0?AVCItemThighPack@@@8 100c97c8     items.obj
 0003:000067e8       ??_R0?AVCLight@@@8         100c97e8     lights.obj
 0003:00006800       ??_R0?AVCEnvLight@@@8      100c9800     lights.obj
 0003:00006818       ??_R0?AVCMapInfo@@@8       100c9818     mapinfo.obj
 0003:00006830       ??_R0?AVCRuleEntity@@@8    100c9830     maprules.obj
 0003:0000684c       ??_R0?AVCRulePointEntity@@@8 100c984c     maprules.obj
 0003:0000686c       ??_R0?AVCRuleBrushEntity@@@8 100c986c     maprules.obj
 0003:0000688c       ??_R0?AVCGameScore@@@8     100c988c     maprules.obj
 0003:000068a8       ??_R0?AVCGameEnd@@@8       100c98a8     maprules.obj
 0003:000068c0       ??_R0?AVCGameText@@@8      100c98c0     maprules.obj
 0003:000068d8       ??_R0?AVCGameTeamMaster@@@8 100c98d8     maprules.obj
 0003:000068f8       ??_R0?AVCGameTeamSet@@@8   100c98f8     maprules.obj
 0003:00006914       ??_R0?AVCGamePlayerZone@@@8 100c9914     maprules.obj
 0003:00006934       ??_R0?AVCGamePlayerHurt@@@8 100c9934     maprules.obj
 0003:00006954       ??_R0?AVCGameCounter@@@8   100c9954     maprules.obj
 0003:00006970       ??_R0?AVCGameCounterSet@@@8 100c9970     maprules.obj
 0003:00006990       ??_R0?AVCGamePlayerEquip@@@8 100c9990     maprules.obj
 0003:000069b0       ??_R0?AVCGamePlayerTeam@@@8 100c99b0     maprules.obj
 0003:000069d0       ??_R0?AVCFuncMortarField@@@8 100c99d0     mortar.obj
 0003:000069f0       ??_R0?AVCMortar@@@8        100c99f0     mortar.obj
 0003:00006a08       ??_R0?AVIVoiceGameMgrHelper@@@8 100c9a08     multiplay_gamerules.obj
 0003:00006a2c       ??_R0?AVCCStrikeGameMgrHelper@@@8 100c9a2c     multiplay_gamerules.obj
 0003:00006a50       ??_R0?AVCGameRules@@@8     100c9a50     multiplay_gamerules.obj
 0003:00006a6c       ??_R0?AVCHalfLifeMultiplay@@@8 100c9a6c     multiplay_gamerules.obj
 0003:00006a90       ??_R0?AVCPathTrack@@@8     100c9a90     pathcorner.obj
 0003:00006aac       ??_R0?AVCPathCorner@@@8    100c9aac     pathcorner.obj
 0003:00006ac8       ??_R0?AVCFuncTrackTrain@@@8 100c9ac8     plats.obj
 0003:00006ae8       ??_R0?AVCBasePlatTrain@@@8 100c9ae8     plats.obj
 0003:00006b08       ??_R0?AVCFuncPlat@@@8      100c9b08     plats.obj
 0003:00006b20       ??_R0?AVCPlatTrigger@@@8   100c9b20     plats.obj
 0003:00006b3c       ??_R0?AVCFuncPlatRot@@@8   100c9b3c     plats.obj
 0003:00006b58       ??_R0?AVCFuncTrain@@@8     100c9b58     plats.obj
 0003:00006b74       ??_R0?AVCFuncTrainControls@@@8 100c9b74     plats.obj
 0003:00006b98       ??_R0?AVCFuncTrackChange@@@8 100c9b98     plats.obj
 0003:00006bb8       ??_R0?AVCFuncTrackAuto@@@8 100c9bb8     plats.obj
 0003:00006bd8       ??_R0?AVCGunTarget@@@8     100c9bd8     plats.obj
 0003:00006bf4       ??_R0?AVCWShield@@@8       100c9bf4     player.obj
 0003:00006c0c       ??_R0?AVCSprayCan@@@8      100c9c0c     player.obj
 0003:00006c24       ??_R0?AVCBloodSplat@@@8    100c9c24     player.obj
 0003:00006c40       ??_R0?AVCDeadHEV@@@8       100c9c40     player.obj
 0003:00006c58       ??_R0?AVCStripWeapons@@@8  100c9c58     player.obj
 0003:00006c74       ??_R0?AVCRevertSaved@@@8   100c9c74     player.obj
 0003:00006c90       ??_R0?AVCInfoIntermission@@@8 100c9c90     player.obj
 0003:00006cb0       ??_R0?AVCAmbientGeneric@@@8 100c9cb0     sound.obj
 0003:00006cd0       ??_R0?AVCEnvSound@@@8      100c9cd0     sound.obj
 0003:00006ce8       ??_R0?AVCSpeaker@@@8       100c9ce8     sound.obj
 0003:00006d00       ??_R0?AVCSoundEnt@@@8      100c9d00     soundent.obj
 0003:00006d18       ??_R0?AVCNullEntity@@@8    100c9d18     subs.obj
 0003:00006d34       ??_R0?AVCBaseDMStart@@@8   100c9d34     subs.obj
 0003:00006d50       ??_R0?AVCHalfLifeTraining@@@8 100c9d50     training_gamerules.obj
 0003:00006d70       ??_R0?AVCClientFog@@@8     100c9d70     triggers.obj
 0003:00006d8c       ??_R0?AVCBaseGrenCatch@@@8 100c9d8c     triggers.obj
 0003:00006dac       ??_R0?AVCFuncWeaponCheck@@@8 100c9dac     triggers.obj
 0003:00006dcc       ??_R0?AVCFrictionModifier@@@8 100c9dcc     triggers.obj
 0003:00006dec       ??_R0?AVCAutoTrigger@@@8   100c9dec     triggers.obj
 0003:00006e08       ??_R0?AVCTriggerRelay@@@8  100c9e08     triggers.obj
 0003:00006e24       ??_R0?AVCMultiManager@@@8  100c9e24     triggers.obj
 0003:00006e40       ??_R0?AVCRenderFxManager@@@8 100c9e40     triggers.obj
 0003:00006e60       ??_R0?AVCBaseTrigger@@@8   100c9e60     triggers.obj
 0003:00006e7c       ??_R0?AVCTriggerHurt@@@8   100c9e7c     triggers.obj
 0003:00006e98       ??_R0?AVCTriggerMonsterJump@@@8 100c9e98     triggers.obj
 0003:00006ebc       ??_R0?AVCTriggerCDAudio@@@8 100c9ebc     triggers.obj
 0003:00006edc       ??_R0?AVCTargetCDAudio@@@8 100c9edc     triggers.obj
 0003:00006efc       ??_R0?AVCTriggerMultiple@@@8 100c9efc     triggers.obj
 0003:00006f1c       ??_R0?AVCTriggerOnce@@@8   100c9f1c     triggers.obj
 0003:00006f38       ??_R0?AVCTriggerCounter@@@8 100c9f38     triggers.obj
 0003:00006f58       ??_R0?AVCTriggerVolume@@@8 100c9f58     triggers.obj
 0003:00006f78       ??_R0?AVCFireAndDie@@@8    100c9f78     triggers.obj
 0003:00006f94       ??_R0?AVCChangeLevel@@@8   100c9f94     triggers.obj
 0003:00006fb0       ??_R0?AVCLadder@@@8        100c9fb0     triggers.obj
 0003:00006fc8       ??_R0?AVCTriggerPush@@@8   100c9fc8     triggers.obj
 0003:00006fe4       ??_R0?AVCTriggerTeleport@@@8 100c9fe4     triggers.obj
 0003:00007004       ??_R0?AVCBuyZone@@@8       100ca004     triggers.obj
 0003:0000701c       ??_R0?AVCBombTarget@@@8    100ca01c     triggers.obj
 0003:00007038       ??_R0?AVCHostageRescue@@@8 100ca038     triggers.obj
 0003:00007058       ??_R0?AVCEscapeZone@@@8    100ca058     triggers.obj
 0003:00007074       ??_R0?AVCVIP_SafetyZone@@@8 100ca074     triggers.obj
 0003:00007094       ??_R0?AVCTriggerSave@@@8   100ca094     triggers.obj
 0003:000070b0       ??_R0?AVCTriggerEndSection@@@8 100ca0b0     triggers.obj
 0003:000070d4       ??_R0?AVCTriggerGravity@@@8 100ca0d4     triggers.obj
 0003:000070f4       ??_R0?AVCTriggerChangeTarget@@@8 100ca0f4     triggers.obj
 0003:00007118       ??_R0?AVCTriggerCamera@@@8 100ca118     triggers.obj
 0003:00007138       ??_R0?AVCWeather@@@8       100ca138     triggers.obj
 0003:00007150       ??_R0?AVCFuncVehicle@@@8   100ca150     vehicle.obj
 0003:0000716c       ??_R0?AVCFuncVehicleControls@@@8 100ca16c     vehicle.obj
 0003:00007190       ??_R0?AVCWeaponBox@@@8     100ca190     weapons.obj
 0003:000071ac       ??_R0?AVCArmoury@@@8       100ca1ac     weapons.obj
 0003:000071c4       ??_R0?AVCWorld@@@8         100ca1c4     world.obj
 0003:000071dc       ??_R0?AVCDecal@@@8         100ca1dc     world.obj
 0003:000071f4       ??_R0?AVCCorpse@@@8        100ca1f4     world.obj
 0003:0000720c       ??_R0?AVCAK47@@@8          100ca20c     wpn_ak47.obj
 0003:00007220       ??_R0?AVCAUG@@@8           100ca220     wpn_aug.obj
 0003:00007234       ??_R0?AVCAWP@@@8           100ca234     wpn_awp.obj
 0003:00007248       ??_R0?AVCC4@@@8            100ca248     wpn_c4.obj
 0003:0000725c       ??_R0?AVCDEAGLE@@@8        100ca25c     wpn_deagle.obj
 0003:00007274       ??_R0?AVCELITE@@@8         100ca274     wpn_elite.obj
 0003:0000728c       ??_R0?AVCFamas@@@8         100ca28c     wpn_famas.obj
 0003:000072a4       ??_R0?AVCFiveSeven@@@8     100ca2a4     wpn_fiveseven.obj
 0003:000072c0       ??_R0?AVCFlashbang@@@8     100ca2c0     wpn_flashbang.obj
 0003:000072dc       ??_R0?AVCG3SG1@@@8         100ca2dc     wpn_g3sg1.obj
 0003:000072f4       ??_R0?AVCGalil@@@8         100ca2f4     wpn_galil.obj
 0003:0000730c       ??_R0?AVCGLOCK18@@@8       100ca30c     wpn_glock18.obj
 0003:00007324       ??_R0?AVCHEGrenade@@@8     100ca324     wpn_hegrenade.obj
 0003:00007340       ??_R0?AVCKnife@@@8         100ca340     wpn_knife.obj
 0003:00007358       ??_R0?AVCM249@@@8          100ca358     wpn_m249.obj
 0003:0000736c       ??_R0?AVCM3@@@8            100ca36c     wpn_m3.obj
 0003:00007380       ??_R0?AVCM4A1@@@8          100ca380     wpn_m4a1.obj
 0003:00007394       ??_R0?AVCMAC10@@@8         100ca394     wpn_mac10.obj
 0003:000073ac       ??_R0?AVCMP5N@@@8          100ca3ac     wpn_mp5navy.obj
 0003:000073c0       ??_R0?AVCP228@@@8          100ca3c0     wpn_p228.obj
 0003:000073d4       ??_R0?AVCP90@@@8           100ca3d4     wpn_p90.obj
 0003:000073e8       ??_R0?AVCSCOUT@@@8         100ca3e8     wpn_scout.obj
 0003:00007400       ??_R0?AVCSG550@@@8         100ca400     wpn_sg550.obj
 0003:00007418       ??_R0?AVCSG552@@@8         100ca418     wpn_sg552.obj
 0003:00007430       ??_R0?AVCSmokeGrenade@@@8  100ca430     wpn_smokegrenade.obj
 0003:0000744c       ??_R0?AVCTMP@@@8           100ca44c     wpn_tmp.obj
 0003:00007460       ??_R0?AVCUMP45@@@8         100ca460     wpn_ump45.obj
 0003:00007478       ??_R0?AVCUSP@@@8           100ca478     wpn_usp.obj
 0003:0000748c       ??_R0?AVCXM1014@@@8        100ca48c     wpn_xm1014.obj
 0003:000074a4       ??_R0?AVtype_info@@@8      100ca4a4     LIBCMT:std_type_info_static.obj
 0003:000074bc       ??_R0?AVbad_alloc@std@@@8  100ca4bc     LIBCMT:throw_bad_alloc.obj
 0003:000074d8       ??_R0?AVexception@std@@@8  100ca4d8     LIBCMT:throw_bad_alloc.obj
 0003:000074f4       ??_R0?AVbad_array_new_length@std@@@8 100ca4f4     LIBCMT:throw_bad_alloc.obj
 0003:0000751c       ??_R0?AVbad_exception@std@@@8 100ca51c     libvcruntime:frame.obj
 0003:00007540       ?_OptionsStorage@?1??__local_stdio_printf_options@@9@4_KA 100ca540     voice_gamemgr.obj
 0003:00007548       ?_OptionsStorage@?1??__local_stdio_scanf_options@@9@4_KA 100ca548     voice_gamemgr.obj
 0003:00007550       ?g_bWantModEnable@@3V?$CBitVec@$0CA@@@A 100ca550     voice_gamemgr.obj
 0003:00007554       ?g_PlayerModEnable@@3V?$CBitVec@$0CA@@@A 100ca554     voice_gamemgr.obj
 0003:00007558       ?g_BanMasks@@3PAV?$CBitVec@$0CA@@@A 100ca558     voice_gamemgr.obj
 0003:000075d8       ?g_SentBanMasks@@3PAV?$CBitVec@$0CA@@@A 100ca5d8     voice_gamemgr.obj
 0003:00007658       ?g_SentGameRulesMasks@@3PAV?$CBitVec@$0CA@@@A 100ca658     voice_gamemgr.obj
 0003:000076d8       _vec3_origin               100ca6d8     pm_math.obj
 0003:000076e8       _pmove                     100ca6e8     pm_shared.obj
 0003:000076ec       _g_onladder                100ca6ec     pm_shared.obj
 0003:0000c388       ?g_pstudiohdr@@3PAUstudiohdr_t@@A 100cf388     animation.obj
 0003:0000c38c       ?IEngineStudio@@3Userver_studio_api_s@@A 100cf38c     animation.obj
 0003:0000c39c       ?g_pRotationMatrix@@3PAY123MA 100cf39c     animation.obj
 0003:0000c3a0       ?g_pBoneTransform@@3PAY2IA@23MA 100cf3a0     animation.obj
 0003:0000fba8       ?g_oDispatchSpawn@@3P6AHPAUedict_s@@@ZA 100d2ba8     cbase.obj
 0003:0000fbac       ?gTouchDisabled@@3HA       100d2bac     cbase.obj
 0003:0000fbb0       ?hashItemMemPool@@3VCMemoryPool@@A 100d2bb0     cbase.obj
 0003:0000fc0c       ?stringsHashTable@@3V?$CUtlVector@Uhash_item_s@@@@A 100d2c0c     cbase.obj
 0003:00010020       ?g_flResetTime@@3MA        100d3020     client.obj
 0003:00010024       ?m_usResetDecals@@3GA      100d3024     client.obj
 0003:00010028       ?g_iShadowSprite@@3HA      100d3028     client.obj
 0003:0001002c       ?g_skipCareerInitialSpawn@@3HA 100d302c     client.obj
 0003:00010030       ?g_PVSStatus@@3PAUPLAYERPVSSTATUS@@A 100d3030     client.obj
 0003:0003bf30       _g_flTimeLimit             100fef30     client.obj
 0003:0003bfcc       ?g_psv_gravity@@3PAUcvar_s@@A 100fefcc     game.obj
 0003:0003bfd0       ?g_psv_aim@@3PAUcvar_s@@A  100fefd0     game.obj
 0003:0003bfd4       ?g_footsteps@@3PAUcvar_s@@A 100fefd4     game.obj
 0003:0003bfd8       ?g_psv_accelerate@@3PAUcvar_s@@A 100fefd8     game.obj
 0003:0003bfdc       ?g_psv_friction@@3PAUcvar_s@@A 100fefdc     game.obj
 0003:0003bfe0       ?g_psv_stopspeed@@3PAUcvar_s@@A 100fefe0     game.obj
 0003:0003bfe4       ?g_pGameRules@@3PAVCHalfLifeMultiplay@@A 100fefe4     gamerules.obj
 0003:0003bfe8       ?g_ulFrameCount@@3KA       100fefe8     globals.obj
 0003:0003bfec       ?g_ulModelIndexEyes@@3KA   100fefec     globals.obj
 0003:0003bff0       ?g_iSkillLevel@@3HA        100feff0     globals.obj
 0003:0003bff4       ?gDisplayTitle@@3HA        100feff4     globals.obj
 0003:0003bff8       ?g_fGameOver@@3HA          100feff8     globals.obj
 0003:0003bffc       ?g_Language@@3HA           100feffc     globals.obj
 0003:0003c000       ?g_vecZero@@3VVector@@B    100ff000     globals.obj
 0003:0003c00c       ?g_vecAttackDir@@3VVector@@A 100ff00c     globals.obj
 0003:0003c018       ?g_iHostageNumber@@3HA     100ff018     hostage.obj
 0003:0003c020       ?s_flStepSize@CLocalNav@@2MA 100ff020     hostage_localnav.obj
 0003:0003c024       ?qptr@CLocalNav@@2HA       100ff024     hostage_localnav.obj
 0003:0003c028       ?queue@CLocalNav@@2PAVEHANDLE@@A 100ff028     hostage_localnav.obj
 0003:0003c0c8       ?tot_inqueue@CLocalNav@@2HA 100ff0c8     hostage_localnav.obj
 0003:0003c0cc       ?nodeval@CLocalNav@@2MA    100ff0cc     hostage_localnav.obj
 0003:0003c0d0       ?flNextCvarCheck@CLocalNav@@2MA 100ff0d0     hostage_localnav.obj
 0003:0003c0d4       ?flLastThinkTime@CLocalNav@@2MA 100ff0d4     hostage_localnav.obj
 0003:0003c0d8       ?hostages@CLocalNav@@2PAVEHANDLE@@A 100ff0d8     hostage_localnav.obj
 0003:0003c178       ?tot_hostages@CLocalNav@@2HA 100ff178     hostage_localnav.obj
 0003:0003c180       ?g_fDrawLines@@3HA         100ff180     h_ai.obj
 0003:0003c188       ?g_engfuncs@@3Uenginefuncs_s@@A 100ff188     h_export.obj
 0003:0003c3fc       ?g_oPrecacheModel@@3P6AHPAD@ZA 100ff3fc     h_export.obj
 0003:0003c400       ?g_oPrecacheSound@@3P6AHPAD@ZA 100ff400     h_export.obj
 0003:0003c404       ?g_oSetModel@@3P6AXPAUedict_s@@PBD@ZA 100ff404     h_export.obj
 0003:0003c408       ?g_oModelIndex@@3P6AHPBD@ZA 100ff408     h_export.obj
 0003:0003c40c       ?g_oEmitSound@@3P6AXPAUedict_s@@HPBDMMHH@ZA 100ff40c     h_export.obj
 0003:0003c410       ?g_oLoadFileForMe@@3P6APAEPADPAH@ZA 100ff410     h_export.obj
 0003:0003c414       ?g_oGetGameDir@@3P6AXPAD@ZA 100ff414     h_export.obj
 0003:0003c418       ?g_oSetClientKeyValue@@3P6AXHPAD00@ZA 100ff418     h_export.obj
 0003:0003c41c       ?gpGlobals@@3PAUglobalvars_t@@A 100ff41c     h_export.obj
 0003:0003c828       ?WorldGraph@@3VCGraph@@A   100ff828     mpstubb.obj
 0003:0003c838       ?g_talkWaitTime@CTalkMonster@@2MA 100ff838     mpstubb.obj
 0003:0003c840       ?sv_clienttrace@@3PAUcvar_s@@A 100ff840     multiplay_gamerules.obj
 0003:0003c844       ?g_pMPGameRules@@3PAVCHalfLifeMultiplay@@A 100ff844     multiplay_gamerules.obj
 0003:0003cf50       ?gEvilImpulse101@@3HA      100fff50     player.obj
 0003:0003cf54       ?sv_aim@@3PAUcvar_s@@A     100fff54     player.obj
 0003:0003cf58       ?g_szMapBriefingText@@3PADA 100fff58     player.obj
 0003:0003d158       ?giPrecacheGrunt@@3HA      10100158     player.obj
 0003:0003d15c       ?gmsgCurWeapon@@3HA        1010015c     player.obj
 0003:0003d160       ?gmsgGeigerRange@@3HA      10100160     player.obj
 0003:0003d164       ?gmsgFlashlight@@3HA       10100164     player.obj
 0003:0003d168       ?gmsgFlashBattery@@3HA     10100168     player.obj
 0003:0003d16c       ?gmsgHealth@@3HA           1010016c     player.obj
 0003:0003d170       ?gmsgDamage@@3HA           10100170     player.obj
 0003:0003d174       ?gmsgBattery@@3HA          10100174     player.obj
 0003:0003d178       ?gmsgTrain@@3HA            10100178     player.obj
 0003:0003d17c       ?gmsgLogo@@3HA             1010017c     player.obj
 0003:0003d180       ?gmsgSayText@@3HA          10100180     player.obj
 0003:0003d184       ?gmsgTextMsg@@3HA          10100184     player.obj
 0003:0003d188       ?gmsgWeaponList@@3HA       10100188     player.obj
 0003:0003d18c       ?gmsgResetHUD@@3HA         1010018c     player.obj
 0003:0003d190       ?gmsgInitHUD@@3HA          10100190     player.obj
 0003:0003d194       ?gmsgViewMode@@3HA         10100194     player.obj
 0003:0003d198       ?gmsgShowGameTitle@@3HA    10100198     player.obj
 0003:0003d19c       ?gmsgDeathMsg@@3HA         1010019c     player.obj
 0003:0003d1a0       ?gmsgScoreAttrib@@3HA      101001a0     player.obj
 0003:0003d1a4       ?gmsgScoreInfo@@3HA        101001a4     player.obj
 0003:0003d1a8       ?gmsgTeamInfo@@3HA         101001a8     player.obj
 0003:0003d1ac       ?gmsgTeamScore@@3HA        101001ac     player.obj
 0003:0003d1b0       ?gmsgGameMode@@3HA         101001b0     player.obj
 0003:0003d1b4       ?gmsgMOTD@@3HA             101001b4     player.obj
 0003:0003d1b8       ?gmsgServerName@@3HA       101001b8     player.obj
 0003:0003d1bc       ?gmsgAmmoPickup@@3HA       101001bc     player.obj
 0003:0003d1c0       ?gmsgItemPickup@@3HA       101001c0     player.obj
 0003:0003d1c4       ?gmsgHideWeapon@@3HA       101001c4     player.obj
 0003:0003d1c8       ?gmsgSetFOV@@3HA           101001c8     player.obj
 0003:0003d1cc       ?gmsgAmmoX@@3HA            101001cc     player.obj
 0003:0003d1d0       ?gmsgSendAudio@@3HA        101001d0     player.obj
 0003:0003d1d4       ?gmsgRoundTime@@3HA        101001d4     player.obj
 0003:0003d1d8       ?gmsgMoney@@3HA            101001d8     player.obj
 0003:0003d1dc       ?gmsgArmorType@@3HA        101001dc     player.obj
 0003:0003d1e0       ?gmsgBlinkAcct@@3HA        101001e0     player.obj
 0003:0003d1e4       ?gmsgStatusValue@@3HA      101001e4     player.obj
 0003:0003d1e8       ?gmsgStatusText@@3HA       101001e8     player.obj
 0003:0003d1ec       ?gmsgStatusIcon@@3HA       101001ec     player.obj
 0003:0003d1f0       ?gmsgBarTime@@3HA          101001f0     player.obj
 0003:0003d1f4       ?gmsgCrosshair@@3HA        101001f4     player.obj
 0003:0003d1f8       ?gmsgNVGToggle@@3HA        101001f8     player.obj
 0003:0003d1fc       ?gmsgRadar@@3HA            101001fc     player.obj
 0003:0003d200       ?gmsgSpectator@@3HA        10100200     player.obj
 0003:0003d204       ?gmsgTutorText@@3HA        10100204     player.obj
 0003:0003d208       ?gmsgTutorLine@@3HA        10100208     player.obj
 0003:0003d20c       ?gmsgTutorState@@3HA       1010020c     player.obj
 0003:0003d210       ?gmsgTutorClose@@3HA       10100210     player.obj
 0003:0003d214       ?gmsgAllowSpec@@3HA        10100214     player.obj
 0003:0003d218       ?gmsgBombPickup@@3HA       10100218     player.obj
 0003:0003d21c       ?gmsgSendCorpse@@3HA       1010021c     player.obj
 0003:0003d220       ?gmsgHostagePos@@3HA       10100220     player.obj
 0003:0003d224       ?gmsgHostageK@@3HA         10100224     player.obj
 0003:0003d228       ?gmsgHLTV@@3HA             10100228     player.obj
 0003:0003d22c       ?gmsgSpecHealth@@3HA       1010022c     player.obj
 0003:0003d230       ?gmsgForceCam@@3HA         10100230     player.obj
 0003:0003d234       ?gmsgADStop@@3HA           10100234     player.obj
 0003:0003d238       ?gmsgReceiveW@@3HA         10100238     player.obj
 0003:0003d23c       ?gmsgCZCareer@@3HA         1010023c     player.obj
 0003:0003d240       ?gmsgCZCareerHUD@@3HA      10100240     player.obj
 0003:0003d244       ?gmsgShadowIdx@@3HA        10100244     player.obj
 0003:0003d248       ?gmsgTaskTime@@3HA         10100248     player.obj
 0003:0003d24c       ?gmsgBotVoice@@3HA         1010024c     player.obj
 0003:0003d250       ?gmsgBuyClose@@3HA         10100250     player.obj
 0003:0003d254       ?gmsgSpecHealth2@@3HA      10100254     player.obj
 0003:0003d258       ?gmsgBarTime2@@3HA         10100258     player.obj
 0003:0003d25c       ?gmsgItemStatus@@3HA       1010025c     player.obj
 0003:0003d260       ?gmsgLocation@@3HA         10100260     player.obj
 0003:0003d264       ?gmsgBotProgress@@3HA      10100264     player.obj
 0003:0003d268       ?gmsgBrass@@3HA            10100268     player.obj
 0003:0003d26c       ?gmsgFog@@3HA              1010026c     player.obj
 0003:0003d270       ?gmsgShowTimer@@3HA        10100270     player.obj
 0003:0003d274       ?gmsgHudTextArgs@@3HA      10100274     player.obj
 0003:0003d278       ?gmsgShake@@3HA            10100278     player.obj
 0003:0003d27c       ?gmsgFade@@3HA             1010027c     player.obj
 0003:0003d280       ?gmsgWeapPickup@@3HA       10100280     player.obj
 0003:0003d284       ?gmsgReloadSound@@3HA      10100284     player.obj
 0003:0003d288       ?g_pevLastInflictor@@3PAUentvars_s@@A 10100288     player.obj
 0003:0003d28c       ?gmsgHudText@@3HA          1010028c     player.obj
 0003:0003d290       ?gmsgShowMenu@@3HA         10100290     player.obj
 0003:0003d294       ?gmsgVGUIMenu@@3HA         10100294     player.obj
 0003:0003d298       ?gmsgScenarioIcon@@3HA     10100298     player.obj
 0003:0003d29c       ?gmsgBombDrop@@3HA         1010029c     player.obj
 0003:0003d2a0       ?UseBotArgs@@3_NA          101002a0     player.obj
 0003:0003d2a4       ?BotArgs@@3PAPBDA          101002a4     player.obj
 0003:0003d2b4       ?g_pLastSpawn@@3PAVCBaseEntity@@A 101002b4     player.obj
 0003:0003d2b8       ?g_pLastCTSpawn@@3PAVCBaseEntity@@A 101002b8     player.obj
 0003:0003d2bc       ?g_pLastTerroristSpawn@@3PAVCBaseEntity@@A 101002bc     player.obj
 0003:0003d308       ?gSkillData@@3Uskilldata_t@@A 10100308     skill.obj
 0003:0003d460       ?gszallsentencenames@@3PAY0BA@DA 10100460     sound.obj
 0003:00043460       ?gcallsentences@@3HA       10106460     sound.obj
 0003:00043464       ?fSentencesInit@@3HA       10106464     sound.obj
 0003:00043468       ?rgsentenceg@@3PAUsentenceg@@A 10106468     sound.obj
 0003:00045d08       ?fTextureTypeInit@@3HA     10108d08     sound.obj
 0003:00045d0c       ?gcTextures@@3HA           10108d0c     sound.obj
 0003:00045d10       ?grgszTextureName@@3PAY0BB@DA 10108d10     sound.obj
 0003:0004a110       ?grgchTextureType@@3PADA   1010d110     sound.obj
 0003:0004a510       ?pSoundEnt@@3PAVCSoundEnt@@A 1010d510     soundent.obj
 0003:0004a558       ?g_groupmask@@3HA          1010d558     util.obj
 0003:0004a55c       ?g_groupop@@3HA            1010d55c     util.obj
 0003:0004ad78       ?giAmmoIndex@@3HA          1010dd78     weapons.obj
 0003:0004ad7c       ?g_sModelIndexLaser@@3FA   1010dd7c     weapons.obj
 0003:0004ad80       ?ItemInfoArray@CBasePlayerItem@@2PAUItemInfo@@A 1010dd80     weapons.obj
 0003:0004b300       ?AmmoInfoArray@CBasePlayerItem@@2PAUAmmoInfo@@A 1010e300     weapons.obj
 0003:0004b400       ?g_sModelIndexLaserDot@@3FA 1010e400     weapons.obj
 0003:0004b404       ?g_sModelIndexFireball@@3FA 1010e404     weapons.obj
 0003:0004b408       ?g_sModelIndexFireball2@@3FA 1010e408     weapons.obj
 0003:0004b40c       ?g_sModelIndexFireball3@@3FA 1010e40c     weapons.obj
 0003:0004b410       ?g_sModelIndexFireball4@@3FA 1010e410     weapons.obj
 0003:0004b414       ?g_sModelIndexSmoke@@3FA   1010e414     weapons.obj
 0003:0004b418       ?g_sModelIndexSmokePuff@@3FA 1010e418     weapons.obj
 0003:0004b41c       ?g_sModelIndexWExplosion@@3FA 1010e41c     weapons.obj
 0003:0004b420       ?g_sModelIndexBubbles@@3FA 1010e420     weapons.obj
 0003:0004b424       ?g_sModelIndexBloodDrop@@3FA 1010e424     weapons.obj
 0003:0004b428       ?g_sModelIndexBloodSpray@@3FA 1010e428     weapons.obj
 0003:0004b42c       ?g_sModelIndexRadio@@3FA   1010e42c     weapons.obj
 0003:0004b430       ?g_sModelIndexCTGhost@@3FA 1010e430     weapons.obj
 0003:0004b434       ?g_sModelIndexTGhost@@3FA  1010e434     weapons.obj
 0003:0004b438       ?g_sModelIndexC4Glow@@3FA  1010e438     weapons.obj
 0003:0004b43c       ?gMultiDamage@@3UMULTIDAMAGE@@A 1010e43c     weapons.obj
 0003:0004b448       ?g_pBodyQueueHead@@3PAUedict_s@@A 1010e448     world.obj
 0003:0004b44c       ?g_flWeaponCheat@@3MA      1010e44c     world.obj
 0003:0004b450       ?gGlobalState@@3VCGlobalState@@A 1010e450     world.obj
 0003:0004b458       ___scrt_current_native_startup_state 1010e458     LIBCMT:utility.obj
 0003:0004b45c       ___scrt_native_startup_lock 1010e45c     LIBCMT:utility.obj
 0003:0004b480       ___isa_available           1010e480     LIBCMT:_cpu_disp_.obj
 0003:0004b484       ___favor                   1010e484     LIBCMT:_cpu_disp_.obj
 0003:0004b488       ___scrt_debugger_hook_flag 1010e488     LIBCMT:utility_desktop.obj
 0003:0004b490       ?__type_info_root_node@@3U__type_info_node@@A 1010e490     LIBCMT:tncleanup.obj
 0003:0004b7dc       ___pPurecall               1010e7dc     libvcruntime:purevirt_data.obj
 0003:0004b81c       ?pArgList@UnDecorator@@0PAVReplicator@@A 1010e81c     libvcruntime:undname.obj
 0003:0004b820       ?pZNameList@UnDecorator@@0PAVReplicator@@A 1010e820     libvcruntime:undname.obj
 0003:0004b824       ?pTemplateArgList@UnDecorator@@0PAVReplicator@@A 1010e824     libvcruntime:undname.obj
 0003:0004b828       ?gName@UnDecorator@@0PBDB  1010e828     libvcruntime:undname.obj
 0003:0004b82c       ?name@UnDecorator@@0PBDB   1010e82c     libvcruntime:undname.obj
 0003:0004b830       ?outputString@UnDecorator@@0PADA 1010e830     libvcruntime:undname.obj
 0003:0004b834       ?maxStringLength@UnDecorator@@0HA 1010e834     libvcruntime:undname.obj
 0003:0004b838       ?disableFlags@UnDecorator@@0KA 1010e838     libvcruntime:undname.obj
 0003:0004b83c       ?fExplicitTemplateParams@UnDecorator@@0_NA 1010e83c     libvcruntime:undname.obj
 0003:0004b83d       ?fGetTemplateArgumentList@UnDecorator@@0_NA 1010e83d     libvcruntime:undname.obj
 0003:0004b840       ?m_pGetParameter@UnDecorator@@0P6APADJ@ZA 1010e840     libvcruntime:undname.obj
 0003:0004b858       ?__WinRTOutOfMemoryExceptionCallback@@3P6GPAXXZA 1010e858     libvcruntime:ehhelpers.obj
 0003:0004b970       __environ_table            1010e970     libucrt:environment_initialization.obj
 0003:0004b974       __wenviron_table           1010e974     libucrt:environment_initialization.obj
 0003:0004b978       ___dcrt_initial_wide_environment 1010e978     libucrt:environment_initialization.obj
 0003:0004b97c       ___dcrt_initial_narrow_environment 1010e97c     libucrt:environment_initialization.obj
 0003:0004b980       ___acrt_atexit_table       1010e980     libucrt:onexit.obj
 0003:0004b98c       ___acrt_at_quick_exit_table 1010e98c     libucrt:onexit.obj
 0003:0004b9a0       __nstream                  1010e9a0     libucrt:_file.obj
 0003:0004b9a4       ___piob                    1010e9a4     libucrt:_file.obj
 0003:0004b9ac       ___acrt_stdout_buffer      1010e9ac     libucrt:_sftbuf.obj
 0003:0004b9b0       ___acrt_stderr_buffer      1010e9b0     libucrt:_sftbuf.obj
 0003:0004b9b4       ___acrt_locale_changed_data 1010e9b4     libucrt:wsetlocale.obj
 0003:0004b9b8       ___acrt_current_locale_data 1010e9b8     libucrt:nlsdata.obj
 0003:0004b9c0       ___pioinfo                 1010e9c0     libucrt:ioinit.obj
 0003:0004bbc0       __nhandle                  1010ebc0     libucrt:ioinit.obj
 0003:0004bddc       ___mblocalename            1010eddc     libucrt:mbctype.obj
 0003:0004bde0       ___mbcodepage              1010ede0     libucrt:mbctype.obj
 0003:0004bde4       ___ismbcodepage            1010ede4     libucrt:mbctype.obj
 0003:0004bde8       ___mbulinfo                1010ede8     libucrt:mbctype.obj
 0003:0004bdfc       ___argc                    1010edfc     libucrt:argv_data.obj
 0003:0004be00       ___argv                    1010ee00     libucrt:argv_data.obj
 0003:0004be04       ___wargv                   1010ee04     libucrt:argv_data.obj
 0003:0004be08       __acmdln                   1010ee08     libucrt:argv_data.obj
 0003:0004be0c       __wcmdln                   1010ee0c     libucrt:argv_data.obj
 0003:0004be10       __pgmptr                   1010ee10     libucrt:argv_data.obj
 0003:0004be14       ___acrt_heap               1010ee14     libucrt:heap_handle.obj
 0003:0004be30       ___acrt_lconv_static_null  1010ee30     libucrt:localeconv.obj
 0003:0004be34       ___acrt_lconv_static_W_null 1010ee34     libucrt:localeconv.obj
 0003:0004be38       ___fastflag                1010ee38     libucrt:fp_flags.obj
 0003:0004be40       ___dyn_tls_init_callback   1010ee40     <common>
 0003:0004be44       ___scrt_ucrt_dll_is_in_use 1010ee44     <common>
 0003:0004be48       ___use_sse2_mathfcns       1010ee48     <common>
 0003:0004be4c       __pmatherr                 1010ee4c     <common>

 entry point at        0001:00079dad

 Static symbols

 0000:ffedf000       .debug$S                   10000000     kernel32:KERNEL32.dll
 0000:ffedf000       .debug$S                   10000000     kernel32:KERNEL32.dll
 0000:ffedf000       .debug$S                   10000000     mp.exp
 0000:ffedf000       .debug$S                   10000000     kernel32:KERNEL32.dll
 0000:ffedf000       .debug$S                   10000000     kernel32:KERNEL32.dll
 0000:ffedf000       .debug$S                   10000000     kernel32:KERNEL32.dll
 0000:ffedf000       .debug$S                   10000000     kernel32:KERNEL32.dll
 0000:ffedf000       .debug$S                   10000000     kernel32:KERNEL32.dll
 0000:ffedf000       .debug$S                   10000000     kernel32:KERNEL32.dll
 0000:ffedf000       .debug$S                   10000000     kernel32:KERNEL32.dll
 0000:ffedf000       .debug$S                   10000000     kernel32:KERNEL32.dll
 0000:ffedf000       .debug$S                   10000000     kernel32:KERNEL32.dll
 0000:ffedf000       .debug$S                   10000000     kernel32:KERNEL32.dll
 0000:ffedf000       .debug$S                   10000000     kernel32:KERNEL32.dll
 0000:ffedf000       .debug$S                   10000000     kernel32:KERNEL32.dll
 0000:ffedf000       .debug$S                   10000000     kernel32:KERNEL32.dll
 0000:ffedf000       .debug$S                   10000000     kernel32:KERNEL32.dll
 0000:ffedf000       .debug$S                   10000000     kernel32:KERNEL32.dll
 0000:ffedf000       .debug$S                   10000000     kernel32:KERNEL32.dll
 0000:ffedf000       .debug$S                   10000000     kernel32:KERNEL32.dll
 0000:ffedf000       .debug$S                   10000000     kernel32:KERNEL32.dll
 0000:ffedf000       .debug$S                   10000000     kernel32:KERNEL32.dll
 0000:ffedf000       .debug$S                   10000000     kernel32:KERNEL32.dll
 0000:ffedf000       .debug$S                   10000000     kernel32:KERNEL32.dll
 0000:ffedf000       .debug$S                   10000000     kernel32:KERNEL32.dll
 0000:ffedf000       .debug$S                   10000000     kernel32:KERNEL32.dll
 0000:ffedf000       .debug$S                   10000000     kernel32:KERNEL32.dll
 0000:ffedf000       .debug$S                   10000000     kernel32:KERNEL32.dll
 0000:ffedf000       .debug$S                   10000000     kernel32:KERNEL32.dll
 0000:ffedf000       .debug$S                   10000000     kernel32:KERNEL32.dll
 0000:ffedf000       .debug$S                   10000000     kernel32:KERNEL32.dll
 0000:ffedf000       .debug$S                   10000000     kernel32:KERNEL32.dll
 0000:ffedf000       .debug$S                   10000000     kernel32:KERNEL32.dll
 0000:ffedf000       .debug$S                   10000000     kernel32:KERNEL32.dll
 0000:ffedf000       .debug$S                   10000000     kernel32:KERNEL32.dll
 0000:ffedf000       .debug$S                   10000000     kernel32:KERNEL32.dll
 0000:ffedf000       .debug$S                   10000000     kernel32:KERNEL32.dll
 0000:ffedf000       .debug$S                   10000000     kernel32:KERNEL32.dll
 0000:ffedf000       .debug$S                   10000000     kernel32:KERNEL32.dll
 0000:ffedf000       .debug$S                   10000000     kernel32:KERNEL32.dll
 0000:ffedf000       .debug$S                   10000000     kernel32:KERNEL32.dll
 0000:ffedf000       .debug$S                   10000000     kernel32:KERNEL32.dll
 0000:ffedf000       .debug$S                   10000000     kernel32:KERNEL32.dll
 0000:ffedf000       .debug$S                   10000000     kernel32:KERNEL32.dll
 0000:ffedf000       .debug$S                   10000000     kernel32:KERNEL32.dll
 0000:ffedf000       .debug$S                   10000000     kernel32:KERNEL32.dll
 0000:ffedf000       .debug$S                   10000000     kernel32:KERNEL32.dll
 0000:ffedf000       .debug$S                   10000000     kernel32:KERNEL32.dll
 0000:ffedf000       .debug$S                   10000000     kernel32:KERNEL32.dll
 0000:ffedf000       .debug$S                   10000000     kernel32:KERNEL32.dll
 0000:ffedf000       .debug$S                   10000000     kernel32:KERNEL32.dll
 0000:ffedf000       .debug$S                   10000000     kernel32:KERNEL32.dll
 0000:ffedf000       .debug$S                   10000000     kernel32:KERNEL32.dll
 0000:ffedf000       .debug$S                   10000000     kernel32:KERNEL32.dll
 0000:ffedf000       .debug$S                   10000000     kernel32:KERNEL32.dll
 0000:ffedf000       .debug$S                   10000000     kernel32:KERNEL32.dll
 0000:ffedf000       .debug$S                   10000000     kernel32:KERNEL32.dll
 0000:ffedf000       .debug$S                   10000000     kernel32:KERNEL32.dll
 0000:ffedf000       .debug$S                   10000000     kernel32:KERNEL32.dll
 0000:ffedf000       .debug$S                   10000000     kernel32:KERNEL32.dll
 0000:ffedf000       .debug$S                   10000000     kernel32:KERNEL32.dll
 0000:ffedf000       .debug$S                   10000000     kernel32:KERNEL32.dll
 0000:ffedf000       .debug$S                   10000000     kernel32:KERNEL32.dll
 0000:ffedf000       .debug$S                   10000000     kernel32:KERNEL32.dll
 0000:ffedf000       .debug$S                   10000000     kernel32:KERNEL32.dll
 0000:ffedf000       .debug$S                   10000000     kernel32:KERNEL32.dll
 0000:ffedf000       .debug$S                   10000000     kernel32:KERNEL32.dll
 0000:ffedf000       .debug$S                   10000000     kernel32:KERNEL32.dll
 0000:ffedf000       .debug$S                   10000000     kernel32:KERNEL32.dll
 0000:ffedf000       .debug$S                   10000000     kernel32:KERNEL32.dll
 0000:ffedf000       .debug$S                   10000000     kernel32:KERNEL32.dll
 0000:ffedf000       .debug$S                   10000000     kernel32:KERNEL32.dll
 0000:ffedf000       .debug$S                   10000000     kernel32:KERNEL32.dll
 0000:ffedf000       .debug$S                   10000000     kernel32:KERNEL32.dll
 0000:ffedf000       .debug$S                   10000000     kernel32:KERNEL32.dll
 0000:ffedf000       .debug$S                   10000000     kernel32:KERNEL32.dll
 0000:ffedf000       .debug$S                   10000000     kernel32:KERNEL32.dll
 0000:ffedf000       .debug$S                   10000000     kernel32:KERNEL32.dll
 0000:ffedf000       .debug$S                   10000000     kernel32:KERNEL32.dll
 0000:ffedf000       .debug$S                   10000000     kernel32:KERNEL32.dll
 0000:ffedf000       .debug$S                   10000000     kernel32:KERNEL32.dll
 0000:ffedf000       .debug$S                   10000000     kernel32:KERNEL32.dll
 0000:ffedf000       .debug$S                   10000000     kernel32:KERNEL32.dll
 0000:ffedf000       .debug$S                   10000000     kernel32:KERNEL32.dll
 0000:ffedf000       .debug$S                   10000000     kernel32:KERNEL32.dll
 0000:ffedf000       .debug$S                   10000000     kernel32:KERNEL32.dll
 0000:ffedf000       .debug$S                   10000000     kernel32:KERNEL32.dll
 0000:ffedf000       .debug$S                   10000000     kernel32:KERNEL32.dll
 0000:ffedf000       .debug$S                   10000000     kernel32:KERNEL32.dll
 0000:ffedf000       .debug$S                   10000000     kernel32:KERNEL32.dll
 0000:ffedf000       .debug$S                   10000000     kernel32:KERNEL32.dll
 0001:00000000       ??__EhashItemMemPool@@YAXXZ 10001000 f   cbase.obj
 0001:00000020       ??__EstringsHashTable@@YAXXZ 10001020 f   cbase.obj
 0001:00000050       ??__Eg_GameMgrHelper@@YAXXZ 10001050 f   multiplay_gamerules.obj
 0001:00000060       ??__EgGlobalState@@YAXXZ   10001060 f   world.obj
 0001:000006f0       ?VoiceServerDebug@@YAXPBDZZ 100016f0 f   voice_gamemgr.obj
 0001:000036b8       $LN26                      100046b8     pm_shared.obj
 0001:00003bc4       $LN15                      10004bc4     pm_shared.obj
 0001:00003be4       $LN13                      10004be4     pm_shared.obj
 0001:000049e4       $LN85                      100059e4     pm_shared.obj
 0001:00004a08       $LN86                      10005a08     pm_shared.obj
 0001:00004a18       $LN87                      10005a18     pm_shared.obj
 0001:00004a28       $LN88                      10005a28     pm_shared.obj
 0001:00004a38       $LN89                      10005a38     pm_shared.obj
 0001:00004a48       $LN90                      10005a48     pm_shared.obj
 0001:00004a5c       $LN91                      10005a5c     pm_shared.obj
 0001:00004a6c       $LN92                      10005a6c     pm_shared.obj
 0001:00004a7c       $LN93                      10005a7c     pm_shared.obj
 0001:00004a8c       $LN94                      10005a8c     pm_shared.obj
 0001:00004a9c       $LN95                      10005a9c     pm_shared.obj
 0001:00004bac       $LN15                      10005bac     pm_shared.obj
 0001:00004fe8       $LN50                      10005fe8     pm_shared.obj
 0001:00005000       $LN42                      10006000     pm_shared.obj
 0001:00005b50       $LN34                      10006b50     pm_shared.obj
 0001:00005b60       $LN28                      10006b60     pm_shared.obj
 0001:00009788       $LN28                      1000a788     animation.obj
 0001:00009794       $LN23                      1000a794     animation.obj
 0001:0000af60       $LN32                      1000bf60     bmodels.obj
 0001:0000ca84       $LN28                      1000da84     buttons.obj
 0001:0000ceb8       $LN45                      1000deb8     buttons.obj
 0001:0000d830       $LN32                      1000e830     buttons.obj
 0001:0000d854       $LN33                      1000e854     buttons.obj
 0001:00011aa4       $LN72                      10012aa4     client.obj
 0001:00011ca4       $LN29                      10012ca4     client.obj
 0001:00011cd0       $LN24                      10012cd0     client.obj
 0001:0001221c       $LN102                     1001321c     client.obj
 0001:00012404       $LN20                      10013404     client.obj
 0001:000125e4       $LN32                      100135e4     client.obj
 0001:000127dc       $LN20                      100137dc     client.obj
 0001:00012a74       $LN32                      10013a74     client.obj
 0001:00012a7c       $LN26                      10013a7c     client.obj
 0001:00012ae0       $LN33                      10013ae0     client.obj
 0001:00012ae8       $LN27                      10013ae8     client.obj
 0001:00012b04       $LN34                      10013b04     client.obj
 0001:00012b0c       $LN28                      10013b0c     client.obj
 0001:00012b70       $LN35                      10013b70     client.obj
 0001:00012b78       $LN29                      10013b78     client.obj
 0001:00015fc4       $LN152                     10016fc4     client.obj
 0001:00016b04       $LN9                       10017b04     client.obj
 0001:00016b0c       $LN7                       10017b0c     client.obj
 0001:000173d4       $LN15                      100183d4     client.obj
 0001:000174d4       $LN15                      100184d4     client.obj
 0001:00017654       $LN21                      10018654     client.obj
 0001:00019658       $LN365                     1001a658     client.obj
 0001:0001b074       $LN169                     1001c074     combat.obj
 0001:0001b098       $LN167                     1001c098     combat.obj
 0001:0001b0a8       $LN170                     1001c0a8     combat.obj
 0001:0001b0c8       $LN168                     1001c0c8     combat.obj
 0001:0001ba74       $LN173                     1001ca74     combat.obj
 0001:0001dc04       $LN17                      1001ec04     combat.obj
 0001:0001f56c       $LN57                      1002056c     doors.obj
 0001:0001f598       $LN58                      10020598     doors.obj
 0001:0001f5bc       $LN59                      100205bc     doors.obj
 0001:0001f5e0       $LN60                      100205e0     doors.obj
 0001:0001f754       $LN17                      10020754     doors.obj
 0001:00021c78       $LN28                      10022c78     effects.obj
 0001:00026790       $LN21                      10027790     func_break.obj
 0001:00026e2c       $LN117                     10027e2c     func_break.obj
 0001:000272c0       $LN12                      100282c0     func_break.obj
 0001:00027758       $LN17                      10028758     func_break.obj
 0001:0002b84c       $LN108                     1002c84c     ggrenade.obj
 0001:0002f97c       $LN13                      1003097c     hostage.obj
 0001:00030694       $LN32                      10031694     hostage.obj
 0001:000310ec       $LN15                      100320ec     hostage.obj
 0001:0003114c       $LN12                      1003214c     hostage.obj
 0001:000350a0       $LN14                      100360a0     h_export.obj
 0001:000352b8       $LN13                      100362b8     h_export.obj
 0001:000361e4       $LN16                      100371e4     items.obj
 0001:00037ac4       $LN32                      10038ac4     maprules.obj
 0001:00038f44       $LN43                      10039f44     mpstubb.obj
 0001:00039e30       $LN34                      1003ae30     multiplay_gamerules.obj
 0001:0003b290       $LN13                      1003c290     multiplay_gamerules.obj
 0001:0003b29c       $LN11                      1003c29c     multiplay_gamerules.obj
 0001:0003e148       $LN111                     1003f148     multiplay_gamerules.obj
 0001:000417d0       ?Fix@@YAMM@Z               100427d0 f   plats.obj
 0001:000417d0       ?Fix@@YAMM@Z               100427d0 f   vehicle.obj
 0001:000433c0       ?PlatSpawnInsideTrigger@@YAXPAUentvars_s@@@Z 100443c0 f   plats.obj
 0001:0004374c       $LN34                      1004474c     plats.obj
 0001:00043784       $LN35                      10044784     plats.obj
 0001:00043964       $LN14                      10044964     plats.obj
 0001:00046a2c       $LN98                      10047a2c     player.obj
 0001:00046a6c       $LN95                      10047a6c     player.obj
 0001:00046da8       $LN36                      10047da8     player.obj
 0001:00046ed8       $LN27                      10047ed8     player.obj
 0001:000484a4       $LN38                      100494a4     player.obj
 0001:00048520       $LN36                      10049520     player.obj
 0001:000493d8       $LN10                      1004a3d8     player.obj
 0001:00049a38       $LN53                      1004aa38     player.obj
 0001:0004a854       $LN154                     1004b854     player.obj
 0001:0004eea4       $LN223                     1004fea4     player.obj
 0001:0004eed0       $LN224                     1004fed0     player.obj
 0001:0004eef4       $LN179                     1004fef4     player.obj
 0001:0004ef44       $LN225                     1004ff44     player.obj
 0001:0004ef64       $LN226                     1004ff64     player.obj
 0001:0004ef88       $LN227                     1004ff88     player.obj
 0001:0004f1fc       $LN39                      100501fc     player.obj
 0001:0004f758       $LN10                      10050758     player.obj
 0001:0004f760       $LN8                       10050760     player.obj
 0001:0005030c       $LN159                     1005130c     player.obj
 0001:00050320       $LN151                     10051320     player.obj
 0001:00052008       $LN260                     10053008     player.obj
 0001:00052034       $LN247                     10053034     player.obj
 0001:00052960       $LN77                      10053960     player.obj
 0001:000540cc       $LN60                      100550cc     player.obj
 0001:00056320       $LN29                      10057320     sound.obj
 0001:00056a3c       $LN81                      10057a3c     sound.obj
 0001:00056a68       $LN66                      10057a68     sound.obj
 0001:000571a0       ?memfgets@@YAPADPAEHAAHPADH@Z 100581a0 f   sound.obj
 0001:0005dfbc       $LN35                      1005efbc     triggers.obj
 0001:0005dfc4       $LN31                      1005efc4     triggers.obj
 0001:0005ecb8       $LN22                      1005fcb8     util.obj
 0001:0005eccc       $LN19                      1005fccc     util.obj
 0001:0005ece0       ?FixedSigned16@@YAFMM@Z    1005fce0 f   util.obj
 0001:0005ed10       ?FixedUnsigned16@@YAGMM@Z  1005fd10 f   util.obj
 0001:0005f09c       $LN101                     1006009c     util.obj
 0001:0006168c       $LN53                      1006268c     util.obj
 0001:000616d4       $LN54                      100626d4     util.obj
 0001:00062da0       ?FixupAngles@@YAXAAVVector@@@Z 10063da0 f   vehicle.obj
 0001:00062da0       ?FixupAngles@@YAXAAVVector@@@Z 10063da0 f   plats.obj
 0001:00063edc       $LN14                      10064edc     vehicle.obj
 0001:0006540c       $LN40                      1006640c     weapons.obj
 0001:00065444       $LN41                      10066444     weapons.obj
 0001:000671a0       $LN26                      100681a0     weapons.obj
 0001:00067d9c       $LN70                      10068d9c     weapons.obj
 0001:00068d50       ?InitBodyQue@@YAXXZ        10069d50 f   world.obj
 0001:00071d34       $LN137                     10072d34     wpn_knife.obj
 0001:00079620       $$000000                   1007a620     LIBCMT:chkstk.obj
 0001:00079670       ?find_pe_section@@YAPAU_IMAGE_SECTION_HEADER@@QAEI@Z 1007a670 f   LIBCMT:utility.obj
 0001:000799f0       $$000000                   1007a9f0     LIBCMT:_ftol2_.obj
 0001:00079ab3       ?dllmain_crt_dispatch@@YGHQAUHINSTANCE__@@KQAX@Z 1007aab3 f   LIBCMT:dll_dllmain.obj
 0001:00079b06       ?dllmain_crt_process_attach@@YAHQAUHINSTANCE__@@QAX@Z 1007ab06 f   LIBCMT:dll_dllmain.obj
 0001:00079c00       ?dllmain_crt_process_detach@@YAH_N@Z 1007ac00 f   LIBCMT:dll_dllmain.obj
 0001:00079c87       ?dllmain_dispatch@@YAHQAUHINSTANCE__@@KQAX@Z 1007ac87 f   LIBCMT:dll_dllmain.obj
 0001:00079d83       ?dllmain_raw@@YGHQAUHINSTANCE__@@KQAX@Z 1007ad83 f   LIBCMT:dll_dllmain.obj
 0001:0007a0b0       $$000000                   1007b0b0     LIBCMT:_sehprolg4_.obj
 0001:0007a222       ___get_entropy             1007b222 f   LIBCMT:gs_support.obj
 0001:0007a490       $$000000                   1007b490     libvcruntime:memset.obj
 0001:0007a5f0       $$000000                   1007b5f0     libvcruntime:memmove.obj
 0001:0007a854       TrailingUpVec              1007b854     libvcruntime:memmove.obj
 0001:0007a900       TrailingDownVec            1007b900     libvcruntime:memmove.obj
 0001:0007af20       $$000000                   1007bf20     libvcruntime:strstr.obj
 0001:0007b1c0       $$000000                   1007c1c0     libvcruntime:memcpy.obj
 0001:0007b424       TrailingUpVec              1007c424     libvcruntime:memcpy.obj
 0001:0007b4d0       TrailingDownVec            1007c4d0     libvcruntime:memcpy.obj
 0001:0007b7a0       _ValidateLocalCookies      1007c7a0 f   libvcruntime:_chandler4_.obj
 0001:0007bbe0       $$000000                   1007cbe0     libvcruntime:lowhelpr.obj
 0001:0007bc7e       ?CallCatchBlock@@YAPAXPAUEHExceptionRecord@@PAUEHRegistrationNode@@PAU_CONTEXT@@PBU_s_FuncInfo@@PAXHK@Z 1007cc7e f   libvcruntime:frame.obj
 0001:0007be3a       ?CallUnexpected@@YAXPBU_s_ESTypeList@@@Z 1007ce3a f   libvcruntime:frame.obj
 0001:0007be5a       __catch$?CallUnexpected@@YAXPBU_s_ESTypeList@@@Z$0 1007ce5a f   libvcruntime:frame.obj
 0001:0007be74       ?CatchIt@@YAXPAUEHExceptionRecord@@PAUEHRegistrationNode@@PAU_CONTEXT@@PAXPBU_s_FuncInfo@@PBU_s_HandlerType@@PBU_s_CatchableType@@PBU_s_TryBlockMapEntry@@H1E@Z 1007ce74 f   libvcruntime:frame.obj
 0001:0007beef       ?ExFilterRethrow@@YAHPAU_EXCEPTION_POINTERS@@@Z 1007ceef f   libvcruntime:frame.obj
 0001:0007bf39       ?FindHandler@@YAXPAUEHExceptionRecord@@PAUEHRegistrationNode@@PAU_CONTEXT@@PAXPBU_s_FuncInfo@@EH1@Z 1007cf39 f   libvcruntime:frame.obj
 0001:0007c2bf       ?FindHandlerForForeignException@@YAXPAUEHExceptionRecord@@PAUEHRegistrationNode@@PAU_CONTEXT@@PAXPBU_s_FuncInfo@@HH1@Z 1007d2bf f   libvcruntime:frame.obj
 0001:0007c3da       ?IsInExceptionSpec@@YAEPAUEHExceptionRecord@@PBU_s_ESTypeList@@@Z 1007d3da f   libvcruntime:frame.obj
 0001:0007c910       $$000000                   1007d910     libvcruntime:strchr.obj
 0001:0007cae0       ?try_get_first_available_module@@YAPAUHINSTANCE__@@QBW4module_id@?A0x0855b3bb@@0@Z 1007dae0 f   libvcruntime:winapi_downlevel.obj
 0001:0007cba6       ?try_get_function@@YAPAXW4function_id@?A0x0855b3bb@@QBDQBW4module_id@2@2@Z 1007dba6 f   libvcruntime:winapi_downlevel.obj
 0001:0007cdd0       $$000000                   1007ddd0     libvcruntime:_exsup4_.obj
 0001:0007ce60       __unwind_handler4          1007de60 f   libvcruntime:_exsup4_.obj
 0001:0007cf40       $$000000                   1007df40     libvcruntime:_exsup_.obj
 0001:0007cf61       __unwind_handler           1007df61 f   libvcruntime:_exsup_.obj
 0001:0007d1cb       ??$common_vsprintf@Vstandard_base@__crt_stdio_output@@D@@YAH_KQADIQBDQAU__crt_locale_pointers@@1@Z 1007e1cb f   libucrt:output.obj
 0001:0007d922       $LN54                      1007e922     libucrt:output.obj
 0001:0007de40       $LN19                      1007ee40     libucrt:output.obj
 0001:0007e684       ??$common_vsscanf@D@@YAH_KQBDI1QAU__crt_locale_pointers@@QAD@Z 1007f684 f   libucrt:input.obj
 0001:0007f0bc       $LN38                      100800bc     libucrt:input.obj
 0001:0007f1c0       $LN21                      100801c0     libucrt:input.obj
 0001:0007f99d       ??R<lambda_4794eb6df3f6f7d20e048423b4e04b2b>@@QBE_NXZ 1008099d f   libucrt:input.obj
 0001:0007f99d       ??R<lambda_24bca0711811e6233a81aece93ea4a83>@@QBE_NXZ 1008099d f   libucrt:input.obj
 0001:0007f99d       ??R<lambda_79c077965043167fb4fbb9f601780f11>@@QBE_NXZ 1008099d f   libucrt:input.obj
 0001:000825a5       $LN22                      100835a5     libucrt:input.obj
 0001:00082d1e       $LN18                      10083d1e     libucrt:input.obj
 0001:000834e0       $$000000                   100844e0     libucrt:87ctriga.obj
 0001:00083500       $$000000                   10084500     libucrt:acos_sse2_precise.obj
 0001:00083a20       $$000000                   10084a20     libucrt:cos_sse2_precise.obj
 0001:00083be0       $$000000                   10084be0     libucrt:sin_sse2_precise.obj
 0001:00083db0       $$000000                   10084db0     libucrt:sqrt_sse2_precise.obj
 0001:0008404e       ??$common_tox_l@$1?internal_islower_l@@YA_NHQAU__crt_locale_pointers@@@Z$1?internal_map_upper@@YAHH0@Z@@YAHHKQAU__crt_locale_pointers@@@Z 1008504e f   libucrt:tolower_toupper.obj
 0001:00084198       ??$common_tox_l@$1?internal_isupper_l@@YA_NHQAU__crt_locale_pointers@@@Z$1?internal_map_lower@@YAHH0@Z@@YAHHKQAU__crt_locale_pointers@@@Z 10085198 f   libucrt:tolower_toupper.obj
 0001:000842e2       ?internal_islower_l@@YA_NHQAU__crt_locale_pointers@@@Z 100852e2 f   libucrt:tolower_toupper.obj
 0001:000842ff       ?internal_isupper_l@@YA_NHQAU__crt_locale_pointers@@@Z 100852ff f   libucrt:tolower_toupper.obj
 0001:000843b0       ??$common_atof_l@D@@YANQBDQAU__crt_locale_pointers@@@Z 100853b0 f   libucrt:atof.obj
 0001:00084ac3       ??R<lambda_af0d5e41dc07595f2c52435db9a0efad>@@QBE_NXZ 10085ac3 f   libucrt:atof.obj
 0001:00084ac3       ??R<lambda_3a2f1c4b88a94fdfdc7bccff06592946>@@QBE_NXZ 10085ac3 f   libucrt:atof.obj
 0001:00084ac3       ??R<lambda_952f81e62542d0a726c252b8c2136a43>@@QBE_NXZ 10085ac3 f   libucrt:atof.obj
 0001:00084b20       $$000000                   10085b20     libucrt:strncpy.obj
 0001:00084c50       $$000000                   10085c50     libucrt:pow_sse2_precise.obj
 0001:000857a0       $$000000                   100867a0     libucrt:87fmod.obj
 0001:000857d0       $$000000                   100867d0     libucrt:strncmp.obj
 0001:00085850       $$000000                   10086850     libucrt:tan_sse2_precise.obj
 0001:00085af0       $$000000                   10086af0     libucrt:strncat.obj
 0001:00085dc3       ?atexit_exception_filter@@YAHK@Z 10086dc3 f   libucrt:exit.obj
 0001:00085dd6       ?common_exit@@YAXHW4_crt_exit_cleanup_mode@@W4_crt_exit_return_mode@@@Z 10086dd6 f   libucrt:exit.obj
 0001:00085eef       ?exit_or_terminate_process@@YAXI@Z 10086eef f   libucrt:exit.obj
 0001:00085f30       ?is_managed_app@@YA_NXZ    10086f30 f   libucrt:exit.obj
 0001:00085f74       ?try_cor_exit_process@@YAXI@Z 10086f74 f   libucrt:exit.obj
 0001:00086018       ??$common_configure_argv@D@@YAHW4_crt_argv_mode@@@Z 10087018 f   libucrt:argv_parsing.obj
 0001:0008613c       ??$parse_command_line@D@@YAXPADPAPAD0PAI2@Z 1008713c f   libucrt:argv_parsing.obj
 0001:00086311       ??$common_initialize_environment_nolock@D@@YAHXZ 10087311 f   libucrt:environment_initialization.obj
 0001:0008636a       ??$create_environment@D@@YAQAPADQAD@Z 1008736a f   libucrt:environment_initialization.obj
 0001:0008643b       ??$free_environment@D@@YAXQAPAD@Z 1008743b f   libucrt:environment_initialization.obj
 0001:0008643b       ??$free_environment@_W@@YAXQAPA_W@Z 1008743b f   libucrt:environment_initialization.obj
 0001:000864aa       ??$uninitialize_environment_internal@D@@YAXAAPAPAD@Z 100874aa f   libucrt:environment_initialization.obj
 0001:000864c5       ??$uninitialize_environment_internal@_W@@YAXAAPAPA_W@Z 100874c5 f   libucrt:environment_initialization.obj
 0001:0008662d       ??R<lambda_275893d493268fdec8709772e3fcec0e>@@QBEHXZ 1008762d f   libucrt:onexit.obj
 0001:0008674d       ??R<lambda_4e60a939b0d047cfe11ddc22648dfba9>@@QBEHXZ 1008774d f   libucrt:onexit.obj
 0001:00086922       _initialize_global_variables 10087922 f   libucrt:initialization.obj
 0001:00086934       _initialize_c              10087934 f   libucrt:initialization.obj
 0001:0008694e       _report_memory_leaks       1008794e f   libucrt:initialization.obj
 0001:0008694e       _uninitialize_c            1008794e f   libucrt:initialization.obj
 0001:0008694e       _uninitialize_global_state_isolation 1008794e f   libucrt:initialization.obj
 0001:0008694e       _initialize_global_state_isolation 1008794e f   libucrt:initialization.obj
 0001:0008694e       _initialize_environment    1008794e f   libucrt:initialization.obj
 0001:00086951       _uninitialize_environment  10087951 f   libucrt:initialization.obj
 0001:00086959       _initialize_pointers       10087959 f   libucrt:initialization.obj
 0001:00086996       _uninitialize_vcruntime    10087996 f   libucrt:initialization.obj
 0001:0008699f       _uninitialize_allocated_memory 1008799f f   libucrt:initialization.obj
 0001:00086e73       ??$common_xtox@KD@@YAHKQADII_N@Z 10087e73 f   libucrt:xtoa.obj
 0001:00087b68       ?construct_ptd@@YAXQAU__acrt_ptd@@QAPAU__crt_locale_data@@@Z 10088b68 f   libucrt:per_thread_data.obj
 0001:00087be1       ?destroy_fls@@YGXPAX@Z     10088be1 f   libucrt:per_thread_data.obj
 0001:00087c02       ?destroy_ptd@@YAXQAU__acrt_ptd@@@Z 10088c02 f   libucrt:per_thread_data.obj
 0001:00087cab       ?replace_current_thread_locale_nolock@@YAXQAU__acrt_ptd@@QAU__crt_locale_data@@@Z 10088cab f   libucrt:per_thread_data.obj
 0001:00087f55       ?fp_format_a@@YAHQBNPADIQADIH_NIQAU__crt_locale_pointers@@@Z 10088f55 f   libucrt:cvt.obj
 0001:00088258       ?fp_format_e@@YAHQBNQADI1IH_NIQAU__crt_locale_pointers@@@Z 10089258 f   libucrt:cvt.obj
 0001:000882f3       ?fp_format_e_internal@@YAHQADIH_NIQAU_strflt@@1QAU__crt_locale_pointers@@@Z 100892f3 f   libucrt:cvt.obj
 0001:0008843e       ?fp_format_f@@YAHQBNQADI1IHQAU__crt_locale_pointers@@@Z 1008943e f   libucrt:cvt.obj
 0001:000884cb       ?fp_format_f_internal@@YAHQADIHQAU_strflt@@_NQAU__crt_locale_pointers@@@Z 100894cb f   libucrt:cvt.obj
 0001:000885a2       ?fp_format_g@@YAHQBNQADI1IH_NIQAU__crt_locale_pointers@@@Z 100895a2 f   libucrt:cvt.obj
 0001:0008866a       ?fp_format_nan_or_infinity@@YAHW4__acrt_fp_class@@_NPADI1@Z 1008966a f   libucrt:cvt.obj
 0001:00088762       ?shift_bytes@@YAXQADI0H@Z  10089762 f   libucrt:cvt.obj
 0001:00088ab4       ?initialize_inherited_file_handles_nolock@@YAXXZ 10089ab4 f   libucrt:ioinit.obj
 0001:00088b6a       ?initialize_stdio_handles_nolock@@YAXXZ 10089b6a f   libucrt:ioinit.obj
 0001:00088db0       $$000000                   10089db0     libucrt:87triga.obj
 0001:00088e60       $$000000                   10089e60     libucrt:87cdisp.obj
 0001:00089300       $$000000                   1008a300     libucrt:acos.obj
 0001:00089450       $$000000                   1008a450     libucrt:cos.obj
 0001:00089580       $$000000                   1008a580     libucrt:sin.obj
 0001:000896b0       $$000000                   1008a6b0     libucrt:sqrt.obj
 0001:000897a3       ?__acrt_LCMapStringA_stat@@YAHPAU__crt_locale_pointers@@PB_WKPBDHPADHHH@Z 1008a7a3 f   libucrt:lcmapstringa.obj
 0001:00089aa0       $$000000                   1008aaa0     libucrt:pow.obj
 0001:00089d30       $$000000                   1008ad30     libucrt:87disp.obj
 0001:00089f30       $$000000                   1008af30     libucrt:tan.obj
 0001:0008a0f6       ?try_get_function@@YAPAXW4function_id@?A0x352e5c4b@@QBDQBW4module_id@2@2@Z 1008b0f6 f   libucrt:winapi_thunks.obj
 0001:0008a192       ?try_get_module@@YAPAUHINSTANCE__@@W4module_id@?A0x352e5c4b@@@Z 1008b192 f   libucrt:winapi_thunks.obj
 0001:0008a5df       ?<helper_func_cdecl>@<lambda_62bb7ecb46d0a77b591a051c43eb5ad1>@@CAHPBX0@Z 1008b5df f   libucrt:argv_wildcards.obj
 0001:0008a5f7       ??$common_expand_argv_wildcards@D@@YAHQAPADQAPAPAD@Z 1008b5f7 f   libucrt:argv_wildcards.obj
 0001:0008a787       ??$copy_and_add_argument_to_buffer@D@@YAHQBD0IAAV?$argument_list@D@?A0xb0e4b824@@@Z 1008b787 f   libucrt:argv_wildcards.obj
 0001:0008a81d       ??$expand_argument_wildcards@D@@YAHQAD0AAV?$argument_list@D@?A0xb0e4b824@@@Z 1008b81d f   libucrt:argv_wildcards.obj
 0001:0008aaf8       ??R<lambda_ad1ced32f4ac17aa236e5ef05d6b3b7c>@@QBEXXZ 1008baf8 f   libucrt:mbctype.obj
 0001:0008abbc       ?CPtoLocaleName@@YAPB_WH@Z 1008bbbc f   libucrt:mbctype.obj
 0001:0008abfa       ?getSystemCP@@YAHH@Z       1008bbfa f   libucrt:mbctype.obj
 0001:0008ac6d       ?setSBCS@@YAXPAU__crt_multibyte_data@@@Z 1008bc6d f   libucrt:mbctype.obj
 0001:0008acd2       ?setSBUpLow@@YAXPAU__crt_multibyte_data@@@Z 1008bcd2 f   libucrt:mbctype.obj
 0001:0008ae66       ?setmbcp_internal@@YAHH_N@Z 1008be66 f   libucrt:mbctype.obj
 0001:0008b218       _memcpy_s                  1008c218 f   libucrt:cfout.obj
 0001:0008b218       _memcpy_s                  1008c218 f   libucrt:mbctype.obj
 0001:0008b218       _memcpy_s                  1008c218 f   libucrt:input.obj
 0001:0008b299       ?x_ismbbtype_l@@YAHPAU__crt_locale_pointers@@IHH@Z 1008c299 f   libucrt:ismbbyte.obj
 0001:0008b323       ?find_end_of_double_null_terminated_sequence@@YAPB_WQB_W@Z 1008c323 f   libucrt:get_environment_from_os.obj
 0001:0008b5c2       ?get_global_action_nolock@@YAPAP6AXH@ZH@Z 1008c5c2 f   libucrt:signal.obj
 0001:0008b635       ?siglookup@@YAPAU__crt_signal_action_t@@HQAU1@@Z 1008c635 f   libucrt:signal.obj
 0001:0008b940       $$000000                   1008c940     libucrt:_strnicm.obj
 0001:0008d4c1       _common_flush_all          1008e4c1 f   libucrt:fflush.obj
 0001:0008d794       ?free_crt_array_internal@@YAXQAPBXI@Z 1008e794 f   libucrt:inittime.obj
 0001:0008dc59       ___get_abstract_control_sse2 1008ec59 f   libucrt:_fenvutils.obj
 0001:0008dcd6       ___get_abstract_control_x87 1008ecd6 f   libucrt:_fenvutils.obj
 0001:0008dd49       ___get_machine_control     1008ed49 f   libucrt:_fenvutils.obj
 0001:0008ddba       ___get_machine_control_sse2 1008edba f   libucrt:_fenvutils.obj
 0001:0008de3a       ___get_machine_status_sse2 1008ee3a f   libucrt:_fenvutils.obj
 0001:0008de9b       ___get_machine_status_x87  1008ee9b f   libucrt:_fenvutils.obj
 0001:0008e210       $$000000                   1008f210     libucrt:acos_pentium4.obj
 0001:0008e770       $$000000                   1008f770     libucrt:genexcep.obj
 0001:0008e7d0       $$000000                   1008f7d0     libucrt:common.obj
 0001:0008e960       $$000000                   1008f960     libucrt:cos_pentium4.obj
 0001:0008eb10       $$000000                   1008fb10     libucrt:sin_pentium4.obj
 0001:0008ed00       $$000000                   1008fd00     libucrt:pow_pentium4.obj
 0001:0008f820       $$000000                   10090820     libucrt:87tran.obj
 0001:0008fbb0       $$000000                   10090bb0     libucrt:tan_pentium4.obj
 0001:0008fe10       ?GetTableIndexFromLocaleName@@YAHPB_W@Z 10090e10 f   libucrt:lcidtoname_downlevel.obj
 0001:0008ff00       ?shortsort@@YAXPAD0IP6AHPBX1@Z@Z 10090f00 f   libucrt:qsort.obj
 0001:0008ffa0       ?swap@@YAXPAD0I@Z          10090fa0 f   libucrt:qsort.obj
 0001:0009037a       ??$common_tcsncpy_s@D@@YAHQADIQBDI@Z 1009137a f   libucrt:strncpy_s.obj
 0001:00090440       $$000000                   10091440     libucrt:strpbrk.obj
 0001:00090524       ?initialize_multibyte@@YAHXZ 10091524 f   libucrt:multibyte_initializer.obj
 0001:00090620       $$000000                   10091620     libucrt:log10.obj
 0001:00090770       $$000000                   10091770     libucrt:ceil_pentium4.obj
 0001:0009088d       ?write_double_translated_ansi_nolock@@YA?AUwrite_result@?A0x47fa6670@@HQBDI@Z 1009188d f   libucrt:write.obj
 0001:00090a40       ?write_double_translated_unicode_nolock@@YA?AUwrite_result@?A0x47fa6670@@QBDI@Z 10091a40 f   libucrt:write.obj
 0001:00090aad       ?write_requires_double_translation_nolock@@YA_NH@Z 10091aad f   libucrt:write.obj
 0001:00090b23       ?write_text_ansi_nolock@@YA?AUwrite_result@?A0x47fa6670@@HQBDI@Z 10091b23 f   libucrt:write.obj
 0001:00090c02       ?write_text_utf16le_nolock@@YA?AUwrite_result@?A0x47fa6670@@HQBDI@Z 10091c02 f   libucrt:write.obj
 0001:00090cf0       ?write_text_utf8_nolock@@YA?AUwrite_result@?A0x47fa6670@@HQBDI@Z 10091cf0 f   libucrt:write.obj
 0001:00091114       ??$common_lseek_nolock@_J@@YA_JH_JH@Z 10092114 f   libucrt:lseek.obj
 0001:00091e50       $$000000                   10092e50     libucrt:log10_pentium4.obj
 0001:000925a0       $$000000                   100935a0     LIBCMT:ulldvrm.obj
 0001:00092640       $$000000                   10093640     LIBCMT:llmul.obj
 0001:00092680       $$000000                   10093680     LIBCMT:llshl.obj
 0001:000926a0       $$000000                   100936a0     LIBCMT:ullshr.obj
 0001:000926c0       $$000000                   100936c0     LIBCMT:_sehprolg4gs_.obj
 0001:00092720       $$000000                   10093720     LIBCMT:lldvrm.obj
 0001:00092800       $$000000                   10093800     LIBCMT:alloca16.obj
 0001:00092830       $$000000                   10093830     libvcruntime:strrchr.obj
 0001:00092970       __unwindfunclet$?DispatchRestore@@YAHPAUedict_s@@PAUsaverestore_s@@H@Z$0 10093970 f   cbase.obj
 0001:00092978       __unwindfunclet$?DispatchRestore@@YAHPAUedict_s@@PAUsaverestore_s@@H@Z$1 10093978 f   cbase.obj
 0001:00092980       __ehhandler$?DispatchRestore@@YAHPAUedict_s@@PAUsaverestore_s@@H@Z 10093980 f   cbase.obj
 0001:00092990       __unwindfunclet$?RestoreGlobalState@@YAXPAUsaverestore_s@@@Z$0 10093990 f   world.obj
 0001:00092990       __unwindfunclet$?SaveReadFields@@YAXPAUsaverestore_s@@PBDPAXPAUTYPEDESCRIPTION@@H@Z$0 10093990 f   cbase.obj
 0001:00092998       __ehhandler$?RestoreGlobalState@@YAXPAUsaverestore_s@@@Z 10093998 f   world.obj
 0001:00092998       __ehhandler$?SaveReadFields@@YAXPAUsaverestore_s@@PBDPAXPAUTYPEDESCRIPTION@@H@Z 10093998 f   cbase.obj
 0001:000929b0       __unwindfunclet$?SaveWriteFields@@YAXPAUsaverestore_s@@PBDPAXPAUTYPEDESCRIPTION@@H@Z$0 100939b0 f   cbase.obj
 0001:000929b0       __unwindfunclet$?SaveGlobalState@@YAXPAUsaverestore_s@@@Z$0 100939b0 f   world.obj
 0001:000929b0       __unwindfunclet$?DispatchSave@@YAXPAUedict_s@@PAUsaverestore_s@@@Z$0 100939b0 f   cbase.obj
 0001:000929b8       __ehhandler$?SaveGlobalState@@YAXPAUsaverestore_s@@@Z 100939b8 f   world.obj
 0001:000929b8       __ehhandler$?SaveWriteFields@@YAXPAUsaverestore_s@@PBDPAXPAUTYPEDESCRIPTION@@H@Z 100939b8 f   cbase.obj
 0001:000929b8       __ehhandler$?DispatchSave@@YAXPAUedict_s@@PAUsaverestore_s@@@Z 100939b8 f   cbase.obj
 0001:000929d0       __unwindfunclet$?InstallGameRules@@YAPAVCGameRules@@XZ$0 100939d0 f   gamerules.obj
 0001:000929e2       __unwindfunclet$?InstallGameRules@@YAPAVCGameRules@@XZ$1 100939e2 f   gamerules.obj
 0001:000929f4       __ehhandler$?InstallGameRules@@YAPAVCGameRules@@XZ 100939f4 f   gamerules.obj
 0001:00092a00       __unwindfunclet$??0CHintMessage@@QAE@PBD_NPAV?$CUtlVector@PBD@@M@Z$0 10093a00 f   hintmessage.obj
 0001:00092a0b       __ehhandler$??0CHintMessage@@QAE@PBD_NPAV?$CUtlVector@PBD@@M@Z 10093a0b f   hintmessage.obj
 0001:00092a20       __unwindfunclet$?AddMessage@CHintMessageQueue@@QAE_NPBDM_NPAV?$CUtlVector@PBD@@@Z$0 10093a20 f   hintmessage.obj
 0001:00092a20       __unwindfunclet$?Spawn@CHostage@@UAEXXZ$0 10093a20 f   hostage.obj
 0001:00092a2f       __ehhandler$?Spawn@CHostage@@UAEXXZ 10093a2f f   hostage.obj
 0001:00092a2f       __ehhandler$?AddMessage@CHintMessageQueue@@QAE_NPBDM_NPAV?$CUtlVector@PBD@@@Z 10093a2f f   hintmessage.obj
 0001:00092a40       __unwindfunclet$??0CHalfLifeMultiplay@@QAE@XZ$0 10093a40 f   multiplay_gamerules.obj
 0001:00092a4b       __ehhandler$??0CHalfLifeMultiplay@@QAE@XZ 10093a4b f   multiplay_gamerules.obj
 0001:00092a60       __unwindfunclet$??0CHalfLifeTraining@@QAE@XZ$0 10093a60 f   training_gamerules.obj
 0001:00092a68       __ehhandler$??0CHalfLifeTraining@@QAE@XZ 10093a68 f   training_gamerules.obj
 0001:00092a80       __unwindfunclet$?ChangeList@CChangeLevel@@SAHPAULEVELLIST@@H@Z$0 10093a80 f   triggers.obj
 0001:00092a88       __ehhandler$?ChangeList@CChangeLevel@@SAHPAULEVELLIST@@H@Z 10093a88 f   triggers.obj
 0001:00092a92       __ehhandler$?CallUnexpected@@YAXPBU_s_ESTypeList@@@Z 10093a92 f   libvcruntime:frame.obj
 0001:00092ab0       ??__FhashItemMemPool@@YAXXZ 10093ab0 f   cbase.obj
 0001:00092ac0       ??__FstringsHashTable@@YAXXZ 10093ac0 f   cbase.obj
 0001:00092ae0       ??__Fg_GameMgrHelper@@YAXXZ 10093ae0 f   multiplay_gamerules.obj
 0002:00000120       ?stringsHashTable$initializer$@@3P6AXXZA 10094120     cbase.obj
 0002:00000124       ?hashItemMemPool$initializer$@@3P6AXXZA 10094124     cbase.obj
 0002:00000128       ?g_GameMgrHelper$initializer$@@3P6AXXZA 10094128     multiplay_gamerules.obj
 0002:0000012c       ?gGlobalState$initializer$@@3P6AXXZA 1009412c     world.obj
 0002:0001919c       _GS_ExceptionPointers      100ad19c     LIBCMT:gs_report.obj
 0002:000191a4       ?ExceptionTemplate@?1??_CxxThrowException@@9@8@4UEHExceptionRecord@@B 100ad1a4     libvcruntime:throw.obj
 0002:000191e0       ?module_names@?A0x0855b3bb@@3QBQB_WB 100ad1e0     libvcruntime:winapi_downlevel.obj
 0002:00019298       ?candidate_modules@?1??try_get_FlsAlloc@@YAP6GKP6GXPAX@Z@ZXZ@4QBW4module_id@?A0x0855b3bb@@B 100ad298     libvcruntime:winapi_downlevel.obj
 0002:000192ac       ?candidate_modules@?1??try_get_FlsFree@@YAP6GHK@ZXZ@4QBW4module_id@?A0x0855b3bb@@B 100ad2ac     libvcruntime:winapi_downlevel.obj
 0002:000192bc       ?candidate_modules@?1??try_get_FlsGetValue@@YAP6GPAXK@ZXZ@4QBW4module_id@?A0x0855b3bb@@B 100ad2bc     libvcruntime:winapi_downlevel.obj
 0002:000192d0       ?candidate_modules@?1??try_get_FlsSetValue@@YAP6GHKPAX@ZXZ@4QBW4module_id@?A0x0855b3bb@@B 100ad2d0     libvcruntime:winapi_downlevel.obj
 0002:000192e4       ?candidate_modules@?1??try_get_InitializeCriticalSectionEx@@YAP6GHPAU_RTL_CRITICAL_SECTION@@KK@ZXZ@4QBW4module_id@?A0x0855b3bb@@B 100ad2e4     libvcruntime:winapi_downlevel.obj
 0002:00019308       ?tokenTable@@3QBQBDB       100ad308     libvcruntime:undname.obj
 0002:00019340       ?nameTable@@3QBQBDB        100ad340     libvcruntime:undname.obj
 0002:00019488       ?rttiTable@@3QBQBDB        100ad488     libvcruntime:undname.obj
 0002:0001a6d0       Shifter                    100ae6d0     libucrt:acos_sse2_precise.obj
 0002:0001a6e0       PI_BY_2                    100ae6e0     libucrt:acos_sse2_precise.obj
 0002:0001a6f0       NEG_PI                     100ae6f0     libucrt:acos_sse2_precise.obj
 0002:0001a700       PI                         100ae700     libucrt:acos_sse2_precise.obj
 0002:0001a710       SIGNMASK                   100ae710     libucrt:acos_sse2_precise.obj
 0002:0001a720       HALFMASK                   100ae720     libucrt:acos_sse2_precise.obj
 0002:0001a730       HALFMASK2                  100ae730     libucrt:acos_sse2_precise.obj
 0002:0001a740       cv                         100ae740     libucrt:acos_sse2_precise.obj
 0002:0001a760       cv2                        100ae760     libucrt:acos_sse2_precise.obj
 0002:0001a7a0       ABSVALMASK                 100ae7a0     libucrt:acos_sse2_precise.obj
 0002:0001a7a8       TMASK                      100ae7a8     libucrt:acos_sse2_precise.obj
 0002:0001a7b0       ONEMASK                    100ae7b0     libucrt:acos_sse2_precise.obj
 0002:0001a7b8       ONE_BY_2                   100ae7b8     libucrt:acos_sse2_precise.obj
 0002:0001a7c0       EMIN                       100ae7c0     libucrt:acos_sse2_precise.obj
 0002:0001a7c8       MAX_ARG                    100ae7c8     libucrt:acos_sse2_precise.obj
 0002:0001a7d0       MIN_ARG                    100ae7d0     libucrt:acos_sse2_precise.obj
 0002:0001a7d8       INF                        100ae7d8     libucrt:acos_sse2_precise.obj
 0002:0001a7e0       ZERO                       100ae7e0     libucrt:acos_sse2_precise.obj
 0002:0001a7e8       ALPHA                      100ae7e8     libucrt:acos_sse2_precise.obj
 0002:0001a7f0       SC_1                       100ae7f0     libucrt:cos_sse2_precise.obj
 0002:0001a800       SC_2                       100ae800     libucrt:cos_sse2_precise.obj
 0002:0001a810       SC_3                       100ae810     libucrt:cos_sse2_precise.obj
 0002:0001a820       SC_4                       100ae820     libucrt:cos_sse2_precise.obj
 0002:0001a830       PI32INV                    100ae830     libucrt:cos_sse2_precise.obj
 0002:0001a838       SHIFTER                    100ae838     libucrt:cos_sse2_precise.obj
 0002:0001a840       P_2                        100ae840     libucrt:cos_sse2_precise.obj
 0002:0001a850       P_1                        100ae850     libucrt:cos_sse2_precise.obj
 0002:0001a858       P_3                        100ae858     libucrt:cos_sse2_precise.obj
 0002:0001a860       TWO_POW_55                 100ae860     libucrt:cos_sse2_precise.obj
 0002:0001a868       TWO_POW_M55                100ae868     libucrt:cos_sse2_precise.obj
 0002:0001a870       ALL_ONES                   100ae870     libucrt:cos_sse2_precise.obj
 0002:0001a878       NEG_ZERO                   100ae878     libucrt:cos_sse2_precise.obj
 0002:0001a880       ONE                        100ae880     libucrt:cos_sse2_precise.obj
 0002:0001a890       SIGN_MASK                  100ae890     libucrt:cos_sse2_precise.obj
 0002:0001a8a0       SC_1                       100ae8a0     libucrt:sin_sse2_precise.obj
 0002:0001a8b0       SC_2                       100ae8b0     libucrt:sin_sse2_precise.obj
 0002:0001a8c0       SC_3                       100ae8c0     libucrt:sin_sse2_precise.obj
 0002:0001a8d0       SC_4                       100ae8d0     libucrt:sin_sse2_precise.obj
 0002:0001a8e0       PI32INV                    100ae8e0     libucrt:sin_sse2_precise.obj
 0002:0001a8e8       SHIFTER                    100ae8e8     libucrt:sin_sse2_precise.obj
 0002:0001a8f0       P_2                        100ae8f0     libucrt:sin_sse2_precise.obj
 0002:0001a900       P_1                        100ae900     libucrt:sin_sse2_precise.obj
 0002:0001a908       P_3                        100ae908     libucrt:sin_sse2_precise.obj
 0002:0001a910       TWO_POW_55                 100ae910     libucrt:sin_sse2_precise.obj
 0002:0001a918       TWO_POW_M55                100ae918     libucrt:sin_sse2_precise.obj
 0002:0001a920       ALL_ONES                   100ae920     libucrt:sin_sse2_precise.obj
 0002:0001a928       NEG_ZERO                   100ae928     libucrt:sin_sse2_precise.obj
 0002:0001a930       ONE                        100ae930     libucrt:sin_sse2_precise.obj
 0002:0001a980       Shifter                    100ae980     libucrt:pow_sse2_precise.obj
 0002:0001a990       SIGMASK                    100ae990     libucrt:pow_sse2_precise.obj
 0002:0001a9a0       ONEMASK                    100ae9a0     libucrt:pow_sse2_precise.obj
 0002:0001a9b0       ABSVALMASK                 100ae9b0     libucrt:pow_sse2_precise.obj
 0002:0001a9c0       cev                        100ae9c0     libucrt:pow_sse2_precise.obj
 0002:0001a9e8       HALFSIG                    100ae9e8     libucrt:pow_sse2_precise.obj
 0002:0001a9f0       LHN                        100ae9f0     libucrt:pow_sse2_precise.obj
 0002:0001a9f8       sNaN                       100ae9f8     libucrt:pow_sse2_precise.obj
 0002:0001aa00       INF                        100aea00     libucrt:pow_sse2_precise.obj
 0002:0001aa08       NEG_INF                    100aea08     libucrt:pow_sse2_precise.obj
 0002:0001aa10       NEG_ZERO                   100aea10     libucrt:pow_sse2_precise.obj
 0002:0001aa18       NEG_BIG                    100aea18     libucrt:pow_sse2_precise.obj
 0002:0001aa20       POS_BIG                    100aea20     libucrt:pow_sse2_precise.obj
 0002:0001aa28       EMIN                       100aea28     libucrt:pow_sse2_precise.obj
 0002:0001aa30       QIND                       100aea30     libucrt:pow_sse2_precise.obj
 0002:0001aa90       PI32INV                    100aea90     libucrt:tan_sse2_precise.obj
 0002:0001aaa0       SHIFTER                    100aeaa0     libucrt:tan_sse2_precise.obj
 0002:0001aab0       P_1                        100aeab0     libucrt:tan_sse2_precise.obj
 0002:0001aac0       P_2                        100aeac0     libucrt:tan_sse2_precise.obj
 0002:0001aad0       P_3                        100aead0     libucrt:tan_sse2_precise.obj
 0002:0001aae0       QQ_2                       100aeae0     libucrt:tan_sse2_precise.obj
 0002:0001aae8       ONE                        100aeae8     libucrt:tan_sse2_precise.obj
 0002:0001aaf0       MASK_35                    100aeaf0     libucrt:tan_sse2_precise.obj
 0002:0001ab00       sign_mask                  100aeb00     libucrt:tan_sse2_precise.obj
 0002:0001ab08       TWO_POW_55                 100aeb08     libucrt:tan_sse2_precise.obj
 0002:0001ab10       TWO_POW_M55                100aeb10     libucrt:tan_sse2_precise.obj
 0002:0001ab18       TWO_POW_M53                100aeb18     libucrt:tan_sse2_precise.obj
 0002:0001ab20       INF                        100aeb20     libucrt:tan_sse2_precise.obj
 0002:0001abf8       ___acrt_initializers       100aebf8     libucrt:initialization.obj
 0002:0001ac70       _errtable                  100aec70     libucrt:errno.obj
 0002:0001b940       DblMax                     100af940     libucrt:87cdisp.obj
 0002:0001b948       DblMin                     100af948     libucrt:87cdisp.obj
 0002:0001b950       IeeeAdjO                   100af950     libucrt:87cdisp.obj
 0002:0001b958       IeeeAdjU                   100af958     libucrt:87cdisp.obj
 0002:0001b960       _infinity                  100af960     libucrt:87cdisp.obj
 0002:0001b968       _zero                      100af968     libucrt:87cdisp.obj
 0002:0001b9a0       _NAME_                     100af9a0     libucrt:acos.obj
 0002:0001d0b0       _NAME_                     100b10b0     libucrt:cos.obj
 0002:0001d8c0       _NAME_                     100b18c0     libucrt:sin.obj
 0002:0001d8d0       _NAME_                     100b18d0     libucrt:sqrt.obj
 0002:0001d8e0       POW_name                   100b18e0     libucrt:pow.obj
 0002:0002118e       One                        100b518e     libucrt:87disp.obj
 0002:00021196       Three                      100b5196     libucrt:87disp.obj
 0002:0002119e       XAMtoTagTab                100b519e     libucrt:87disp.obj
 0002:000211b0       _NAME_                     100b51b0     libucrt:tan.obj
 0002:000227c0       _module_names              100b67c0     libucrt:winapi_thunks.obj
 0002:00022c74       ?candidate_modules@?1??try_get_AreFileApisANSI@@YAP6GHXZXZ@4QBW4module_id@?A0x352e5c4b@@B 100b6c74     libucrt:winapi_thunks.obj
 0002:00022c88       ?candidate_modules@?1??try_get_FlsAlloc@@YAP6GKP6GXPAX@Z@ZXZ@4QBW4module_id@?A0x352e5c4b@@B 100b6c88     libucrt:winapi_thunks.obj
 0002:00022c90       ?candidate_modules@?1??try_get_FlsFree@@YAP6GHK@ZXZ@4QBW4module_id@?A0x352e5c4b@@B 100b6c90     libucrt:winapi_thunks.obj
 0002:00022c98       ?candidate_modules@?1??try_get_FlsGetValue@@YAP6GPAXK@ZXZ@4QBW4module_id@?A0x352e5c4b@@B 100b6c98     libucrt:winapi_thunks.obj
 0002:00022ca0       ?candidate_modules@?1??try_get_FlsSetValue@@YAP6GHKPAX@ZXZ@4QBW4module_id@?A0x352e5c4b@@B 100b6ca0     libucrt:winapi_thunks.obj
 0002:00022ca8       ?candidate_modules@?1??try_get_GetCurrentPackageId@@YAP6GJPAIPAE@ZXZ@4QBW4module_id@?A0x352e5c4b@@B 100b6ca8     libucrt:winapi_thunks.obj
 0002:00022cc4       ?candidate_modules@?1??try_get_InitializeCriticalSectionEx@@YAP6GHPAU_RTL_CRITICAL_SECTION@@KK@ZXZ@4QBW4module_id@?A0x352e5c4b@@B 100b6cc4     libucrt:winapi_thunks.obj
 0002:00022ccc       ?candidate_modules@?1??try_get_LCMapStringEx@@YAP6GHPB_WK0HPA_WHPAU_nlsversioninfo@@PAXJ@ZXZ@4QBW4module_id@?A0x352e5c4b@@B 100b6ccc     libucrt:winapi_thunks.obj
 0002:00022ce4       ?candidate_modules@?1??try_get_LocaleNameToLCID@@YAP6GKPB_WK@ZXZ@4QBW4module_id@?A0x352e5c4b@@B 100b6ce4     libucrt:winapi_thunks.obj
 0002:00022d00       __mb_locale_names          100b6d00     libucrt:mbctype.obj
 0002:00022d70       Shifter                    100b6d70     libucrt:acos_pentium4.obj
 0002:00022d80       PI_BY_2                    100b6d80     libucrt:acos_pentium4.obj
 0002:00022d90       NEG_PI                     100b6d90     libucrt:acos_pentium4.obj
 0002:00022da0       PI                         100b6da0     libucrt:acos_pentium4.obj
 0002:00022db0       SIGNMASK                   100b6db0     libucrt:acos_pentium4.obj
 0002:00022dc0       HALFMASK                   100b6dc0     libucrt:acos_pentium4.obj
 0002:00022dd0       HALFMASK2                  100b6dd0     libucrt:acos_pentium4.obj
 0002:00022de0       cv                         100b6de0     libucrt:acos_pentium4.obj
 0002:00022e00       cv2                        100b6e00     libucrt:acos_pentium4.obj
 0002:00022e40       ABSVALMASK                 100b6e40     libucrt:acos_pentium4.obj
 0002:00022e48       TMASK                      100b6e48     libucrt:acos_pentium4.obj
 0002:00022e50       ONEMASK                    100b6e50     libucrt:acos_pentium4.obj
 0002:00022e58       ONE_BY_2                   100b6e58     libucrt:acos_pentium4.obj
 0002:00022e60       EMIN                       100b6e60     libucrt:acos_pentium4.obj
 0002:00022e68       MAX_ARG                    100b6e68     libucrt:acos_pentium4.obj
 0002:00022e70       MIN_ARG                    100b6e70     libucrt:acos_pentium4.obj
 0002:00022e78       INF                        100b6e78     libucrt:acos_pentium4.obj
 0002:00022e80       ZERO                       100b6e80     libucrt:acos_pentium4.obj
 0002:00022e88       ALPHA                      100b6e88     libucrt:acos_pentium4.obj
 0002:00022e90       One                        100b6e90     libucrt:common.obj
 0002:00022ea4       DblMax                     100b6ea4     libucrt:common.obj
 0002:00022eac       DblMin                     100b6eac     libucrt:common.obj
 0002:00022eb4       IeeeAdjO                   100b6eb4     libucrt:common.obj
 0002:00022ebc       IeeeAdjU                   100b6ebc     libucrt:common.obj
 0002:00022ec4       _infinity                  100b6ec4     libucrt:common.obj
 0002:00022ecc       _zero                      100b6ecc     libucrt:common.obj
 0002:00022ee0       SC_1                       100b6ee0     libucrt:cos_pentium4.obj
 0002:00022ef0       SC_2                       100b6ef0     libucrt:cos_pentium4.obj
 0002:00022f00       SC_3                       100b6f00     libucrt:cos_pentium4.obj
 0002:00022f10       SC_4                       100b6f10     libucrt:cos_pentium4.obj
 0002:00022f20       PI32INV                    100b6f20     libucrt:cos_pentium4.obj
 0002:00022f28       SHIFTER                    100b6f28     libucrt:cos_pentium4.obj
 0002:00022f30       P_2                        100b6f30     libucrt:cos_pentium4.obj
 0002:00022f40       P_1                        100b6f40     libucrt:cos_pentium4.obj
 0002:00022f48       P_3                        100b6f48     libucrt:cos_pentium4.obj
 0002:00022f50       TWO_POW_55                 100b6f50     libucrt:cos_pentium4.obj
 0002:00022f58       TWO_POW_M55                100b6f58     libucrt:cos_pentium4.obj
 0002:00022f60       ALL_ONES                   100b6f60     libucrt:cos_pentium4.obj
 0002:00022f68       NEG_ZERO                   100b6f68     libucrt:cos_pentium4.obj
 0002:00022f70       ONE                        100b6f70     libucrt:cos_pentium4.obj
 0002:00022f80       SIGN_MASK                  100b6f80     libucrt:cos_pentium4.obj
 0002:00022f90       SC_1                       100b6f90     libucrt:sin_pentium4.obj
 0002:00022fa0       SC_2                       100b6fa0     libucrt:sin_pentium4.obj
 0002:00022fb0       SC_3                       100b6fb0     libucrt:sin_pentium4.obj
 0002:00022fc0       SC_4                       100b6fc0     libucrt:sin_pentium4.obj
 0002:00022fd0       PI32INV                    100b6fd0     libucrt:sin_pentium4.obj
 0002:00022fd8       SHIFTER                    100b6fd8     libucrt:sin_pentium4.obj
 0002:00022fe0       P_2                        100b6fe0     libucrt:sin_pentium4.obj
 0002:00022ff0       P_1                        100b6ff0     libucrt:sin_pentium4.obj
 0002:00022ff8       P_3                        100b6ff8     libucrt:sin_pentium4.obj
 0002:00023000       TWO_POW_55                 100b7000     libucrt:sin_pentium4.obj
 0002:00023008       TWO_POW_M55                100b7008     libucrt:sin_pentium4.obj
 0002:00023010       ALL_ONES                   100b7010     libucrt:sin_pentium4.obj
 0002:00023018       NEG_ZERO                   100b7018     libucrt:sin_pentium4.obj
 0002:00023020       ONE                        100b7020     libucrt:sin_pentium4.obj
 0002:00023030       Shifter                    100b7030     libucrt:pow_pentium4.obj
 0002:00023040       SIGMASK                    100b7040     libucrt:pow_pentium4.obj
 0002:00023050       ONEMASK                    100b7050     libucrt:pow_pentium4.obj
 0002:00023060       ABSVALMASK                 100b7060     libucrt:pow_pentium4.obj
 0002:00023070       cev                        100b7070     libucrt:pow_pentium4.obj
 0002:00023098       HALFSIG                    100b7098     libucrt:pow_pentium4.obj
 0002:000230a0       LHN                        100b70a0     libucrt:pow_pentium4.obj
 0002:000230a8       sNaN                       100b70a8     libucrt:pow_pentium4.obj
 0002:000230b0       INF                        100b70b0     libucrt:pow_pentium4.obj
 0002:000230b8       NEG_INF                    100b70b8     libucrt:pow_pentium4.obj
 0002:000230c0       NEG_ZERO                   100b70c0     libucrt:pow_pentium4.obj
 0002:000230c8       NEG_BIG                    100b70c8     libucrt:pow_pentium4.obj
 0002:000230d0       POS_BIG                    100b70d0     libucrt:pow_pentium4.obj
 0002:000230d8       EMIN                       100b70d8     libucrt:pow_pentium4.obj
 0002:000230e0       QIND                       100b70e0     libucrt:pow_pentium4.obj
 0002:0002310e       _log2max                   100b710e     libucrt:87tran.obj
 0002:00023118       _smallarg                  100b7118     libucrt:87tran.obj
 0002:00023122       _half                      100b7122     libucrt:87tran.obj
 0002:00023150       PI32INV                    100b7150     libucrt:tan_pentium4.obj
 0002:00023160       SHIFTER                    100b7160     libucrt:tan_pentium4.obj
 0002:00023170       P_1                        100b7170     libucrt:tan_pentium4.obj
 0002:00023180       P_2                        100b7180     libucrt:tan_pentium4.obj
 0002:00023190       P_3                        100b7190     libucrt:tan_pentium4.obj
 0002:000231a0       QQ_2                       100b71a0     libucrt:tan_pentium4.obj
 0002:000231a8       ONE                        100b71a8     libucrt:tan_pentium4.obj
 0002:000231b0       MASK_35                    100b71b0     libucrt:tan_pentium4.obj
 0002:000231c0       sign_mask                  100b71c0     libucrt:tan_pentium4.obj
 0002:000231c8       TWO_POW_55                 100b71c8     libucrt:tan_pentium4.obj
 0002:000231d0       TWO_POW_M55                100b71d0     libucrt:tan_pentium4.obj
 0002:000231d8       TWO_POW_M53                100b71d8     libucrt:tan_pentium4.obj
 0002:000231e0       INF                        100b71e0     libucrt:tan_pentium4.obj
 0002:000231f0       _LcidToLocaleNameTable     100b71f0     libucrt:lcidtoname_downlevel.obj
 0002:00024310       _LocaleNameToIndexTable    100b8310     libucrt:lcidtoname_downlevel.obj
 0002:00025260       LOG_name                   100b9260     libucrt:log10.obj
 0002:00025270       _One                       100b9270     libucrt:ceil_pentium4.obj
 0002:00025280       _Bns                       100b9280     libucrt:ceil_pentium4.obj
 0002:00025290       _Zero                      100b9290     libucrt:ceil_pentium4.obj
 0002:000252a0       _S                         100b92a0     libucrt:ceil_pentium4.obj
 0002:000252b0       _NegZero                   100b92b0     libucrt:ceil_pentium4.obj
 0002:00025348       ?_names@?1??_get_fname@@9@9 100b9348     libucrt:fpexcept.obj
 0002:00025440       _over                      100b9440     libucrt:fpctrl.obj
 0002:0002544c       _under                     100b944c     libucrt:fpctrl.obj
 0002:00025470       emask                      100b9470     libucrt:log10_pentium4.obj
 0002:00025480       CC                         100b9480     libucrt:log10_pentium4.obj
 0002:00025490       Magic                      100b9490     libucrt:log10_pentium4.obj
 0002:000254a0       hi_mask                    100b94a0     libucrt:log10_pentium4.obj
 0002:000254b0       LOG10_2                    100b94b0     libucrt:log10_pentium4.obj
 0002:000254c0       place_L                    100b94c0     libucrt:log10_pentium4.obj
 0002:000254e0       One                        100b94e0     libucrt:log10_pentium4.obj
 0002:000254f0       Zero                       100b94f0     libucrt:log10_pentium4.obj
 0002:00025500       Two52                      100b9500     libucrt:log10_pentium4.obj
 0002:00025510       Infs                       100b9510     libucrt:log10_pentium4.obj
 0002:00025520       NaN                        100b9520     libucrt:log10_pentium4.obj
 0002:00025530       coeff                      100b9530     libucrt:log10_pentium4.obj
 0002:0002a730       __unwindtable$?DispatchRestore@@YAHPAUedict_s@@PAUsaverestore_s@@H@Z 100be730     cbase.obj
 0002:0002a740       __ehfuncinfo$?DispatchRestore@@YAHPAUedict_s@@PAUsaverestore_s@@H@Z 100be740     cbase.obj
 0002:0002a764       __unwindtable$?DispatchSave@@YAXPAUedict_s@@PAUsaverestore_s@@@Z 100be764     cbase.obj
 0002:0002a764       __unwindtable$?SaveGlobalState@@YAXPAUsaverestore_s@@@Z 100be764     world.obj
 0002:0002a764       __unwindtable$?SaveWriteFields@@YAXPAUsaverestore_s@@PBDPAXPAUTYPEDESCRIPTION@@H@Z 100be764     cbase.obj
 0002:0002a76c       __ehfuncinfo$?SaveGlobalState@@YAXPAUsaverestore_s@@@Z 100be76c     world.obj
 0002:0002a76c       __ehfuncinfo$?DispatchSave@@YAXPAUedict_s@@PAUsaverestore_s@@@Z 100be76c     cbase.obj
 0002:0002a76c       __ehfuncinfo$?SaveWriteFields@@YAXPAUsaverestore_s@@PBDPAXPAUTYPEDESCRIPTION@@H@Z 100be76c     cbase.obj
 0002:0002a790       __unwindtable$?RestoreGlobalState@@YAXPAUsaverestore_s@@@Z 100be790     world.obj
 0002:0002a790       __unwindtable$?SaveReadFields@@YAXPAUsaverestore_s@@PBDPAXPAUTYPEDESCRIPTION@@H@Z 100be790     cbase.obj
 0002:0002a798       __ehfuncinfo$?RestoreGlobalState@@YAXPAUsaverestore_s@@@Z 100be798     world.obj
 0002:0002a798       __ehfuncinfo$?SaveReadFields@@YAXPAUsaverestore_s@@PBDPAXPAUTYPEDESCRIPTION@@H@Z 100be798     cbase.obj
 0002:0002a7bc       __unwindtable$?InstallGameRules@@YAPAVCGameRules@@XZ 100be7bc     gamerules.obj
 0002:0002a7cc       __ehfuncinfo$?InstallGameRules@@YAPAVCGameRules@@XZ 100be7cc     gamerules.obj
 0002:0002a7f0       __unwindtable$??0CHintMessage@@QAE@PBD_NPAV?$CUtlVector@PBD@@M@Z 100be7f0     hintmessage.obj
 0002:0002a7f8       __ehfuncinfo$??0CHintMessage@@QAE@PBD_NPAV?$CUtlVector@PBD@@M@Z 100be7f8     hintmessage.obj
 0002:0002a81c       __unwindtable$?AddMessage@CHintMessageQueue@@QAE_NPBDM_NPAV?$CUtlVector@PBD@@@Z 100be81c     hintmessage.obj
 0002:0002a81c       __unwindtable$?Spawn@CHostage@@UAEXXZ 100be81c     hostage.obj
 0002:0002a824       __ehfuncinfo$?AddMessage@CHintMessageQueue@@QAE_NPBDM_NPAV?$CUtlVector@PBD@@@Z 100be824     hintmessage.obj
 0002:0002a824       __ehfuncinfo$?Spawn@CHostage@@UAEXXZ 100be824     hostage.obj
 0002:0002a848       __unwindtable$??0CHalfLifeMultiplay@@QAE@XZ 100be848     multiplay_gamerules.obj
 0002:0002a850       __ehfuncinfo$??0CHalfLifeMultiplay@@QAE@XZ 100be850     multiplay_gamerules.obj
 0002:0002a874       __unwindtable$??0CHalfLifeTraining@@QAE@XZ 100be874     training_gamerules.obj
 0002:0002a87c       __ehfuncinfo$??0CHalfLifeTraining@@QAE@XZ 100be87c     training_gamerules.obj
 0002:0002a8a0       __unwindtable$?ChangeList@CChangeLevel@@SAHPAULEVELLIST@@H@Z 100be8a0     triggers.obj
 0002:0002a8a8       __ehfuncinfo$?ChangeList@CChangeLevel@@SAHPAULEVELLIST@@H@Z 100be8a8     triggers.obj
 0002:0002a8d0       __sehtable$___scrt_is_nonwritable_in_current_image 100be8d0     LIBCMT:utility.obj
 0002:0002a8f0       __sehtable$?dllmain_crt_process_attach@@YAHQAUHINSTANCE__@@QAX@Z 100be8f0     LIBCMT:dll_dllmain.obj
 0002:0002a910       __sehtable$?dllmain_crt_process_detach@@YAH_N@Z 100be910     LIBCMT:dll_dllmain.obj
 0002:0002a930       __sehtable$?dllmain_dispatch@@YAHQAUHINSTANCE__@@KQAX@Z 100be930     LIBCMT:dll_dllmain.obj
 0002:0002a9e0       __sehtable$___BuildCatchObject 100be9e0     libvcruntime:frame.obj
 0002:0002aa00       __sehtable$___FrameUnwindToState 100bea00     libvcruntime:frame.obj
 0002:0002aa28       __sehtable$?CallCatchBlock@@YAPAXPAUEHExceptionRecord@@PAUEHRegistrationNode@@PAU_CONTEXT@@PBU_s_FuncInfo@@PAXHK@Z 100bea28     libvcruntime:frame.obj
 0002:0002aa50       __catchsym$?CallUnexpected@@YAXPBU_s_ESTypeList@@@Z$2 100bea50     libvcruntime:frame.obj
 0002:0002aa60       __unwindtable$?CallUnexpected@@YAXPBU_s_ESTypeList@@@Z 100bea60     libvcruntime:frame.obj
 0002:0002aa70       __tryblocktable$?CallUnexpected@@YAXPBU_s_ESTypeList@@@Z 100bea70     libvcruntime:frame.obj
 0002:0002aa84       __ehfuncinfo$?CallUnexpected@@YAXPBU_s_ESTypeList@@@Z 100bea84     libvcruntime:frame.obj
 0002:0002aaa8       __sehtable$___BuildCatchObjectHelper 100beaa8     libvcruntime:frame.obj
 0002:0002ab00       __sehtable$___DestructExceptionObject 100beb00     libvcruntime:ehhelpers.obj
 0002:0002ab20       __sehtable$?common_exit@@YAXHW4_crt_exit_cleanup_mode@@W4_crt_exit_return_mode@@@Z 100beb20     libucrt:exit.obj
 0002:0002ab48       __sehtable$??$?RV<lambda_800076c951b434888f4765a74a194fcc>@@AAV<lambda_4e60a939b0d047cfe11ddc22648dfba9>@@V<lambda_6dbb1268764f43b569ce7b67e331d33a>@@@?$__crt_seh_guarded_call@H@@QAEH$$QAV<lambda_800076c951b434888f4765a74a194fcc>@@AAV<lambda_4e60a939b0d047cfe11ddc22648dfba9>@@$$QAV<lambda_6dbb1268764f43b569ce7b67e331d33a>@@@Z 100beb48     libucrt:onexit.obj
 0002:0002ab68       __sehtable$??$?RV<lambda_995298e7d72eb4c2aab26c0585b3abe5>@@AAV<lambda_275893d493268fdec8709772e3fcec0e>@@V<lambda_293819299cbf9a7022e18b56a874bb5c>@@@?$__crt_seh_guarded_call@H@@QAEH$$QAV<lambda_995298e7d72eb4c2aab26c0585b3abe5>@@AAV<lambda_275893d493268fdec8709772e3fcec0e>@@$$QAV<lambda_293819299cbf9a7022e18b56a874bb5c>@@@Z 100beb68     libucrt:onexit.obj
 0002:0002ab88       __sehtable$__query_new_handler 100beb88     libucrt:new_handler.obj
 0002:0002aba8       __sehtable$_terminate      100beba8     libucrt:terminate.obj
 0002:0002abc8       __sehtable$??$?RV<lambda_9df27f884b057bc3edfc946cb5b7cf47>@@AAV<lambda_e69574bed617af4e071282c136b37893>@@V<lambda_cc0d902bcbbeb830f749456577db4721>@@@?$__crt_seh_guarded_call@X@@QAEX$$QAV<lambda_9df27f884b057bc3edfc946cb5b7cf47>@@AAV<lambda_e69574bed617af4e071282c136b37893>@@$$QAV<lambda_cc0d902bcbbeb830f749456577db4721>@@@Z 100bebc8     libucrt:per_thread_data.obj
 0002:0002abe8       __sehtable$??$?RV<lambda_3518db117f0e7cdb002338c5d3c47b6c>@@AAV<lambda_b2ea41f6bbb362cd97d94c6828d90b61>@@V<lambda_abdedf541bb04549bc734292b4a045d4>@@@?$__crt_seh_guarded_call@X@@QAEX$$QAV<lambda_3518db117f0e7cdb002338c5d3c47b6c>@@AAV<lambda_b2ea41f6bbb362cd97d94c6828d90b61>@@$$QAV<lambda_abdedf541bb04549bc734292b4a045d4>@@@Z 100bebe8     libucrt:per_thread_data.obj
 0002:0002ac08       __sehtable$??$?RV<lambda_51b6e8b1eb166f2a3faf91f424b38130>@@AAV<lambda_6250bd4b2a391816dd638c3bf72b0bcb>@@V<lambda_0b5a4a3e68152e1d9b943535f5f47bed>@@@?$__crt_seh_guarded_call@X@@QAEX$$QAV<lambda_51b6e8b1eb166f2a3faf91f424b38130>@@AAV<lambda_6250bd4b2a391816dd638c3bf72b0bcb>@@$$QAV<lambda_0b5a4a3e68152e1d9b943535f5f47bed>@@@Z 100bec08     libucrt:per_thread_data.obj
 0002:0002ac28       __sehtable$??$?RV<lambda_5b71d36f03204c0beab531769a5b5694>@@AAV<lambda_be2b3da3f62db62e9dad5dc70221a656>@@V<lambda_8f9ce462984622f9bf76b59e2aaaf805>@@@?$__crt_seh_guarded_call@X@@QAEX$$QAV<lambda_5b71d36f03204c0beab531769a5b5694>@@AAV<lambda_be2b3da3f62db62e9dad5dc70221a656>@@$$QAV<lambda_8f9ce462984622f9bf76b59e2aaaf805>@@@Z 100bec28     libucrt:per_thread_data.obj
 0002:0002ac48       __sehtable$___acrt_uninitialize_locale 100bec48     libucrt:wsetlocale.obj
 0002:0002ac68       __sehtable$___acrt_initialize_lowio 100bec68     libucrt:ioinit.obj
 0002:0002ac88       __sehtable$___acrt_update_thread_multibyte_data 100bec88     libucrt:mbctype.obj
 0002:0002aca8       __sehtable$??$?RV<lambda_978dc153c237d78434369da87b74ff60>@@AAV<lambda_ad1ced32f4ac17aa236e5ef05d6b3b7c>@@V<lambda_4a8533e2866a575feecb8298ce776b0d>@@@?$__crt_seh_guarded_call@X@@QAEX$$QAV<lambda_978dc153c237d78434369da87b74ff60>@@AAV<lambda_ad1ced32f4ac17aa236e5ef05d6b3b7c>@@$$QAV<lambda_4a8533e2866a575feecb8298ce776b0d>@@@Z 100beca8     libucrt:mbctype.obj
 0002:0002acc8       __sehtable$_raise          100becc8     libucrt:signal.obj
 0002:0002ace8       __sehtable$??$?RV<lambda_a048d3beccc847880fc8490e18b82769>@@AAV<lambda_ec61778202f4f5fc7e7711acc23c3bca>@@V<lambda_f7496a158712204296dd6628a163878e>@@@?$__crt_seh_guarded_call@P6AXH@Z@@QAEP6AXH@Z$$QAV<lambda_a048d3beccc847880fc8490e18b82769>@@AAV<lambda_ec61778202f4f5fc7e7711acc23c3bca>@@$$QAV<lambda_f7496a158712204296dd6628a163878e>@@@Z 100bece8     libucrt:signal.obj
 0002:0002ad08       __sehtable$___acrt_update_thread_locale_data 100bed08     libucrt:locale_refcounting.obj
 0002:0002ad28       __sehtable$__fcloseall     100bed28     libucrt:closeall.obj
 0002:0002ad48       __sehtable$_common_flush_all 100bed48     libucrt:fflush.obj
 0002:0002ad70       __sehtable$___acrt_lowio_ensure_fh_exists 100bed70     libucrt:osfinfo.obj
 0002:0002ad90       __sehtable$__write         100bed90     libucrt:write.obj
 0002:0002adb0       __sehtable$_fclose         100bedb0     libucrt:fclose.obj
 0002:0002add0       __sehtable$??$?RV<lambda_61cee617f5178ae960314fd4d05640a0>@@AAV<lambda_6978c1fb23f02e42e1d9e99668cc68aa>@@V<lambda_9cd88cf8ad10232537feb2133f08c833>@@@?$__crt_seh_guarded_call@H@@QAEH$$QAV<lambda_61cee617f5178ae960314fd4d05640a0>@@AAV<lambda_6978c1fb23f02e42e1d9e99668cc68aa>@@$$QAV<lambda_9cd88cf8ad10232537feb2133f08c833>@@@Z 100bedd0     libucrt:commit.obj
 0002:0002adf0       __sehtable$??$?RV<lambda_123407a5e2ac06da108355a851863b7a>@@AAV<lambda_2fe9b910cf3cbf4a0ab98a02ba45b3ec>@@V<lambda_ae55bdf541ad94d75914d381c370e64d>@@@?$__crt_seh_guarded_call@H@@QAEH$$QAV<lambda_123407a5e2ac06da108355a851863b7a>@@AAV<lambda_2fe9b910cf3cbf4a0ab98a02ba45b3ec>@@$$QAV<lambda_ae55bdf541ad94d75914d381c370e64d>@@@Z 100bedf0     libucrt:close.obj
 0002:0002ae10       __sehtable$__IsNonwritableInCurrentImage 100bee10     LIBCMT:pesect.obj
 0002:0002ae30       .edata                     100bee30     mp.exp
 0002:0002ae58       rgpv                       100bee58     mp.exp
 0002:0002b3ec       rgszName                   100bf3ec     mp.exp
 0002:0002b980       rgwOrd                     100bf980     mp.exp
 0002:0002bc4a       szName                     100bfc4a     mp.exp
 0002:0002bc51       $N00002                    100bfc51     mp.exp
 0002:0002bc76       $N00003                    100bfc76     mp.exp
 0002:0002bc94       $N00004                    100bfc94     mp.exp
 0002:0002bcb6       $N00005                    100bfcb6     mp.exp
 0002:0002bce5       $N00006                    100bfce5     mp.exp
 0002:0002bd13       $N00007                    100bfd13     mp.exp
 0002:0002bd48       $N00008                    100bfd48     mp.exp
 0002:0002bd89       $N00009                    100bfd89     mp.exp
 0002:0002bdb6       $N00010                    100bfdb6     mp.exp
 0002:0002bde4       $N00011                    100bfde4     mp.exp
 0002:0002be13       $N00012                    100bfe13     mp.exp
 0002:0002be37       $N00013                    100bfe37     mp.exp
 0002:0002be59       $N00014                    100bfe59     mp.exp
 0002:0002be7a       $N00015                    100bfe7a     mp.exp
 0002:0002beab       $N00016                    100bfeab     mp.exp
 0002:0002bee8       $N00017                    100bfee8     mp.exp
 0002:0002bf13       $N00018                    100bff13     mp.exp
 0002:0002bf2d       $N00019                    100bff2d     mp.exp
 0002:0002bf57       $N00020                    100bff57     mp.exp
 0002:0002bf75       $N00021                    100bff75     mp.exp
 0002:0002bf96       $N00022                    100bff96     mp.exp
 0002:0002bfb4       $N00023                    100bffb4     mp.exp
 0002:0002bfd0       $N00024                    100bffd0     mp.exp
 0002:0002bffc       $N00025                    100bfffc     mp.exp
 0002:0002c036       $N00026                    100c0036     mp.exp
 0002:0002c05c       $N00027                    100c005c     mp.exp
 0002:0002c09b       $N00028                    100c009b     mp.exp
 0002:0002c0bb       $N00029                    100c00bb     mp.exp
 0002:0002c0de       $N00030                    100c00de     mp.exp
 0002:0002c0ff       $N00031                    100c00ff     mp.exp
 0002:0002c11d       $N00032                    100c011d     mp.exp
 0002:0002c153       $N00033                    100c0153     mp.exp
 0002:0002c189       $N00034                    100c0189     mp.exp
 0002:0002c1a8       $N00035                    100c01a8     mp.exp
 0002:0002c1cd       $N00036                    100c01cd     mp.exp
 0002:0002c1e9       $N00037                    100c01e9     mp.exp
 0002:0002c205       $N00038                    100c0205     mp.exp
 0002:0002c220       $N00039                    100c0220     mp.exp
 0002:0002c25c       $N00040                    100c025c     mp.exp
 0002:0002c274       $N00041                    100c0274     mp.exp
 0002:0002c292       $N00042                    100c0292     mp.exp
 0002:0002c2ae       $N00043                    100c02ae     mp.exp
 0002:0002c2cf       $N00044                    100c02cf     mp.exp
 0002:0002c2ed       $N00045                    100c02ed     mp.exp
 0002:0002c31a       $N00046                    100c031a     mp.exp
 0002:0002c356       $N00047                    100c0356     mp.exp
 0002:0002c39e       $N00048                    100c039e     mp.exp
 0002:0002c3cf       $N00049                    100c03cf     mp.exp
 0002:0002c3f8       $N00050                    100c03f8     mp.exp
 0002:0002c415       $N00051                    100c0415     mp.exp
 0002:0002c444       $N00052                    100c0444     mp.exp
 0002:0002c467       $N00053                    100c0467     mp.exp
 0002:0002c4a8       $N00054                    100c04a8     mp.exp
 0002:0002c4c7       $N00055                    100c04c7     mp.exp
 0002:0002c4e5       $N00056                    100c04e5     mp.exp
 0002:0002c506       $N00057                    100c0506     mp.exp
 0002:0002c521       $N00058                    100c0521     mp.exp
 0002:0002c544       $N00059                    100c0544     mp.exp
 0002:0002c561       $N00060                    100c0561     mp.exp
 0002:0002c586       $N00001                    100c0586     mp.exp
 0002:0002c596       $N00061                    100c0596     mp.exp
 0002:0002c5b7       $N00062                    100c05b7     mp.exp
 0002:0002c5d6       $N00063                    100c05d6     mp.exp
 0002:0002c60c       $N00064                    100c060c     mp.exp
 0002:0002c647       $N00065                    100c0647     mp.exp
 0002:0002c677       $N00066                    100c0677     mp.exp
 0002:0002c6a8       $N00067                    100c06a8     mp.exp
 0002:0002c6c4       $N00068                    100c06c4     mp.exp
 0002:0002c6ed       $N00069                    100c06ed     mp.exp
 0002:0002c706       $N00070                    100c0706     mp.exp
 0002:0002c72a       $N00071                    100c072a     mp.exp
 0002:0002c74a       $N00072                    100c074a     mp.exp
 0002:0002c76e       $N00073                    100c076e     mp.exp
 0002:0002c7ae       $N00074                    100c07ae     mp.exp
 0002:0002c7d3       $N00075                    100c07d3     mp.exp
 0002:0002c7f8       $N00076                    100c07f8     mp.exp
 0002:0002c813       $N00077                    100c0813     mp.exp
 0002:0002c836       $N00078                    100c0836     mp.exp
 0002:0002c855       $N00079                    100c0855     mp.exp
 0002:0002c886       $N00080                    100c0886     mp.exp
 0002:0002c8aa       $N00081                    100c08aa     mp.exp
 0002:0002c8cf       $N00082                    100c08cf     mp.exp
 0002:0002c8f1       $N00083                    100c08f1     mp.exp
 0002:0002c90f       $N00084                    100c090f     mp.exp
 0002:0002c928       $N00085                    100c0928     mp.exp
 0002:0002c943       $N00086                    100c0943     mp.exp
 0002:0002c95c       $N00087                    100c095c     mp.exp
 0002:0002c97d       $N00088                    100c097d     mp.exp
 0002:0002c994       $N00089                    100c0994     mp.exp
 0002:0002c9ad       $N00090                    100c09ad     mp.exp
 0002:0002c9ea       $N00091                    100c09ea     mp.exp
 0002:0002ca23       $N00092                    100c0a23     mp.exp
 0002:0002ca49       $N00093                    100c0a49     mp.exp
 0002:0002ca67       $N00094                    100c0a67     mp.exp
 0002:0002ca8c       $N00095                    100c0a8c     mp.exp
 0002:0002caaf       $N00096                    100c0aaf     mp.exp
 0002:0002cacb       $N00097                    100c0acb     mp.exp
 0002:0002cae9       $N00098                    100c0ae9     mp.exp
 0002:0002cb08       $N00099                    100c0b08     mp.exp
 0002:0002cb21       $N00100                    100c0b21     mp.exp
 0002:0002cb45       $N00101                    100c0b45     mp.exp
 0002:0002cb72       $N00102                    100c0b72     mp.exp
 0002:0002cb90       $N00103                    100c0b90     mp.exp
 0002:0002cbd1       $N00104                    100c0bd1     mp.exp
 0002:0002cbef       $N00105                    100c0bef     mp.exp
 0002:0002cc0a       $N00106                    100c0c0a     mp.exp
 0002:0002cc2b       $N00107                    100c0c2b     mp.exp
 0002:0002cc52       $N00108                    100c0c52     mp.exp
 0002:0002cc75       $N00109                    100c0c75     mp.exp
 0002:0002cc96       $N00110                    100c0c96     mp.exp
 0002:0002ccb6       $N00111                    100c0cb6     mp.exp
 0002:0002ccdc       $N00112                    100c0cdc     mp.exp
 0002:0002cd0c       $N00113                    100c0d0c     mp.exp
 0002:0002cd2c       $N00114                    100c0d2c     mp.exp
 0002:0002cd59       $N00115                    100c0d59     mp.exp
 0002:0002cd6f       $N00116                    100c0d6f     mp.exp
 0002:0002cd88       $N00117                    100c0d88     mp.exp
 0002:0002cda3       $N00118                    100c0da3     mp.exp
 0002:0002cdbe       $N00119                    100c0dbe     mp.exp
 0002:0002cdd9       $N00120                    100c0dd9     mp.exp
 0002:0002cdf6       $N00121                    100c0df6     mp.exp
 0002:0002ce0e       $N00122                    100c0e0e     mp.exp
 0002:0002ce4a       $N00123                    100c0e4a     mp.exp
 0002:0002ce85       $N00124                    100c0e85     mp.exp
 0002:0002cea3       $N00125                    100c0ea3     mp.exp
 0002:0002cec2       $N00126                    100c0ec2     mp.exp
 0002:0002cee2       $N00127                    100c0ee2     mp.exp
 0002:0002cf00       $N00128                    100c0f00     mp.exp
 0002:0002cf1a       $N00129                    100c0f1a     mp.exp
 0002:0002cf36       $N00130                    100c0f36     mp.exp
 0002:0002cf63       $N00131                    100c0f63     mp.exp
 0002:0002cf7b       $N00132                    100c0f7b     mp.exp
 0002:0002cf97       $N00133                    100c0f97     mp.exp
 0002:0002cfb7       $N00134                    100c0fb7     mp.exp
 0002:0002cff3       $N00135                    100c0ff3     mp.exp
 0002:0002d00c       $N00136                    100c100c     mp.exp
 0002:0002d027       $N00137                    100c1027     mp.exp
 0002:0002d043       $N00138                    100c1043     mp.exp
 0002:0002d06f       $N00139                    100c106f     mp.exp
 0002:0002d0a3       $N00140                    100c10a3     mp.exp
 0002:0002d0c2       $N00141                    100c10c2     mp.exp
 0002:0002d103       $N00142                    100c1103     mp.exp
 0002:0002d141       $N00143                    100c1141     mp.exp
 0002:0002d17d       $N00144                    100c117d     mp.exp
 0002:0002d1b7       $N00145                    100c11b7     mp.exp
 0002:0002d1df       $N00146                    100c11df     mp.exp
 0002:0002d216       $N00147                    100c1216     mp.exp
 0002:0002d23a       $N00148                    100c123a     mp.exp
 0002:0002d275       $N00149                    100c1275     mp.exp
 0002:0002d2a1       $N00150                    100c12a1     mp.exp
 0002:0002d2bf       $N00151                    100c12bf     mp.exp
 0002:0002d302       $N00152                    100c1302     mp.exp
 0002:0002d33b       $N00153                    100c133b     mp.exp
 0002:0002d354       $N00154                    100c1354     mp.exp
 0002:0002d36d       $N00155                    100c136d     mp.exp
 0002:0002d388       $N00156                    100c1388     mp.exp
 0002:0002d399       $N00157                    100c1399     mp.exp
 0002:0002d3a4       $N00158                    100c13a4     mp.exp
 0002:0002d3af       $N00159                    100c13af     mp.exp
 0002:0002d3bc       $N00160                    100c13bc     mp.exp
 0002:0002d3cf       $N00161                    100c13cf     mp.exp
 0002:0002d3eb       $N00162                    100c13eb     mp.exp
 0002:0002d3fb       $N00163                    100c13fb     mp.exp
 0002:0002d40a       $N00164                    100c140a     mp.exp
 0002:0002d416       $N00165                    100c1416     mp.exp
 0002:0002d421       $N00166                    100c1421     mp.exp
 0002:0002d42b       $N00167                    100c142b     mp.exp
 0002:0002d438       $N00168                    100c1438     mp.exp
 0002:0002d448       $N00169                    100c1448     mp.exp
 0002:0002d452       $N00170                    100c1452     mp.exp
 0002:0002d45f       $N00171                    100c145f     mp.exp
 0002:0002d468       $N00172                    100c1468     mp.exp
 0002:0002d476       $N00173                    100c1476     mp.exp
 0002:0002d485       $N00174                    100c1485     mp.exp
 0002:0002d48a       $N00175                    100c148a     mp.exp
 0002:0002d492       $N00176                    100c1492     mp.exp
 0002:0002d4a0       $N00177                    100c14a0     mp.exp
 0002:0002d4a7       $N00178                    100c14a7     mp.exp
 0002:0002d4b6       $N00179                    100c14b6     mp.exp
 0002:0002d4c4       $N00180                    100c14c4     mp.exp
 0002:0002d4d2       $N00181                    100c14d2     mp.exp
 0002:0002d4e2       $N00182                    100c14e2     mp.exp
 0002:0002d4eb       $N00183                    100c14eb     mp.exp
 0002:0002d4f8       $N00184                    100c14f8     mp.exp
 0002:0002d502       $N00185                    100c1502     mp.exp
 0002:0002d50f       $N00186                    100c150f     mp.exp
 0002:0002d51b       $N00187                    100c151b     mp.exp
 0002:0002d526       $N00188                    100c1526     mp.exp
 0002:0002d534       $N00189                    100c1534     mp.exp
 0002:0002d53d       $N00190                    100c153d     mp.exp
 0002:0002d545       $N00191                    100c1545     mp.exp
 0002:0002d550       $N00192                    100c1550     mp.exp
 0002:0002d55b       $N00193                    100c155b     mp.exp
 0002:0002d564       $N00194                    100c1564     mp.exp
 0002:0002d56e       $N00195                    100c156e     mp.exp
 0002:0002d57c       $N00196                    100c157c     mp.exp
 0002:0002d588       $N00197                    100c1588     mp.exp
 0002:0002d591       $N00198                    100c1591     mp.exp
 0002:0002d59c       $N00199                    100c159c     mp.exp
 0002:0002d5a6       $N00200                    100c15a6     mp.exp
 0002:0002d5b2       $N00201                    100c15b2     mp.exp
 0002:0002d5bb       $N00202                    100c15bb     mp.exp
 0002:0002d5c5       $N00203                    100c15c5     mp.exp
 0002:0002d5cf       $N00204                    100c15cf     mp.exp
 0002:0002d5da       $N00205                    100c15da     mp.exp
 0002:0002d5e5       $N00206                    100c15e5     mp.exp
 0002:0002d5f6       $N00207                    100c15f6     mp.exp
 0002:0002d605       $N00208                    100c1605     mp.exp
 0002:0002d611       $N00209                    100c1611     mp.exp
 0002:0002d61e       $N00210                    100c161e     mp.exp
 0002:0002d62c       $N00211                    100c162c     mp.exp
 0002:0002d636       $N00212                    100c1636     mp.exp
 0002:0002d649       $N00213                    100c1649     mp.exp
 0002:0002d659       $N00214                    100c1659     mp.exp
 0002:0002d667       $N00215                    100c1667     mp.exp
 0002:0002d676       $N00216                    100c1676     mp.exp
 0002:0002d685       $N00217                    100c1685     mp.exp
 0002:0002d698       $N00218                    100c1698     mp.exp
 0002:0002d6ac       $N00219                    100c16ac     mp.exp
 0002:0002d6bd       $N00220                    100c16bd     mp.exp
 0002:0002d6c9       $N00221                    100c16c9     mp.exp
 0002:0002d6da       $N00222                    100c16da     mp.exp
 0002:0002d6ec       $N00223                    100c16ec     mp.exp
 0002:0002d6fa       $N00224                    100c16fa     mp.exp
 0002:0002d704       $N00225                    100c1704     mp.exp
 0002:0002d711       $N00226                    100c1711     mp.exp
 0002:0002d71f       $N00227                    100c171f     mp.exp
 0002:0002d729       $N00228                    100c1729     mp.exp
 0002:0002d737       $N00229                    100c1737     mp.exp
 0002:0002d747       $N00230                    100c1747     mp.exp
 0002:0002d755       $N00231                    100c1755     mp.exp
 0002:0002d75f       $N00232                    100c175f     mp.exp
 0002:0002d769       $N00233                    100c1769     mp.exp
 0002:0002d77b       $N00234                    100c177b     mp.exp
 0002:0002d78a       $N00235                    100c178a     mp.exp
 0002:0002d79a       $N00236                    100c179a     mp.exp
 0002:0002d7aa       $N00237                    100c17aa     mp.exp
 0002:0002d7bf       $N00238                    100c17bf     mp.exp
 0002:0002d7d0       $N00239                    100c17d0     mp.exp
 0002:0002d7e0       $N00240                    100c17e0     mp.exp
 0002:0002d7eb       $N00241                    100c17eb     mp.exp
 0002:0002d7fe       $N00242                    100c17fe     mp.exp
 0002:0002d80b       $N00243                    100c180b     mp.exp
 0002:0002d820       $N00244                    100c1820     mp.exp
 0002:0002d834       $N00245                    100c1834     mp.exp
 0002:0002d83e       $N00246                    100c183e     mp.exp
 0002:0002d84f       $N00247                    100c184f     mp.exp
 0002:0002d85a       $N00248                    100c185a     mp.exp
 0002:0002d86b       $N00249                    100c186b     mp.exp
 0002:0002d879       $N00250                    100c1879     mp.exp
 0002:0002d886       $N00251                    100c1886     mp.exp
 0002:0002d897       $N00252                    100c1897     mp.exp
 0002:0002d8a0       $N00253                    100c18a0     mp.exp
 0002:0002d8b2       $N00254                    100c18b2     mp.exp
 0002:0002d8c3       $N00255                    100c18c3     mp.exp
 0002:0002d8d4       $N00256                    100c18d4     mp.exp
 0002:0002d8df       $N00257                    100c18df     mp.exp
 0002:0002d8f0       $N00258                    100c18f0     mp.exp
 0002:0002d8fe       $N00259                    100c18fe     mp.exp
 0002:0002d908       $N00260                    100c1908     mp.exp
 0002:0002d919       $N00261                    100c1919     mp.exp
 0002:0002d924       $N00262                    100c1924     mp.exp
 0002:0002d92c       $N00263                    100c192c     mp.exp
 0002:0002d93b       $N00264                    100c193b     mp.exp
 0002:0002d94c       $N00265                    100c194c     mp.exp
 0002:0002d960       $N00266                    100c1960     mp.exp
 0002:0002d972       $N00267                    100c1972     mp.exp
 0002:0002d980       $N00268                    100c1980     mp.exp
 0002:0002d994       $N00269                    100c1994     mp.exp
 0002:0002d99e       $N00270                    100c199e     mp.exp
 0002:0002d9b5       $N00271                    100c19b5     mp.exp
 0002:0002d9c7       $N00272                    100c19c7     mp.exp
 0002:0002d9d3       $N00273                    100c19d3     mp.exp
 0002:0002d9ed       $N00274                    100c19ed     mp.exp
 0002:0002d9fc       $N00275                    100c19fc     mp.exp
 0002:0002da06       $N00276                    100c1a06     mp.exp
 0002:0002da13       $N00277                    100c1a13     mp.exp
 0002:0002da21       $N00278                    100c1a21     mp.exp
 0002:0002da32       $N00279                    100c1a32     mp.exp
 0002:0002da3f       $N00280                    100c1a3f     mp.exp
 0002:0002da4e       $N00281                    100c1a4e     mp.exp
 0002:0002da5a       $N00282                    100c1a5a     mp.exp
 0002:0002da68       $N00283                    100c1a68     mp.exp
 0002:0002da76       $N00284                    100c1a76     mp.exp
 0002:0002da83       $N00285                    100c1a83     mp.exp
 0002:0002da8d       $N00286                    100c1a8d     mp.exp
 0002:0002da9c       $N00287                    100c1a9c     mp.exp
 0002:0002daa2       $N00288                    100c1aa2     mp.exp
 0002:0002dab4       $N00289                    100c1ab4     mp.exp
 0002:0002dabf       $N00290                    100c1abf     mp.exp
 0002:0002dace       $N00291                    100c1ace     mp.exp
 0002:0002dae3       $N00292                    100c1ae3     mp.exp
 0002:0002daf8       $N00293                    100c1af8     mp.exp
 0002:0002db07       $N00294                    100c1b07     mp.exp
 0002:0002db19       $N00295                    100c1b19     mp.exp
 0002:0002db27       $N00296                    100c1b27     mp.exp
 0002:0002db33       $N00297                    100c1b33     mp.exp
 0002:0002db3f       $N00298                    100c1b3f     mp.exp
 0002:0002db4a       $N00299                    100c1b4a     mp.exp
 0002:0002db51       $N00300                    100c1b51     mp.exp
 0002:0002db62       $N00301                    100c1b62     mp.exp
 0002:0002db75       $N00302                    100c1b75     mp.exp
 0002:0002db7e       $N00303                    100c1b7e     mp.exp
 0002:0002db8b       $N00304                    100c1b8b     mp.exp
 0002:0002db93       $N00305                    100c1b93     mp.exp
 0002:0002dba2       $N00306                    100c1ba2     mp.exp
 0002:0002dbae       $N00307                    100c1bae     mp.exp
 0002:0002dbb6       $N00308                    100c1bb6     mp.exp
 0002:0002dbc3       $N00309                    100c1bc3     mp.exp
 0002:0002dbd4       $N00310                    100c1bd4     mp.exp
 0002:0002dbe3       $N00311                    100c1be3     mp.exp
 0002:0002dbf3       $N00312                    100c1bf3     mp.exp
 0002:0002dc07       $N00313                    100c1c07     mp.exp
 0002:0002dc1c       $N00314                    100c1c1c     mp.exp
 0002:0002dc2c       $N00315                    100c1c2c     mp.exp
 0002:0002dc3f       $N00316                    100c1c3f     mp.exp
 0002:0002dc4f       $N00317                    100c1c4f     mp.exp
 0002:0002dc5c       $N00318                    100c1c5c     mp.exp
 0002:0002dc70       $N00319                    100c1c70     mp.exp
 0002:0002dc81       $N00320                    100c1c81     mp.exp
 0002:0002dc8e       $N00321                    100c1c8e     mp.exp
 0002:0002dc9b       $N00322                    100c1c9b     mp.exp
 0002:0002dca9       $N00323                    100c1ca9     mp.exp
 0002:0002dcba       $N00324                    100c1cba     mp.exp
 0002:0002dccd       $N00325                    100c1ccd     mp.exp
 0002:0002dcd9       $N00326                    100c1cd9     mp.exp
 0002:0002dce4       $N00327                    100c1ce4     mp.exp
 0002:0002dcef       $N00328                    100c1cef     mp.exp
 0002:0002dcf9       $N00329                    100c1cf9     mp.exp
 0002:0002dd07       $N00330                    100c1d07     mp.exp
 0002:0002dd14       $N00331                    100c1d14     mp.exp
 0002:0002dd21       $N00332                    100c1d21     mp.exp
 0002:0002dd32       $N00333                    100c1d32     mp.exp
 0002:0002dd43       $N00334                    100c1d43     mp.exp
 0002:0002dd50       $N00335                    100c1d50     mp.exp
 0002:0002dd5d       $N00336                    100c1d5d     mp.exp
 0002:0002dd6c       $N00337                    100c1d6c     mp.exp
 0002:0002dd7d       $N00338                    100c1d7d     mp.exp
 0002:0002dd8a       $N00339                    100c1d8a     mp.exp
 0002:0002dd96       $N00340                    100c1d96     mp.exp
 0002:0002dda0       $N00341                    100c1da0     mp.exp
 0002:0002ddac       $N00342                    100c1dac     mp.exp
 0002:0002ddb9       $N00343                    100c1db9     mp.exp
 0002:0002ddc8       $N00344                    100c1dc8     mp.exp
 0002:0002ddd4       $N00345                    100c1dd4     mp.exp
 0002:0002dddf       $N00346                    100c1ddf     mp.exp
 0002:0002ddec       $N00347                    100c1dec     mp.exp
 0002:0002ddf9       $N00348                    100c1df9     mp.exp
 0002:0002de06       $N00349                    100c1e06     mp.exp
 0002:0002de14       $N00350                    100c1e14     mp.exp
 0002:0002de28       $N00351                    100c1e28     mp.exp
 0002:0002de33       $N00352                    100c1e33     mp.exp
 0002:0002de40       $N00353                    100c1e40     mp.exp
 0002:0002de4b       $N00354                    100c1e4b     mp.exp
 0002:0002de59       $N00355                    100c1e59     mp.exp
 0002:0002de63       $N00356                    100c1e63     mp.exp
 0002:0002de6f       $N00357                    100c1e6f     mp.exp
 0002:0002e000       .idata$6                   100c2000     kernel32:KERNEL32.dll
 0003:00000028       _PM_boxpnt                 100c3028     pm_debug.obj
 0003:00000090       ?current_table@?4??PM_CheckWater@@9@9 100c3090     pm_shared.obj
 0003:000006e8       ?gFunctionTable@@3UDLL_FUNCTIONS@@A 100c36e8     cbase.obj
 0003:000007b0       ?gNewDLLFunctions@@3UNEW_DLL_FUNCTIONS@@A 100c37b0     cbase.obj
 0003:000007f8       ?entity_field_alias@@3PAUentity_field_alias_t@@A 100c37f8     client.obj
 0003:000008d0       ?player_field_alias@@3PAUentity_field_alias_t@@A 100c38d0     client.obj
 0003:00001020       ?gTankSpread@@3PAVVector@@A 100c4020     func_tank.obj
 0003:00002960       ?iEnemy@?1??IRelationship@CBaseMonster@@UAEHPAVCBaseEntity@@@Z@4PAY0O@HA 100c5960     mpstubb.obj
 0003:00002cd8       ?first@?1??GetCurTime@CPerformanceCounter@@QAEMXZ@4HA 100c5cd8     perf_counter.obj
 0003:00005340       ?gSizes@@3PAHA             100c8340     util.obj
 0003:000056c0       ?estates@?1??DumpGlobals@CGlobalState@@QAEXXZ@4PAPADA 100c86c0     world.obj
 0003:00005700       ?__vcrt_flsindex@@3KA      100c8700     libvcruntime:per_thread_data.obj
 0003:00005724       _errno_no_memory           100c8724     libucrt:errno.obj
 0003:00005728       _doserrno_no_memory        100c8728     libucrt:errno.obj
 0003:0000572c       ___acrt_flsindex           100c872c     libucrt:per_thread_data.obj
 0003:000058a0       ___rgctypeflag             100c88a0     libucrt:mbctype.obj
 0003:000058a8       ___rgcode_page_info        100c88a8     libucrt:mbctype.obj
 0003:000076f0       _pm_shared_initialized     100ca6f0     pm_shared.obj
 0003:000076f4       _gcTextures                100ca6f4     pm_shared.obj
 0003:000076f8       _rgv3tStuckTable           100ca6f8     pm_shared.obj
 0003:00007980       _rgStuckLast               100ca980     pm_shared.obj
 0003:00007a80       _grgszTextureName          100caa80     pm_shared.obj
 0003:0000be80       _grgchTextureType          100cee80     pm_shared.obj
 0003:0000c280       ?bTextureTypeInit@?1??PM_InitTextureTypes@@9@9 100cf280     pm_shared.obj
 0003:0000c284       ?iSkipStep@?1??PM_PlayStepSound@@9@9 100cf284     pm_shared.obj
 0003:0000c288       ?rgStuckCheckTime@?1??PM_CheckStuck@@9@9 100cf288     pm_shared.obj
 0003:0000c3a8       ?pos@?1??SV_StudioSetupBones@@YAXPAUmodel_s@@MHQBM1PBE2HPBUedict_s@@@Z@4PAY02MA 100cf3a8     animation.obj
 0003:0000c9a8       ?pos2@?1??SV_StudioSetupBones@@YAXPAUmodel_s@@MHQBM1PBE2HPBUedict_s@@@Z@4PAY02MA 100cf9a8     animation.obj
 0003:0000cfa8       ?pos3@?1??SV_StudioSetupBones@@YAXPAUmodel_s@@MHQBM1PBE2HPBUedict_s@@@Z@4PAY02MA 100cffa8     animation.obj
 0003:0000d5a8       ?pos4@?1??SV_StudioSetupBones@@YAXPAUmodel_s@@MHQBM1PBE2HPBUedict_s@@@Z@4PAY02MA 100d05a8     animation.obj
 0003:0000dba8       ?q@?1??SV_StudioSetupBones@@YAXPAUmodel_s@@MHQBM1PBE2HPBUedict_s@@@Z@4PAY03MA 100d0ba8     animation.obj
 0003:0000e3a8       ?q2@?1??SV_StudioSetupBones@@YAXPAUmodel_s@@MHQBM1PBE2HPBUedict_s@@@Z@4PAY03MA 100d13a8     animation.obj
 0003:0000eba8       ?q3@?1??SV_StudioSetupBones@@YAXPAUmodel_s@@MHQBM1PBE2HPBUedict_s@@@Z@4PAY03MA 100d1ba8     animation.obj
 0003:0000f3a8       ?q4@?1??SV_StudioSetupBones@@YAXPAUmodel_s@@MHQBM1PBE2HPBUedict_s@@@Z@4PAY03MA 100d23a8     animation.obj
 0003:0000fc20       ?szStr@?1??CONSOLE_ECHO@@YAXPADZZ@4PADA 100d2c20     cbase.obj
 0003:0003bf34       ?g_serveractive@@3HA       100fef34     client.obj
 0003:0003bf38       ?sName@?1??ClientPutInServer@@YAXPAUedict_s@@@Z@4PADA 100fef38     client.obj
 0003:0003bfb8       ?skill@?1??StartFrame@@YAXXZ@4PAUcvar_s@@A 100fefb8     client.obj
 0003:0003bfbc       ?initialized@?1??Entity_Encode@@YAXPAUdelta_s@@PBE1@Z@4HA 100fefbc     client.obj
 0003:0003bfc0       ?initialized@?1??Player_Encode@@YAXPAUdelta_s@@PBE1@Z@4HA 100fefc0     client.obj
 0003:0003bfc4       ?initialized@?1??Custom_Encode@@YAXPAUdelta_s@@PBE1@Z@4HA 100fefc4     client.obj
 0003:0003bfc8       ?tracerCount@?1??FireBullets@CBaseEntity@@QAEXKVVector@@00MHHHPAUentvars_s@@@Z@4HA 100fefc8     combat.obj
 0003:0003c17c       ?sv_stepsize@?1??Think@CLocalNav@@SAXXZ@4PAUcvar_s@@A 100ff17c     hostage_localnav.obj
 0003:0003c420       ?i@?4??Hooked_PrecacheSound@@YAHPAD@Z@4HA 100ff420     h_export.obj
 0003:0003c428       ?string@?1??va@@YAPADPADZZ@4PADA 100ff428     h_export.obj
 0003:0003c848       ?mp_com_token@@3PADA       100ff848     multiplay_gamerules.obj
 0003:0003ce24       ?installedCommands@?1???0CHalfLifeMultiplay@@QAE@XZ@4_NA 100ffe24     multiplay_gamerules.obj
 0003:0003ce28       ?mp_flashlight@?1??FAllowFlashlight@CHalfLifeMultiplay@@UAEHXZ@4PAUcvar_s@@A 100ffe28     multiplay_gamerules.obj
 0003:0003ce2c       ?mapcycle@?1??GetMapCount@@YAHXZ@4Umapcycle_s@@A 100ffe2c     multiplay_gamerules.obj
 0003:0003ce34       ?mapcycle@?1??DisplayMaps@CHalfLifeMultiplay@@QAEXPAVCBasePlayer@@H@Z@4Umapcycle_s@@A 100ffe34     multiplay_gamerules.obj
 0003:0003ce40       ?szPreviousMapCycleFile@?1??ChangeLevel@CHalfLifeMultiplay@@UAEXXZ@4PADA 100ffe40     multiplay_gamerules.obj
 0003:0003cf40       ?mapcycle@?1??ChangeLevel@CHalfLifeMultiplay@@UAEXXZ@4Umapcycle_s@@A 100fff40     multiplay_gamerules.obj
 0003:0003cf48       ?sametimecount@?1??GetCurTime@CPerformanceCounter@@QAEMXZ@4HA 100fff48     perf_counter.obj
 0003:0003cf4c       ?oldtime@?1??GetCurTime@CPerformanceCounter@@QAEMXZ@4IA 100fff4c     perf_counter.obj
 0003:0003d2c0       ?string@?1??NumAsString@@YAPADH@Z@4PAY0BA@DA 101002c0     player.obj
 0003:0003d300       ?curstring@?1??NumAsString@@YAPADH@Z@4HA 10100300     player.obj
 0003:0004a514       ?pGoal@?4??SpectatorImpulseCommand@CBaseSpectator@@AAEXXZ@4PAUedict_s@@A 1010d514     spectator.obj
 0003:0004a518       ?st_szNextMap@@3PADA       1010d518     triggers.obj
 0003:0004a538       ?st_szNextSpot@@3PADA      1010d538     triggers.obj
 0003:0004a560       ?glSeed@@3IA               1010d560     util.obj
 0003:0004a564       ?buf@?1??UTIL_dtos1@@YAPADH@Z@4PADA 1010d564     util.obj
 0003:0004a56c       ?buf@?1??UTIL_dtos2@@YAPADH@Z@4PADA 1010d56c     util.obj
 0003:0004a578       ?string@?1??UTIL_VarArgs@@YAPADPADZZ@4PADA 1010d578     util.obj
 0003:0004a978       ?string@?1??UTIL_LogPrintf@@YAXPADZZ@4PADA 1010d978     util.obj
 0003:0004b460       ?module_local_atexit_table@@3U_onexit_table_t@@A 1010e460     LIBCMT:utility.obj
 0003:0004b46c       ?module_local_at_quick_exit_table@@3U_onexit_table_t@@A 1010e46c     LIBCMT:utility.obj
 0003:0004b478       ?module_local_atexit_table_initialized@@3_NA 1010e478     LIBCMT:utility.obj
 0003:0004b479       ?is_initialized_as_dll@@3_NA 1010e479     LIBCMT:utility.obj
 0003:0004b47c       ?__proc_attached@@3HA      1010e47c     LIBCMT:dll_dllmain.obj
 0003:0004b498       _GS_ExceptionRecord        1010e498     LIBCMT:gs_report.obj
 0003:0004b4e8       _GS_ContextRecord          1010e4e8     LIBCMT:gs_report.obj
 0003:0004b7b4       ?__vcrt_startup_thread_ptd@@3U__vcrt_ptd@@A 1010e7b4     libvcruntime:per_thread_data.obj
 0003:0004b7e0       ___vcrt_lock_table         1010e7e0     libvcruntime:locks.obj
 0003:0004b7f8       ___vcrt_locks_initialized  1010e7f8     libvcruntime:locks.obj
 0003:0004b7fc       ?module_handles@@3PAPAUHINSTANCE__@@A 1010e7fc     libvcruntime:winapi_downlevel.obj
 0003:0004b808       ?encoded_function_pointers@@3PAPAXA 1010e808     libvcruntime:winapi_downlevel.obj
 0003:0004b844       ?heap@@3V_HeapManager@@A   1010e844     libvcruntime:undname.obj
 0003:0004b85c       _c_termination_complete    1010e85c     libucrt:exit.obj
 0003:0004b860       _thread_local_exit_callback_func 1010e860     libucrt:exit.obj
 0003:0004b864       ?c_exit_complete@?5??common_exit@@YAXHW4_crt_exit_cleanup_mode@@W4_crt_exit_return_mode@@@Z@4_NA 1010e864     libucrt:exit.obj
 0003:0004b868       ?program_name@?5???$common_configure_argv@D@@YAHW4_crt_argv_mode@@@Z@4PADA 1010e868     libucrt:argv_parsing.obj
 0003:0004b998       ___acrt_new_handler        1010e998     libucrt:new_handler.obj
 0003:0004b99c       ___acrt_invalid_parameter_handler 1010e99c     libucrt:invalid_parameter.obj
 0003:0004b9a8       _enable_percent_n          1010e9a8     libucrt:printf_count_output.obj
 0003:0004bbc4       __pmatherr_set             1010ebc4     libucrt:libm_error.obj
 0003:0004bbc8       ___acrt_lock_table         1010ebc8     libucrt:locks.obj
 0003:0004bd00       ___acrt_locks_initialized  1010ed00     libucrt:locks.obj
 0003:0004bd08       _module_handles            1010ed08     libucrt:winapi_thunks.obj
 0003:0004bd58       _encoded_function_pointers 1010ed58     libucrt:winapi_thunks.obj
 0003:0004bdd8       ?state_cache@?1??__acrt_is_packaged_app@@9@4JA 1010edd8     libucrt:winapi_thunks.obj
 0003:0004bdf4       _fSystemSet                1010edf4     libucrt:mbctype.obj
 0003:0004bdf8       ?initialized@?1??__acrt_initialize_multibyte@@9@4_NA 1010edf8     libucrt:mbctype.obj
 0003:0004be18       _ctrlc_action              1010ee18     libucrt:signal.obj
 0003:0004be1c       _ctrlbreak_action          1010ee1c     libucrt:signal.obj
 0003:0004be20       _abort_action              1010ee20     libucrt:signal.obj
 0003:0004be24       _term_action               1010ee24     libucrt:signal.obj
 0003:0004be28       _user_matherr              1010ee28     libucrt:matherr.obj
 0003:0004be2c       ___acrt_global_new_mode    1010ee2c     libucrt:new_mode.obj
 0003:0004be3c       ___acrt_app_type           1010ee3c     libucrt:report_runtime_error.obj
 0004:00000060       $R000000                   1010f060     * linker generated manifest res *
